
base1.elf:     file format elf32-avr

Sections:
Idx Name          Size      VMA       LMA       File off  Algn
  0 .text         00006a2e  00000000  00000000  00000094  2**1
                  CONTENTS, ALLOC, LOAD, READONLY, CODE
  1 .data         0000014c  00802000  00006a2e  00006ac2  2**0
                  CONTENTS, ALLOC, LOAD, DATA
  2 .bss          000003e9  0080214c  0080214c  00006c0e  2**0
                  ALLOC
  3 .stab         00000ccc  00000000  00000000  00006c10  2**2
                  CONTENTS, READONLY, DEBUGGING
  4 .stabstr      00000218  00000000  00000000  000078dc  2**0
                  CONTENTS, READONLY, DEBUGGING
  5 .debug_aranges 00000940  00000000  00000000  00007af8  2**3
                  CONTENTS, READONLY, DEBUGGING
  6 .debug_info   0000c29d  00000000  00000000  00008438  2**0
                  CONTENTS, READONLY, DEBUGGING
  7 .debug_abbrev 00002ef8  00000000  00000000  000146d5  2**0
                  CONTENTS, READONLY, DEBUGGING
  8 .debug_line   00007205  00000000  00000000  000175cd  2**0
                  CONTENTS, READONLY, DEBUGGING
  9 .debug_frame  00002018  00000000  00000000  0001e7d4  2**2
                  CONTENTS, READONLY, DEBUGGING
 10 .debug_str    00003b8b  00000000  00000000  000207ec  2**0
                  CONTENTS, READONLY, DEBUGGING
 11 .debug_loc    00006a14  00000000  00000000  00024377  2**0
                  CONTENTS, READONLY, DEBUGGING
 12 .debug_macinfo 0019fffc  00000000  00000000  0002ad8b  2**0
                  CONTENTS, READONLY, DEBUGGING
 13 .debug_ranges 000006c0  00000000  00000000  001cad88  2**3
                  CONTENTS, READONLY, DEBUGGING

Disassembly of section .text:

00000000 <__vectors>:
       0:	f9 c0       	rjmp	.+498    	; 0x1f4 <__ctors_end>
       2:	00 00       	nop
       4:	1c c1       	rjmp	.+568    	; 0x23e <__bad_interrupt>
       6:	00 00       	nop
       8:	0c 94 f3 2f 	jmp	0x5fe6	; 0x5fe6 <__vector_2>
       c:	18 c1       	rjmp	.+560    	; 0x23e <__bad_interrupt>
       e:	00 00       	nop
      10:	16 c1       	rjmp	.+556    	; 0x23e <__bad_interrupt>
      12:	00 00       	nop
      14:	14 c1       	rjmp	.+552    	; 0x23e <__bad_interrupt>
      16:	00 00       	nop
      18:	12 c1       	rjmp	.+548    	; 0x23e <__bad_interrupt>
      1a:	00 00       	nop
      1c:	10 c1       	rjmp	.+544    	; 0x23e <__bad_interrupt>
      1e:	00 00       	nop
      20:	0e c1       	rjmp	.+540    	; 0x23e <__bad_interrupt>
      22:	00 00       	nop
      24:	0c c1       	rjmp	.+536    	; 0x23e <__bad_interrupt>
      26:	00 00       	nop
      28:	0a c1       	rjmp	.+532    	; 0x23e <__bad_interrupt>
      2a:	00 00       	nop
      2c:	08 c1       	rjmp	.+528    	; 0x23e <__bad_interrupt>
      2e:	00 00       	nop
      30:	06 c1       	rjmp	.+524    	; 0x23e <__bad_interrupt>
      32:	00 00       	nop
      34:	04 c1       	rjmp	.+520    	; 0x23e <__bad_interrupt>
      36:	00 00       	nop
      38:	0c 94 96 0c 	jmp	0x192c	; 0x192c <__vector_14>
      3c:	0c 94 cb 0c 	jmp	0x1996	; 0x1996 <__vector_15>
      40:	0c 94 00 0d 	jmp	0x1a00	; 0x1a00 <__vector_16>
      44:	0c 94 35 0d 	jmp	0x1a6a	; 0x1a6a <__vector_17>
      48:	0c 94 6a 0d 	jmp	0x1ad4	; 0x1ad4 <__vector_18>
      4c:	0c 94 9f 0d 	jmp	0x1b3e	; 0x1b3e <__vector_19>
      50:	0c 94 d4 0d 	jmp	0x1ba8	; 0x1ba8 <__vector_20>
      54:	0c 94 09 0e 	jmp	0x1c12	; 0x1c12 <__vector_21>
      58:	0c 94 3e 0e 	jmp	0x1c7c	; 0x1c7c <__vector_22>
      5c:	0c 94 73 0e 	jmp	0x1ce6	; 0x1ce6 <__vector_23>
      60:	ee c0       	rjmp	.+476    	; 0x23e <__bad_interrupt>
      62:	00 00       	nop
      64:	ec c0       	rjmp	.+472    	; 0x23e <__bad_interrupt>
      66:	00 00       	nop
      68:	ea c0       	rjmp	.+468    	; 0x23e <__bad_interrupt>
      6a:	00 00       	nop
      6c:	e8 c0       	rjmp	.+464    	; 0x23e <__bad_interrupt>
      6e:	00 00       	nop
      70:	e6 c0       	rjmp	.+460    	; 0x23e <__bad_interrupt>
      72:	00 00       	nop
      74:	e4 c0       	rjmp	.+456    	; 0x23e <__bad_interrupt>
      76:	00 00       	nop
      78:	e2 c0       	rjmp	.+452    	; 0x23e <__bad_interrupt>
      7a:	00 00       	nop
      7c:	e0 c0       	rjmp	.+448    	; 0x23e <__bad_interrupt>
      7e:	00 00       	nop
      80:	de c0       	rjmp	.+444    	; 0x23e <__bad_interrupt>
      82:	00 00       	nop
      84:	dc c0       	rjmp	.+440    	; 0x23e <__bad_interrupt>
      86:	00 00       	nop
      88:	da c0       	rjmp	.+436    	; 0x23e <__bad_interrupt>
      8a:	00 00       	nop
      8c:	d8 c0       	rjmp	.+432    	; 0x23e <__bad_interrupt>
      8e:	00 00       	nop
      90:	d6 c0       	rjmp	.+428    	; 0x23e <__bad_interrupt>
      92:	00 00       	nop
      94:	d4 c0       	rjmp	.+424    	; 0x23e <__bad_interrupt>
      96:	00 00       	nop
      98:	d2 c0       	rjmp	.+420    	; 0x23e <__bad_interrupt>
      9a:	00 00       	nop
      9c:	d0 c0       	rjmp	.+416    	; 0x23e <__bad_interrupt>
      9e:	00 00       	nop
      a0:	ce c0       	rjmp	.+412    	; 0x23e <__bad_interrupt>
      a2:	00 00       	nop
      a4:	cc c0       	rjmp	.+408    	; 0x23e <__bad_interrupt>
      a6:	00 00       	nop
      a8:	ca c0       	rjmp	.+404    	; 0x23e <__bad_interrupt>
      aa:	00 00       	nop
      ac:	0c 94 01 28 	jmp	0x5002	; 0x5002 <__vector_43>
      b0:	c6 c0       	rjmp	.+396    	; 0x23e <__bad_interrupt>
      b2:	00 00       	nop
      b4:	c4 c0       	rjmp	.+392    	; 0x23e <__bad_interrupt>
      b6:	00 00       	nop
      b8:	c2 c0       	rjmp	.+388    	; 0x23e <__bad_interrupt>
      ba:	00 00       	nop
      bc:	0c 94 85 10 	jmp	0x210a	; 0x210a <__vector_47>
      c0:	0c 94 ba 10 	jmp	0x2174	; 0x2174 <__vector_48>
      c4:	0c 94 ef 10 	jmp	0x21de	; 0x21de <__vector_49>
      c8:	0c 94 24 11 	jmp	0x2248	; 0x2248 <__vector_50>
      cc:	0c 94 59 11 	jmp	0x22b2	; 0x22b2 <__vector_51>
      d0:	0c 94 8e 11 	jmp	0x231c	; 0x231c <__vector_52>
      d4:	0c 94 c3 11 	jmp	0x2386	; 0x2386 <__vector_53>
      d8:	0c 94 f8 11 	jmp	0x23f0	; 0x23f0 <__vector_54>
      dc:	0c 94 2d 12 	jmp	0x245a	; 0x245a <__vector_55>
      e0:	0c 94 62 12 	jmp	0x24c4	; 0x24c4 <__vector_56>
      e4:	ac c0       	rjmp	.+344    	; 0x23e <__bad_interrupt>
      e6:	00 00       	nop
      e8:	aa c0       	rjmp	.+340    	; 0x23e <__bad_interrupt>
      ea:	00 00       	nop
      ec:	a8 c0       	rjmp	.+336    	; 0x23e <__bad_interrupt>
      ee:	00 00       	nop
      f0:	a6 c0       	rjmp	.+332    	; 0x23e <__bad_interrupt>
      f2:	00 00       	nop
      f4:	a4 c0       	rjmp	.+328    	; 0x23e <__bad_interrupt>
      f6:	00 00       	nop
      f8:	a2 c0       	rjmp	.+324    	; 0x23e <__bad_interrupt>
      fa:	00 00       	nop
      fc:	a0 c0       	rjmp	.+320    	; 0x23e <__bad_interrupt>
      fe:	00 00       	nop
     100:	9e c0       	rjmp	.+316    	; 0x23e <__bad_interrupt>
     102:	00 00       	nop
     104:	9c c0       	rjmp	.+312    	; 0x23e <__bad_interrupt>
     106:	00 00       	nop
     108:	9a c0       	rjmp	.+308    	; 0x23e <__bad_interrupt>
     10a:	00 00       	nop
     10c:	98 c0       	rjmp	.+304    	; 0x23e <__bad_interrupt>
     10e:	00 00       	nop
     110:	96 c0       	rjmp	.+300    	; 0x23e <__bad_interrupt>
     112:	00 00       	nop
     114:	94 c0       	rjmp	.+296    	; 0x23e <__bad_interrupt>
     116:	00 00       	nop
     118:	92 c0       	rjmp	.+292    	; 0x23e <__bad_interrupt>
     11a:	00 00       	nop
     11c:	90 c0       	rjmp	.+288    	; 0x23e <__bad_interrupt>
     11e:	00 00       	nop
     120:	8e c0       	rjmp	.+284    	; 0x23e <__bad_interrupt>
     122:	00 00       	nop
     124:	8c c0       	rjmp	.+280    	; 0x23e <__bad_interrupt>
     126:	00 00       	nop
     128:	8a c0       	rjmp	.+276    	; 0x23e <__bad_interrupt>
     12a:	00 00       	nop
     12c:	88 c0       	rjmp	.+272    	; 0x23e <__bad_interrupt>
     12e:	00 00       	nop
     130:	86 c0       	rjmp	.+268    	; 0x23e <__bad_interrupt>
     132:	00 00       	nop
     134:	0c 94 10 2e 	jmp	0x5c20	; 0x5c20 <__vector_77>
     138:	0c 94 a8 0e 	jmp	0x1d50	; 0x1d50 <__vector_78>
     13c:	0c 94 dd 0e 	jmp	0x1dba	; 0x1dba <__vector_79>
     140:	0c 94 12 0f 	jmp	0x1e24	; 0x1e24 <__vector_80>
     144:	0c 94 47 0f 	jmp	0x1e8e	; 0x1e8e <__vector_81>
     148:	0c 94 7c 0f 	jmp	0x1ef8	; 0x1ef8 <__vector_82>
     14c:	0c 94 b1 0f 	jmp	0x1f62	; 0x1f62 <__vector_83>
     150:	0c 94 e6 0f 	jmp	0x1fcc	; 0x1fcc <__vector_84>
     154:	0c 94 1b 10 	jmp	0x2036	; 0x2036 <__vector_85>
     158:	0c 94 50 10 	jmp	0x20a0	; 0x20a0 <__vector_86>
     15c:	70 c0       	rjmp	.+224    	; 0x23e <__bad_interrupt>
     15e:	00 00       	nop
     160:	6e c0       	rjmp	.+220    	; 0x23e <__bad_interrupt>
     162:	00 00       	nop
     164:	6c c0       	rjmp	.+216    	; 0x23e <__bad_interrupt>
     166:	00 00       	nop
     168:	6a c0       	rjmp	.+212    	; 0x23e <__bad_interrupt>
     16a:	00 00       	nop
     16c:	68 c0       	rjmp	.+208    	; 0x23e <__bad_interrupt>
     16e:	00 00       	nop
     170:	66 c0       	rjmp	.+204    	; 0x23e <__bad_interrupt>
     172:	00 00       	nop
     174:	64 c0       	rjmp	.+200    	; 0x23e <__bad_interrupt>
     176:	00 00       	nop
     178:	0c 94 a1 2f 	jmp	0x5f42	; 0x5f42 <__vector_94>
     17c:	0c 94 1c 30 	jmp	0x6038	; 0x6038 <__vector_95>
     180:	0c 94 ca 2f 	jmp	0x5f94	; 0x5f94 <__vector_96>
     184:	0c 94 45 30 	jmp	0x608a	; 0x608a <__vector_97>
     188:	5a c0       	rjmp	.+180    	; 0x23e <__bad_interrupt>
     18a:	00 00       	nop
     18c:	58 c0       	rjmp	.+176    	; 0x23e <__bad_interrupt>
     18e:	00 00       	nop
     190:	0c 94 61 30 	jmp	0x60c2	; 0x60c2 <__vector_100>
     194:	54 c0       	rjmp	.+168    	; 0x23e <__bad_interrupt>
     196:	00 00       	nop
     198:	52 c0       	rjmp	.+164    	; 0x23e <__bad_interrupt>
     19a:	00 00       	nop
     19c:	50 c0       	rjmp	.+160    	; 0x23e <__bad_interrupt>
     19e:	00 00       	nop
     1a0:	0c 94 93 2f 	jmp	0x5f26	; 0x5f26 <__vector_104>
     1a4:	4c c0       	rjmp	.+152    	; 0x23e <__bad_interrupt>
     1a6:	00 00       	nop
     1a8:	4a c0       	rjmp	.+148    	; 0x23e <__bad_interrupt>
     1aa:	00 00       	nop
     1ac:	48 c0       	rjmp	.+144    	; 0x23e <__bad_interrupt>
     1ae:	00 00       	nop
     1b0:	0c 94 97 12 	jmp	0x252e	; 0x252e <__vector_108>
     1b4:	0c 94 cc 12 	jmp	0x2598	; 0x2598 <__vector_109>
     1b8:	0c 94 01 13 	jmp	0x2602	; 0x2602 <__vector_110>
     1bc:	0c 94 36 13 	jmp	0x266c	; 0x266c <__vector_111>
     1c0:	0c 94 6b 13 	jmp	0x26d6	; 0x26d6 <__vector_112>
     1c4:	0c 94 a0 13 	jmp	0x2740	; 0x2740 <__vector_113>
     1c8:	0c 94 d5 13 	jmp	0x27aa	; 0x27aa <__vector_114>
     1cc:	0c 94 0a 14 	jmp	0x2814	; 0x2814 <__vector_115>
     1d0:	0c 94 3f 14 	jmp	0x287e	; 0x287e <__vector_116>
     1d4:	0c 94 74 14 	jmp	0x28e8	; 0x28e8 <__vector_117>
     1d8:	32 c0       	rjmp	.+100    	; 0x23e <__bad_interrupt>
     1da:	00 00       	nop
     1dc:	0c 94 6f 30 	jmp	0x60de	; 0x60de <__vector_119>
     1e0:	2e c0       	rjmp	.+92     	; 0x23e <__bad_interrupt>
     1e2:	00 00       	nop
     1e4:	2c c0       	rjmp	.+88     	; 0x23e <__bad_interrupt>
     1e6:	00 00       	nop
     1e8:	2a c0       	rjmp	.+84     	; 0x23e <__bad_interrupt>
     1ea:	00 00       	nop
     1ec:	28 c0       	rjmp	.+80     	; 0x23e <__bad_interrupt>
     1ee:	00 00       	nop
     1f0:	26 c0       	rjmp	.+76     	; 0x23e <__bad_interrupt>
	...

000001f4 <__ctors_end>:
     1f4:	11 24       	eor	r1, r1
     1f6:	1f be       	out	0x3f, r1	; 63
     1f8:	cf ef       	ldi	r28, 0xFF	; 255
     1fa:	df e3       	ldi	r29, 0x3F	; 63
     1fc:	de bf       	out	0x3e, r29	; 62
     1fe:	cd bf       	out	0x3d, r28	; 61
     200:	00 e0       	ldi	r16, 0x00	; 0
     202:	0c bf       	out	0x3c, r16	; 60
     204:	18 be       	out	0x38, r1	; 56
     206:	19 be       	out	0x39, r1	; 57
     208:	1a be       	out	0x3a, r1	; 58
     20a:	1b be       	out	0x3b, r1	; 59

0000020c <__do_copy_data>:
     20c:	11 e2       	ldi	r17, 0x21	; 33
     20e:	a0 e0       	ldi	r26, 0x00	; 0
     210:	b0 e2       	ldi	r27, 0x20	; 32
     212:	ee e2       	ldi	r30, 0x2E	; 46
     214:	fa e6       	ldi	r31, 0x6A	; 106
     216:	00 e0       	ldi	r16, 0x00	; 0
     218:	0b bf       	out	0x3b, r16	; 59
     21a:	02 c0       	rjmp	.+4      	; 0x220 <__do_copy_data+0x14>
     21c:	07 90       	elpm	r0, Z+
     21e:	0d 92       	st	X+, r0
     220:	ac 34       	cpi	r26, 0x4C	; 76
     222:	b1 07       	cpc	r27, r17
     224:	d9 f7       	brne	.-10     	; 0x21c <__do_copy_data+0x10>

00000226 <__do_clear_bss>:
     226:	15 e2       	ldi	r17, 0x25	; 37
     228:	ac e4       	ldi	r26, 0x4C	; 76
     22a:	b1 e2       	ldi	r27, 0x21	; 33
     22c:	01 c0       	rjmp	.+2      	; 0x230 <.do_clear_bss_start>

0000022e <.do_clear_bss_loop>:
     22e:	1d 92       	st	X+, r1

00000230 <.do_clear_bss_start>:
     230:	a5 33       	cpi	r26, 0x35	; 53
     232:	b1 07       	cpc	r27, r17
     234:	e1 f7       	brne	.-8      	; 0x22e <.do_clear_bss_loop>
     236:	0e 94 a3 17 	call	0x2f46	; 0x2f46 <main>
     23a:	0c 94 15 35 	jmp	0x6a2a	; 0x6a2a <_exit>

0000023e <__bad_interrupt>:
     23e:	e0 ce       	rjmp	.-576    	; 0x0 <__vectors>

00000240 <_fpadd_parts>:
     240:	a0 e0       	ldi	r26, 0x00	; 0
     242:	b0 e0       	ldi	r27, 0x00	; 0
     244:	e6 e2       	ldi	r30, 0x26	; 38
     246:	f1 e0       	ldi	r31, 0x01	; 1
     248:	0c 94 2a 32 	jmp	0x6454	; 0x6454 <__prologue_saves__+0x4>
     24c:	ec 01       	movw	r28, r24
     24e:	4b 01       	movw	r8, r22
     250:	fa 01       	movw	r30, r20
     252:	88 81       	ld	r24, Y
     254:	82 30       	cpi	r24, 0x02	; 2
     256:	08 f4       	brcc	.+2      	; 0x25a <_fpadd_parts+0x1a>
     258:	3e c1       	rjmp	.+636    	; 0x4d6 <_fpadd_parts+0x296>
     25a:	db 01       	movw	r26, r22
     25c:	9c 91       	ld	r25, X
     25e:	92 30       	cpi	r25, 0x02	; 2
     260:	08 f4       	brcc	.+2      	; 0x264 <_fpadd_parts+0x24>
     262:	36 c1       	rjmp	.+620    	; 0x4d0 <_fpadd_parts+0x290>
     264:	84 30       	cpi	r24, 0x04	; 4
     266:	59 f4       	brne	.+22     	; 0x27e <_fpadd_parts+0x3e>
     268:	94 30       	cpi	r25, 0x04	; 4
     26a:	09 f0       	breq	.+2      	; 0x26e <_fpadd_parts+0x2e>
     26c:	34 c1       	rjmp	.+616    	; 0x4d6 <_fpadd_parts+0x296>
     26e:	99 81       	ldd	r25, Y+1	; 0x01
     270:	11 96       	adiw	r26, 0x01	; 1
     272:	8c 91       	ld	r24, X
     274:	11 97       	sbiw	r26, 0x01	; 1
     276:	98 17       	cp	r25, r24
     278:	09 f0       	breq	.+2      	; 0x27c <_fpadd_parts+0x3c>
     27a:	27 c1       	rjmp	.+590    	; 0x4ca <_fpadd_parts+0x28a>
     27c:	2c c1       	rjmp	.+600    	; 0x4d6 <_fpadd_parts+0x296>
     27e:	94 30       	cpi	r25, 0x04	; 4
     280:	09 f4       	brne	.+2      	; 0x284 <_fpadd_parts+0x44>
     282:	26 c1       	rjmp	.+588    	; 0x4d0 <_fpadd_parts+0x290>
     284:	92 30       	cpi	r25, 0x02	; 2
     286:	a9 f4       	brne	.+42     	; 0x2b2 <_fpadd_parts+0x72>
     288:	82 30       	cpi	r24, 0x02	; 2
     28a:	09 f0       	breq	.+2      	; 0x28e <_fpadd_parts+0x4e>
     28c:	24 c1       	rjmp	.+584    	; 0x4d6 <_fpadd_parts+0x296>
     28e:	ce 01       	movw	r24, r28
     290:	28 e0       	ldi	r18, 0x08	; 8
     292:	dc 01       	movw	r26, r24
     294:	0d 90       	ld	r0, X+
     296:	cd 01       	movw	r24, r26
     298:	da 01       	movw	r26, r20
     29a:	0d 92       	st	X+, r0
     29c:	ad 01       	movw	r20, r26
     29e:	21 50       	subi	r18, 0x01	; 1
     2a0:	c1 f7       	brne	.-16     	; 0x292 <_fpadd_parts+0x52>
     2a2:	d4 01       	movw	r26, r8
     2a4:	11 96       	adiw	r26, 0x01	; 1
     2a6:	8c 91       	ld	r24, X
     2a8:	11 97       	sbiw	r26, 0x01	; 1
     2aa:	99 81       	ldd	r25, Y+1	; 0x01
     2ac:	89 23       	and	r24, r25
     2ae:	81 83       	std	Z+1, r24	; 0x01
     2b0:	11 c1       	rjmp	.+546    	; 0x4d4 <_fpadd_parts+0x294>
     2b2:	82 30       	cpi	r24, 0x02	; 2
     2b4:	09 f4       	brne	.+2      	; 0x2b8 <_fpadd_parts+0x78>
     2b6:	0c c1       	rjmp	.+536    	; 0x4d0 <_fpadd_parts+0x290>
     2b8:	aa 80       	ldd	r10, Y+2	; 0x02
     2ba:	bb 80       	ldd	r11, Y+3	; 0x03
     2bc:	db 01       	movw	r26, r22
     2be:	12 96       	adiw	r26, 0x02	; 2
     2c0:	4d 91       	ld	r20, X+
     2c2:	5c 91       	ld	r21, X
     2c4:	13 97       	sbiw	r26, 0x03	; 3
     2c6:	cc 80       	ldd	r12, Y+4	; 0x04
     2c8:	dd 80       	ldd	r13, Y+5	; 0x05
     2ca:	ee 80       	ldd	r14, Y+6	; 0x06
     2cc:	ff 80       	ldd	r15, Y+7	; 0x07
     2ce:	14 96       	adiw	r26, 0x04	; 4
     2d0:	0d 91       	ld	r16, X+
     2d2:	1d 91       	ld	r17, X+
     2d4:	2d 91       	ld	r18, X+
     2d6:	3c 91       	ld	r19, X
     2d8:	17 97       	sbiw	r26, 0x07	; 7
     2da:	c5 01       	movw	r24, r10
     2dc:	84 1b       	sub	r24, r20
     2de:	95 0b       	sbc	r25, r21
     2e0:	dc 01       	movw	r26, r24
     2e2:	97 ff       	sbrs	r25, 7
     2e4:	04 c0       	rjmp	.+8      	; 0x2ee <_fpadd_parts+0xae>
     2e6:	aa 27       	eor	r26, r26
     2e8:	bb 27       	eor	r27, r27
     2ea:	a8 1b       	sub	r26, r24
     2ec:	b9 0b       	sbc	r27, r25
     2ee:	a0 32       	cpi	r26, 0x20	; 32
     2f0:	b1 05       	cpc	r27, r1
     2f2:	0c f0       	brlt	.+2      	; 0x2f6 <_fpadd_parts+0xb6>
     2f4:	67 c0       	rjmp	.+206    	; 0x3c4 <_fpadd_parts+0x184>
     2f6:	18 16       	cp	r1, r24
     2f8:	19 06       	cpc	r1, r25
     2fa:	84 f5       	brge	.+96     	; 0x35c <_fpadd_parts+0x11c>
     2fc:	28 01       	movw	r4, r16
     2fe:	39 01       	movw	r6, r18
     300:	0a 2e       	mov	r0, r26
     302:	04 c0       	rjmp	.+8      	; 0x30c <_fpadd_parts+0xcc>
     304:	76 94       	lsr	r7
     306:	67 94       	ror	r6
     308:	57 94       	ror	r5
     30a:	47 94       	ror	r4
     30c:	0a 94       	dec	r0
     30e:	d2 f7       	brpl	.-12     	; 0x304 <_fpadd_parts+0xc4>
     310:	41 e0       	ldi	r20, 0x01	; 1
     312:	50 e0       	ldi	r21, 0x00	; 0
     314:	60 e0       	ldi	r22, 0x00	; 0
     316:	70 e0       	ldi	r23, 0x00	; 0
     318:	04 c0       	rjmp	.+8      	; 0x322 <_fpadd_parts+0xe2>
     31a:	44 0f       	add	r20, r20
     31c:	55 1f       	adc	r21, r21
     31e:	66 1f       	adc	r22, r22
     320:	77 1f       	adc	r23, r23
     322:	aa 95       	dec	r26
     324:	d2 f7       	brpl	.-12     	; 0x31a <_fpadd_parts+0xda>
     326:	41 50       	subi	r20, 0x01	; 1
     328:	50 40       	sbci	r21, 0x00	; 0
     32a:	60 40       	sbci	r22, 0x00	; 0
     32c:	70 40       	sbci	r23, 0x00	; 0
     32e:	40 23       	and	r20, r16
     330:	51 23       	and	r21, r17
     332:	62 23       	and	r22, r18
     334:	73 23       	and	r23, r19
     336:	81 e0       	ldi	r24, 0x01	; 1
     338:	90 e0       	ldi	r25, 0x00	; 0
     33a:	a0 e0       	ldi	r26, 0x00	; 0
     33c:	b0 e0       	ldi	r27, 0x00	; 0
     33e:	41 15       	cp	r20, r1
     340:	51 05       	cpc	r21, r1
     342:	61 05       	cpc	r22, r1
     344:	71 05       	cpc	r23, r1
     346:	19 f4       	brne	.+6      	; 0x34e <_fpadd_parts+0x10e>
     348:	80 e0       	ldi	r24, 0x00	; 0
     34a:	90 e0       	ldi	r25, 0x00	; 0
     34c:	dc 01       	movw	r26, r24
     34e:	8c 01       	movw	r16, r24
     350:	9d 01       	movw	r18, r26
     352:	04 29       	or	r16, r4
     354:	15 29       	or	r17, r5
     356:	26 29       	or	r18, r6
     358:	37 29       	or	r19, r7
     35a:	3f c0       	rjmp	.+126    	; 0x3da <_fpadd_parts+0x19a>
     35c:	00 97       	sbiw	r24, 0x00	; 0
     35e:	e9 f1       	breq	.+122    	; 0x3da <_fpadd_parts+0x19a>
     360:	aa 0e       	add	r10, r26
     362:	bb 1e       	adc	r11, r27
     364:	26 01       	movw	r4, r12
     366:	37 01       	movw	r6, r14
     368:	0a 2e       	mov	r0, r26
     36a:	04 c0       	rjmp	.+8      	; 0x374 <_fpadd_parts+0x134>
     36c:	76 94       	lsr	r7
     36e:	67 94       	ror	r6
     370:	57 94       	ror	r5
     372:	47 94       	ror	r4
     374:	0a 94       	dec	r0
     376:	d2 f7       	brpl	.-12     	; 0x36c <_fpadd_parts+0x12c>
     378:	41 e0       	ldi	r20, 0x01	; 1
     37a:	50 e0       	ldi	r21, 0x00	; 0
     37c:	60 e0       	ldi	r22, 0x00	; 0
     37e:	70 e0       	ldi	r23, 0x00	; 0
     380:	04 c0       	rjmp	.+8      	; 0x38a <_fpadd_parts+0x14a>
     382:	44 0f       	add	r20, r20
     384:	55 1f       	adc	r21, r21
     386:	66 1f       	adc	r22, r22
     388:	77 1f       	adc	r23, r23
     38a:	aa 95       	dec	r26
     38c:	d2 f7       	brpl	.-12     	; 0x382 <_fpadd_parts+0x142>
     38e:	41 50       	subi	r20, 0x01	; 1
     390:	50 40       	sbci	r21, 0x00	; 0
     392:	60 40       	sbci	r22, 0x00	; 0
     394:	70 40       	sbci	r23, 0x00	; 0
     396:	4c 21       	and	r20, r12
     398:	5d 21       	and	r21, r13
     39a:	6e 21       	and	r22, r14
     39c:	7f 21       	and	r23, r15
     39e:	81 e0       	ldi	r24, 0x01	; 1
     3a0:	90 e0       	ldi	r25, 0x00	; 0
     3a2:	a0 e0       	ldi	r26, 0x00	; 0
     3a4:	b0 e0       	ldi	r27, 0x00	; 0
     3a6:	41 15       	cp	r20, r1
     3a8:	51 05       	cpc	r21, r1
     3aa:	61 05       	cpc	r22, r1
     3ac:	71 05       	cpc	r23, r1
     3ae:	19 f4       	brne	.+6      	; 0x3b6 <_fpadd_parts+0x176>
     3b0:	80 e0       	ldi	r24, 0x00	; 0
     3b2:	90 e0       	ldi	r25, 0x00	; 0
     3b4:	dc 01       	movw	r26, r24
     3b6:	6c 01       	movw	r12, r24
     3b8:	7d 01       	movw	r14, r26
     3ba:	c4 28       	or	r12, r4
     3bc:	d5 28       	or	r13, r5
     3be:	e6 28       	or	r14, r6
     3c0:	f7 28       	or	r15, r7
     3c2:	0b c0       	rjmp	.+22     	; 0x3da <_fpadd_parts+0x19a>
     3c4:	4a 15       	cp	r20, r10
     3c6:	5b 05       	cpc	r21, r11
     3c8:	24 f4       	brge	.+8      	; 0x3d2 <_fpadd_parts+0x192>
     3ca:	00 e0       	ldi	r16, 0x00	; 0
     3cc:	10 e0       	ldi	r17, 0x00	; 0
     3ce:	98 01       	movw	r18, r16
     3d0:	04 c0       	rjmp	.+8      	; 0x3da <_fpadd_parts+0x19a>
     3d2:	5a 01       	movw	r10, r20
     3d4:	cc 24       	eor	r12, r12
     3d6:	dd 24       	eor	r13, r13
     3d8:	76 01       	movw	r14, r12
     3da:	89 81       	ldd	r24, Y+1	; 0x01
     3dc:	d4 01       	movw	r26, r8
     3de:	11 96       	adiw	r26, 0x01	; 1
     3e0:	9c 91       	ld	r25, X
     3e2:	11 97       	sbiw	r26, 0x01	; 1
     3e4:	89 17       	cp	r24, r25
     3e6:	09 f4       	brne	.+2      	; 0x3ea <_fpadd_parts+0x1aa>
     3e8:	45 c0       	rjmp	.+138    	; 0x474 <_fpadd_parts+0x234>
     3ea:	88 23       	and	r24, r24
     3ec:	29 f0       	breq	.+10     	; 0x3f8 <_fpadd_parts+0x1b8>
     3ee:	0c 19       	sub	r16, r12
     3f0:	1d 09       	sbc	r17, r13
     3f2:	2e 09       	sbc	r18, r14
     3f4:	3f 09       	sbc	r19, r15
     3f6:	08 c0       	rjmp	.+16     	; 0x408 <_fpadd_parts+0x1c8>
     3f8:	d7 01       	movw	r26, r14
     3fa:	c6 01       	movw	r24, r12
     3fc:	80 1b       	sub	r24, r16
     3fe:	91 0b       	sbc	r25, r17
     400:	a2 0b       	sbc	r26, r18
     402:	b3 0b       	sbc	r27, r19
     404:	8c 01       	movw	r16, r24
     406:	9d 01       	movw	r18, r26
     408:	37 fd       	sbrc	r19, 7
     40a:	04 c0       	rjmp	.+8      	; 0x414 <_fpadd_parts+0x1d4>
     40c:	11 82       	std	Z+1, r1	; 0x01
     40e:	a2 82       	std	Z+2, r10	; 0x02
     410:	b3 82       	std	Z+3, r11	; 0x03
     412:	0b c0       	rjmp	.+22     	; 0x42a <_fpadd_parts+0x1ea>
     414:	81 e0       	ldi	r24, 0x01	; 1
     416:	81 83       	std	Z+1, r24	; 0x01
     418:	a2 82       	std	Z+2, r10	; 0x02
     41a:	b3 82       	std	Z+3, r11	; 0x03
     41c:	30 95       	com	r19
     41e:	20 95       	com	r18
     420:	10 95       	com	r17
     422:	01 95       	neg	r16
     424:	1f 4f       	sbci	r17, 0xFF	; 255
     426:	2f 4f       	sbci	r18, 0xFF	; 255
     428:	3f 4f       	sbci	r19, 0xFF	; 255
     42a:	04 83       	std	Z+4, r16	; 0x04
     42c:	15 83       	std	Z+5, r17	; 0x05
     42e:	26 83       	std	Z+6, r18	; 0x06
     430:	37 83       	std	Z+7, r19	; 0x07
     432:	0d c0       	rjmp	.+26     	; 0x44e <_fpadd_parts+0x20e>
     434:	88 0f       	add	r24, r24
     436:	99 1f       	adc	r25, r25
     438:	aa 1f       	adc	r26, r26
     43a:	bb 1f       	adc	r27, r27
     43c:	84 83       	std	Z+4, r24	; 0x04
     43e:	95 83       	std	Z+5, r25	; 0x05
     440:	a6 83       	std	Z+6, r26	; 0x06
     442:	b7 83       	std	Z+7, r27	; 0x07
     444:	82 81       	ldd	r24, Z+2	; 0x02
     446:	93 81       	ldd	r25, Z+3	; 0x03
     448:	01 97       	sbiw	r24, 0x01	; 1
     44a:	82 83       	std	Z+2, r24	; 0x02
     44c:	93 83       	std	Z+3, r25	; 0x03
     44e:	84 81       	ldd	r24, Z+4	; 0x04
     450:	95 81       	ldd	r25, Z+5	; 0x05
     452:	a6 81       	ldd	r26, Z+6	; 0x06
     454:	b7 81       	ldd	r27, Z+7	; 0x07
     456:	ac 01       	movw	r20, r24
     458:	bd 01       	movw	r22, r26
     45a:	41 50       	subi	r20, 0x01	; 1
     45c:	50 40       	sbci	r21, 0x00	; 0
     45e:	60 40       	sbci	r22, 0x00	; 0
     460:	70 40       	sbci	r23, 0x00	; 0
     462:	4f 3f       	cpi	r20, 0xFF	; 255
     464:	2f ef       	ldi	r18, 0xFF	; 255
     466:	52 07       	cpc	r21, r18
     468:	2f ef       	ldi	r18, 0xFF	; 255
     46a:	62 07       	cpc	r22, r18
     46c:	2f e3       	ldi	r18, 0x3F	; 63
     46e:	72 07       	cpc	r23, r18
     470:	08 f3       	brcs	.-62     	; 0x434 <_fpadd_parts+0x1f4>
     472:	0b c0       	rjmp	.+22     	; 0x48a <_fpadd_parts+0x24a>
     474:	81 83       	std	Z+1, r24	; 0x01
     476:	a2 82       	std	Z+2, r10	; 0x02
     478:	b3 82       	std	Z+3, r11	; 0x03
     47a:	0c 0d       	add	r16, r12
     47c:	1d 1d       	adc	r17, r13
     47e:	2e 1d       	adc	r18, r14
     480:	3f 1d       	adc	r19, r15
     482:	04 83       	std	Z+4, r16	; 0x04
     484:	15 83       	std	Z+5, r17	; 0x05
     486:	26 83       	std	Z+6, r18	; 0x06
     488:	37 83       	std	Z+7, r19	; 0x07
     48a:	83 e0       	ldi	r24, 0x03	; 3
     48c:	80 83       	st	Z, r24
     48e:	44 81       	ldd	r20, Z+4	; 0x04
     490:	55 81       	ldd	r21, Z+5	; 0x05
     492:	66 81       	ldd	r22, Z+6	; 0x06
     494:	77 81       	ldd	r23, Z+7	; 0x07
     496:	77 ff       	sbrs	r23, 7
     498:	1d c0       	rjmp	.+58     	; 0x4d4 <_fpadd_parts+0x294>
     49a:	db 01       	movw	r26, r22
     49c:	ca 01       	movw	r24, r20
     49e:	81 70       	andi	r24, 0x01	; 1
     4a0:	90 70       	andi	r25, 0x00	; 0
     4a2:	a0 70       	andi	r26, 0x00	; 0
     4a4:	b0 70       	andi	r27, 0x00	; 0
     4a6:	76 95       	lsr	r23
     4a8:	67 95       	ror	r22
     4aa:	57 95       	ror	r21
     4ac:	47 95       	ror	r20
     4ae:	84 2b       	or	r24, r20
     4b0:	95 2b       	or	r25, r21
     4b2:	a6 2b       	or	r26, r22
     4b4:	b7 2b       	or	r27, r23
     4b6:	84 83       	std	Z+4, r24	; 0x04
     4b8:	95 83       	std	Z+5, r25	; 0x05
     4ba:	a6 83       	std	Z+6, r26	; 0x06
     4bc:	b7 83       	std	Z+7, r27	; 0x07
     4be:	82 81       	ldd	r24, Z+2	; 0x02
     4c0:	93 81       	ldd	r25, Z+3	; 0x03
     4c2:	01 96       	adiw	r24, 0x01	; 1
     4c4:	82 83       	std	Z+2, r24	; 0x02
     4c6:	93 83       	std	Z+3, r25	; 0x03
     4c8:	05 c0       	rjmp	.+10     	; 0x4d4 <_fpadd_parts+0x294>
     4ca:	cc e0       	ldi	r28, 0x0C	; 12
     4cc:	d0 e2       	ldi	r29, 0x20	; 32
     4ce:	03 c0       	rjmp	.+6      	; 0x4d6 <_fpadd_parts+0x296>
     4d0:	e4 01       	movw	r28, r8
     4d2:	01 c0       	rjmp	.+2      	; 0x4d6 <_fpadd_parts+0x296>
     4d4:	ef 01       	movw	r28, r30
     4d6:	ce 01       	movw	r24, r28
     4d8:	cd b7       	in	r28, 0x3d	; 61
     4da:	de b7       	in	r29, 0x3e	; 62
     4dc:	e0 e1       	ldi	r30, 0x10	; 16
     4de:	0c 94 43 32 	jmp	0x6486	; 0x6486 <__epilogue_restores__+0x4>

000004e2 <__addsf3>:
     4e2:	a0 e2       	ldi	r26, 0x20	; 32
     4e4:	b0 e0       	ldi	r27, 0x00	; 0
     4e6:	e7 e7       	ldi	r30, 0x77	; 119
     4e8:	f2 e0       	ldi	r31, 0x02	; 2
     4ea:	0c 94 38 32 	jmp	0x6470	; 0x6470 <__prologue_saves__+0x20>
     4ee:	dc 01       	movw	r26, r24
     4f0:	cb 01       	movw	r24, r22
     4f2:	8d 83       	std	Y+5, r24	; 0x05
     4f4:	9e 83       	std	Y+6, r25	; 0x06
     4f6:	af 83       	std	Y+7, r26	; 0x07
     4f8:	b8 87       	std	Y+8, r27	; 0x08
     4fa:	29 83       	std	Y+1, r18	; 0x01
     4fc:	3a 83       	std	Y+2, r19	; 0x02
     4fe:	4b 83       	std	Y+3, r20	; 0x03
     500:	5c 83       	std	Y+4, r21	; 0x04
     502:	ce 01       	movw	r24, r28
     504:	05 96       	adiw	r24, 0x05	; 5
     506:	be 01       	movw	r22, r28
     508:	67 5e       	subi	r22, 0xE7	; 231
     50a:	7f 4f       	sbci	r23, 0xFF	; 255
     50c:	b4 d4       	rcall	.+2408   	; 0xe76 <__unpack_f>
     50e:	ce 01       	movw	r24, r28
     510:	01 96       	adiw	r24, 0x01	; 1
     512:	be 01       	movw	r22, r28
     514:	6f 5e       	subi	r22, 0xEF	; 239
     516:	7f 4f       	sbci	r23, 0xFF	; 255
     518:	ae d4       	rcall	.+2396   	; 0xe76 <__unpack_f>
     51a:	ce 01       	movw	r24, r28
     51c:	49 96       	adiw	r24, 0x19	; 25
     51e:	be 01       	movw	r22, r28
     520:	6f 5e       	subi	r22, 0xEF	; 239
     522:	7f 4f       	sbci	r23, 0xFF	; 255
     524:	ae 01       	movw	r20, r28
     526:	47 5f       	subi	r20, 0xF7	; 247
     528:	5f 4f       	sbci	r21, 0xFF	; 255
     52a:	8a de       	rcall	.-748    	; 0x240 <_fpadd_parts>
     52c:	cd d3       	rcall	.+1946   	; 0xcc8 <__pack_f>
     52e:	46 2f       	mov	r20, r22
     530:	57 2f       	mov	r21, r23
     532:	68 2f       	mov	r22, r24
     534:	79 2f       	mov	r23, r25
     536:	cb 01       	movw	r24, r22
     538:	ba 01       	movw	r22, r20
     53a:	a0 96       	adiw	r28, 0x20	; 32
     53c:	e2 e0       	ldi	r30, 0x02	; 2
     53e:	0c 94 51 32 	jmp	0x64a2	; 0x64a2 <__epilogue_restores__+0x20>

00000542 <__subsf3>:
     542:	a0 e2       	ldi	r26, 0x20	; 32
     544:	b0 e0       	ldi	r27, 0x00	; 0
     546:	e7 ea       	ldi	r30, 0xA7	; 167
     548:	f2 e0       	ldi	r31, 0x02	; 2
     54a:	0c 94 38 32 	jmp	0x6470	; 0x6470 <__prologue_saves__+0x20>
     54e:	dc 01       	movw	r26, r24
     550:	cb 01       	movw	r24, r22
     552:	8d 83       	std	Y+5, r24	; 0x05
     554:	9e 83       	std	Y+6, r25	; 0x06
     556:	af 83       	std	Y+7, r26	; 0x07
     558:	b8 87       	std	Y+8, r27	; 0x08
     55a:	29 83       	std	Y+1, r18	; 0x01
     55c:	3a 83       	std	Y+2, r19	; 0x02
     55e:	4b 83       	std	Y+3, r20	; 0x03
     560:	5c 83       	std	Y+4, r21	; 0x04
     562:	ce 01       	movw	r24, r28
     564:	05 96       	adiw	r24, 0x05	; 5
     566:	be 01       	movw	r22, r28
     568:	67 5e       	subi	r22, 0xE7	; 231
     56a:	7f 4f       	sbci	r23, 0xFF	; 255
     56c:	84 d4       	rcall	.+2312   	; 0xe76 <__unpack_f>
     56e:	ce 01       	movw	r24, r28
     570:	01 96       	adiw	r24, 0x01	; 1
     572:	be 01       	movw	r22, r28
     574:	6f 5e       	subi	r22, 0xEF	; 239
     576:	7f 4f       	sbci	r23, 0xFF	; 255
     578:	7e d4       	rcall	.+2300   	; 0xe76 <__unpack_f>
     57a:	8a 89       	ldd	r24, Y+18	; 0x12
     57c:	91 e0       	ldi	r25, 0x01	; 1
     57e:	89 27       	eor	r24, r25
     580:	8a 8b       	std	Y+18, r24	; 0x12
     582:	ce 01       	movw	r24, r28
     584:	49 96       	adiw	r24, 0x19	; 25
     586:	be 01       	movw	r22, r28
     588:	6f 5e       	subi	r22, 0xEF	; 239
     58a:	7f 4f       	sbci	r23, 0xFF	; 255
     58c:	ae 01       	movw	r20, r28
     58e:	47 5f       	subi	r20, 0xF7	; 247
     590:	5f 4f       	sbci	r21, 0xFF	; 255
     592:	56 de       	rcall	.-852    	; 0x240 <_fpadd_parts>
     594:	99 d3       	rcall	.+1842   	; 0xcc8 <__pack_f>
     596:	46 2f       	mov	r20, r22
     598:	57 2f       	mov	r21, r23
     59a:	68 2f       	mov	r22, r24
     59c:	79 2f       	mov	r23, r25
     59e:	cb 01       	movw	r24, r22
     5a0:	ba 01       	movw	r22, r20
     5a2:	a0 96       	adiw	r28, 0x20	; 32
     5a4:	e2 e0       	ldi	r30, 0x02	; 2
     5a6:	0c 94 51 32 	jmp	0x64a2	; 0x64a2 <__epilogue_restores__+0x20>

000005aa <__mulsf3>:
     5aa:	a0 e2       	ldi	r26, 0x20	; 32
     5ac:	b0 e0       	ldi	r27, 0x00	; 0
     5ae:	eb ed       	ldi	r30, 0xDB	; 219
     5b0:	f2 e0       	ldi	r31, 0x02	; 2
     5b2:	0c 94 2a 32 	jmp	0x6454	; 0x6454 <__prologue_saves__+0x4>
     5b6:	dc 01       	movw	r26, r24
     5b8:	cb 01       	movw	r24, r22
     5ba:	8d 83       	std	Y+5, r24	; 0x05
     5bc:	9e 83       	std	Y+6, r25	; 0x06
     5be:	af 83       	std	Y+7, r26	; 0x07
     5c0:	b8 87       	std	Y+8, r27	; 0x08
     5c2:	29 83       	std	Y+1, r18	; 0x01
     5c4:	3a 83       	std	Y+2, r19	; 0x02
     5c6:	4b 83       	std	Y+3, r20	; 0x03
     5c8:	5c 83       	std	Y+4, r21	; 0x04
     5ca:	ce 01       	movw	r24, r28
     5cc:	05 96       	adiw	r24, 0x05	; 5
     5ce:	be 01       	movw	r22, r28
     5d0:	67 5e       	subi	r22, 0xE7	; 231
     5d2:	7f 4f       	sbci	r23, 0xFF	; 255
     5d4:	50 d4       	rcall	.+2208   	; 0xe76 <__unpack_f>
     5d6:	ce 01       	movw	r24, r28
     5d8:	01 96       	adiw	r24, 0x01	; 1
     5da:	be 01       	movw	r22, r28
     5dc:	6f 5e       	subi	r22, 0xEF	; 239
     5de:	7f 4f       	sbci	r23, 0xFF	; 255
     5e0:	4a d4       	rcall	.+2196   	; 0xe76 <__unpack_f>
     5e2:	99 8d       	ldd	r25, Y+25	; 0x19
     5e4:	92 30       	cpi	r25, 0x02	; 2
     5e6:	78 f0       	brcs	.+30     	; 0x606 <__mulsf3+0x5c>
     5e8:	89 89       	ldd	r24, Y+17	; 0x11
     5ea:	82 30       	cpi	r24, 0x02	; 2
     5ec:	c0 f0       	brcs	.+48     	; 0x61e <__mulsf3+0x74>
     5ee:	94 30       	cpi	r25, 0x04	; 4
     5f0:	19 f4       	brne	.+6      	; 0x5f8 <__mulsf3+0x4e>
     5f2:	82 30       	cpi	r24, 0x02	; 2
     5f4:	41 f4       	brne	.+16     	; 0x606 <__mulsf3+0x5c>
     5f6:	ca c0       	rjmp	.+404    	; 0x78c <__mulsf3+0x1e2>
     5f8:	84 30       	cpi	r24, 0x04	; 4
     5fa:	19 f4       	brne	.+6      	; 0x602 <__mulsf3+0x58>
     5fc:	92 30       	cpi	r25, 0x02	; 2
     5fe:	79 f4       	brne	.+30     	; 0x61e <__mulsf3+0x74>
     600:	c5 c0       	rjmp	.+394    	; 0x78c <__mulsf3+0x1e2>
     602:	92 30       	cpi	r25, 0x02	; 2
     604:	51 f4       	brne	.+20     	; 0x61a <__mulsf3+0x70>
     606:	81 e0       	ldi	r24, 0x01	; 1
     608:	2a 8d       	ldd	r18, Y+26	; 0x1a
     60a:	9a 89       	ldd	r25, Y+18	; 0x12
     60c:	29 17       	cp	r18, r25
     60e:	09 f4       	brne	.+2      	; 0x612 <__mulsf3+0x68>
     610:	80 e0       	ldi	r24, 0x00	; 0
     612:	8a 8f       	std	Y+26, r24	; 0x1a
     614:	ce 01       	movw	r24, r28
     616:	49 96       	adiw	r24, 0x19	; 25
     618:	bb c0       	rjmp	.+374    	; 0x790 <__mulsf3+0x1e6>
     61a:	82 30       	cpi	r24, 0x02	; 2
     61c:	51 f4       	brne	.+20     	; 0x632 <__mulsf3+0x88>
     61e:	81 e0       	ldi	r24, 0x01	; 1
     620:	2a 8d       	ldd	r18, Y+26	; 0x1a
     622:	9a 89       	ldd	r25, Y+18	; 0x12
     624:	29 17       	cp	r18, r25
     626:	09 f4       	brne	.+2      	; 0x62a <__mulsf3+0x80>
     628:	80 e0       	ldi	r24, 0x00	; 0
     62a:	8a 8b       	std	Y+18, r24	; 0x12
     62c:	ce 01       	movw	r24, r28
     62e:	41 96       	adiw	r24, 0x11	; 17
     630:	af c0       	rjmp	.+350    	; 0x790 <__mulsf3+0x1e6>
     632:	4d 8c       	ldd	r4, Y+29	; 0x1d
     634:	5e 8c       	ldd	r5, Y+30	; 0x1e
     636:	6f 8c       	ldd	r6, Y+31	; 0x1f
     638:	78 a0       	lds	r23, 0x88
     63a:	0d 89       	ldd	r16, Y+21	; 0x15
     63c:	1e 89       	ldd	r17, Y+22	; 0x16
     63e:	2f 89       	ldd	r18, Y+23	; 0x17
     640:	38 8d       	ldd	r19, Y+24	; 0x18
     642:	e0 e2       	ldi	r30, 0x20	; 32
     644:	f0 e0       	ldi	r31, 0x00	; 0
     646:	40 e0       	ldi	r20, 0x00	; 0
     648:	50 e0       	ldi	r21, 0x00	; 0
     64a:	ba 01       	movw	r22, r20
     64c:	88 24       	eor	r8, r8
     64e:	99 24       	eor	r9, r9
     650:	54 01       	movw	r10, r8
     652:	cc 24       	eor	r12, r12
     654:	dd 24       	eor	r13, r13
     656:	76 01       	movw	r14, r12
     658:	c2 01       	movw	r24, r4
     65a:	81 70       	andi	r24, 0x01	; 1
     65c:	90 70       	andi	r25, 0x00	; 0
     65e:	00 97       	sbiw	r24, 0x00	; 0
     660:	d1 f0       	breq	.+52     	; 0x696 <__mulsf3+0xec>
     662:	c0 0e       	add	r12, r16
     664:	d1 1e       	adc	r13, r17
     666:	e2 1e       	adc	r14, r18
     668:	f3 1e       	adc	r15, r19
     66a:	db 01       	movw	r26, r22
     66c:	ca 01       	movw	r24, r20
     66e:	88 0d       	add	r24, r8
     670:	99 1d       	adc	r25, r9
     672:	aa 1d       	adc	r26, r10
     674:	bb 1d       	adc	r27, r11
     676:	41 e0       	ldi	r20, 0x01	; 1
     678:	50 e0       	ldi	r21, 0x00	; 0
     67a:	60 e0       	ldi	r22, 0x00	; 0
     67c:	70 e0       	ldi	r23, 0x00	; 0
     67e:	c0 16       	cp	r12, r16
     680:	d1 06       	cpc	r13, r17
     682:	e2 06       	cpc	r14, r18
     684:	f3 06       	cpc	r15, r19
     686:	18 f0       	brcs	.+6      	; 0x68e <__mulsf3+0xe4>
     688:	40 e0       	ldi	r20, 0x00	; 0
     68a:	50 e0       	ldi	r21, 0x00	; 0
     68c:	ba 01       	movw	r22, r20
     68e:	48 0f       	add	r20, r24
     690:	59 1f       	adc	r21, r25
     692:	6a 1f       	adc	r22, r26
     694:	7b 1f       	adc	r23, r27
     696:	88 0c       	add	r8, r8
     698:	99 1c       	adc	r9, r9
     69a:	aa 1c       	adc	r10, r10
     69c:	bb 1c       	adc	r11, r11
     69e:	37 ff       	sbrs	r19, 7
     6a0:	08 c0       	rjmp	.+16     	; 0x6b2 <__mulsf3+0x108>
     6a2:	81 e0       	ldi	r24, 0x01	; 1
     6a4:	90 e0       	ldi	r25, 0x00	; 0
     6a6:	a0 e0       	ldi	r26, 0x00	; 0
     6a8:	b0 e0       	ldi	r27, 0x00	; 0
     6aa:	88 2a       	or	r8, r24
     6ac:	99 2a       	or	r9, r25
     6ae:	aa 2a       	or	r10, r26
     6b0:	bb 2a       	or	r11, r27
     6b2:	00 0f       	add	r16, r16
     6b4:	11 1f       	adc	r17, r17
     6b6:	22 1f       	adc	r18, r18
     6b8:	33 1f       	adc	r19, r19
     6ba:	76 94       	lsr	r7
     6bc:	67 94       	ror	r6
     6be:	57 94       	ror	r5
     6c0:	47 94       	ror	r4
     6c2:	31 97       	sbiw	r30, 0x01	; 1
     6c4:	49 f6       	brne	.-110    	; 0x658 <__mulsf3+0xae>
     6c6:	8b 8d       	ldd	r24, Y+27	; 0x1b
     6c8:	9c 8d       	ldd	r25, Y+28	; 0x1c
     6ca:	2b 89       	ldd	r18, Y+19	; 0x13
     6cc:	3c 89       	ldd	r19, Y+20	; 0x14
     6ce:	82 0f       	add	r24, r18
     6d0:	93 1f       	adc	r25, r19
     6d2:	02 96       	adiw	r24, 0x02	; 2
     6d4:	8b 87       	std	Y+11, r24	; 0x0b
     6d6:	9c 87       	std	Y+12, r25	; 0x0c
     6d8:	81 e0       	ldi	r24, 0x01	; 1
     6da:	2a 8d       	ldd	r18, Y+26	; 0x1a
     6dc:	9a 89       	ldd	r25, Y+18	; 0x12
     6de:	29 17       	cp	r18, r25
     6e0:	09 f4       	brne	.+2      	; 0x6e4 <__mulsf3+0x13a>
     6e2:	80 e0       	ldi	r24, 0x00	; 0
     6e4:	8a 87       	std	Y+10, r24	; 0x0a
     6e6:	2b 85       	ldd	r18, Y+11	; 0x0b
     6e8:	3c 85       	ldd	r19, Y+12	; 0x0c
     6ea:	17 c0       	rjmp	.+46     	; 0x71a <__mulsf3+0x170>
     6ec:	ca 01       	movw	r24, r20
     6ee:	81 70       	andi	r24, 0x01	; 1
     6f0:	90 70       	andi	r25, 0x00	; 0
     6f2:	00 97       	sbiw	r24, 0x00	; 0
     6f4:	61 f0       	breq	.+24     	; 0x70e <__mulsf3+0x164>
     6f6:	f6 94       	lsr	r15
     6f8:	e7 94       	ror	r14
     6fa:	d7 94       	ror	r13
     6fc:	c7 94       	ror	r12
     6fe:	80 e0       	ldi	r24, 0x00	; 0
     700:	90 e0       	ldi	r25, 0x00	; 0
     702:	a0 e0       	ldi	r26, 0x00	; 0
     704:	b0 e8       	ldi	r27, 0x80	; 128
     706:	c8 2a       	or	r12, r24
     708:	d9 2a       	or	r13, r25
     70a:	ea 2a       	or	r14, r26
     70c:	fb 2a       	or	r15, r27
     70e:	76 95       	lsr	r23
     710:	67 95       	ror	r22
     712:	57 95       	ror	r21
     714:	47 95       	ror	r20
     716:	2f 5f       	subi	r18, 0xFF	; 255
     718:	3f 4f       	sbci	r19, 0xFF	; 255
     71a:	77 fd       	sbrc	r23, 7
     71c:	e7 cf       	rjmp	.-50     	; 0x6ec <__mulsf3+0x142>
     71e:	c9 01       	movw	r24, r18
     720:	0b c0       	rjmp	.+22     	; 0x738 <__mulsf3+0x18e>
     722:	44 0f       	add	r20, r20
     724:	55 1f       	adc	r21, r21
     726:	66 1f       	adc	r22, r22
     728:	77 1f       	adc	r23, r23
     72a:	f7 fc       	sbrc	r15, 7
     72c:	41 60       	ori	r20, 0x01	; 1
     72e:	cc 0c       	add	r12, r12
     730:	dd 1c       	adc	r13, r13
     732:	ee 1c       	adc	r14, r14
     734:	ff 1c       	adc	r15, r15
     736:	01 97       	sbiw	r24, 0x01	; 1
     738:	40 30       	cpi	r20, 0x00	; 0
     73a:	a0 e0       	ldi	r26, 0x00	; 0
     73c:	5a 07       	cpc	r21, r26
     73e:	a0 e0       	ldi	r26, 0x00	; 0
     740:	6a 07       	cpc	r22, r26
     742:	a0 e4       	ldi	r26, 0x40	; 64
     744:	7a 07       	cpc	r23, r26
     746:	68 f3       	brcs	.-38     	; 0x722 <__mulsf3+0x178>
     748:	8b 87       	std	Y+11, r24	; 0x0b
     74a:	9c 87       	std	Y+12, r25	; 0x0c
     74c:	db 01       	movw	r26, r22
     74e:	ca 01       	movw	r24, r20
     750:	8f 77       	andi	r24, 0x7F	; 127
     752:	90 70       	andi	r25, 0x00	; 0
     754:	a0 70       	andi	r26, 0x00	; 0
     756:	b0 70       	andi	r27, 0x00	; 0
     758:	80 34       	cpi	r24, 0x40	; 64
     75a:	91 05       	cpc	r25, r1
     75c:	a1 05       	cpc	r26, r1
     75e:	b1 05       	cpc	r27, r1
     760:	61 f4       	brne	.+24     	; 0x77a <__mulsf3+0x1d0>
     762:	47 fd       	sbrc	r20, 7
     764:	0a c0       	rjmp	.+20     	; 0x77a <__mulsf3+0x1d0>
     766:	c1 14       	cp	r12, r1
     768:	d1 04       	cpc	r13, r1
     76a:	e1 04       	cpc	r14, r1
     76c:	f1 04       	cpc	r15, r1
     76e:	29 f0       	breq	.+10     	; 0x77a <__mulsf3+0x1d0>
     770:	40 5c       	subi	r20, 0xC0	; 192
     772:	5f 4f       	sbci	r21, 0xFF	; 255
     774:	6f 4f       	sbci	r22, 0xFF	; 255
     776:	7f 4f       	sbci	r23, 0xFF	; 255
     778:	40 78       	andi	r20, 0x80	; 128
     77a:	4d 87       	std	Y+13, r20	; 0x0d
     77c:	5e 87       	std	Y+14, r21	; 0x0e
     77e:	6f 87       	std	Y+15, r22	; 0x0f
     780:	78 8b       	std	Y+16, r23	; 0x10
     782:	83 e0       	ldi	r24, 0x03	; 3
     784:	89 87       	std	Y+9, r24	; 0x09
     786:	ce 01       	movw	r24, r28
     788:	09 96       	adiw	r24, 0x09	; 9
     78a:	02 c0       	rjmp	.+4      	; 0x790 <__mulsf3+0x1e6>
     78c:	8c e0       	ldi	r24, 0x0C	; 12
     78e:	90 e2       	ldi	r25, 0x20	; 32
     790:	9b d2       	rcall	.+1334   	; 0xcc8 <__pack_f>
     792:	46 2f       	mov	r20, r22
     794:	57 2f       	mov	r21, r23
     796:	68 2f       	mov	r22, r24
     798:	79 2f       	mov	r23, r25
     79a:	cb 01       	movw	r24, r22
     79c:	ba 01       	movw	r22, r20
     79e:	a0 96       	adiw	r28, 0x20	; 32
     7a0:	e0 e1       	ldi	r30, 0x10	; 16
     7a2:	0c 94 43 32 	jmp	0x6486	; 0x6486 <__epilogue_restores__+0x4>

000007a6 <__divsf3>:
     7a6:	a8 e1       	ldi	r26, 0x18	; 24
     7a8:	b0 e0       	ldi	r27, 0x00	; 0
     7aa:	e9 ed       	ldi	r30, 0xD9	; 217
     7ac:	f3 e0       	ldi	r31, 0x03	; 3
     7ae:	0c 94 32 32 	jmp	0x6464	; 0x6464 <__prologue_saves__+0x14>
     7b2:	dc 01       	movw	r26, r24
     7b4:	cb 01       	movw	r24, r22
     7b6:	8d 83       	std	Y+5, r24	; 0x05
     7b8:	9e 83       	std	Y+6, r25	; 0x06
     7ba:	af 83       	std	Y+7, r26	; 0x07
     7bc:	b8 87       	std	Y+8, r27	; 0x08
     7be:	29 83       	std	Y+1, r18	; 0x01
     7c0:	3a 83       	std	Y+2, r19	; 0x02
     7c2:	4b 83       	std	Y+3, r20	; 0x03
     7c4:	5c 83       	std	Y+4, r21	; 0x04
     7c6:	ce 01       	movw	r24, r28
     7c8:	05 96       	adiw	r24, 0x05	; 5
     7ca:	be 01       	movw	r22, r28
     7cc:	6f 5e       	subi	r22, 0xEF	; 239
     7ce:	7f 4f       	sbci	r23, 0xFF	; 255
     7d0:	52 d3       	rcall	.+1700   	; 0xe76 <__unpack_f>
     7d2:	ce 01       	movw	r24, r28
     7d4:	01 96       	adiw	r24, 0x01	; 1
     7d6:	be 01       	movw	r22, r28
     7d8:	67 5f       	subi	r22, 0xF7	; 247
     7da:	7f 4f       	sbci	r23, 0xFF	; 255
     7dc:	4c d3       	rcall	.+1688   	; 0xe76 <__unpack_f>
     7de:	99 89       	ldd	r25, Y+17	; 0x11
     7e0:	92 30       	cpi	r25, 0x02	; 2
     7e2:	08 f4       	brcc	.+2      	; 0x7e6 <__divsf3+0x40>
     7e4:	75 c0       	rjmp	.+234    	; 0x8d0 <__divsf3+0x12a>
     7e6:	89 85       	ldd	r24, Y+9	; 0x09
     7e8:	82 30       	cpi	r24, 0x02	; 2
     7ea:	08 f4       	brcc	.+2      	; 0x7ee <__divsf3+0x48>
     7ec:	74 c0       	rjmp	.+232    	; 0x8d6 <__divsf3+0x130>
     7ee:	2a 89       	ldd	r18, Y+18	; 0x12
     7f0:	3a 85       	ldd	r19, Y+10	; 0x0a
     7f2:	23 27       	eor	r18, r19
     7f4:	2a 8b       	std	Y+18, r18	; 0x12
     7f6:	94 30       	cpi	r25, 0x04	; 4
     7f8:	11 f0       	breq	.+4      	; 0x7fe <__divsf3+0x58>
     7fa:	92 30       	cpi	r25, 0x02	; 2
     7fc:	21 f4       	brne	.+8      	; 0x806 <__divsf3+0x60>
     7fe:	98 17       	cp	r25, r24
     800:	09 f0       	breq	.+2      	; 0x804 <__divsf3+0x5e>
     802:	66 c0       	rjmp	.+204    	; 0x8d0 <__divsf3+0x12a>
     804:	6b c0       	rjmp	.+214    	; 0x8dc <__divsf3+0x136>
     806:	84 30       	cpi	r24, 0x04	; 4
     808:	39 f4       	brne	.+14     	; 0x818 <__divsf3+0x72>
     80a:	1d 8a       	std	Y+21, r1	; 0x15
     80c:	1e 8a       	std	Y+22, r1	; 0x16
     80e:	1f 8a       	std	Y+23, r1	; 0x17
     810:	18 8e       	std	Y+24, r1	; 0x18
     812:	1b 8a       	std	Y+19, r1	; 0x13
     814:	1c 8a       	std	Y+20, r1	; 0x14
     816:	5c c0       	rjmp	.+184    	; 0x8d0 <__divsf3+0x12a>
     818:	82 30       	cpi	r24, 0x02	; 2
     81a:	19 f4       	brne	.+6      	; 0x822 <__divsf3+0x7c>
     81c:	84 e0       	ldi	r24, 0x04	; 4
     81e:	89 8b       	std	Y+17, r24	; 0x11
     820:	57 c0       	rjmp	.+174    	; 0x8d0 <__divsf3+0x12a>
     822:	2b 89       	ldd	r18, Y+19	; 0x13
     824:	3c 89       	ldd	r19, Y+20	; 0x14
     826:	8b 85       	ldd	r24, Y+11	; 0x0b
     828:	9c 85       	ldd	r25, Y+12	; 0x0c
     82a:	28 1b       	sub	r18, r24
     82c:	39 0b       	sbc	r19, r25
     82e:	2b 8b       	std	Y+19, r18	; 0x13
     830:	3c 8b       	std	Y+20, r19	; 0x14
     832:	8d 89       	ldd	r24, Y+21	; 0x15
     834:	9e 89       	ldd	r25, Y+22	; 0x16
     836:	af 89       	ldd	r26, Y+23	; 0x17
     838:	b8 8d       	ldd	r27, Y+24	; 0x18
     83a:	cd 84       	ldd	r12, Y+13	; 0x0d
     83c:	de 84       	ldd	r13, Y+14	; 0x0e
     83e:	ef 84       	ldd	r14, Y+15	; 0x0f
     840:	f8 88       	ldd	r15, Y+16	; 0x10
     842:	8c 15       	cp	r24, r12
     844:	9d 05       	cpc	r25, r13
     846:	ae 05       	cpc	r26, r14
     848:	bf 05       	cpc	r27, r15
     84a:	40 f4       	brcc	.+16     	; 0x85c <__divsf3+0xb6>
     84c:	88 0f       	add	r24, r24
     84e:	99 1f       	adc	r25, r25
     850:	aa 1f       	adc	r26, r26
     852:	bb 1f       	adc	r27, r27
     854:	21 50       	subi	r18, 0x01	; 1
     856:	30 40       	sbci	r19, 0x00	; 0
     858:	2b 8b       	std	Y+19, r18	; 0x13
     85a:	3c 8b       	std	Y+20, r19	; 0x14
     85c:	ef e1       	ldi	r30, 0x1F	; 31
     85e:	f0 e0       	ldi	r31, 0x00	; 0
     860:	00 e0       	ldi	r16, 0x00	; 0
     862:	10 e0       	ldi	r17, 0x00	; 0
     864:	20 e0       	ldi	r18, 0x00	; 0
     866:	30 e4       	ldi	r19, 0x40	; 64
     868:	40 e0       	ldi	r20, 0x00	; 0
     86a:	50 e0       	ldi	r21, 0x00	; 0
     86c:	ba 01       	movw	r22, r20
     86e:	8c 15       	cp	r24, r12
     870:	9d 05       	cpc	r25, r13
     872:	ae 05       	cpc	r26, r14
     874:	bf 05       	cpc	r27, r15
     876:	40 f0       	brcs	.+16     	; 0x888 <__divsf3+0xe2>
     878:	40 2b       	or	r20, r16
     87a:	51 2b       	or	r21, r17
     87c:	62 2b       	or	r22, r18
     87e:	73 2b       	or	r23, r19
     880:	8c 19       	sub	r24, r12
     882:	9d 09       	sbc	r25, r13
     884:	ae 09       	sbc	r26, r14
     886:	bf 09       	sbc	r27, r15
     888:	36 95       	lsr	r19
     88a:	27 95       	ror	r18
     88c:	17 95       	ror	r17
     88e:	07 95       	ror	r16
     890:	88 0f       	add	r24, r24
     892:	99 1f       	adc	r25, r25
     894:	aa 1f       	adc	r26, r26
     896:	bb 1f       	adc	r27, r27
     898:	31 97       	sbiw	r30, 0x01	; 1
     89a:	49 f7       	brne	.-46     	; 0x86e <__divsf3+0xc8>
     89c:	8a 01       	movw	r16, r20
     89e:	9b 01       	movw	r18, r22
     8a0:	0f 77       	andi	r16, 0x7F	; 127
     8a2:	10 70       	andi	r17, 0x00	; 0
     8a4:	20 70       	andi	r18, 0x00	; 0
     8a6:	30 70       	andi	r19, 0x00	; 0
     8a8:	00 34       	cpi	r16, 0x40	; 64
     8aa:	11 05       	cpc	r17, r1
     8ac:	21 05       	cpc	r18, r1
     8ae:	31 05       	cpc	r19, r1
     8b0:	59 f4       	brne	.+22     	; 0x8c8 <__divsf3+0x122>
     8b2:	47 fd       	sbrc	r20, 7
     8b4:	09 c0       	rjmp	.+18     	; 0x8c8 <__divsf3+0x122>
     8b6:	00 97       	sbiw	r24, 0x00	; 0
     8b8:	a1 05       	cpc	r26, r1
     8ba:	b1 05       	cpc	r27, r1
     8bc:	29 f0       	breq	.+10     	; 0x8c8 <__divsf3+0x122>
     8be:	40 5c       	subi	r20, 0xC0	; 192
     8c0:	5f 4f       	sbci	r21, 0xFF	; 255
     8c2:	6f 4f       	sbci	r22, 0xFF	; 255
     8c4:	7f 4f       	sbci	r23, 0xFF	; 255
     8c6:	40 78       	andi	r20, 0x80	; 128
     8c8:	4d 8b       	std	Y+21, r20	; 0x15
     8ca:	5e 8b       	std	Y+22, r21	; 0x16
     8cc:	6f 8b       	std	Y+23, r22	; 0x17
     8ce:	78 8f       	std	Y+24, r23	; 0x18
     8d0:	ce 01       	movw	r24, r28
     8d2:	41 96       	adiw	r24, 0x11	; 17
     8d4:	05 c0       	rjmp	.+10     	; 0x8e0 <__divsf3+0x13a>
     8d6:	ce 01       	movw	r24, r28
     8d8:	09 96       	adiw	r24, 0x09	; 9
     8da:	02 c0       	rjmp	.+4      	; 0x8e0 <__divsf3+0x13a>
     8dc:	8c e0       	ldi	r24, 0x0C	; 12
     8de:	90 e2       	ldi	r25, 0x20	; 32
     8e0:	f3 d1       	rcall	.+998    	; 0xcc8 <__pack_f>
     8e2:	46 2f       	mov	r20, r22
     8e4:	57 2f       	mov	r21, r23
     8e6:	68 2f       	mov	r22, r24
     8e8:	79 2f       	mov	r23, r25
     8ea:	cb 01       	movw	r24, r22
     8ec:	ba 01       	movw	r22, r20
     8ee:	68 96       	adiw	r28, 0x18	; 24
     8f0:	e8 e0       	ldi	r30, 0x08	; 8
     8f2:	0c 94 4b 32 	jmp	0x6496	; 0x6496 <__epilogue_restores__+0x14>

000008f6 <__gtsf2>:
     8f6:	a8 e1       	ldi	r26, 0x18	; 24
     8f8:	b0 e0       	ldi	r27, 0x00	; 0
     8fa:	e1 e8       	ldi	r30, 0x81	; 129
     8fc:	f4 e0       	ldi	r31, 0x04	; 4
     8fe:	0c 94 38 32 	jmp	0x6470	; 0x6470 <__prologue_saves__+0x20>
     902:	dc 01       	movw	r26, r24
     904:	cb 01       	movw	r24, r22
     906:	8d 83       	std	Y+5, r24	; 0x05
     908:	9e 83       	std	Y+6, r25	; 0x06
     90a:	af 83       	std	Y+7, r26	; 0x07
     90c:	b8 87       	std	Y+8, r27	; 0x08
     90e:	29 83       	std	Y+1, r18	; 0x01
     910:	3a 83       	std	Y+2, r19	; 0x02
     912:	4b 83       	std	Y+3, r20	; 0x03
     914:	5c 83       	std	Y+4, r21	; 0x04
     916:	ce 01       	movw	r24, r28
     918:	05 96       	adiw	r24, 0x05	; 5
     91a:	be 01       	movw	r22, r28
     91c:	6f 5e       	subi	r22, 0xEF	; 239
     91e:	7f 4f       	sbci	r23, 0xFF	; 255
     920:	aa d2       	rcall	.+1364   	; 0xe76 <__unpack_f>
     922:	ce 01       	movw	r24, r28
     924:	01 96       	adiw	r24, 0x01	; 1
     926:	be 01       	movw	r22, r28
     928:	67 5f       	subi	r22, 0xF7	; 247
     92a:	7f 4f       	sbci	r23, 0xFF	; 255
     92c:	a4 d2       	rcall	.+1352   	; 0xe76 <__unpack_f>
     92e:	89 89       	ldd	r24, Y+17	; 0x11
     930:	82 30       	cpi	r24, 0x02	; 2
     932:	50 f0       	brcs	.+20     	; 0x948 <__gtsf2+0x52>
     934:	89 85       	ldd	r24, Y+9	; 0x09
     936:	82 30       	cpi	r24, 0x02	; 2
     938:	38 f0       	brcs	.+14     	; 0x948 <__gtsf2+0x52>
     93a:	ce 01       	movw	r24, r28
     93c:	41 96       	adiw	r24, 0x11	; 17
     93e:	be 01       	movw	r22, r28
     940:	67 5f       	subi	r22, 0xF7	; 247
     942:	7f 4f       	sbci	r23, 0xFF	; 255
     944:	01 d3       	rcall	.+1538   	; 0xf48 <__fpcmp_parts_f>
     946:	01 c0       	rjmp	.+2      	; 0x94a <__gtsf2+0x54>
     948:	8f ef       	ldi	r24, 0xFF	; 255
     94a:	68 96       	adiw	r28, 0x18	; 24
     94c:	e2 e0       	ldi	r30, 0x02	; 2
     94e:	0c 94 51 32 	jmp	0x64a2	; 0x64a2 <__epilogue_restores__+0x20>

00000952 <__ltsf2>:
     952:	a8 e1       	ldi	r26, 0x18	; 24
     954:	b0 e0       	ldi	r27, 0x00	; 0
     956:	ef ea       	ldi	r30, 0xAF	; 175
     958:	f4 e0       	ldi	r31, 0x04	; 4
     95a:	0c 94 38 32 	jmp	0x6470	; 0x6470 <__prologue_saves__+0x20>
     95e:	dc 01       	movw	r26, r24
     960:	cb 01       	movw	r24, r22
     962:	8d 83       	std	Y+5, r24	; 0x05
     964:	9e 83       	std	Y+6, r25	; 0x06
     966:	af 83       	std	Y+7, r26	; 0x07
     968:	b8 87       	std	Y+8, r27	; 0x08
     96a:	29 83       	std	Y+1, r18	; 0x01
     96c:	3a 83       	std	Y+2, r19	; 0x02
     96e:	4b 83       	std	Y+3, r20	; 0x03
     970:	5c 83       	std	Y+4, r21	; 0x04
     972:	ce 01       	movw	r24, r28
     974:	05 96       	adiw	r24, 0x05	; 5
     976:	be 01       	movw	r22, r28
     978:	6f 5e       	subi	r22, 0xEF	; 239
     97a:	7f 4f       	sbci	r23, 0xFF	; 255
     97c:	7c d2       	rcall	.+1272   	; 0xe76 <__unpack_f>
     97e:	ce 01       	movw	r24, r28
     980:	01 96       	adiw	r24, 0x01	; 1
     982:	be 01       	movw	r22, r28
     984:	67 5f       	subi	r22, 0xF7	; 247
     986:	7f 4f       	sbci	r23, 0xFF	; 255
     988:	76 d2       	rcall	.+1260   	; 0xe76 <__unpack_f>
     98a:	89 89       	ldd	r24, Y+17	; 0x11
     98c:	82 30       	cpi	r24, 0x02	; 2
     98e:	50 f0       	brcs	.+20     	; 0x9a4 <__ltsf2+0x52>
     990:	89 85       	ldd	r24, Y+9	; 0x09
     992:	82 30       	cpi	r24, 0x02	; 2
     994:	38 f0       	brcs	.+14     	; 0x9a4 <__ltsf2+0x52>
     996:	ce 01       	movw	r24, r28
     998:	41 96       	adiw	r24, 0x11	; 17
     99a:	be 01       	movw	r22, r28
     99c:	67 5f       	subi	r22, 0xF7	; 247
     99e:	7f 4f       	sbci	r23, 0xFF	; 255
     9a0:	d3 d2       	rcall	.+1446   	; 0xf48 <__fpcmp_parts_f>
     9a2:	01 c0       	rjmp	.+2      	; 0x9a6 <__ltsf2+0x54>
     9a4:	81 e0       	ldi	r24, 0x01	; 1
     9a6:	68 96       	adiw	r28, 0x18	; 24
     9a8:	e2 e0       	ldi	r30, 0x02	; 2
     9aa:	0c 94 51 32 	jmp	0x64a2	; 0x64a2 <__epilogue_restores__+0x20>

000009ae <__floatsisf>:
     9ae:	cf 92       	push	r12
     9b0:	df 92       	push	r13
     9b2:	ef 92       	push	r14
     9b4:	ff 92       	push	r15
     9b6:	cf 93       	push	r28
     9b8:	df 93       	push	r29
     9ba:	cd b7       	in	r28, 0x3d	; 61
     9bc:	de b7       	in	r29, 0x3e	; 62
     9be:	28 97       	sbiw	r28, 0x08	; 8
     9c0:	cd bf       	out	0x3d, r28	; 61
     9c2:	de bf       	out	0x3e, r29	; 62
     9c4:	6b 01       	movw	r12, r22
     9c6:	7c 01       	movw	r14, r24
     9c8:	83 e0       	ldi	r24, 0x03	; 3
     9ca:	89 83       	std	Y+1, r24	; 0x01
     9cc:	d7 01       	movw	r26, r14
     9ce:	c6 01       	movw	r24, r12
     9d0:	88 27       	eor	r24, r24
     9d2:	b7 fd       	sbrc	r27, 7
     9d4:	83 95       	inc	r24
     9d6:	99 27       	eor	r25, r25
     9d8:	aa 27       	eor	r26, r26
     9da:	bb 27       	eor	r27, r27
     9dc:	28 2f       	mov	r18, r24
     9de:	8a 83       	std	Y+2, r24	; 0x02
     9e0:	c1 14       	cp	r12, r1
     9e2:	d1 04       	cpc	r13, r1
     9e4:	e1 04       	cpc	r14, r1
     9e6:	f1 04       	cpc	r15, r1
     9e8:	19 f4       	brne	.+6      	; 0x9f0 <__floatsisf+0x42>
     9ea:	82 e0       	ldi	r24, 0x02	; 2
     9ec:	89 83       	std	Y+1, r24	; 0x01
     9ee:	34 c0       	rjmp	.+104    	; 0xa58 <__floatsisf+0xaa>
     9f0:	8e e1       	ldi	r24, 0x1E	; 30
     9f2:	90 e0       	ldi	r25, 0x00	; 0
     9f4:	8b 83       	std	Y+3, r24	; 0x03
     9f6:	9c 83       	std	Y+4, r25	; 0x04
     9f8:	22 23       	and	r18, r18
     9fa:	89 f0       	breq	.+34     	; 0xa1e <__floatsisf+0x70>
     9fc:	80 e0       	ldi	r24, 0x00	; 0
     9fe:	c8 16       	cp	r12, r24
     a00:	80 e0       	ldi	r24, 0x00	; 0
     a02:	d8 06       	cpc	r13, r24
     a04:	80 e0       	ldi	r24, 0x00	; 0
     a06:	e8 06       	cpc	r14, r24
     a08:	80 e8       	ldi	r24, 0x80	; 128
     a0a:	f8 06       	cpc	r15, r24
     a0c:	49 f1       	breq	.+82     	; 0xa60 <__floatsisf+0xb2>
     a0e:	f0 94       	com	r15
     a10:	e0 94       	com	r14
     a12:	d0 94       	com	r13
     a14:	c0 94       	com	r12
     a16:	c1 1c       	adc	r12, r1
     a18:	d1 1c       	adc	r13, r1
     a1a:	e1 1c       	adc	r14, r1
     a1c:	f1 1c       	adc	r15, r1
     a1e:	cd 82       	std	Y+5, r12	; 0x05
     a20:	de 82       	std	Y+6, r13	; 0x06
     a22:	ef 82       	std	Y+7, r14	; 0x07
     a24:	f8 86       	std	Y+8, r15	; 0x08
     a26:	c7 01       	movw	r24, r14
     a28:	b6 01       	movw	r22, r12
     a2a:	fb d0       	rcall	.+502    	; 0xc22 <__clzsi2>
     a2c:	01 97       	sbiw	r24, 0x01	; 1
     a2e:	18 16       	cp	r1, r24
     a30:	19 06       	cpc	r1, r25
     a32:	94 f4       	brge	.+36     	; 0xa58 <__floatsisf+0xaa>
     a34:	08 2e       	mov	r0, r24
     a36:	04 c0       	rjmp	.+8      	; 0xa40 <__floatsisf+0x92>
     a38:	cc 0c       	add	r12, r12
     a3a:	dd 1c       	adc	r13, r13
     a3c:	ee 1c       	adc	r14, r14
     a3e:	ff 1c       	adc	r15, r15
     a40:	0a 94       	dec	r0
     a42:	d2 f7       	brpl	.-12     	; 0xa38 <__floatsisf+0x8a>
     a44:	cd 82       	std	Y+5, r12	; 0x05
     a46:	de 82       	std	Y+6, r13	; 0x06
     a48:	ef 82       	std	Y+7, r14	; 0x07
     a4a:	f8 86       	std	Y+8, r15	; 0x08
     a4c:	2e e1       	ldi	r18, 0x1E	; 30
     a4e:	30 e0       	ldi	r19, 0x00	; 0
     a50:	28 1b       	sub	r18, r24
     a52:	39 0b       	sbc	r19, r25
     a54:	2b 83       	std	Y+3, r18	; 0x03
     a56:	3c 83       	std	Y+4, r19	; 0x04
     a58:	ce 01       	movw	r24, r28
     a5a:	01 96       	adiw	r24, 0x01	; 1
     a5c:	35 d1       	rcall	.+618    	; 0xcc8 <__pack_f>
     a5e:	04 c0       	rjmp	.+8      	; 0xa68 <__floatsisf+0xba>
     a60:	60 e0       	ldi	r22, 0x00	; 0
     a62:	70 e0       	ldi	r23, 0x00	; 0
     a64:	80 e0       	ldi	r24, 0x00	; 0
     a66:	9f ec       	ldi	r25, 0xCF	; 207
     a68:	38 2f       	mov	r19, r24
     a6a:	29 2f       	mov	r18, r25
     a6c:	86 2f       	mov	r24, r22
     a6e:	97 2f       	mov	r25, r23
     a70:	a3 2f       	mov	r26, r19
     a72:	b2 2f       	mov	r27, r18
     a74:	bc 01       	movw	r22, r24
     a76:	cd 01       	movw	r24, r26
     a78:	28 96       	adiw	r28, 0x08	; 8
     a7a:	cd bf       	out	0x3d, r28	; 61
     a7c:	de bf       	out	0x3e, r29	; 62
     a7e:	df 91       	pop	r29
     a80:	cf 91       	pop	r28
     a82:	ff 90       	pop	r15
     a84:	ef 90       	pop	r14
     a86:	df 90       	pop	r13
     a88:	cf 90       	pop	r12
     a8a:	08 95       	ret

00000a8c <__fixsfsi>:
     a8c:	ac e0       	ldi	r26, 0x0C	; 12
     a8e:	b0 e0       	ldi	r27, 0x00	; 0
     a90:	ec e4       	ldi	r30, 0x4C	; 76
     a92:	f5 e0       	ldi	r31, 0x05	; 5
     a94:	0c 94 36 32 	jmp	0x646c	; 0x646c <__prologue_saves__+0x1c>
     a98:	dc 01       	movw	r26, r24
     a9a:	cb 01       	movw	r24, r22
     a9c:	89 83       	std	Y+1, r24	; 0x01
     a9e:	9a 83       	std	Y+2, r25	; 0x02
     aa0:	ab 83       	std	Y+3, r26	; 0x03
     aa2:	bc 83       	std	Y+4, r27	; 0x04
     aa4:	ce 01       	movw	r24, r28
     aa6:	01 96       	adiw	r24, 0x01	; 1
     aa8:	be 01       	movw	r22, r28
     aaa:	6b 5f       	subi	r22, 0xFB	; 251
     aac:	7f 4f       	sbci	r23, 0xFF	; 255
     aae:	e3 d1       	rcall	.+966    	; 0xe76 <__unpack_f>
     ab0:	8d 81       	ldd	r24, Y+5	; 0x05
     ab2:	82 30       	cpi	r24, 0x02	; 2
     ab4:	69 f1       	breq	.+90     	; 0xb10 <__fixsfsi+0x84>
     ab6:	82 30       	cpi	r24, 0x02	; 2
     ab8:	58 f1       	brcs	.+86     	; 0xb10 <__fixsfsi+0x84>
     aba:	84 30       	cpi	r24, 0x04	; 4
     abc:	39 f0       	breq	.+14     	; 0xacc <__fixsfsi+0x40>
     abe:	2f 81       	ldd	r18, Y+7	; 0x07
     ac0:	38 85       	ldd	r19, Y+8	; 0x08
     ac2:	37 fd       	sbrc	r19, 7
     ac4:	25 c0       	rjmp	.+74     	; 0xb10 <__fixsfsi+0x84>
     ac6:	2f 31       	cpi	r18, 0x1F	; 31
     ac8:	31 05       	cpc	r19, r1
     aca:	44 f0       	brlt	.+16     	; 0xadc <__fixsfsi+0x50>
     acc:	8e 81       	ldd	r24, Y+6	; 0x06
     ace:	88 23       	and	r24, r24
     ad0:	19 f1       	breq	.+70     	; 0xb18 <__fixsfsi+0x8c>
     ad2:	00 e0       	ldi	r16, 0x00	; 0
     ad4:	10 e0       	ldi	r17, 0x00	; 0
     ad6:	20 e0       	ldi	r18, 0x00	; 0
     ad8:	30 e8       	ldi	r19, 0x80	; 128
     ada:	22 c0       	rjmp	.+68     	; 0xb20 <__fixsfsi+0x94>
     adc:	8e e1       	ldi	r24, 0x1E	; 30
     ade:	90 e0       	ldi	r25, 0x00	; 0
     ae0:	82 1b       	sub	r24, r18
     ae2:	93 0b       	sbc	r25, r19
     ae4:	09 85       	ldd	r16, Y+9	; 0x09
     ae6:	1a 85       	ldd	r17, Y+10	; 0x0a
     ae8:	2b 85       	ldd	r18, Y+11	; 0x0b
     aea:	3c 85       	ldd	r19, Y+12	; 0x0c
     aec:	04 c0       	rjmp	.+8      	; 0xaf6 <__fixsfsi+0x6a>
     aee:	36 95       	lsr	r19
     af0:	27 95       	ror	r18
     af2:	17 95       	ror	r17
     af4:	07 95       	ror	r16
     af6:	8a 95       	dec	r24
     af8:	d2 f7       	brpl	.-12     	; 0xaee <__fixsfsi+0x62>
     afa:	8e 81       	ldd	r24, Y+6	; 0x06
     afc:	88 23       	and	r24, r24
     afe:	81 f0       	breq	.+32     	; 0xb20 <__fixsfsi+0x94>
     b00:	30 95       	com	r19
     b02:	20 95       	com	r18
     b04:	10 95       	com	r17
     b06:	01 95       	neg	r16
     b08:	1f 4f       	sbci	r17, 0xFF	; 255
     b0a:	2f 4f       	sbci	r18, 0xFF	; 255
     b0c:	3f 4f       	sbci	r19, 0xFF	; 255
     b0e:	08 c0       	rjmp	.+16     	; 0xb20 <__fixsfsi+0x94>
     b10:	00 e0       	ldi	r16, 0x00	; 0
     b12:	10 e0       	ldi	r17, 0x00	; 0
     b14:	98 01       	movw	r18, r16
     b16:	04 c0       	rjmp	.+8      	; 0xb20 <__fixsfsi+0x94>
     b18:	0f ef       	ldi	r16, 0xFF	; 255
     b1a:	1f ef       	ldi	r17, 0xFF	; 255
     b1c:	2f ef       	ldi	r18, 0xFF	; 255
     b1e:	3f e7       	ldi	r19, 0x7F	; 127
     b20:	b8 01       	movw	r22, r16
     b22:	c9 01       	movw	r24, r18
     b24:	2c 96       	adiw	r28, 0x0c	; 12
     b26:	e4 e0       	ldi	r30, 0x04	; 4
     b28:	0c 94 4f 32 	jmp	0x649e	; 0x649e <__epilogue_restores__+0x1c>

00000b2c <__floatunsisf>:
     b2c:	a8 e0       	ldi	r26, 0x08	; 8
     b2e:	b0 e0       	ldi	r27, 0x00	; 0
     b30:	ec e9       	ldi	r30, 0x9C	; 156
     b32:	f5 e0       	ldi	r31, 0x05	; 5
     b34:	0c 94 32 32 	jmp	0x6464	; 0x6464 <__prologue_saves__+0x14>
     b38:	6b 01       	movw	r12, r22
     b3a:	7c 01       	movw	r14, r24
     b3c:	1a 82       	std	Y+2, r1	; 0x02
     b3e:	61 15       	cp	r22, r1
     b40:	71 05       	cpc	r23, r1
     b42:	81 05       	cpc	r24, r1
     b44:	91 05       	cpc	r25, r1
     b46:	19 f4       	brne	.+6      	; 0xb4e <__floatunsisf+0x22>
     b48:	82 e0       	ldi	r24, 0x02	; 2
     b4a:	89 83       	std	Y+1, r24	; 0x01
     b4c:	5d c0       	rjmp	.+186    	; 0xc08 <__floatunsisf+0xdc>
     b4e:	83 e0       	ldi	r24, 0x03	; 3
     b50:	89 83       	std	Y+1, r24	; 0x01
     b52:	0e e1       	ldi	r16, 0x1E	; 30
     b54:	10 e0       	ldi	r17, 0x00	; 0
     b56:	0b 83       	std	Y+3, r16	; 0x03
     b58:	1c 83       	std	Y+4, r17	; 0x04
     b5a:	cd 82       	std	Y+5, r12	; 0x05
     b5c:	de 82       	std	Y+6, r13	; 0x06
     b5e:	ef 82       	std	Y+7, r14	; 0x07
     b60:	f8 86       	std	Y+8, r15	; 0x08
     b62:	c7 01       	movw	r24, r14
     b64:	b6 01       	movw	r22, r12
     b66:	5d d0       	rcall	.+186    	; 0xc22 <__clzsi2>
     b68:	9c 01       	movw	r18, r24
     b6a:	21 50       	subi	r18, 0x01	; 1
     b6c:	30 40       	sbci	r19, 0x00	; 0
     b6e:	37 ff       	sbrs	r19, 7
     b70:	38 c0       	rjmp	.+112    	; 0xbe2 <__floatunsisf+0xb6>
     b72:	ee 27       	eor	r30, r30
     b74:	ff 27       	eor	r31, r31
     b76:	e2 1b       	sub	r30, r18
     b78:	f3 0b       	sbc	r31, r19
     b7a:	81 e0       	ldi	r24, 0x01	; 1
     b7c:	90 e0       	ldi	r25, 0x00	; 0
     b7e:	a0 e0       	ldi	r26, 0x00	; 0
     b80:	b0 e0       	ldi	r27, 0x00	; 0
     b82:	0e 2e       	mov	r0, r30
     b84:	04 c0       	rjmp	.+8      	; 0xb8e <__floatunsisf+0x62>
     b86:	88 0f       	add	r24, r24
     b88:	99 1f       	adc	r25, r25
     b8a:	aa 1f       	adc	r26, r26
     b8c:	bb 1f       	adc	r27, r27
     b8e:	0a 94       	dec	r0
     b90:	d2 f7       	brpl	.-12     	; 0xb86 <__floatunsisf+0x5a>
     b92:	01 97       	sbiw	r24, 0x01	; 1
     b94:	a1 09       	sbc	r26, r1
     b96:	b1 09       	sbc	r27, r1
     b98:	8c 21       	and	r24, r12
     b9a:	9d 21       	and	r25, r13
     b9c:	ae 21       	and	r26, r14
     b9e:	bf 21       	and	r27, r15
     ba0:	41 e0       	ldi	r20, 0x01	; 1
     ba2:	50 e0       	ldi	r21, 0x00	; 0
     ba4:	60 e0       	ldi	r22, 0x00	; 0
     ba6:	70 e0       	ldi	r23, 0x00	; 0
     ba8:	00 97       	sbiw	r24, 0x00	; 0
     baa:	a1 05       	cpc	r26, r1
     bac:	b1 05       	cpc	r27, r1
     bae:	19 f4       	brne	.+6      	; 0xbb6 <__floatunsisf+0x8a>
     bb0:	40 e0       	ldi	r20, 0x00	; 0
     bb2:	50 e0       	ldi	r21, 0x00	; 0
     bb4:	ba 01       	movw	r22, r20
     bb6:	04 c0       	rjmp	.+8      	; 0xbc0 <__floatunsisf+0x94>
     bb8:	f6 94       	lsr	r15
     bba:	e7 94       	ror	r14
     bbc:	d7 94       	ror	r13
     bbe:	c7 94       	ror	r12
     bc0:	ea 95       	dec	r30
     bc2:	d2 f7       	brpl	.-12     	; 0xbb8 <__floatunsisf+0x8c>
     bc4:	c4 2a       	or	r12, r20
     bc6:	d5 2a       	or	r13, r21
     bc8:	e6 2a       	or	r14, r22
     bca:	f7 2a       	or	r15, r23
     bcc:	cd 82       	std	Y+5, r12	; 0x05
     bce:	de 82       	std	Y+6, r13	; 0x06
     bd0:	ef 82       	std	Y+7, r14	; 0x07
     bd2:	f8 86       	std	Y+8, r15	; 0x08
     bd4:	8e e1       	ldi	r24, 0x1E	; 30
     bd6:	90 e0       	ldi	r25, 0x00	; 0
     bd8:	82 1b       	sub	r24, r18
     bda:	93 0b       	sbc	r25, r19
     bdc:	8b 83       	std	Y+3, r24	; 0x03
     bde:	9c 83       	std	Y+4, r25	; 0x04
     be0:	13 c0       	rjmp	.+38     	; 0xc08 <__floatunsisf+0xdc>
     be2:	21 15       	cp	r18, r1
     be4:	31 05       	cpc	r19, r1
     be6:	81 f0       	breq	.+32     	; 0xc08 <__floatunsisf+0xdc>
     be8:	02 2e       	mov	r0, r18
     bea:	04 c0       	rjmp	.+8      	; 0xbf4 <__floatunsisf+0xc8>
     bec:	cc 0c       	add	r12, r12
     bee:	dd 1c       	adc	r13, r13
     bf0:	ee 1c       	adc	r14, r14
     bf2:	ff 1c       	adc	r15, r15
     bf4:	0a 94       	dec	r0
     bf6:	d2 f7       	brpl	.-12     	; 0xbec <__floatunsisf+0xc0>
     bf8:	cd 82       	std	Y+5, r12	; 0x05
     bfa:	de 82       	std	Y+6, r13	; 0x06
     bfc:	ef 82       	std	Y+7, r14	; 0x07
     bfe:	f8 86       	std	Y+8, r15	; 0x08
     c00:	02 1b       	sub	r16, r18
     c02:	13 0b       	sbc	r17, r19
     c04:	0b 83       	std	Y+3, r16	; 0x03
     c06:	1c 83       	std	Y+4, r17	; 0x04
     c08:	ce 01       	movw	r24, r28
     c0a:	01 96       	adiw	r24, 0x01	; 1
     c0c:	5d d0       	rcall	.+186    	; 0xcc8 <__pack_f>
     c0e:	46 2f       	mov	r20, r22
     c10:	57 2f       	mov	r21, r23
     c12:	68 2f       	mov	r22, r24
     c14:	79 2f       	mov	r23, r25
     c16:	cb 01       	movw	r24, r22
     c18:	ba 01       	movw	r22, r20
     c1a:	28 96       	adiw	r28, 0x08	; 8
     c1c:	e8 e0       	ldi	r30, 0x08	; 8
     c1e:	0c 94 4b 32 	jmp	0x6496	; 0x6496 <__epilogue_restores__+0x14>

00000c22 <__clzsi2>:
     c22:	cf 92       	push	r12
     c24:	df 92       	push	r13
     c26:	ef 92       	push	r14
     c28:	ff 92       	push	r15
     c2a:	0f 93       	push	r16
     c2c:	1f 93       	push	r17
     c2e:	8b 01       	movw	r16, r22
     c30:	9c 01       	movw	r18, r24
     c32:	00 30       	cpi	r16, 0x00	; 0
     c34:	80 e0       	ldi	r24, 0x00	; 0
     c36:	18 07       	cpc	r17, r24
     c38:	81 e0       	ldi	r24, 0x01	; 1
     c3a:	28 07       	cpc	r18, r24
     c3c:	80 e0       	ldi	r24, 0x00	; 0
     c3e:	38 07       	cpc	r19, r24
     c40:	50 f4       	brcc	.+20     	; 0xc56 <__clzsi2+0x34>
     c42:	0f 3f       	cpi	r16, 0xFF	; 255
     c44:	11 05       	cpc	r17, r1
     c46:	21 05       	cpc	r18, r1
     c48:	31 05       	cpc	r19, r1
     c4a:	09 f0       	breq	.+2      	; 0xc4e <__clzsi2+0x2c>
     c4c:	88 f4       	brcc	.+34     	; 0xc70 <__clzsi2+0x4e>
     c4e:	80 e0       	ldi	r24, 0x00	; 0
     c50:	90 e0       	ldi	r25, 0x00	; 0
     c52:	dc 01       	movw	r26, r24
     c54:	16 c0       	rjmp	.+44     	; 0xc82 <__clzsi2+0x60>
     c56:	00 30       	cpi	r16, 0x00	; 0
     c58:	e0 e0       	ldi	r30, 0x00	; 0
     c5a:	1e 07       	cpc	r17, r30
     c5c:	e0 e0       	ldi	r30, 0x00	; 0
     c5e:	2e 07       	cpc	r18, r30
     c60:	e1 e0       	ldi	r30, 0x01	; 1
     c62:	3e 07       	cpc	r19, r30
     c64:	50 f4       	brcc	.+20     	; 0xc7a <__clzsi2+0x58>
     c66:	80 e1       	ldi	r24, 0x10	; 16
     c68:	90 e0       	ldi	r25, 0x00	; 0
     c6a:	a0 e0       	ldi	r26, 0x00	; 0
     c6c:	b0 e0       	ldi	r27, 0x00	; 0
     c6e:	09 c0       	rjmp	.+18     	; 0xc82 <__clzsi2+0x60>
     c70:	88 e0       	ldi	r24, 0x08	; 8
     c72:	90 e0       	ldi	r25, 0x00	; 0
     c74:	a0 e0       	ldi	r26, 0x00	; 0
     c76:	b0 e0       	ldi	r27, 0x00	; 0
     c78:	04 c0       	rjmp	.+8      	; 0xc82 <__clzsi2+0x60>
     c7a:	88 e1       	ldi	r24, 0x18	; 24
     c7c:	90 e0       	ldi	r25, 0x00	; 0
     c7e:	a0 e0       	ldi	r26, 0x00	; 0
     c80:	b0 e0       	ldi	r27, 0x00	; 0
     c82:	40 e2       	ldi	r20, 0x20	; 32
     c84:	50 e0       	ldi	r21, 0x00	; 0
     c86:	60 e0       	ldi	r22, 0x00	; 0
     c88:	70 e0       	ldi	r23, 0x00	; 0
     c8a:	48 1b       	sub	r20, r24
     c8c:	59 0b       	sbc	r21, r25
     c8e:	6a 0b       	sbc	r22, r26
     c90:	7b 0b       	sbc	r23, r27
     c92:	68 01       	movw	r12, r16
     c94:	79 01       	movw	r14, r18
     c96:	04 c0       	rjmp	.+8      	; 0xca0 <__clzsi2+0x7e>
     c98:	f6 94       	lsr	r15
     c9a:	e7 94       	ror	r14
     c9c:	d7 94       	ror	r13
     c9e:	c7 94       	ror	r12
     ca0:	8a 95       	dec	r24
     ca2:	d2 f7       	brpl	.-12     	; 0xc98 <__clzsi2+0x76>
     ca4:	d7 01       	movw	r26, r14
     ca6:	c6 01       	movw	r24, r12
     ca8:	8c 5e       	subi	r24, 0xEC	; 236
     caa:	9f 4d       	sbci	r25, 0xDF	; 223
     cac:	fc 01       	movw	r30, r24
     cae:	80 81       	ld	r24, Z
     cb0:	48 1b       	sub	r20, r24
     cb2:	51 09       	sbc	r21, r1
     cb4:	61 09       	sbc	r22, r1
     cb6:	71 09       	sbc	r23, r1
     cb8:	ca 01       	movw	r24, r20
     cba:	1f 91       	pop	r17
     cbc:	0f 91       	pop	r16
     cbe:	ff 90       	pop	r15
     cc0:	ef 90       	pop	r14
     cc2:	df 90       	pop	r13
     cc4:	cf 90       	pop	r12
     cc6:	08 95       	ret

00000cc8 <__pack_f>:
     cc8:	cf 92       	push	r12
     cca:	df 92       	push	r13
     ccc:	ef 92       	push	r14
     cce:	ff 92       	push	r15
     cd0:	0f 93       	push	r16
     cd2:	1f 93       	push	r17
     cd4:	dc 01       	movw	r26, r24
     cd6:	14 96       	adiw	r26, 0x04	; 4
     cd8:	4d 91       	ld	r20, X+
     cda:	5d 91       	ld	r21, X+
     cdc:	6d 91       	ld	r22, X+
     cde:	7c 91       	ld	r23, X
     ce0:	17 97       	sbiw	r26, 0x07	; 7
     ce2:	11 96       	adiw	r26, 0x01	; 1
     ce4:	ec 91       	ld	r30, X
     ce6:	11 97       	sbiw	r26, 0x01	; 1
     ce8:	8c 91       	ld	r24, X
     cea:	82 30       	cpi	r24, 0x02	; 2
     cec:	20 f4       	brcc	.+8      	; 0xcf6 <__pack_f+0x2e>
     cee:	60 61       	ori	r22, 0x10	; 16
     cf0:	8f ef       	ldi	r24, 0xFF	; 255
     cf2:	90 e0       	ldi	r25, 0x00	; 0
     cf4:	a5 c0       	rjmp	.+330    	; 0xe40 <__pack_f+0x178>
     cf6:	84 30       	cpi	r24, 0x04	; 4
     cf8:	09 f4       	brne	.+2      	; 0xcfc <__pack_f+0x34>
     cfa:	9d c0       	rjmp	.+314    	; 0xe36 <__pack_f+0x16e>
     cfc:	82 30       	cpi	r24, 0x02	; 2
     cfe:	09 f4       	brne	.+2      	; 0xd02 <__pack_f+0x3a>
     d00:	94 c0       	rjmp	.+296    	; 0xe2a <__pack_f+0x162>
     d02:	41 15       	cp	r20, r1
     d04:	51 05       	cpc	r21, r1
     d06:	61 05       	cpc	r22, r1
     d08:	71 05       	cpc	r23, r1
     d0a:	09 f4       	brne	.+2      	; 0xd0e <__pack_f+0x46>
     d0c:	91 c0       	rjmp	.+290    	; 0xe30 <__pack_f+0x168>
     d0e:	12 96       	adiw	r26, 0x02	; 2
     d10:	8d 91       	ld	r24, X+
     d12:	9c 91       	ld	r25, X
     d14:	13 97       	sbiw	r26, 0x03	; 3
     d16:	2f ef       	ldi	r18, 0xFF	; 255
     d18:	82 38       	cpi	r24, 0x82	; 130
     d1a:	92 07       	cpc	r25, r18
     d1c:	0c f0       	brlt	.+2      	; 0xd20 <__pack_f+0x58>
     d1e:	59 c0       	rjmp	.+178    	; 0xdd2 <__pack_f+0x10a>
     d20:	22 e8       	ldi	r18, 0x82	; 130
     d22:	3f ef       	ldi	r19, 0xFF	; 255
     d24:	28 1b       	sub	r18, r24
     d26:	39 0b       	sbc	r19, r25
     d28:	2a 31       	cpi	r18, 0x1A	; 26
     d2a:	31 05       	cpc	r19, r1
     d2c:	64 f5       	brge	.+88     	; 0xd86 <__pack_f+0xbe>
     d2e:	6a 01       	movw	r12, r20
     d30:	7b 01       	movw	r14, r22
     d32:	02 2e       	mov	r0, r18
     d34:	04 c0       	rjmp	.+8      	; 0xd3e <__pack_f+0x76>
     d36:	f6 94       	lsr	r15
     d38:	e7 94       	ror	r14
     d3a:	d7 94       	ror	r13
     d3c:	c7 94       	ror	r12
     d3e:	0a 94       	dec	r0
     d40:	d2 f7       	brpl	.-12     	; 0xd36 <__pack_f+0x6e>
     d42:	81 e0       	ldi	r24, 0x01	; 1
     d44:	90 e0       	ldi	r25, 0x00	; 0
     d46:	a0 e0       	ldi	r26, 0x00	; 0
     d48:	b0 e0       	ldi	r27, 0x00	; 0
     d4a:	04 c0       	rjmp	.+8      	; 0xd54 <__pack_f+0x8c>
     d4c:	88 0f       	add	r24, r24
     d4e:	99 1f       	adc	r25, r25
     d50:	aa 1f       	adc	r26, r26
     d52:	bb 1f       	adc	r27, r27
     d54:	2a 95       	dec	r18
     d56:	d2 f7       	brpl	.-12     	; 0xd4c <__pack_f+0x84>
     d58:	01 97       	sbiw	r24, 0x01	; 1
     d5a:	a1 09       	sbc	r26, r1
     d5c:	b1 09       	sbc	r27, r1
     d5e:	84 23       	and	r24, r20
     d60:	95 23       	and	r25, r21
     d62:	a6 23       	and	r26, r22
     d64:	b7 23       	and	r27, r23
     d66:	41 e0       	ldi	r20, 0x01	; 1
     d68:	50 e0       	ldi	r21, 0x00	; 0
     d6a:	60 e0       	ldi	r22, 0x00	; 0
     d6c:	70 e0       	ldi	r23, 0x00	; 0
     d6e:	00 97       	sbiw	r24, 0x00	; 0
     d70:	a1 05       	cpc	r26, r1
     d72:	b1 05       	cpc	r27, r1
     d74:	19 f4       	brne	.+6      	; 0xd7c <__pack_f+0xb4>
     d76:	40 e0       	ldi	r20, 0x00	; 0
     d78:	50 e0       	ldi	r21, 0x00	; 0
     d7a:	ba 01       	movw	r22, r20
     d7c:	4c 29       	or	r20, r12
     d7e:	5d 29       	or	r21, r13
     d80:	6e 29       	or	r22, r14
     d82:	7f 29       	or	r23, r15
     d84:	03 c0       	rjmp	.+6      	; 0xd8c <__pack_f+0xc4>
     d86:	40 e0       	ldi	r20, 0x00	; 0
     d88:	50 e0       	ldi	r21, 0x00	; 0
     d8a:	ba 01       	movw	r22, r20
     d8c:	db 01       	movw	r26, r22
     d8e:	ca 01       	movw	r24, r20
     d90:	8f 77       	andi	r24, 0x7F	; 127
     d92:	90 70       	andi	r25, 0x00	; 0
     d94:	a0 70       	andi	r26, 0x00	; 0
     d96:	b0 70       	andi	r27, 0x00	; 0
     d98:	80 34       	cpi	r24, 0x40	; 64
     d9a:	91 05       	cpc	r25, r1
     d9c:	a1 05       	cpc	r26, r1
     d9e:	b1 05       	cpc	r27, r1
     da0:	39 f4       	brne	.+14     	; 0xdb0 <__pack_f+0xe8>
     da2:	47 ff       	sbrs	r20, 7
     da4:	09 c0       	rjmp	.+18     	; 0xdb8 <__pack_f+0xf0>
     da6:	40 5c       	subi	r20, 0xC0	; 192
     da8:	5f 4f       	sbci	r21, 0xFF	; 255
     daa:	6f 4f       	sbci	r22, 0xFF	; 255
     dac:	7f 4f       	sbci	r23, 0xFF	; 255
     dae:	04 c0       	rjmp	.+8      	; 0xdb8 <__pack_f+0xf0>
     db0:	41 5c       	subi	r20, 0xC1	; 193
     db2:	5f 4f       	sbci	r21, 0xFF	; 255
     db4:	6f 4f       	sbci	r22, 0xFF	; 255
     db6:	7f 4f       	sbci	r23, 0xFF	; 255
     db8:	81 e0       	ldi	r24, 0x01	; 1
     dba:	90 e0       	ldi	r25, 0x00	; 0
     dbc:	40 30       	cpi	r20, 0x00	; 0
     dbe:	20 e0       	ldi	r18, 0x00	; 0
     dc0:	52 07       	cpc	r21, r18
     dc2:	20 e0       	ldi	r18, 0x00	; 0
     dc4:	62 07       	cpc	r22, r18
     dc6:	20 e4       	ldi	r18, 0x40	; 64
     dc8:	72 07       	cpc	r23, r18
     dca:	38 f5       	brcc	.+78     	; 0xe1a <__pack_f+0x152>
     dcc:	80 e0       	ldi	r24, 0x00	; 0
     dce:	90 e0       	ldi	r25, 0x00	; 0
     dd0:	24 c0       	rjmp	.+72     	; 0xe1a <__pack_f+0x152>
     dd2:	80 38       	cpi	r24, 0x80	; 128
     dd4:	91 05       	cpc	r25, r1
     dd6:	7c f5       	brge	.+94     	; 0xe36 <__pack_f+0x16e>
     dd8:	8a 01       	movw	r16, r20
     dda:	9b 01       	movw	r18, r22
     ddc:	0f 77       	andi	r16, 0x7F	; 127
     dde:	10 70       	andi	r17, 0x00	; 0
     de0:	20 70       	andi	r18, 0x00	; 0
     de2:	30 70       	andi	r19, 0x00	; 0
     de4:	00 34       	cpi	r16, 0x40	; 64
     de6:	11 05       	cpc	r17, r1
     de8:	21 05       	cpc	r18, r1
     dea:	31 05       	cpc	r19, r1
     dec:	39 f4       	brne	.+14     	; 0xdfc <__pack_f+0x134>
     dee:	47 ff       	sbrs	r20, 7
     df0:	09 c0       	rjmp	.+18     	; 0xe04 <__pack_f+0x13c>
     df2:	40 5c       	subi	r20, 0xC0	; 192
     df4:	5f 4f       	sbci	r21, 0xFF	; 255
     df6:	6f 4f       	sbci	r22, 0xFF	; 255
     df8:	7f 4f       	sbci	r23, 0xFF	; 255
     dfa:	04 c0       	rjmp	.+8      	; 0xe04 <__pack_f+0x13c>
     dfc:	41 5c       	subi	r20, 0xC1	; 193
     dfe:	5f 4f       	sbci	r21, 0xFF	; 255
     e00:	6f 4f       	sbci	r22, 0xFF	; 255
     e02:	7f 4f       	sbci	r23, 0xFF	; 255
     e04:	77 fd       	sbrc	r23, 7
     e06:	03 c0       	rjmp	.+6      	; 0xe0e <__pack_f+0x146>
     e08:	81 58       	subi	r24, 0x81	; 129
     e0a:	9f 4f       	sbci	r25, 0xFF	; 255
     e0c:	06 c0       	rjmp	.+12     	; 0xe1a <__pack_f+0x152>
     e0e:	76 95       	lsr	r23
     e10:	67 95       	ror	r22
     e12:	57 95       	ror	r21
     e14:	47 95       	ror	r20
     e16:	80 58       	subi	r24, 0x80	; 128
     e18:	9f 4f       	sbci	r25, 0xFF	; 255
     e1a:	97 e0       	ldi	r25, 0x07	; 7
     e1c:	76 95       	lsr	r23
     e1e:	67 95       	ror	r22
     e20:	57 95       	ror	r21
     e22:	47 95       	ror	r20
     e24:	9a 95       	dec	r25
     e26:	d1 f7       	brne	.-12     	; 0xe1c <__pack_f+0x154>
     e28:	0b c0       	rjmp	.+22     	; 0xe40 <__pack_f+0x178>
     e2a:	80 e0       	ldi	r24, 0x00	; 0
     e2c:	90 e0       	ldi	r25, 0x00	; 0
     e2e:	05 c0       	rjmp	.+10     	; 0xe3a <__pack_f+0x172>
     e30:	80 e0       	ldi	r24, 0x00	; 0
     e32:	90 e0       	ldi	r25, 0x00	; 0
     e34:	05 c0       	rjmp	.+10     	; 0xe40 <__pack_f+0x178>
     e36:	8f ef       	ldi	r24, 0xFF	; 255
     e38:	90 e0       	ldi	r25, 0x00	; 0
     e3a:	40 e0       	ldi	r20, 0x00	; 0
     e3c:	50 e0       	ldi	r21, 0x00	; 0
     e3e:	ba 01       	movw	r22, r20
     e40:	98 2f       	mov	r25, r24
     e42:	97 95       	ror	r25
     e44:	99 27       	eor	r25, r25
     e46:	97 95       	ror	r25
     e48:	a6 2f       	mov	r26, r22
     e4a:	af 77       	andi	r26, 0x7F	; 127
     e4c:	e7 95       	ror	r30
     e4e:	ee 27       	eor	r30, r30
     e50:	e7 95       	ror	r30
     e52:	86 95       	lsr	r24
     e54:	3a 2f       	mov	r19, r26
     e56:	39 2b       	or	r19, r25
     e58:	28 2f       	mov	r18, r24
     e5a:	2e 2b       	or	r18, r30
     e5c:	84 2f       	mov	r24, r20
     e5e:	95 2f       	mov	r25, r21
     e60:	a3 2f       	mov	r26, r19
     e62:	b2 2f       	mov	r27, r18
     e64:	bc 01       	movw	r22, r24
     e66:	cd 01       	movw	r24, r26
     e68:	1f 91       	pop	r17
     e6a:	0f 91       	pop	r16
     e6c:	ff 90       	pop	r15
     e6e:	ef 90       	pop	r14
     e70:	df 90       	pop	r13
     e72:	cf 90       	pop	r12
     e74:	08 95       	ret

00000e76 <__unpack_f>:
     e76:	dc 01       	movw	r26, r24
     e78:	fb 01       	movw	r30, r22
     e7a:	4c 91       	ld	r20, X
     e7c:	11 96       	adiw	r26, 0x01	; 1
     e7e:	5c 91       	ld	r21, X
     e80:	11 97       	sbiw	r26, 0x01	; 1
     e82:	12 96       	adiw	r26, 0x02	; 2
     e84:	8c 91       	ld	r24, X
     e86:	12 97       	sbiw	r26, 0x02	; 2
     e88:	68 2f       	mov	r22, r24
     e8a:	6f 77       	andi	r22, 0x7F	; 127
     e8c:	70 e0       	ldi	r23, 0x00	; 0
     e8e:	98 2f       	mov	r25, r24
     e90:	99 1f       	adc	r25, r25
     e92:	99 27       	eor	r25, r25
     e94:	99 1f       	adc	r25, r25
     e96:	13 96       	adiw	r26, 0x03	; 3
     e98:	2c 91       	ld	r18, X
     e9a:	13 97       	sbiw	r26, 0x03	; 3
     e9c:	82 2f       	mov	r24, r18
     e9e:	88 0f       	add	r24, r24
     ea0:	89 2b       	or	r24, r25
     ea2:	90 e0       	ldi	r25, 0x00	; 0
     ea4:	22 1f       	adc	r18, r18
     ea6:	22 27       	eor	r18, r18
     ea8:	22 1f       	adc	r18, r18
     eaa:	21 83       	std	Z+1, r18	; 0x01
     eac:	00 97       	sbiw	r24, 0x00	; 0
     eae:	39 f5       	brne	.+78     	; 0xefe <__unpack_f+0x88>
     eb0:	41 15       	cp	r20, r1
     eb2:	51 05       	cpc	r21, r1
     eb4:	61 05       	cpc	r22, r1
     eb6:	71 05       	cpc	r23, r1
     eb8:	11 f4       	brne	.+4      	; 0xebe <__unpack_f+0x48>
     eba:	82 e0       	ldi	r24, 0x02	; 2
     ebc:	29 c0       	rjmp	.+82     	; 0xf10 <__unpack_f+0x9a>
     ebe:	82 e8       	ldi	r24, 0x82	; 130
     ec0:	9f ef       	ldi	r25, 0xFF	; 255
     ec2:	82 83       	std	Z+2, r24	; 0x02
     ec4:	93 83       	std	Z+3, r25	; 0x03
     ec6:	27 e0       	ldi	r18, 0x07	; 7
     ec8:	44 0f       	add	r20, r20
     eca:	55 1f       	adc	r21, r21
     ecc:	66 1f       	adc	r22, r22
     ece:	77 1f       	adc	r23, r23
     ed0:	2a 95       	dec	r18
     ed2:	d1 f7       	brne	.-12     	; 0xec8 <__unpack_f+0x52>
     ed4:	83 e0       	ldi	r24, 0x03	; 3
     ed6:	80 83       	st	Z, r24
     ed8:	09 c0       	rjmp	.+18     	; 0xeec <__unpack_f+0x76>
     eda:	44 0f       	add	r20, r20
     edc:	55 1f       	adc	r21, r21
     ede:	66 1f       	adc	r22, r22
     ee0:	77 1f       	adc	r23, r23
     ee2:	82 81       	ldd	r24, Z+2	; 0x02
     ee4:	93 81       	ldd	r25, Z+3	; 0x03
     ee6:	01 97       	sbiw	r24, 0x01	; 1
     ee8:	82 83       	std	Z+2, r24	; 0x02
     eea:	93 83       	std	Z+3, r25	; 0x03
     eec:	40 30       	cpi	r20, 0x00	; 0
     eee:	80 e0       	ldi	r24, 0x00	; 0
     ef0:	58 07       	cpc	r21, r24
     ef2:	80 e0       	ldi	r24, 0x00	; 0
     ef4:	68 07       	cpc	r22, r24
     ef6:	80 e4       	ldi	r24, 0x40	; 64
     ef8:	78 07       	cpc	r23, r24
     efa:	78 f3       	brcs	.-34     	; 0xeda <__unpack_f+0x64>
     efc:	20 c0       	rjmp	.+64     	; 0xf3e <__unpack_f+0xc8>
     efe:	8f 3f       	cpi	r24, 0xFF	; 255
     f00:	91 05       	cpc	r25, r1
     f02:	79 f4       	brne	.+30     	; 0xf22 <__unpack_f+0xac>
     f04:	41 15       	cp	r20, r1
     f06:	51 05       	cpc	r21, r1
     f08:	61 05       	cpc	r22, r1
     f0a:	71 05       	cpc	r23, r1
     f0c:	19 f4       	brne	.+6      	; 0xf14 <__unpack_f+0x9e>
     f0e:	84 e0       	ldi	r24, 0x04	; 4
     f10:	80 83       	st	Z, r24
     f12:	08 95       	ret
     f14:	64 ff       	sbrs	r22, 4
     f16:	03 c0       	rjmp	.+6      	; 0xf1e <__unpack_f+0xa8>
     f18:	81 e0       	ldi	r24, 0x01	; 1
     f1a:	80 83       	st	Z, r24
     f1c:	10 c0       	rjmp	.+32     	; 0xf3e <__unpack_f+0xc8>
     f1e:	10 82       	st	Z, r1
     f20:	0e c0       	rjmp	.+28     	; 0xf3e <__unpack_f+0xc8>
     f22:	8f 57       	subi	r24, 0x7F	; 127
     f24:	90 40       	sbci	r25, 0x00	; 0
     f26:	82 83       	std	Z+2, r24	; 0x02
     f28:	93 83       	std	Z+3, r25	; 0x03
     f2a:	83 e0       	ldi	r24, 0x03	; 3
     f2c:	80 83       	st	Z, r24
     f2e:	87 e0       	ldi	r24, 0x07	; 7
     f30:	44 0f       	add	r20, r20
     f32:	55 1f       	adc	r21, r21
     f34:	66 1f       	adc	r22, r22
     f36:	77 1f       	adc	r23, r23
     f38:	8a 95       	dec	r24
     f3a:	d1 f7       	brne	.-12     	; 0xf30 <__unpack_f+0xba>
     f3c:	70 64       	ori	r23, 0x40	; 64
     f3e:	44 83       	std	Z+4, r20	; 0x04
     f40:	55 83       	std	Z+5, r21	; 0x05
     f42:	66 83       	std	Z+6, r22	; 0x06
     f44:	77 83       	std	Z+7, r23	; 0x07
     f46:	08 95       	ret

00000f48 <__fpcmp_parts_f>:
     f48:	cf 93       	push	r28
     f4a:	fc 01       	movw	r30, r24
     f4c:	db 01       	movw	r26, r22
     f4e:	90 81       	ld	r25, Z
     f50:	92 30       	cpi	r25, 0x02	; 2
     f52:	08 f4       	brcc	.+2      	; 0xf56 <__fpcmp_parts_f+0xe>
     f54:	4c c0       	rjmp	.+152    	; 0xfee <__fpcmp_parts_f+0xa6>
     f56:	8c 91       	ld	r24, X
     f58:	82 30       	cpi	r24, 0x02	; 2
     f5a:	08 f4       	brcc	.+2      	; 0xf5e <__fpcmp_parts_f+0x16>
     f5c:	48 c0       	rjmp	.+144    	; 0xfee <__fpcmp_parts_f+0xa6>
     f5e:	94 30       	cpi	r25, 0x04	; 4
     f60:	69 f4       	brne	.+26     	; 0xf7c <__fpcmp_parts_f+0x34>
     f62:	21 81       	ldd	r18, Z+1	; 0x01
     f64:	84 30       	cpi	r24, 0x04	; 4
     f66:	39 f4       	brne	.+14     	; 0xf76 <__fpcmp_parts_f+0x2e>
     f68:	11 96       	adiw	r26, 0x01	; 1
     f6a:	8c 91       	ld	r24, X
     f6c:	11 97       	sbiw	r26, 0x01	; 1
     f6e:	90 e0       	ldi	r25, 0x00	; 0
     f70:	82 1b       	sub	r24, r18
     f72:	91 09       	sbc	r25, r1
     f74:	44 c0       	rjmp	.+136    	; 0xffe <__fpcmp_parts_f+0xb6>
     f76:	22 23       	and	r18, r18
     f78:	d1 f1       	breq	.+116    	; 0xfee <__fpcmp_parts_f+0xa6>
     f7a:	3f c0       	rjmp	.+126    	; 0xffa <__fpcmp_parts_f+0xb2>
     f7c:	84 30       	cpi	r24, 0x04	; 4
     f7e:	21 f0       	breq	.+8      	; 0xf88 <__fpcmp_parts_f+0x40>
     f80:	92 30       	cpi	r25, 0x02	; 2
     f82:	41 f4       	brne	.+16     	; 0xf94 <__fpcmp_parts_f+0x4c>
     f84:	82 30       	cpi	r24, 0x02	; 2
     f86:	b1 f1       	breq	.+108    	; 0xff4 <__fpcmp_parts_f+0xac>
     f88:	11 96       	adiw	r26, 0x01	; 1
     f8a:	8c 91       	ld	r24, X
     f8c:	11 97       	sbiw	r26, 0x01	; 1
     f8e:	88 23       	and	r24, r24
     f90:	a1 f1       	breq	.+104    	; 0xffa <__fpcmp_parts_f+0xb2>
     f92:	2d c0       	rjmp	.+90     	; 0xfee <__fpcmp_parts_f+0xa6>
     f94:	c1 81       	ldd	r28, Z+1	; 0x01
     f96:	82 30       	cpi	r24, 0x02	; 2
     f98:	01 f1       	breq	.+64     	; 0xfda <__fpcmp_parts_f+0x92>
     f9a:	11 96       	adiw	r26, 0x01	; 1
     f9c:	8c 91       	ld	r24, X
     f9e:	11 97       	sbiw	r26, 0x01	; 1
     fa0:	c8 17       	cp	r28, r24
     fa2:	d9 f4       	brne	.+54     	; 0xfda <__fpcmp_parts_f+0x92>
     fa4:	82 81       	ldd	r24, Z+2	; 0x02
     fa6:	93 81       	ldd	r25, Z+3	; 0x03
     fa8:	12 96       	adiw	r26, 0x02	; 2
     faa:	2d 91       	ld	r18, X+
     fac:	3c 91       	ld	r19, X
     fae:	13 97       	sbiw	r26, 0x03	; 3
     fb0:	28 17       	cp	r18, r24
     fb2:	39 07       	cpc	r19, r25
     fb4:	94 f0       	brlt	.+36     	; 0xfda <__fpcmp_parts_f+0x92>
     fb6:	82 17       	cp	r24, r18
     fb8:	93 07       	cpc	r25, r19
     fba:	bc f0       	brlt	.+46     	; 0xfea <__fpcmp_parts_f+0xa2>
     fbc:	44 81       	ldd	r20, Z+4	; 0x04
     fbe:	55 81       	ldd	r21, Z+5	; 0x05
     fc0:	66 81       	ldd	r22, Z+6	; 0x06
     fc2:	77 81       	ldd	r23, Z+7	; 0x07
     fc4:	14 96       	adiw	r26, 0x04	; 4
     fc6:	8d 91       	ld	r24, X+
     fc8:	9d 91       	ld	r25, X+
     fca:	0d 90       	ld	r0, X+
     fcc:	bc 91       	ld	r27, X
     fce:	a0 2d       	mov	r26, r0
     fd0:	84 17       	cp	r24, r20
     fd2:	95 07       	cpc	r25, r21
     fd4:	a6 07       	cpc	r26, r22
     fd6:	b7 07       	cpc	r27, r23
     fd8:	18 f4       	brcc	.+6      	; 0xfe0 <__fpcmp_parts_f+0x98>
     fda:	cc 23       	and	r28, r28
     fdc:	41 f0       	breq	.+16     	; 0xfee <__fpcmp_parts_f+0xa6>
     fde:	0d c0       	rjmp	.+26     	; 0xffa <__fpcmp_parts_f+0xb2>
     fe0:	48 17       	cp	r20, r24
     fe2:	59 07       	cpc	r21, r25
     fe4:	6a 07       	cpc	r22, r26
     fe6:	7b 07       	cpc	r23, r27
     fe8:	28 f4       	brcc	.+10     	; 0xff4 <__fpcmp_parts_f+0xac>
     fea:	cc 23       	and	r28, r28
     fec:	31 f0       	breq	.+12     	; 0xffa <__fpcmp_parts_f+0xb2>
     fee:	81 e0       	ldi	r24, 0x01	; 1
     ff0:	90 e0       	ldi	r25, 0x00	; 0
     ff2:	05 c0       	rjmp	.+10     	; 0xffe <__fpcmp_parts_f+0xb6>
     ff4:	80 e0       	ldi	r24, 0x00	; 0
     ff6:	90 e0       	ldi	r25, 0x00	; 0
     ff8:	02 c0       	rjmp	.+4      	; 0xffe <__fpcmp_parts_f+0xb6>
     ffa:	8f ef       	ldi	r24, 0xFF	; 255
     ffc:	9f ef       	ldi	r25, 0xFF	; 255
     ffe:	cf 91       	pop	r28
    1000:	08 95       	ret

00001002 <LCDDataLines>:
    1002:	e4 e2       	ldi	r30, 0x24	; 36
    1004:	f6 e0       	ldi	r31, 0x06	; 6
    1006:	90 81       	ld	r25, Z
    1008:	28 2f       	mov	r18, r24
    100a:	21 70       	andi	r18, 0x01	; 1
    100c:	22 0f       	add	r18, r18
    100e:	22 0f       	add	r18, r18
    1010:	9b 7f       	andi	r25, 0xFB	; 251
    1012:	92 2b       	or	r25, r18
    1014:	90 83       	st	Z, r25
    1016:	90 e0       	ldi	r25, 0x00	; 0
    1018:	60 81       	ld	r22, Z
    101a:	ac 01       	movw	r20, r24
    101c:	42 70       	andi	r20, 0x02	; 2
    101e:	50 70       	andi	r21, 0x00	; 0
    1020:	55 95       	asr	r21
    1022:	47 95       	ror	r20
    1024:	9a 01       	movw	r18, r20
    1026:	22 0f       	add	r18, r18
    1028:	33 1f       	adc	r19, r19
    102a:	22 95       	swap	r18
    102c:	32 95       	swap	r19
    102e:	30 7f       	andi	r19, 0xF0	; 240
    1030:	32 27       	eor	r19, r18
    1032:	20 7f       	andi	r18, 0xF0	; 240
    1034:	32 27       	eor	r19, r18
    1036:	36 2f       	mov	r19, r22
    1038:	3f 7d       	andi	r19, 0xDF	; 223
    103a:	23 2b       	or	r18, r19
    103c:	20 83       	st	Z, r18
    103e:	60 81       	ld	r22, Z
    1040:	ac 01       	movw	r20, r24
    1042:	44 70       	andi	r20, 0x04	; 4
    1044:	50 70       	andi	r21, 0x00	; 0
    1046:	55 95       	asr	r21
    1048:	47 95       	ror	r20
    104a:	55 95       	asr	r21
    104c:	47 95       	ror	r20
    104e:	9a 01       	movw	r18, r20
    1050:	22 95       	swap	r18
    1052:	32 95       	swap	r19
    1054:	30 7f       	andi	r19, 0xF0	; 240
    1056:	32 27       	eor	r19, r18
    1058:	20 7f       	andi	r18, 0xF0	; 240
    105a:	32 27       	eor	r19, r18
    105c:	36 2f       	mov	r19, r22
    105e:	3f 7e       	andi	r19, 0xEF	; 239
    1060:	23 2b       	or	r18, r19
    1062:	20 83       	st	Z, r18
    1064:	e4 e4       	ldi	r30, 0x44	; 68
    1066:	f6 e0       	ldi	r31, 0x06	; 6
    1068:	40 81       	ld	r20, Z
    106a:	88 70       	andi	r24, 0x08	; 8
    106c:	90 70       	andi	r25, 0x00	; 0
    106e:	9c 01       	movw	r18, r24
    1070:	35 95       	asr	r19
    1072:	27 95       	ror	r18
    1074:	35 95       	asr	r19
    1076:	27 95       	ror	r18
    1078:	35 95       	asr	r19
    107a:	27 95       	ror	r18
    107c:	c9 01       	movw	r24, r18
    107e:	88 0f       	add	r24, r24
    1080:	99 1f       	adc	r25, r25
    1082:	82 95       	swap	r24
    1084:	92 95       	swap	r25
    1086:	90 7f       	andi	r25, 0xF0	; 240
    1088:	98 27       	eor	r25, r24
    108a:	80 7f       	andi	r24, 0xF0	; 240
    108c:	98 27       	eor	r25, r24
    108e:	94 2f       	mov	r25, r20
    1090:	9f 7d       	andi	r25, 0xDF	; 223
    1092:	89 2b       	or	r24, r25
    1094:	80 83       	st	Z, r24
    1096:	08 95       	ret

00001098 <LCDDirOut>:
    1098:	e0 e2       	ldi	r30, 0x20	; 32
    109a:	f6 e0       	ldi	r31, 0x06	; 6
    109c:	80 81       	ld	r24, Z
    109e:	84 60       	ori	r24, 0x04	; 4
    10a0:	80 83       	st	Z, r24
    10a2:	80 81       	ld	r24, Z
    10a4:	80 62       	ori	r24, 0x20	; 32
    10a6:	80 83       	st	Z, r24
    10a8:	80 81       	ld	r24, Z
    10aa:	80 61       	ori	r24, 0x10	; 16
    10ac:	80 83       	st	Z, r24
    10ae:	e0 e4       	ldi	r30, 0x40	; 64
    10b0:	f6 e0       	ldi	r31, 0x06	; 6
    10b2:	80 81       	ld	r24, Z
    10b4:	80 62       	ori	r24, 0x20	; 32
    10b6:	80 83       	st	Z, r24
    10b8:	08 95       	ret

000010ba <LCDDirIn>:
    10ba:	e0 e2       	ldi	r30, 0x20	; 32
    10bc:	f6 e0       	ldi	r31, 0x06	; 6
    10be:	80 81       	ld	r24, Z
    10c0:	8b 7f       	andi	r24, 0xFB	; 251
    10c2:	80 83       	st	Z, r24
    10c4:	80 81       	ld	r24, Z
    10c6:	8f 7d       	andi	r24, 0xDF	; 223
    10c8:	80 83       	st	Z, r24
    10ca:	80 81       	ld	r24, Z
    10cc:	8f 7e       	andi	r24, 0xEF	; 239
    10ce:	80 83       	st	Z, r24
    10d0:	e0 e4       	ldi	r30, 0x40	; 64
    10d2:	f6 e0       	ldi	r31, 0x06	; 6
    10d4:	80 81       	ld	r24, Z
    10d6:	8f 7d       	andi	r24, 0xDF	; 223
    10d8:	80 83       	st	Z, r24
    10da:	08 95       	ret

000010dc <LCDSendData>:
    10dc:	1f 93       	push	r17
    10de:	cf 93       	push	r28
    10e0:	df 93       	push	r29
    10e2:	18 2f       	mov	r17, r24
	#else
		//round up by default
		__ticks_dc = (uint32_t)(ceil(fabs(__tmp)));
	#endif

	__builtin_avr_delay_cycles(__ticks_dc);
    10e4:	8f e1       	ldi	r24, 0x1F	; 31
    10e6:	93 e0       	ldi	r25, 0x03	; 3
    10e8:	01 97       	sbiw	r24, 0x01	; 1
    10ea:	f1 f7       	brne	.-4      	; 0x10e8 <LCDSendData+0xc>
    10ec:	00 c0       	rjmp	.+0      	; 0x10ee <LCDSendData+0x12>
    10ee:	00 00       	nop
    10f0:	81 2f       	mov	r24, r17
    10f2:	82 95       	swap	r24
    10f4:	8f 70       	andi	r24, 0x0F	; 15
    10f6:	85 df       	rcall	.-246    	; 0x1002 <LCDDataLines>
    10f8:	c4 e2       	ldi	r28, 0x24	; 36
    10fa:	d6 e0       	ldi	r29, 0x06	; 6
    10fc:	88 81       	ld	r24, Y
    10fe:	82 60       	ori	r24, 0x02	; 2
    1100:	88 83       	st	Y, r24
    1102:	88 81       	ld	r24, Y
    1104:	88 60       	ori	r24, 0x08	; 8
    1106:	88 83       	st	Y, r24
    1108:	95 ed       	ldi	r25, 0xD5	; 213
    110a:	9a 95       	dec	r25
    110c:	f1 f7       	brne	.-4      	; 0x110a <LCDSendData+0x2e>
    110e:	00 00       	nop
    1110:	88 81       	ld	r24, Y
    1112:	87 7f       	andi	r24, 0xF7	; 247
    1114:	88 83       	st	Y, r24
    1116:	85 ed       	ldi	r24, 0xD5	; 213
    1118:	8a 95       	dec	r24
    111a:	f1 f7       	brne	.-4      	; 0x1118 <LCDSendData+0x3c>
    111c:	00 00       	nop
    111e:	81 2f       	mov	r24, r17
    1120:	70 df       	rcall	.-288    	; 0x1002 <LCDDataLines>
    1122:	88 81       	ld	r24, Y
    1124:	88 60       	ori	r24, 0x08	; 8
    1126:	88 83       	st	Y, r24
    1128:	95 ed       	ldi	r25, 0xD5	; 213
    112a:	9a 95       	dec	r25
    112c:	f1 f7       	brne	.-4      	; 0x112a <LCDSendData+0x4e>
    112e:	00 00       	nop
    1130:	88 81       	ld	r24, Y
    1132:	87 7f       	andi	r24, 0xF7	; 247
    1134:	88 83       	st	Y, r24
    1136:	df 91       	pop	r29
    1138:	cf 91       	pop	r28
    113a:	1f 91       	pop	r17
    113c:	08 95       	ret

0000113e <LCDSendCommand>:
    113e:	1f 93       	push	r17
    1140:	cf 93       	push	r28
    1142:	df 93       	push	r29
    1144:	18 2f       	mov	r17, r24
    1146:	81 50       	subi	r24, 0x01	; 1
    1148:	82 30       	cpi	r24, 0x02	; 2
    114a:	38 f4       	brcc	.+14     	; 0x115a <LCDSendCommand+0x1c>
	#else
		//round up by default
		__ticks_dc = (uint32_t)(ceil(fabs(__tmp)));
	#endif

	__builtin_avr_delay_cycles(__ticks_dc);
    114c:	8f e3       	ldi	r24, 0x3F	; 63
    114e:	9c e9       	ldi	r25, 0x9C	; 156
    1150:	01 97       	sbiw	r24, 0x01	; 1
    1152:	f1 f7       	brne	.-4      	; 0x1150 <LCDSendCommand+0x12>
    1154:	00 c0       	rjmp	.+0      	; 0x1156 <LCDSendCommand+0x18>
    1156:	00 00       	nop
    1158:	06 c0       	rjmp	.+12     	; 0x1166 <LCDSendCommand+0x28>
    115a:	8f e3       	ldi	r24, 0x3F	; 63
    115c:	9f e1       	ldi	r25, 0x1F	; 31
    115e:	01 97       	sbiw	r24, 0x01	; 1
    1160:	f1 f7       	brne	.-4      	; 0x115e <LCDSendCommand+0x20>
    1162:	00 c0       	rjmp	.+0      	; 0x1164 <LCDSendCommand+0x26>
    1164:	00 00       	nop
    1166:	81 2f       	mov	r24, r17
    1168:	82 95       	swap	r24
    116a:	8f 70       	andi	r24, 0x0F	; 15
    116c:	4a df       	rcall	.-364    	; 0x1002 <LCDDataLines>
    116e:	c4 e2       	ldi	r28, 0x24	; 36
    1170:	d6 e0       	ldi	r29, 0x06	; 6
    1172:	88 81       	ld	r24, Y
    1174:	8d 7f       	andi	r24, 0xFD	; 253
    1176:	88 83       	st	Y, r24
    1178:	88 81       	ld	r24, Y
    117a:	88 60       	ori	r24, 0x08	; 8
    117c:	88 83       	st	Y, r24
    117e:	95 ed       	ldi	r25, 0xD5	; 213
	#else
		//round up by default
		__ticks_dc = (uint32_t)(ceil(fabs(__tmp)));
	#endif

	__builtin_avr_delay_cycles(__ticks_dc);
    1180:	9a 95       	dec	r25
    1182:	f1 f7       	brne	.-4      	; 0x1180 <LCDSendCommand+0x42>
    1184:	00 00       	nop
    1186:	88 81       	ld	r24, Y
    1188:	87 7f       	andi	r24, 0xF7	; 247
    118a:	88 83       	st	Y, r24
    118c:	85 ed       	ldi	r24, 0xD5	; 213
    118e:	8a 95       	dec	r24
    1190:	f1 f7       	brne	.-4      	; 0x118e <LCDSendCommand+0x50>
    1192:	00 00       	nop
    1194:	81 2f       	mov	r24, r17
    1196:	35 df       	rcall	.-406    	; 0x1002 <LCDDataLines>
    1198:	88 81       	ld	r24, Y
    119a:	88 60       	ori	r24, 0x08	; 8
    119c:	88 83       	st	Y, r24
    119e:	95 ed       	ldi	r25, 0xD5	; 213
    11a0:	9a 95       	dec	r25
    11a2:	f1 f7       	brne	.-4      	; 0x11a0 <LCDSendCommand+0x62>
    11a4:	00 00       	nop
    11a6:	88 81       	ld	r24, Y
    11a8:	87 7f       	andi	r24, 0xF7	; 247
    11aa:	88 83       	st	Y, r24
    11ac:	df 91       	pop	r29
    11ae:	cf 91       	pop	r28
    11b0:	1f 91       	pop	r17
    11b2:	08 95       	ret

000011b4 <LCDInit>:
    11b4:	cf 93       	push	r28
    11b6:	df 93       	push	r29
    11b8:	c4 e2       	ldi	r28, 0x24	; 36
    11ba:	d6 e0       	ldi	r29, 0x06	; 6
    11bc:	88 81       	ld	r24, Y
    11be:	87 7f       	andi	r24, 0xF7	; 247
    11c0:	88 83       	st	Y, r24
    11c2:	7b df       	rcall	.-266    	; 0x10ba <LCDDirIn>
    11c4:	8f ef       	ldi	r24, 0xFF	; 255
	#else
		//round up by default
		__ticks_dc = (uint32_t)(ceil(fabs(__tmp)));
	#endif

	__builtin_avr_delay_cycles(__ticks_dc);
    11c6:	97 ee       	ldi	r25, 0xE7	; 231
    11c8:	a3 e0       	ldi	r26, 0x03	; 3
    11ca:	81 50       	subi	r24, 0x01	; 1
    11cc:	90 40       	sbci	r25, 0x00	; 0
    11ce:	a0 40       	sbci	r26, 0x00	; 0
    11d0:	e1 f7       	brne	.-8      	; 0x11ca <LCDInit+0x16>
    11d2:	00 c0       	rjmp	.+0      	; 0x11d4 <LCDInit+0x20>
    11d4:	00 00       	nop
    11d6:	60 df       	rcall	.-320    	; 0x1098 <LCDDirOut>
    11d8:	83 e0       	ldi	r24, 0x03	; 3
    11da:	13 df       	rcall	.-474    	; 0x1002 <LCDDataLines>
    11dc:	e0 e2       	ldi	r30, 0x20	; 32
    11de:	f6 e0       	ldi	r31, 0x06	; 6
    11e0:	80 81       	ld	r24, Z
    11e2:	82 60       	ori	r24, 0x02	; 2
    11e4:	80 83       	st	Z, r24
    11e6:	80 81       	ld	r24, Z
    11e8:	81 60       	ori	r24, 0x01	; 1
    11ea:	80 83       	st	Z, r24
    11ec:	88 81       	ld	r24, Y
    11ee:	8d 7f       	andi	r24, 0xFD	; 253
    11f0:	88 83       	st	Y, r24
    11f2:	88 81       	ld	r24, Y
    11f4:	8e 7f       	andi	r24, 0xFE	; 254
    11f6:	88 83       	st	Y, r24
    11f8:	80 81       	ld	r24, Z
    11fa:	88 60       	ori	r24, 0x08	; 8
    11fc:	80 83       	st	Z, r24
    11fe:	95 ed       	ldi	r25, 0xD5	; 213
    1200:	9a 95       	dec	r25
    1202:	f1 f7       	brne	.-4      	; 0x1200 <LCDInit+0x4c>
	#else
		//round up by default
		__ticks_dc = (uint32_t)(ceil(fabs(__tmp)));
	#endif

	__builtin_avr_delay_cycles(__ticks_dc);
    1204:	00 00       	nop
    1206:	88 81       	ld	r24, Y
    1208:	88 60       	ori	r24, 0x08	; 8
    120a:	88 83       	st	Y, r24
    120c:	a5 ed       	ldi	r26, 0xD5	; 213
    120e:	aa 95       	dec	r26
    1210:	f1 f7       	brne	.-4      	; 0x120e <LCDInit+0x5a>
    1212:	00 00       	nop
    1214:	88 81       	ld	r24, Y
    1216:	87 7f       	andi	r24, 0xF7	; 247
    1218:	88 83       	st	Y, r24
    121a:	8f ef       	ldi	r24, 0xFF	; 255
    121c:	93 ef       	ldi	r25, 0xF3	; 243
    121e:	a1 e0       	ldi	r26, 0x01	; 1
	#else
		//round up by default
		__ticks_dc = (uint32_t)(ceil(fabs(__tmp)));
	#endif

	__builtin_avr_delay_cycles(__ticks_dc);
    1220:	81 50       	subi	r24, 0x01	; 1
    1222:	90 40       	sbci	r25, 0x00	; 0
    1224:	a0 40       	sbci	r26, 0x00	; 0
    1226:	e1 f7       	brne	.-8      	; 0x1220 <LCDInit+0x6c>
    1228:	00 c0       	rjmp	.+0      	; 0x122a <LCDInit+0x76>
    122a:	00 00       	nop
    122c:	88 81       	ld	r24, Y
    122e:	88 60       	ori	r24, 0x08	; 8
    1230:	88 83       	st	Y, r24
    1232:	95 ed       	ldi	r25, 0xD5	; 213
    1234:	9a 95       	dec	r25
    1236:	f1 f7       	brne	.-4      	; 0x1234 <LCDInit+0x80>
	#else
		//round up by default
		__ticks_dc = (uint32_t)(ceil(fabs(__tmp)));
	#endif

	__builtin_avr_delay_cycles(__ticks_dc);
    1238:	00 00       	nop
    123a:	88 81       	ld	r24, Y
    123c:	87 7f       	andi	r24, 0xF7	; 247
    123e:	88 83       	st	Y, r24
    1240:	af e1       	ldi	r26, 0x1F	; 31
    1242:	b3 e0       	ldi	r27, 0x03	; 3
    1244:	11 97       	sbiw	r26, 0x01	; 1
    1246:	f1 f7       	brne	.-4      	; 0x1244 <LCDInit+0x90>
    1248:	00 c0       	rjmp	.+0      	; 0x124a <LCDInit+0x96>
    124a:	00 00       	nop
    124c:	88 81       	ld	r24, Y
    124e:	88 60       	ori	r24, 0x08	; 8
    1250:	88 83       	st	Y, r24
    1252:	b5 ed       	ldi	r27, 0xD5	; 213
    1254:	ba 95       	dec	r27
    1256:	f1 f7       	brne	.-4      	; 0x1254 <LCDInit+0xa0>
    1258:	00 00       	nop
    125a:	88 81       	ld	r24, Y
    125c:	87 7f       	andi	r24, 0xF7	; 247
    125e:	88 83       	st	Y, r24
    1260:	8f e1       	ldi	r24, 0x1F	; 31
    1262:	93 e0       	ldi	r25, 0x03	; 3
    1264:	01 97       	sbiw	r24, 0x01	; 1
    1266:	f1 f7       	brne	.-4      	; 0x1264 <LCDInit+0xb0>
    1268:	00 c0       	rjmp	.+0      	; 0x126a <LCDInit+0xb6>
    126a:	00 00       	nop
    126c:	82 e0       	ldi	r24, 0x02	; 2
    126e:	c9 de       	rcall	.-622    	; 0x1002 <LCDDataLines>
    1270:	95 ed       	ldi	r25, 0xD5	; 213
    1272:	9a 95       	dec	r25
    1274:	f1 f7       	brne	.-4      	; 0x1272 <LCDInit+0xbe>
    1276:	00 00       	nop
    1278:	88 81       	ld	r24, Y
    127a:	88 60       	ori	r24, 0x08	; 8
    127c:	88 83       	st	Y, r24
    127e:	a5 ed       	ldi	r26, 0xD5	; 213
    1280:	aa 95       	dec	r26
    1282:	f1 f7       	brne	.-4      	; 0x1280 <LCDInit+0xcc>
    1284:	00 00       	nop
    1286:	88 81       	ld	r24, Y
    1288:	87 7f       	andi	r24, 0xF7	; 247
    128a:	88 83       	st	Y, r24
    128c:	8f e1       	ldi	r24, 0x1F	; 31
    128e:	93 e0       	ldi	r25, 0x03	; 3
    1290:	01 97       	sbiw	r24, 0x01	; 1
    1292:	f1 f7       	brne	.-4      	; 0x1290 <LCDInit+0xdc>
    1294:	00 c0       	rjmp	.+0      	; 0x1296 <LCDInit+0xe2>
    1296:	00 00       	nop
    1298:	88 e2       	ldi	r24, 0x28	; 40
    129a:	51 df       	rcall	.-350    	; 0x113e <LCDSendCommand>
    129c:	88 e0       	ldi	r24, 0x08	; 8
    129e:	4f df       	rcall	.-354    	; 0x113e <LCDSendCommand>
    12a0:	81 e0       	ldi	r24, 0x01	; 1
    12a2:	4d df       	rcall	.-358    	; 0x113e <LCDSendCommand>
    12a4:	86 e0       	ldi	r24, 0x06	; 6
    12a6:	4b df       	rcall	.-362    	; 0x113e <LCDSendCommand>
    12a8:	8c e0       	ldi	r24, 0x0C	; 12
    12aa:	49 df       	rcall	.-366    	; 0x113e <LCDSendCommand>
    12ac:	df 91       	pop	r29
    12ae:	cf 91       	pop	r28
    12b0:	08 95       	ret

000012b2 <LCDStringRam>:
    12b2:	cf 93       	push	r28
    12b4:	df 93       	push	r29
    12b6:	ec 01       	movw	r28, r24
    12b8:	88 81       	ld	r24, Y
    12ba:	88 23       	and	r24, r24
    12bc:	29 f0       	breq	.+10     	; 0x12c8 <LCDStringRam+0x16>
    12be:	21 96       	adiw	r28, 0x01	; 1
    12c0:	0d df       	rcall	.-486    	; 0x10dc <LCDSendData>
    12c2:	89 91       	ld	r24, Y+
    12c4:	88 23       	and	r24, r24
    12c6:	e1 f7       	brne	.-8      	; 0x12c0 <LCDStringRam+0xe>
    12c8:	df 91       	pop	r29
    12ca:	cf 91       	pop	r28
    12cc:	08 95       	ret

000012ce <LCDGotoXY>:
    12ce:	62 30       	cpi	r22, 0x02	; 2
    12d0:	31 f0       	breq	.+12     	; 0x12de <LCDGotoXY+0x10>
    12d2:	63 30       	cpi	r22, 0x03	; 3
    12d4:	31 f0       	breq	.+12     	; 0x12e2 <LCDGotoXY+0x14>
    12d6:	61 30       	cpi	r22, 0x01	; 1
    12d8:	29 f4       	brne	.+10     	; 0x12e4 <LCDGotoXY+0x16>
    12da:	80 5c       	subi	r24, 0xC0	; 192
    12dc:	03 c0       	rjmp	.+6      	; 0x12e4 <LCDGotoXY+0x16>
    12de:	8c 5e       	subi	r24, 0xEC	; 236
    12e0:	01 c0       	rjmp	.+2      	; 0x12e4 <LCDGotoXY+0x16>
    12e2:	8c 5a       	subi	r24, 0xAC	; 172
    12e4:	80 68       	ori	r24, 0x80	; 128
    12e6:	2b cf       	rjmp	.-426    	; 0x113e <LCDSendCommand>

000012e8 <menu_check_sw>:
    12e8:	fb 01       	movw	r30, r22
    12ea:	88 23       	and	r24, r24
    12ec:	31 f0       	breq	.+12     	; 0x12fa <menu_check_sw+0x12>
    12ee:	80 81       	ld	r24, Z
    12f0:	88 23       	and	r24, r24
    12f2:	31 f4       	brne	.+12     	; 0x1300 <menu_check_sw+0x18>
    12f4:	81 e0       	ldi	r24, 0x01	; 1
    12f6:	80 83       	st	Z, r24
    12f8:	08 95       	ret
    12fa:	10 82       	st	Z, r1
    12fc:	80 e0       	ldi	r24, 0x00	; 0
    12fe:	08 95       	ret
    1300:	80 e0       	ldi	r24, 0x00	; 0
    1302:	08 95       	ret

00001304 <Menu_Display>:
    1304:	e0 e2       	ldi	r30, 0x20	; 32
    1306:	f7 e0       	ldi	r31, 0x07	; 7
    1308:	84 81       	ldd	r24, Z+4	; 0x04
    130a:	20 91 ad 21 	lds	r18, 0x21AD
    130e:	a0 91 14 21 	lds	r26, 0x2114
    1312:	b0 e0       	ldi	r27, 0x00	; 0
    1314:	47 e1       	ldi	r20, 0x17	; 23
    1316:	51 e2       	ldi	r21, 0x21	; 33
    1318:	aa 0f       	add	r26, r26
    131a:	bb 1f       	adc	r27, r27
    131c:	a4 0f       	add	r26, r20
    131e:	b5 1f       	adc	r27, r21
    1320:	80 78       	andi	r24, 0x80	; 128
    1322:	9c 91       	ld	r25, X
    1324:	89 2b       	or	r24, r25
    1326:	82 23       	and	r24, r18
    1328:	84 83       	std	Z+4, r24	; 0x04
    132a:	e0 e0       	ldi	r30, 0x00	; 0
    132c:	f7 e0       	ldi	r31, 0x07	; 7
    132e:	34 81       	ldd	r19, Z+4	; 0x04
    1330:	80 91 15 21 	lds	r24, 0x2115
    1334:	90 e0       	ldi	r25, 0x00	; 0
    1336:	88 0f       	add	r24, r24
    1338:	99 1f       	adc	r25, r25
    133a:	84 0f       	add	r24, r20
    133c:	95 1f       	adc	r25, r21
    133e:	30 78       	andi	r19, 0x80	; 128
    1340:	dc 01       	movw	r26, r24
    1342:	9c 91       	ld	r25, X
    1344:	83 2f       	mov	r24, r19
    1346:	89 2b       	or	r24, r25
    1348:	28 23       	and	r18, r24
    134a:	24 83       	std	Z+4, r18	; 0x04
    134c:	08 95       	ret

0000134e <menu_table>:
    134e:	80 91 15 21 	lds	r24, 0x2115
    1352:	8e 30       	cpi	r24, 0x0E	; 14
    1354:	31 f4       	brne	.+12     	; 0x1362 <menu_table+0x14>
    1356:	80 91 14 21 	lds	r24, 0x2114
    135a:	8f 30       	cpi	r24, 0x0F	; 15
    135c:	11 f4       	brne	.+4      	; 0x1362 <menu_table+0x14>
    135e:	0c 94 59 16 	jmp	0x2cb2	; 0x2cb2 <wdt_reset_mcu>
    1362:	08 95       	ret

00001364 <menu_check_status>:
    1364:	1f 93       	push	r17
    1366:	cf 93       	push	r28
    1368:	df 93       	push	r29
    136a:	80 91 16 21 	lds	r24, 0x2116
    136e:	81 30       	cpi	r24, 0x01	; 1
    1370:	09 f4       	brne	.+2      	; 0x1374 <menu_check_status+0x10>
    1372:	80 c0       	rjmp	.+256    	; 0x1474 <menu_check_status+0x110>
    1374:	81 30       	cpi	r24, 0x01	; 1
    1376:	20 f0       	brcs	.+8      	; 0x1380 <menu_check_status+0x1c>
    1378:	82 30       	cpi	r24, 0x02	; 2
    137a:	09 f0       	breq	.+2      	; 0x137e <menu_check_status+0x1a>
    137c:	17 c1       	rjmp	.+558    	; 0x15ac <menu_check_status+0x248>
    137e:	ef c0       	rjmp	.+478    	; 0x155e <menu_check_status+0x1fa>
    1380:	c0 e0       	ldi	r28, 0x00	; 0
    1382:	d7 e0       	ldi	r29, 0x07	; 7
    1384:	1c 81       	ldd	r17, Y+4	; 0x04
    1386:	60 91 a3 21 	lds	r22, 0x21A3
    138a:	70 91 a4 21 	lds	r23, 0x21A4
    138e:	80 91 a5 21 	lds	r24, 0x21A5
    1392:	90 91 a6 21 	lds	r25, 0x21A6
    1396:	24 e6       	ldi	r18, 0x64	; 100
    1398:	30 e0       	ldi	r19, 0x00	; 0
    139a:	40 e0       	ldi	r20, 0x00	; 0
    139c:	50 e0       	ldi	r21, 0x00	; 0
    139e:	0e 94 06 32 	call	0x640c	; 0x640c <__udivmodsi4>
    13a2:	27 95       	ror	r18
    13a4:	22 27       	eor	r18, r18
    13a6:	27 95       	ror	r18
    13a8:	1f 77       	andi	r17, 0x7F	; 127
    13aa:	12 2b       	or	r17, r18
    13ac:	1c 83       	std	Y+4, r17	; 0x04
    13ae:	80 e8       	ldi	r24, 0x80	; 128
    13b0:	e0 e2       	ldi	r30, 0x20	; 32
    13b2:	f7 e0       	ldi	r31, 0x07	; 7
    13b4:	86 83       	std	Z+6, r24	; 0x06
    13b6:	e0 ee       	ldi	r30, 0xE0	; 224
    13b8:	f6 e0       	ldi	r31, 0x06	; 6
    13ba:	60 85       	ldd	r22, Z+8	; 0x08
    13bc:	80 85       	ldd	r24, Z+8	; 0x08
    13be:	20 85       	ldd	r18, Z+8	; 0x08
    13c0:	40 85       	ldd	r20, Z+8	; 0x08
    13c2:	50 e0       	ldi	r21, 0x00	; 0
    13c4:	41 70       	andi	r20, 0x01	; 1
    13c6:	50 70       	andi	r21, 0x00	; 0
    13c8:	44 0f       	add	r20, r20
    13ca:	55 1f       	adc	r21, r21
    13cc:	e8 2f       	mov	r30, r24
    13ce:	f0 e0       	ldi	r31, 0x00	; 0
    13d0:	e4 70       	andi	r30, 0x04	; 4
    13d2:	f0 70       	andi	r31, 0x00	; 0
    13d4:	f5 95       	asr	r31
    13d6:	e7 95       	ror	r30
    13d8:	f5 95       	asr	r31
    13da:	e7 95       	ror	r30
    13dc:	e4 2b       	or	r30, r20
    13de:	70 e0       	ldi	r23, 0x00	; 0
    13e0:	68 70       	andi	r22, 0x08	; 8
    13e2:	70 70       	andi	r23, 0x00	; 0
    13e4:	75 95       	asr	r23
    13e6:	67 95       	ror	r22
    13e8:	75 95       	asr	r23
    13ea:	67 95       	ror	r22
    13ec:	75 95       	asr	r23
    13ee:	67 95       	ror	r22
    13f0:	ab 01       	movw	r20, r22
    13f2:	44 0f       	add	r20, r20
    13f4:	55 1f       	adc	r21, r21
    13f6:	44 0f       	add	r20, r20
    13f8:	55 1f       	adc	r21, r21
    13fa:	4e 2b       	or	r20, r30
    13fc:	30 e0       	ldi	r19, 0x00	; 0
    13fe:	22 70       	andi	r18, 0x02	; 2
    1400:	30 70       	andi	r19, 0x00	; 0
    1402:	35 95       	asr	r19
    1404:	27 95       	ror	r18
    1406:	c9 01       	movw	r24, r18
    1408:	88 0f       	add	r24, r24
    140a:	99 1f       	adc	r25, r25
    140c:	88 0f       	add	r24, r24
    140e:	99 1f       	adc	r25, r25
    1410:	88 0f       	add	r24, r24
    1412:	99 1f       	adc	r25, r25
    1414:	84 2b       	or	r24, r20
    1416:	80 93 15 21 	sts	0x2115, r24
    141a:	80 e1       	ldi	r24, 0x10	; 16
    141c:	80 93 14 21 	sts	0x2114, r24
    1420:	71 df       	rcall	.-286    	; 0x1304 <Menu_Display>
    1422:	80 91 e8 06 	lds	r24, 0x06E8
    1426:	88 1f       	adc	r24, r24
    1428:	88 27       	eor	r24, r24
    142a:	88 1f       	adc	r24, r24
    142c:	6f e4       	ldi	r22, 0x4F	; 79
    142e:	71 e2       	ldi	r23, 0x21	; 33
    1430:	5b df       	rcall	.-330    	; 0x12e8 <menu_check_sw>
    1432:	88 23       	and	r24, r24
    1434:	29 f0       	breq	.+10     	; 0x1440 <menu_check_status+0xdc>
    1436:	80 91 16 21 	lds	r24, 0x2116
    143a:	8f 5f       	subi	r24, 0xFF	; 255
    143c:	80 93 16 21 	sts	0x2116, r24
    1440:	80 91 a8 06 	lds	r24, 0x06A8
    1444:	90 e0       	ldi	r25, 0x00	; 0
    1446:	80 71       	andi	r24, 0x10	; 16
    1448:	90 70       	andi	r25, 0x00	; 0
    144a:	95 95       	asr	r25
    144c:	87 95       	ror	r24
    144e:	95 95       	asr	r25
    1450:	87 95       	ror	r24
    1452:	95 95       	asr	r25
    1454:	87 95       	ror	r24
    1456:	95 95       	asr	r25
    1458:	87 95       	ror	r24
    145a:	6e e4       	ldi	r22, 0x4E	; 78
    145c:	71 e2       	ldi	r23, 0x21	; 33
    145e:	44 df       	rcall	.-376    	; 0x12e8 <menu_check_sw>
    1460:	88 23       	and	r24, r24
    1462:	09 f4       	brne	.+2      	; 0x1466 <menu_check_status+0x102>
    1464:	a3 c0       	rjmp	.+326    	; 0x15ac <menu_check_status+0x248>
    1466:	84 e6       	ldi	r24, 0x64	; 100
    1468:	90 e0       	ldi	r25, 0x00	; 0
    146a:	80 93 4c 21 	sts	0x214C, r24
    146e:	90 93 4d 21 	sts	0x214D, r25
    1472:	9c c0       	rjmp	.+312    	; 0x15ac <menu_check_status+0x248>
    1474:	c0 e2       	ldi	r28, 0x20	; 32
    1476:	d7 e0       	ldi	r29, 0x07	; 7
    1478:	1c 81       	ldd	r17, Y+4	; 0x04
    147a:	60 91 a3 21 	lds	r22, 0x21A3
    147e:	70 91 a4 21 	lds	r23, 0x21A4
    1482:	80 91 a5 21 	lds	r24, 0x21A5
    1486:	90 91 a6 21 	lds	r25, 0x21A6
    148a:	24 e6       	ldi	r18, 0x64	; 100
    148c:	30 e0       	ldi	r19, 0x00	; 0
    148e:	40 e0       	ldi	r20, 0x00	; 0
    1490:	50 e0       	ldi	r21, 0x00	; 0
    1492:	0e 94 06 32 	call	0x640c	; 0x640c <__udivmodsi4>
    1496:	27 95       	ror	r18
    1498:	22 27       	eor	r18, r18
    149a:	27 95       	ror	r18
    149c:	1f 77       	andi	r17, 0x7F	; 127
    149e:	12 2b       	or	r17, r18
    14a0:	1c 83       	std	Y+4, r17	; 0x04
    14a2:	80 e8       	ldi	r24, 0x80	; 128
    14a4:	e0 e0       	ldi	r30, 0x00	; 0
    14a6:	f7 e0       	ldi	r31, 0x07	; 7
    14a8:	85 83       	std	Z+5, r24	; 0x05
    14aa:	e0 ee       	ldi	r30, 0xE0	; 224
    14ac:	f6 e0       	ldi	r31, 0x06	; 6
    14ae:	60 85       	ldd	r22, Z+8	; 0x08
    14b0:	80 85       	ldd	r24, Z+8	; 0x08
    14b2:	20 85       	ldd	r18, Z+8	; 0x08
    14b4:	40 85       	ldd	r20, Z+8	; 0x08
    14b6:	50 e0       	ldi	r21, 0x00	; 0
    14b8:	41 70       	andi	r20, 0x01	; 1
    14ba:	50 70       	andi	r21, 0x00	; 0
    14bc:	44 0f       	add	r20, r20
    14be:	55 1f       	adc	r21, r21
    14c0:	e8 2f       	mov	r30, r24
    14c2:	f0 e0       	ldi	r31, 0x00	; 0
    14c4:	e4 70       	andi	r30, 0x04	; 4
    14c6:	f0 70       	andi	r31, 0x00	; 0
    14c8:	f5 95       	asr	r31
    14ca:	e7 95       	ror	r30
    14cc:	f5 95       	asr	r31
    14ce:	e7 95       	ror	r30
    14d0:	e4 2b       	or	r30, r20
    14d2:	70 e0       	ldi	r23, 0x00	; 0
    14d4:	68 70       	andi	r22, 0x08	; 8
    14d6:	70 70       	andi	r23, 0x00	; 0
    14d8:	75 95       	asr	r23
    14da:	67 95       	ror	r22
    14dc:	75 95       	asr	r23
    14de:	67 95       	ror	r22
    14e0:	75 95       	asr	r23
    14e2:	67 95       	ror	r22
    14e4:	ab 01       	movw	r20, r22
    14e6:	44 0f       	add	r20, r20
    14e8:	55 1f       	adc	r21, r21
    14ea:	44 0f       	add	r20, r20
    14ec:	55 1f       	adc	r21, r21
    14ee:	4e 2b       	or	r20, r30
    14f0:	30 e0       	ldi	r19, 0x00	; 0
    14f2:	22 70       	andi	r18, 0x02	; 2
    14f4:	30 70       	andi	r19, 0x00	; 0
    14f6:	35 95       	asr	r19
    14f8:	27 95       	ror	r18
    14fa:	c9 01       	movw	r24, r18
    14fc:	88 0f       	add	r24, r24
    14fe:	99 1f       	adc	r25, r25
    1500:	88 0f       	add	r24, r24
    1502:	99 1f       	adc	r25, r25
    1504:	88 0f       	add	r24, r24
    1506:	99 1f       	adc	r25, r25
    1508:	84 2b       	or	r24, r20
    150a:	80 93 14 21 	sts	0x2114, r24
    150e:	fa de       	rcall	.-524    	; 0x1304 <Menu_Display>
    1510:	80 91 e8 06 	lds	r24, 0x06E8
    1514:	88 1f       	adc	r24, r24
    1516:	88 27       	eor	r24, r24
    1518:	88 1f       	adc	r24, r24
    151a:	6f e4       	ldi	r22, 0x4F	; 79
    151c:	71 e2       	ldi	r23, 0x21	; 33
    151e:	e4 de       	rcall	.-568    	; 0x12e8 <menu_check_sw>
    1520:	88 23       	and	r24, r24
    1522:	29 f0       	breq	.+10     	; 0x152e <menu_check_status+0x1ca>
    1524:	80 91 16 21 	lds	r24, 0x2116
    1528:	8f 5f       	subi	r24, 0xFF	; 255
    152a:	80 93 16 21 	sts	0x2116, r24
    152e:	80 91 a8 06 	lds	r24, 0x06A8
    1532:	90 e0       	ldi	r25, 0x00	; 0
    1534:	80 71       	andi	r24, 0x10	; 16
    1536:	90 70       	andi	r25, 0x00	; 0
    1538:	95 95       	asr	r25
    153a:	87 95       	ror	r24
    153c:	95 95       	asr	r25
    153e:	87 95       	ror	r24
    1540:	95 95       	asr	r25
    1542:	87 95       	ror	r24
    1544:	95 95       	asr	r25
    1546:	87 95       	ror	r24
    1548:	6e e4       	ldi	r22, 0x4E	; 78
    154a:	71 e2       	ldi	r23, 0x21	; 33
    154c:	cd de       	rcall	.-614    	; 0x12e8 <menu_check_sw>
    154e:	88 23       	and	r24, r24
    1550:	69 f1       	breq	.+90     	; 0x15ac <menu_check_status+0x248>
    1552:	80 91 16 21 	lds	r24, 0x2116
    1556:	81 50       	subi	r24, 0x01	; 1
    1558:	80 93 16 21 	sts	0x2116, r24
    155c:	27 c0       	rjmp	.+78     	; 0x15ac <menu_check_status+0x248>
    155e:	80 e8       	ldi	r24, 0x80	; 128
    1560:	e0 e2       	ldi	r30, 0x20	; 32
    1562:	f7 e0       	ldi	r31, 0x07	; 7
    1564:	85 83       	std	Z+5, r24	; 0x05
    1566:	e0 e0       	ldi	r30, 0x00	; 0
    1568:	f7 e0       	ldi	r31, 0x07	; 7
    156a:	85 83       	std	Z+5, r24	; 0x05
    156c:	f0 de       	rcall	.-544    	; 0x134e <menu_table>
    156e:	80 91 a8 06 	lds	r24, 0x06A8
    1572:	90 e0       	ldi	r25, 0x00	; 0
    1574:	80 71       	andi	r24, 0x10	; 16
    1576:	90 70       	andi	r25, 0x00	; 0
    1578:	95 95       	asr	r25
    157a:	87 95       	ror	r24
    157c:	95 95       	asr	r25
    157e:	87 95       	ror	r24
    1580:	95 95       	asr	r25
    1582:	87 95       	ror	r24
    1584:	95 95       	asr	r25
    1586:	87 95       	ror	r24
    1588:	6e e4       	ldi	r22, 0x4E	; 78
    158a:	71 e2       	ldi	r23, 0x21	; 33
    158c:	ad de       	rcall	.-678    	; 0x12e8 <menu_check_sw>
    158e:	88 23       	and	r24, r24
    1590:	69 f0       	breq	.+26     	; 0x15ac <menu_check_status+0x248>
    1592:	80 91 16 21 	lds	r24, 0x2116
    1596:	81 50       	subi	r24, 0x01	; 1
    1598:	80 93 16 21 	sts	0x2116, r24
    159c:	c4 e1       	ldi	r28, 0x14	; 20
    159e:	d1 e2       	ldi	r29, 0x21	; 33
    15a0:	81 e1       	ldi	r24, 0x11	; 17
    15a2:	88 83       	st	Y, r24
    15a4:	d4 de       	rcall	.-600    	; 0x134e <menu_table>
    15a6:	80 e1       	ldi	r24, 0x10	; 16
    15a8:	88 83       	st	Y, r24
    15aa:	ac de       	rcall	.-680    	; 0x1304 <Menu_Display>
    15ac:	df 91       	pop	r29
    15ae:	cf 91       	pop	r28
    15b0:	1f 91       	pop	r17
    15b2:	08 95       	ret

000015b4 <Menu_Reset>:
    15b4:	ef 92       	push	r14
    15b6:	ff 92       	push	r15
    15b8:	0f 93       	push	r16
    15ba:	1f 93       	push	r17
    15bc:	cf 93       	push	r28
    15be:	df 93       	push	r29
    15c0:	ff 24       	eor	r15, r15
    15c2:	c5 e1       	ldi	r28, 0x15	; 21
    15c4:	d1 e2       	ldi	r29, 0x21	; 33
    15c6:	8e 01       	movw	r16, r28
    15c8:	01 50       	subi	r16, 0x01	; 1
    15ca:	10 40       	sbci	r17, 0x00	; 0
    15cc:	0f 2e       	mov	r0, r31
    15ce:	f1 e1       	ldi	r31, 0x11	; 17
    15d0:	ef 2e       	mov	r14, r31
    15d2:	f0 2d       	mov	r31, r0
    15d4:	f8 82       	st	Y, r15
    15d6:	f8 01       	movw	r30, r16
    15d8:	e0 82       	st	Z, r14
    15da:	b9 de       	rcall	.-654    	; 0x134e <menu_table>
    15dc:	f3 94       	inc	r15
    15de:	f0 e1       	ldi	r31, 0x10	; 16
    15e0:	ff 16       	cp	r15, r31
    15e2:	c1 f7       	brne	.-16     	; 0x15d4 <Menu_Reset+0x20>
    15e4:	80 e1       	ldi	r24, 0x10	; 16
    15e6:	80 93 14 21 	sts	0x2114, r24
    15ea:	80 93 15 21 	sts	0x2115, r24
    15ee:	10 92 16 21 	sts	0x2116, r1
    15f2:	df 91       	pop	r29
    15f4:	cf 91       	pop	r28
    15f6:	1f 91       	pop	r17
    15f8:	0f 91       	pop	r16
    15fa:	ff 90       	pop	r15
    15fc:	ef 90       	pop	r14
    15fe:	08 95       	ret

00001600 <sysclk_enable_module>:
    1600:	2f b7       	in	r18, 0x3f	; 63
    1602:	f8 94       	cli
    1604:	fc 01       	movw	r30, r24
    1606:	e0 59       	subi	r30, 0x90	; 144
    1608:	ff 4f       	sbci	r31, 0xFF	; 255
    160a:	60 95       	com	r22
    160c:	80 81       	ld	r24, Z
    160e:	68 23       	and	r22, r24
    1610:	60 83       	st	Z, r22
    1612:	2f bf       	out	0x3f, r18	; 63
    1614:	08 95       	ret

00001616 <sysclk_disable_module>:
    1616:	2f b7       	in	r18, 0x3f	; 63
    1618:	f8 94       	cli
    161a:	fc 01       	movw	r30, r24
    161c:	e0 59       	subi	r30, 0x90	; 144
    161e:	ff 4f       	sbci	r31, 0xFF	; 255
    1620:	80 81       	ld	r24, Z
    1622:	68 2b       	or	r22, r24
    1624:	60 83       	st	Z, r22
    1626:	2f bf       	out	0x3f, r18	; 63
    1628:	08 95       	ret

0000162a <adc_enable_clock>:
    162a:	22 e0       	ldi	r18, 0x02	; 2
    162c:	80 30       	cpi	r24, 0x00	; 0
    162e:	92 07       	cpc	r25, r18
    1630:	61 f4       	brne	.+24     	; 0x164a <adc_enable_clock+0x20>
    1632:	80 91 50 21 	lds	r24, 0x2150
    1636:	98 2f       	mov	r25, r24
    1638:	9f 5f       	subi	r25, 0xFF	; 255
    163a:	90 93 50 21 	sts	0x2150, r25
    163e:	88 23       	and	r24, r24
    1640:	a1 f4       	brne	.+40     	; 0x166a <adc_enable_clock+0x40>
    1642:	81 e0       	ldi	r24, 0x01	; 1
    1644:	90 e0       	ldi	r25, 0x00	; 0
    1646:	62 e0       	ldi	r22, 0x02	; 2
    1648:	db cf       	rjmp	.-74     	; 0x1600 <sysclk_enable_module>
    164a:	22 e0       	ldi	r18, 0x02	; 2
    164c:	80 34       	cpi	r24, 0x40	; 64
    164e:	92 07       	cpc	r25, r18
    1650:	61 f4       	brne	.+24     	; 0x166a <adc_enable_clock+0x40>
    1652:	80 91 51 21 	lds	r24, 0x2151
    1656:	98 2f       	mov	r25, r24
    1658:	9f 5f       	subi	r25, 0xFF	; 255
    165a:	90 93 51 21 	sts	0x2151, r25
    165e:	88 23       	and	r24, r24
    1660:	21 f4       	brne	.+8      	; 0x166a <adc_enable_clock+0x40>
    1662:	82 e0       	ldi	r24, 0x02	; 2
    1664:	90 e0       	ldi	r25, 0x00	; 0
    1666:	62 e0       	ldi	r22, 0x02	; 2
    1668:	cb cf       	rjmp	.-106    	; 0x1600 <sysclk_enable_module>
    166a:	08 95       	ret

0000166c <adc_disable_clock>:
    166c:	22 e0       	ldi	r18, 0x02	; 2
    166e:	80 30       	cpi	r24, 0x00	; 0
    1670:	92 07       	cpc	r25, r18
    1672:	59 f4       	brne	.+22     	; 0x168a <adc_disable_clock+0x1e>
    1674:	80 91 50 21 	lds	r24, 0x2150
    1678:	81 50       	subi	r24, 0x01	; 1
    167a:	80 93 50 21 	sts	0x2150, r24
    167e:	88 23       	and	r24, r24
    1680:	99 f4       	brne	.+38     	; 0x16a8 <adc_disable_clock+0x3c>
    1682:	81 e0       	ldi	r24, 0x01	; 1
    1684:	90 e0       	ldi	r25, 0x00	; 0
    1686:	62 e0       	ldi	r22, 0x02	; 2
    1688:	c6 cf       	rjmp	.-116    	; 0x1616 <sysclk_disable_module>
    168a:	22 e0       	ldi	r18, 0x02	; 2
    168c:	80 34       	cpi	r24, 0x40	; 64
    168e:	92 07       	cpc	r25, r18
    1690:	59 f4       	brne	.+22     	; 0x16a8 <adc_disable_clock+0x3c>
    1692:	80 91 51 21 	lds	r24, 0x2151
    1696:	81 50       	subi	r24, 0x01	; 1
    1698:	80 93 51 21 	sts	0x2151, r24
    169c:	88 23       	and	r24, r24
    169e:	21 f4       	brne	.+8      	; 0x16a8 <adc_disable_clock+0x3c>
    16a0:	82 e0       	ldi	r24, 0x02	; 2
    16a2:	90 e0       	ldi	r25, 0x00	; 0
    16a4:	62 e0       	ldi	r22, 0x02	; 2
    16a6:	b7 cf       	rjmp	.-146    	; 0x1616 <sysclk_disable_module>
    16a8:	08 95       	ret

000016aa <adc_enable>:
    16aa:	1f 93       	push	r17
    16ac:	cf 93       	push	r28
    16ae:	df 93       	push	r29
    16b0:	ec 01       	movw	r28, r24
    16b2:	1f b7       	in	r17, 0x3f	; 63
    16b4:	f8 94       	cli
    16b6:	b9 df       	rcall	.-142    	; 0x162a <adc_enable_clock>
    16b8:	88 81       	ld	r24, Y
    16ba:	81 60       	ori	r24, 0x01	; 1
    16bc:	88 83       	st	Y, r24
    16be:	1f bf       	out	0x3f, r17	; 63
    16c0:	8f b7       	in	r24, 0x3f	; 63
    16c2:	f8 94       	cli
    16c4:	90 91 af 21 	lds	r25, 0x21AF
    16c8:	9f 5f       	subi	r25, 0xFF	; 255
    16ca:	90 93 af 21 	sts	0x21AF, r25
    16ce:	8f bf       	out	0x3f, r24	; 63
    16d0:	df 91       	pop	r29
    16d2:	cf 91       	pop	r28
    16d4:	1f 91       	pop	r17
    16d6:	08 95       	ret

000016d8 <adc_write_configuration>:
    16d8:	df 92       	push	r13
    16da:	ef 92       	push	r14
    16dc:	ff 92       	push	r15
    16de:	0f 93       	push	r16
    16e0:	1f 93       	push	r17
    16e2:	cf 93       	push	r28
    16e4:	df 93       	push	r29
    16e6:	8c 01       	movw	r16, r24
    16e8:	7b 01       	movw	r14, r22
    16ea:	82 e0       	ldi	r24, 0x02	; 2
    16ec:	00 30       	cpi	r16, 0x00	; 0
    16ee:	18 07       	cpc	r17, r24
    16f0:	81 f4       	brne	.+32     	; 0x1712 <adc_write_configuration+0x3a>
    16f2:	82 e0       	ldi	r24, 0x02	; 2
    16f4:	61 e2       	ldi	r22, 0x21	; 33
    16f6:	70 e0       	ldi	r23, 0x00	; 0
    16f8:	c5 d0       	rcall	.+394    	; 0x1884 <nvm_read_byte>
    16fa:	c8 2f       	mov	r28, r24
    16fc:	82 e0       	ldi	r24, 0x02	; 2
    16fe:	60 e2       	ldi	r22, 0x20	; 32
    1700:	70 e0       	ldi	r23, 0x00	; 0
    1702:	c0 d0       	rcall	.+384    	; 0x1884 <nvm_read_byte>
    1704:	3c 2f       	mov	r19, r28
    1706:	20 e0       	ldi	r18, 0x00	; 0
    1708:	c8 2f       	mov	r28, r24
    170a:	d0 e0       	ldi	r29, 0x00	; 0
    170c:	c2 2b       	or	r28, r18
    170e:	d3 2b       	or	r29, r19
    1710:	13 c0       	rjmp	.+38     	; 0x1738 <adc_write_configuration+0x60>
    1712:	e2 e0       	ldi	r30, 0x02	; 2
    1714:	00 34       	cpi	r16, 0x40	; 64
    1716:	1e 07       	cpc	r17, r30
    1718:	c9 f5       	brne	.+114    	; 0x178c <adc_write_configuration+0xb4>
    171a:	82 e0       	ldi	r24, 0x02	; 2
    171c:	65 e2       	ldi	r22, 0x25	; 37
    171e:	70 e0       	ldi	r23, 0x00	; 0
    1720:	b1 d0       	rcall	.+354    	; 0x1884 <nvm_read_byte>
    1722:	c8 2f       	mov	r28, r24
    1724:	82 e0       	ldi	r24, 0x02	; 2
    1726:	64 e2       	ldi	r22, 0x24	; 36
    1728:	70 e0       	ldi	r23, 0x00	; 0
    172a:	ac d0       	rcall	.+344    	; 0x1884 <nvm_read_byte>
    172c:	3c 2f       	mov	r19, r28
    172e:	20 e0       	ldi	r18, 0x00	; 0
    1730:	c8 2f       	mov	r28, r24
    1732:	d0 e0       	ldi	r29, 0x00	; 0
    1734:	c2 2b       	or	r28, r18
    1736:	d3 2b       	or	r29, r19
    1738:	df b6       	in	r13, 0x3f	; 63
    173a:	f8 94       	cli
    173c:	c8 01       	movw	r24, r16
    173e:	75 df       	rcall	.-278    	; 0x162a <adc_enable_clock>
    1740:	f8 01       	movw	r30, r16
    1742:	20 81       	ld	r18, Z
    1744:	82 e0       	ldi	r24, 0x02	; 2
    1746:	80 83       	st	Z, r24
    1748:	c4 87       	std	Z+12, r28	; 0x0c
    174a:	d5 87       	std	Z+13, r29	; 0x0d
    174c:	f7 01       	movw	r30, r14
    174e:	85 81       	ldd	r24, Z+5	; 0x05
    1750:	96 81       	ldd	r25, Z+6	; 0x06
    1752:	f8 01       	movw	r30, r16
    1754:	80 8f       	std	Z+24, r24	; 0x18
    1756:	91 8f       	std	Z+25, r25	; 0x19
    1758:	f7 01       	movw	r30, r14
    175a:	82 81       	ldd	r24, Z+2	; 0x02
    175c:	f8 01       	movw	r30, r16
    175e:	82 83       	std	Z+2, r24	; 0x02
    1760:	f7 01       	movw	r30, r14
    1762:	84 81       	ldd	r24, Z+4	; 0x04
    1764:	f8 01       	movw	r30, r16
    1766:	84 83       	std	Z+4, r24	; 0x04
    1768:	f7 01       	movw	r30, r14
    176a:	83 81       	ldd	r24, Z+3	; 0x03
    176c:	f8 01       	movw	r30, r16
    176e:	83 83       	std	Z+3, r24	; 0x03
    1770:	f7 01       	movw	r30, r14
    1772:	81 81       	ldd	r24, Z+1	; 0x01
    1774:	f8 01       	movw	r30, r16
    1776:	81 83       	std	Z+1, r24	; 0x01
    1778:	82 2f       	mov	r24, r18
    177a:	81 70       	andi	r24, 0x01	; 1
    177c:	f7 01       	movw	r30, r14
    177e:	90 81       	ld	r25, Z
    1780:	89 2b       	or	r24, r25
    1782:	f8 01       	movw	r30, r16
    1784:	80 83       	st	Z, r24
    1786:	c8 01       	movw	r24, r16
    1788:	71 df       	rcall	.-286    	; 0x166c <adc_disable_clock>
    178a:	df be       	out	0x3f, r13	; 63
    178c:	df 91       	pop	r29
    178e:	cf 91       	pop	r28
    1790:	1f 91       	pop	r17
    1792:	0f 91       	pop	r16
    1794:	ff 90       	pop	r15
    1796:	ef 90       	pop	r14
    1798:	df 90       	pop	r13
    179a:	08 95       	ret

0000179c <adcch_write_configuration>:
    179c:	cf 92       	push	r12
    179e:	df 92       	push	r13
    17a0:	ef 92       	push	r14
    17a2:	ff 92       	push	r15
    17a4:	1f 93       	push	r17
    17a6:	cf 93       	push	r28
    17a8:	df 93       	push	r29
    17aa:	6c 01       	movw	r12, r24
    17ac:	7a 01       	movw	r14, r20
    17ae:	86 2f       	mov	r24, r22
    17b0:	90 e0       	ldi	r25, 0x00	; 0
    17b2:	83 70       	andi	r24, 0x03	; 3
    17b4:	90 70       	andi	r25, 0x00	; 0
    17b6:	00 97       	sbiw	r24, 0x00	; 0
    17b8:	21 f4       	brne	.+8      	; 0x17c2 <adcch_write_configuration+0x26>
    17ba:	66 95       	lsr	r22
    17bc:	66 95       	lsr	r22
    17be:	c2 e0       	ldi	r28, 0x02	; 2
    17c0:	01 c0       	rjmp	.+2      	; 0x17c4 <adcch_write_configuration+0x28>
    17c2:	c0 e0       	ldi	r28, 0x00	; 0
    17c4:	60 ff       	sbrs	r22, 0
    17c6:	cf 5f       	subi	r28, 0xFF	; 255
    17c8:	c6 01       	movw	r24, r12
    17ca:	80 96       	adiw	r24, 0x20	; 32
    17cc:	d0 e0       	ldi	r29, 0x00	; 0
    17ce:	cc 0f       	add	r28, r28
    17d0:	dd 1f       	adc	r29, r29
    17d2:	cc 0f       	add	r28, r28
    17d4:	dd 1f       	adc	r29, r29
    17d6:	cc 0f       	add	r28, r28
    17d8:	dd 1f       	adc	r29, r29
    17da:	c8 0f       	add	r28, r24
    17dc:	d9 1f       	adc	r29, r25
    17de:	1f b7       	in	r17, 0x3f	; 63
    17e0:	f8 94       	cli
    17e2:	c6 01       	movw	r24, r12
    17e4:	22 df       	rcall	.-444    	; 0x162a <adc_enable_clock>
    17e6:	f7 01       	movw	r30, r14
    17e8:	80 81       	ld	r24, Z
    17ea:	88 83       	st	Y, r24
    17ec:	82 81       	ldd	r24, Z+2	; 0x02
    17ee:	8a 83       	std	Y+2, r24	; 0x02
    17f0:	81 81       	ldd	r24, Z+1	; 0x01
    17f2:	89 83       	std	Y+1, r24	; 0x01
    17f4:	c6 01       	movw	r24, r12
    17f6:	3a df       	rcall	.-396    	; 0x166c <adc_disable_clock>
    17f8:	1f bf       	out	0x3f, r17	; 63
    17fa:	df 91       	pop	r29
    17fc:	cf 91       	pop	r28
    17fe:	1f 91       	pop	r17
    1800:	ff 90       	pop	r15
    1802:	ef 90       	pop	r14
    1804:	df 90       	pop	r13
    1806:	cf 90       	pop	r12
    1808:	08 95       	ret

0000180a <adcch_read_configuration>:
    180a:	cf 92       	push	r12
    180c:	df 92       	push	r13
    180e:	ef 92       	push	r14
    1810:	ff 92       	push	r15
    1812:	1f 93       	push	r17
    1814:	cf 93       	push	r28
    1816:	df 93       	push	r29
    1818:	6c 01       	movw	r12, r24
    181a:	7a 01       	movw	r14, r20
    181c:	86 2f       	mov	r24, r22
    181e:	90 e0       	ldi	r25, 0x00	; 0
    1820:	83 70       	andi	r24, 0x03	; 3
    1822:	90 70       	andi	r25, 0x00	; 0
    1824:	00 97       	sbiw	r24, 0x00	; 0
    1826:	21 f4       	brne	.+8      	; 0x1830 <adcch_read_configuration+0x26>
    1828:	66 95       	lsr	r22
    182a:	66 95       	lsr	r22
    182c:	c2 e0       	ldi	r28, 0x02	; 2
    182e:	01 c0       	rjmp	.+2      	; 0x1832 <adcch_read_configuration+0x28>
    1830:	c0 e0       	ldi	r28, 0x00	; 0
    1832:	60 ff       	sbrs	r22, 0
    1834:	cf 5f       	subi	r28, 0xFF	; 255
    1836:	c6 01       	movw	r24, r12
    1838:	80 96       	adiw	r24, 0x20	; 32
    183a:	d0 e0       	ldi	r29, 0x00	; 0
    183c:	cc 0f       	add	r28, r28
    183e:	dd 1f       	adc	r29, r29
    1840:	cc 0f       	add	r28, r28
    1842:	dd 1f       	adc	r29, r29
    1844:	cc 0f       	add	r28, r28
    1846:	dd 1f       	adc	r29, r29
    1848:	c8 0f       	add	r28, r24
    184a:	d9 1f       	adc	r29, r25
    184c:	1f b7       	in	r17, 0x3f	; 63
    184e:	f8 94       	cli
    1850:	c6 01       	movw	r24, r12
    1852:	eb de       	rcall	.-554    	; 0x162a <adc_enable_clock>
    1854:	88 81       	ld	r24, Y
    1856:	f7 01       	movw	r30, r14
    1858:	80 83       	st	Z, r24
    185a:	8a 81       	ldd	r24, Y+2	; 0x02
    185c:	82 83       	std	Z+2, r24	; 0x02
    185e:	89 81       	ldd	r24, Y+1	; 0x01
    1860:	81 83       	std	Z+1, r24	; 0x01
    1862:	c6 01       	movw	r24, r12
    1864:	03 df       	rcall	.-506    	; 0x166c <adc_disable_clock>
    1866:	1f bf       	out	0x3f, r17	; 63
    1868:	df 91       	pop	r29
    186a:	cf 91       	pop	r28
    186c:	1f 91       	pop	r17
    186e:	ff 90       	pop	r15
    1870:	ef 90       	pop	r14
    1872:	df 90       	pop	r13
    1874:	cf 90       	pop	r12
    1876:	08 95       	ret

00001878 <ccp_write_io>:
    1878:	1b be       	out	0x3b, r1	; 59
    187a:	fc 01       	movw	r30, r24
    187c:	28 ed       	ldi	r18, 0xD8	; 216
    187e:	24 bf       	out	0x34, r18	; 52
    1880:	60 83       	st	Z, r22
    1882:	08 95       	ret

00001884 <nvm_read_byte>:
    1884:	40 91 ca 01 	lds	r20, 0x01CA
    1888:	e6 2f       	mov	r30, r22
    188a:	f7 2f       	mov	r31, r23
    188c:	80 93 ca 01 	sts	0x01CA, r24
    1890:	84 91       	lpm	r24, Z
    1892:	40 93 ca 01 	sts	0x01CA, r20
    1896:	08 95       	ret

00001898 <spi_xmega_set_baud_div>:
    1898:	cf 92       	push	r12
    189a:	df 92       	push	r13
    189c:	ef 92       	push	r14
    189e:	ff 92       	push	r15
    18a0:	0f 93       	push	r16
    18a2:	1f 93       	push	r17
    18a4:	cf 93       	push	r28
    18a6:	df 93       	push	r29
    18a8:	ec 01       	movw	r28, r24
    18aa:	6a 01       	movw	r12, r20
    18ac:	7b 01       	movw	r14, r22
    18ae:	db 01       	movw	r26, r22
    18b0:	ca 01       	movw	r24, r20
    18b2:	01 97       	sbiw	r24, 0x01	; 1
    18b4:	a1 09       	sbc	r26, r1
    18b6:	b1 09       	sbc	r27, r1
    18b8:	08 0f       	add	r16, r24
    18ba:	19 1f       	adc	r17, r25
    18bc:	2a 1f       	adc	r18, r26
    18be:	3b 1f       	adc	r19, r27
    18c0:	c9 01       	movw	r24, r18
    18c2:	b8 01       	movw	r22, r16
    18c4:	a7 01       	movw	r20, r14
    18c6:	96 01       	movw	r18, r12
    18c8:	0e 94 06 32 	call	0x640c	; 0x640c <__udivmodsi4>
    18cc:	89 01       	movw	r16, r18
    18ce:	9a 01       	movw	r18, r20
    18d0:	01 38       	cpi	r16, 0x81	; 129
    18d2:	11 05       	cpc	r17, r1
    18d4:	21 05       	cpc	r18, r1
    18d6:	31 05       	cpc	r19, r1
    18d8:	f8 f4       	brcc	.+62     	; 0x1918 <spi_xmega_set_baud_div+0x80>
    18da:	01 34       	cpi	r16, 0x41	; 65
    18dc:	60 f4       	brcc	.+24     	; 0x18f6 <spi_xmega_set_baud_div+0x5e>
    18de:	01 32       	cpi	r16, 0x21	; 33
    18e0:	60 f4       	brcc	.+24     	; 0x18fa <spi_xmega_set_baud_div+0x62>
    18e2:	01 31       	cpi	r16, 0x11	; 17
    18e4:	60 f4       	brcc	.+24     	; 0x18fe <spi_xmega_set_baud_div+0x66>
    18e6:	09 30       	cpi	r16, 0x09	; 9
    18e8:	60 f4       	brcc	.+24     	; 0x1902 <spi_xmega_set_baud_div+0x6a>
    18ea:	05 30       	cpi	r16, 0x05	; 5
    18ec:	60 f4       	brcc	.+24     	; 0x1906 <spi_xmega_set_baud_div+0x6e>
    18ee:	03 30       	cpi	r16, 0x03	; 3
    18f0:	60 f0       	brcs	.+24     	; 0x190a <spi_xmega_set_baud_div+0x72>
    18f2:	90 e0       	ldi	r25, 0x00	; 0
    18f4:	0b c0       	rjmp	.+22     	; 0x190c <spi_xmega_set_baud_div+0x74>
    18f6:	93 e0       	ldi	r25, 0x03	; 3
    18f8:	09 c0       	rjmp	.+18     	; 0x190c <spi_xmega_set_baud_div+0x74>
    18fa:	92 e0       	ldi	r25, 0x02	; 2
    18fc:	07 c0       	rjmp	.+14     	; 0x190c <spi_xmega_set_baud_div+0x74>
    18fe:	92 e8       	ldi	r25, 0x82	; 130
    1900:	05 c0       	rjmp	.+10     	; 0x190c <spi_xmega_set_baud_div+0x74>
    1902:	91 e0       	ldi	r25, 0x01	; 1
    1904:	03 c0       	rjmp	.+6      	; 0x190c <spi_xmega_set_baud_div+0x74>
    1906:	91 e8       	ldi	r25, 0x81	; 129
    1908:	01 c0       	rjmp	.+2      	; 0x190c <spi_xmega_set_baud_div+0x74>
    190a:	90 e8       	ldi	r25, 0x80	; 128
    190c:	88 81       	ld	r24, Y
    190e:	8c 77       	andi	r24, 0x7C	; 124
    1910:	89 2b       	or	r24, r25
    1912:	88 83       	st	Y, r24
    1914:	81 e0       	ldi	r24, 0x01	; 1
    1916:	01 c0       	rjmp	.+2      	; 0x191a <spi_xmega_set_baud_div+0x82>
    1918:	8f ef       	ldi	r24, 0xFF	; 255
    191a:	df 91       	pop	r29
    191c:	cf 91       	pop	r28
    191e:	1f 91       	pop	r17
    1920:	0f 91       	pop	r16
    1922:	ff 90       	pop	r15
    1924:	ef 90       	pop	r14
    1926:	df 90       	pop	r13
    1928:	cf 90       	pop	r12
    192a:	08 95       	ret

0000192c <__vector_14>:
    192c:	1f 92       	push	r1
    192e:	0f 92       	push	r0
    1930:	0f b6       	in	r0, 0x3f	; 63
    1932:	0f 92       	push	r0
    1934:	08 b6       	in	r0, 0x38	; 56
    1936:	0f 92       	push	r0
    1938:	09 b6       	in	r0, 0x39	; 57
    193a:	0f 92       	push	r0
    193c:	0b b6       	in	r0, 0x3b	; 59
    193e:	0f 92       	push	r0
    1940:	11 24       	eor	r1, r1
    1942:	2f 93       	push	r18
    1944:	3f 93       	push	r19
    1946:	4f 93       	push	r20
    1948:	5f 93       	push	r21
    194a:	6f 93       	push	r22
    194c:	7f 93       	push	r23
    194e:	8f 93       	push	r24
    1950:	9f 93       	push	r25
    1952:	af 93       	push	r26
    1954:	bf 93       	push	r27
    1956:	ef 93       	push	r30
    1958:	ff 93       	push	r31
    195a:	e0 91 52 21 	lds	r30, 0x2152
    195e:	f0 91 53 21 	lds	r31, 0x2153
    1962:	30 97       	sbiw	r30, 0x00	; 0
    1964:	09 f0       	breq	.+2      	; 0x1968 <__vector_14+0x3c>
    1966:	19 95       	eicall
    1968:	ff 91       	pop	r31
    196a:	ef 91       	pop	r30
    196c:	bf 91       	pop	r27
    196e:	af 91       	pop	r26
    1970:	9f 91       	pop	r25
    1972:	8f 91       	pop	r24
    1974:	7f 91       	pop	r23
    1976:	6f 91       	pop	r22
    1978:	5f 91       	pop	r21
    197a:	4f 91       	pop	r20
    197c:	3f 91       	pop	r19
    197e:	2f 91       	pop	r18
    1980:	0f 90       	pop	r0
    1982:	0b be       	out	0x3b, r0	; 59
    1984:	0f 90       	pop	r0
    1986:	09 be       	out	0x39, r0	; 57
    1988:	0f 90       	pop	r0
    198a:	08 be       	out	0x38, r0	; 56
    198c:	0f 90       	pop	r0
    198e:	0f be       	out	0x3f, r0	; 63
    1990:	0f 90       	pop	r0
    1992:	1f 90       	pop	r1
    1994:	18 95       	reti

00001996 <__vector_15>:
    1996:	1f 92       	push	r1
    1998:	0f 92       	push	r0
    199a:	0f b6       	in	r0, 0x3f	; 63
    199c:	0f 92       	push	r0
    199e:	08 b6       	in	r0, 0x38	; 56
    19a0:	0f 92       	push	r0
    19a2:	09 b6       	in	r0, 0x39	; 57
    19a4:	0f 92       	push	r0
    19a6:	0b b6       	in	r0, 0x3b	; 59
    19a8:	0f 92       	push	r0
    19aa:	11 24       	eor	r1, r1
    19ac:	2f 93       	push	r18
    19ae:	3f 93       	push	r19
    19b0:	4f 93       	push	r20
    19b2:	5f 93       	push	r21
    19b4:	6f 93       	push	r22
    19b6:	7f 93       	push	r23
    19b8:	8f 93       	push	r24
    19ba:	9f 93       	push	r25
    19bc:	af 93       	push	r26
    19be:	bf 93       	push	r27
    19c0:	ef 93       	push	r30
    19c2:	ff 93       	push	r31
    19c4:	e0 91 54 21 	lds	r30, 0x2154
    19c8:	f0 91 55 21 	lds	r31, 0x2155
    19cc:	30 97       	sbiw	r30, 0x00	; 0
    19ce:	09 f0       	breq	.+2      	; 0x19d2 <__vector_15+0x3c>
    19d0:	19 95       	eicall
    19d2:	ff 91       	pop	r31
    19d4:	ef 91       	pop	r30
    19d6:	bf 91       	pop	r27
    19d8:	af 91       	pop	r26
    19da:	9f 91       	pop	r25
    19dc:	8f 91       	pop	r24
    19de:	7f 91       	pop	r23
    19e0:	6f 91       	pop	r22
    19e2:	5f 91       	pop	r21
    19e4:	4f 91       	pop	r20
    19e6:	3f 91       	pop	r19
    19e8:	2f 91       	pop	r18
    19ea:	0f 90       	pop	r0
    19ec:	0b be       	out	0x3b, r0	; 59
    19ee:	0f 90       	pop	r0
    19f0:	09 be       	out	0x39, r0	; 57
    19f2:	0f 90       	pop	r0
    19f4:	08 be       	out	0x38, r0	; 56
    19f6:	0f 90       	pop	r0
    19f8:	0f be       	out	0x3f, r0	; 63
    19fa:	0f 90       	pop	r0
    19fc:	1f 90       	pop	r1
    19fe:	18 95       	reti

00001a00 <__vector_16>:
    1a00:	1f 92       	push	r1
    1a02:	0f 92       	push	r0
    1a04:	0f b6       	in	r0, 0x3f	; 63
    1a06:	0f 92       	push	r0
    1a08:	08 b6       	in	r0, 0x38	; 56
    1a0a:	0f 92       	push	r0
    1a0c:	09 b6       	in	r0, 0x39	; 57
    1a0e:	0f 92       	push	r0
    1a10:	0b b6       	in	r0, 0x3b	; 59
    1a12:	0f 92       	push	r0
    1a14:	11 24       	eor	r1, r1
    1a16:	2f 93       	push	r18
    1a18:	3f 93       	push	r19
    1a1a:	4f 93       	push	r20
    1a1c:	5f 93       	push	r21
    1a1e:	6f 93       	push	r22
    1a20:	7f 93       	push	r23
    1a22:	8f 93       	push	r24
    1a24:	9f 93       	push	r25
    1a26:	af 93       	push	r26
    1a28:	bf 93       	push	r27
    1a2a:	ef 93       	push	r30
    1a2c:	ff 93       	push	r31
    1a2e:	e0 91 56 21 	lds	r30, 0x2156
    1a32:	f0 91 57 21 	lds	r31, 0x2157
    1a36:	30 97       	sbiw	r30, 0x00	; 0
    1a38:	09 f0       	breq	.+2      	; 0x1a3c <__vector_16+0x3c>
    1a3a:	19 95       	eicall
    1a3c:	ff 91       	pop	r31
    1a3e:	ef 91       	pop	r30
    1a40:	bf 91       	pop	r27
    1a42:	af 91       	pop	r26
    1a44:	9f 91       	pop	r25
    1a46:	8f 91       	pop	r24
    1a48:	7f 91       	pop	r23
    1a4a:	6f 91       	pop	r22
    1a4c:	5f 91       	pop	r21
    1a4e:	4f 91       	pop	r20
    1a50:	3f 91       	pop	r19
    1a52:	2f 91       	pop	r18
    1a54:	0f 90       	pop	r0
    1a56:	0b be       	out	0x3b, r0	; 59
    1a58:	0f 90       	pop	r0
    1a5a:	09 be       	out	0x39, r0	; 57
    1a5c:	0f 90       	pop	r0
    1a5e:	08 be       	out	0x38, r0	; 56
    1a60:	0f 90       	pop	r0
    1a62:	0f be       	out	0x3f, r0	; 63
    1a64:	0f 90       	pop	r0
    1a66:	1f 90       	pop	r1
    1a68:	18 95       	reti

00001a6a <__vector_17>:
    1a6a:	1f 92       	push	r1
    1a6c:	0f 92       	push	r0
    1a6e:	0f b6       	in	r0, 0x3f	; 63
    1a70:	0f 92       	push	r0
    1a72:	08 b6       	in	r0, 0x38	; 56
    1a74:	0f 92       	push	r0
    1a76:	09 b6       	in	r0, 0x39	; 57
    1a78:	0f 92       	push	r0
    1a7a:	0b b6       	in	r0, 0x3b	; 59
    1a7c:	0f 92       	push	r0
    1a7e:	11 24       	eor	r1, r1
    1a80:	2f 93       	push	r18
    1a82:	3f 93       	push	r19
    1a84:	4f 93       	push	r20
    1a86:	5f 93       	push	r21
    1a88:	6f 93       	push	r22
    1a8a:	7f 93       	push	r23
    1a8c:	8f 93       	push	r24
    1a8e:	9f 93       	push	r25
    1a90:	af 93       	push	r26
    1a92:	bf 93       	push	r27
    1a94:	ef 93       	push	r30
    1a96:	ff 93       	push	r31
    1a98:	e0 91 58 21 	lds	r30, 0x2158
    1a9c:	f0 91 59 21 	lds	r31, 0x2159
    1aa0:	30 97       	sbiw	r30, 0x00	; 0
    1aa2:	09 f0       	breq	.+2      	; 0x1aa6 <__vector_17+0x3c>
    1aa4:	19 95       	eicall
    1aa6:	ff 91       	pop	r31
    1aa8:	ef 91       	pop	r30
    1aaa:	bf 91       	pop	r27
    1aac:	af 91       	pop	r26
    1aae:	9f 91       	pop	r25
    1ab0:	8f 91       	pop	r24
    1ab2:	7f 91       	pop	r23
    1ab4:	6f 91       	pop	r22
    1ab6:	5f 91       	pop	r21
    1ab8:	4f 91       	pop	r20
    1aba:	3f 91       	pop	r19
    1abc:	2f 91       	pop	r18
    1abe:	0f 90       	pop	r0
    1ac0:	0b be       	out	0x3b, r0	; 59
    1ac2:	0f 90       	pop	r0
    1ac4:	09 be       	out	0x39, r0	; 57
    1ac6:	0f 90       	pop	r0
    1ac8:	08 be       	out	0x38, r0	; 56
    1aca:	0f 90       	pop	r0
    1acc:	0f be       	out	0x3f, r0	; 63
    1ace:	0f 90       	pop	r0
    1ad0:	1f 90       	pop	r1
    1ad2:	18 95       	reti

00001ad4 <__vector_18>:
    1ad4:	1f 92       	push	r1
    1ad6:	0f 92       	push	r0
    1ad8:	0f b6       	in	r0, 0x3f	; 63
    1ada:	0f 92       	push	r0
    1adc:	08 b6       	in	r0, 0x38	; 56
    1ade:	0f 92       	push	r0
    1ae0:	09 b6       	in	r0, 0x39	; 57
    1ae2:	0f 92       	push	r0
    1ae4:	0b b6       	in	r0, 0x3b	; 59
    1ae6:	0f 92       	push	r0
    1ae8:	11 24       	eor	r1, r1
    1aea:	2f 93       	push	r18
    1aec:	3f 93       	push	r19
    1aee:	4f 93       	push	r20
    1af0:	5f 93       	push	r21
    1af2:	6f 93       	push	r22
    1af4:	7f 93       	push	r23
    1af6:	8f 93       	push	r24
    1af8:	9f 93       	push	r25
    1afa:	af 93       	push	r26
    1afc:	bf 93       	push	r27
    1afe:	ef 93       	push	r30
    1b00:	ff 93       	push	r31
    1b02:	e0 91 5a 21 	lds	r30, 0x215A
    1b06:	f0 91 5b 21 	lds	r31, 0x215B
    1b0a:	30 97       	sbiw	r30, 0x00	; 0
    1b0c:	09 f0       	breq	.+2      	; 0x1b10 <__vector_18+0x3c>
    1b0e:	19 95       	eicall
    1b10:	ff 91       	pop	r31
    1b12:	ef 91       	pop	r30
    1b14:	bf 91       	pop	r27
    1b16:	af 91       	pop	r26
    1b18:	9f 91       	pop	r25
    1b1a:	8f 91       	pop	r24
    1b1c:	7f 91       	pop	r23
    1b1e:	6f 91       	pop	r22
    1b20:	5f 91       	pop	r21
    1b22:	4f 91       	pop	r20
    1b24:	3f 91       	pop	r19
    1b26:	2f 91       	pop	r18
    1b28:	0f 90       	pop	r0
    1b2a:	0b be       	out	0x3b, r0	; 59
    1b2c:	0f 90       	pop	r0
    1b2e:	09 be       	out	0x39, r0	; 57
    1b30:	0f 90       	pop	r0
    1b32:	08 be       	out	0x38, r0	; 56
    1b34:	0f 90       	pop	r0
    1b36:	0f be       	out	0x3f, r0	; 63
    1b38:	0f 90       	pop	r0
    1b3a:	1f 90       	pop	r1
    1b3c:	18 95       	reti

00001b3e <__vector_19>:
    1b3e:	1f 92       	push	r1
    1b40:	0f 92       	push	r0
    1b42:	0f b6       	in	r0, 0x3f	; 63
    1b44:	0f 92       	push	r0
    1b46:	08 b6       	in	r0, 0x38	; 56
    1b48:	0f 92       	push	r0
    1b4a:	09 b6       	in	r0, 0x39	; 57
    1b4c:	0f 92       	push	r0
    1b4e:	0b b6       	in	r0, 0x3b	; 59
    1b50:	0f 92       	push	r0
    1b52:	11 24       	eor	r1, r1
    1b54:	2f 93       	push	r18
    1b56:	3f 93       	push	r19
    1b58:	4f 93       	push	r20
    1b5a:	5f 93       	push	r21
    1b5c:	6f 93       	push	r22
    1b5e:	7f 93       	push	r23
    1b60:	8f 93       	push	r24
    1b62:	9f 93       	push	r25
    1b64:	af 93       	push	r26
    1b66:	bf 93       	push	r27
    1b68:	ef 93       	push	r30
    1b6a:	ff 93       	push	r31
    1b6c:	e0 91 5c 21 	lds	r30, 0x215C
    1b70:	f0 91 5d 21 	lds	r31, 0x215D
    1b74:	30 97       	sbiw	r30, 0x00	; 0
    1b76:	09 f0       	breq	.+2      	; 0x1b7a <__vector_19+0x3c>
    1b78:	19 95       	eicall
    1b7a:	ff 91       	pop	r31
    1b7c:	ef 91       	pop	r30
    1b7e:	bf 91       	pop	r27
    1b80:	af 91       	pop	r26
    1b82:	9f 91       	pop	r25
    1b84:	8f 91       	pop	r24
    1b86:	7f 91       	pop	r23
    1b88:	6f 91       	pop	r22
    1b8a:	5f 91       	pop	r21
    1b8c:	4f 91       	pop	r20
    1b8e:	3f 91       	pop	r19
    1b90:	2f 91       	pop	r18
    1b92:	0f 90       	pop	r0
    1b94:	0b be       	out	0x3b, r0	; 59
    1b96:	0f 90       	pop	r0
    1b98:	09 be       	out	0x39, r0	; 57
    1b9a:	0f 90       	pop	r0
    1b9c:	08 be       	out	0x38, r0	; 56
    1b9e:	0f 90       	pop	r0
    1ba0:	0f be       	out	0x3f, r0	; 63
    1ba2:	0f 90       	pop	r0
    1ba4:	1f 90       	pop	r1
    1ba6:	18 95       	reti

00001ba8 <__vector_20>:
    1ba8:	1f 92       	push	r1
    1baa:	0f 92       	push	r0
    1bac:	0f b6       	in	r0, 0x3f	; 63
    1bae:	0f 92       	push	r0
    1bb0:	08 b6       	in	r0, 0x38	; 56
    1bb2:	0f 92       	push	r0
    1bb4:	09 b6       	in	r0, 0x39	; 57
    1bb6:	0f 92       	push	r0
    1bb8:	0b b6       	in	r0, 0x3b	; 59
    1bba:	0f 92       	push	r0
    1bbc:	11 24       	eor	r1, r1
    1bbe:	2f 93       	push	r18
    1bc0:	3f 93       	push	r19
    1bc2:	4f 93       	push	r20
    1bc4:	5f 93       	push	r21
    1bc6:	6f 93       	push	r22
    1bc8:	7f 93       	push	r23
    1bca:	8f 93       	push	r24
    1bcc:	9f 93       	push	r25
    1bce:	af 93       	push	r26
    1bd0:	bf 93       	push	r27
    1bd2:	ef 93       	push	r30
    1bd4:	ff 93       	push	r31
    1bd6:	e0 91 5e 21 	lds	r30, 0x215E
    1bda:	f0 91 5f 21 	lds	r31, 0x215F
    1bde:	30 97       	sbiw	r30, 0x00	; 0
    1be0:	09 f0       	breq	.+2      	; 0x1be4 <__vector_20+0x3c>
    1be2:	19 95       	eicall
    1be4:	ff 91       	pop	r31
    1be6:	ef 91       	pop	r30
    1be8:	bf 91       	pop	r27
    1bea:	af 91       	pop	r26
    1bec:	9f 91       	pop	r25
    1bee:	8f 91       	pop	r24
    1bf0:	7f 91       	pop	r23
    1bf2:	6f 91       	pop	r22
    1bf4:	5f 91       	pop	r21
    1bf6:	4f 91       	pop	r20
    1bf8:	3f 91       	pop	r19
    1bfa:	2f 91       	pop	r18
    1bfc:	0f 90       	pop	r0
    1bfe:	0b be       	out	0x3b, r0	; 59
    1c00:	0f 90       	pop	r0
    1c02:	09 be       	out	0x39, r0	; 57
    1c04:	0f 90       	pop	r0
    1c06:	08 be       	out	0x38, r0	; 56
    1c08:	0f 90       	pop	r0
    1c0a:	0f be       	out	0x3f, r0	; 63
    1c0c:	0f 90       	pop	r0
    1c0e:	1f 90       	pop	r1
    1c10:	18 95       	reti

00001c12 <__vector_21>:
    1c12:	1f 92       	push	r1
    1c14:	0f 92       	push	r0
    1c16:	0f b6       	in	r0, 0x3f	; 63
    1c18:	0f 92       	push	r0
    1c1a:	08 b6       	in	r0, 0x38	; 56
    1c1c:	0f 92       	push	r0
    1c1e:	09 b6       	in	r0, 0x39	; 57
    1c20:	0f 92       	push	r0
    1c22:	0b b6       	in	r0, 0x3b	; 59
    1c24:	0f 92       	push	r0
    1c26:	11 24       	eor	r1, r1
    1c28:	2f 93       	push	r18
    1c2a:	3f 93       	push	r19
    1c2c:	4f 93       	push	r20
    1c2e:	5f 93       	push	r21
    1c30:	6f 93       	push	r22
    1c32:	7f 93       	push	r23
    1c34:	8f 93       	push	r24
    1c36:	9f 93       	push	r25
    1c38:	af 93       	push	r26
    1c3a:	bf 93       	push	r27
    1c3c:	ef 93       	push	r30
    1c3e:	ff 93       	push	r31
    1c40:	e0 91 60 21 	lds	r30, 0x2160
    1c44:	f0 91 61 21 	lds	r31, 0x2161
    1c48:	30 97       	sbiw	r30, 0x00	; 0
    1c4a:	09 f0       	breq	.+2      	; 0x1c4e <__vector_21+0x3c>
    1c4c:	19 95       	eicall
    1c4e:	ff 91       	pop	r31
    1c50:	ef 91       	pop	r30
    1c52:	bf 91       	pop	r27
    1c54:	af 91       	pop	r26
    1c56:	9f 91       	pop	r25
    1c58:	8f 91       	pop	r24
    1c5a:	7f 91       	pop	r23
    1c5c:	6f 91       	pop	r22
    1c5e:	5f 91       	pop	r21
    1c60:	4f 91       	pop	r20
    1c62:	3f 91       	pop	r19
    1c64:	2f 91       	pop	r18
    1c66:	0f 90       	pop	r0
    1c68:	0b be       	out	0x3b, r0	; 59
    1c6a:	0f 90       	pop	r0
    1c6c:	09 be       	out	0x39, r0	; 57
    1c6e:	0f 90       	pop	r0
    1c70:	08 be       	out	0x38, r0	; 56
    1c72:	0f 90       	pop	r0
    1c74:	0f be       	out	0x3f, r0	; 63
    1c76:	0f 90       	pop	r0
    1c78:	1f 90       	pop	r1
    1c7a:	18 95       	reti

00001c7c <__vector_22>:
    1c7c:	1f 92       	push	r1
    1c7e:	0f 92       	push	r0
    1c80:	0f b6       	in	r0, 0x3f	; 63
    1c82:	0f 92       	push	r0
    1c84:	08 b6       	in	r0, 0x38	; 56
    1c86:	0f 92       	push	r0
    1c88:	09 b6       	in	r0, 0x39	; 57
    1c8a:	0f 92       	push	r0
    1c8c:	0b b6       	in	r0, 0x3b	; 59
    1c8e:	0f 92       	push	r0
    1c90:	11 24       	eor	r1, r1
    1c92:	2f 93       	push	r18
    1c94:	3f 93       	push	r19
    1c96:	4f 93       	push	r20
    1c98:	5f 93       	push	r21
    1c9a:	6f 93       	push	r22
    1c9c:	7f 93       	push	r23
    1c9e:	8f 93       	push	r24
    1ca0:	9f 93       	push	r25
    1ca2:	af 93       	push	r26
    1ca4:	bf 93       	push	r27
    1ca6:	ef 93       	push	r30
    1ca8:	ff 93       	push	r31
    1caa:	e0 91 62 21 	lds	r30, 0x2162
    1cae:	f0 91 63 21 	lds	r31, 0x2163
    1cb2:	30 97       	sbiw	r30, 0x00	; 0
    1cb4:	09 f0       	breq	.+2      	; 0x1cb8 <__vector_22+0x3c>
    1cb6:	19 95       	eicall
    1cb8:	ff 91       	pop	r31
    1cba:	ef 91       	pop	r30
    1cbc:	bf 91       	pop	r27
    1cbe:	af 91       	pop	r26
    1cc0:	9f 91       	pop	r25
    1cc2:	8f 91       	pop	r24
    1cc4:	7f 91       	pop	r23
    1cc6:	6f 91       	pop	r22
    1cc8:	5f 91       	pop	r21
    1cca:	4f 91       	pop	r20
    1ccc:	3f 91       	pop	r19
    1cce:	2f 91       	pop	r18
    1cd0:	0f 90       	pop	r0
    1cd2:	0b be       	out	0x3b, r0	; 59
    1cd4:	0f 90       	pop	r0
    1cd6:	09 be       	out	0x39, r0	; 57
    1cd8:	0f 90       	pop	r0
    1cda:	08 be       	out	0x38, r0	; 56
    1cdc:	0f 90       	pop	r0
    1cde:	0f be       	out	0x3f, r0	; 63
    1ce0:	0f 90       	pop	r0
    1ce2:	1f 90       	pop	r1
    1ce4:	18 95       	reti

00001ce6 <__vector_23>:
    1ce6:	1f 92       	push	r1
    1ce8:	0f 92       	push	r0
    1cea:	0f b6       	in	r0, 0x3f	; 63
    1cec:	0f 92       	push	r0
    1cee:	08 b6       	in	r0, 0x38	; 56
    1cf0:	0f 92       	push	r0
    1cf2:	09 b6       	in	r0, 0x39	; 57
    1cf4:	0f 92       	push	r0
    1cf6:	0b b6       	in	r0, 0x3b	; 59
    1cf8:	0f 92       	push	r0
    1cfa:	11 24       	eor	r1, r1
    1cfc:	2f 93       	push	r18
    1cfe:	3f 93       	push	r19
    1d00:	4f 93       	push	r20
    1d02:	5f 93       	push	r21
    1d04:	6f 93       	push	r22
    1d06:	7f 93       	push	r23
    1d08:	8f 93       	push	r24
    1d0a:	9f 93       	push	r25
    1d0c:	af 93       	push	r26
    1d0e:	bf 93       	push	r27
    1d10:	ef 93       	push	r30
    1d12:	ff 93       	push	r31
    1d14:	e0 91 64 21 	lds	r30, 0x2164
    1d18:	f0 91 65 21 	lds	r31, 0x2165
    1d1c:	30 97       	sbiw	r30, 0x00	; 0
    1d1e:	09 f0       	breq	.+2      	; 0x1d22 <__vector_23+0x3c>
    1d20:	19 95       	eicall
    1d22:	ff 91       	pop	r31
    1d24:	ef 91       	pop	r30
    1d26:	bf 91       	pop	r27
    1d28:	af 91       	pop	r26
    1d2a:	9f 91       	pop	r25
    1d2c:	8f 91       	pop	r24
    1d2e:	7f 91       	pop	r23
    1d30:	6f 91       	pop	r22
    1d32:	5f 91       	pop	r21
    1d34:	4f 91       	pop	r20
    1d36:	3f 91       	pop	r19
    1d38:	2f 91       	pop	r18
    1d3a:	0f 90       	pop	r0
    1d3c:	0b be       	out	0x3b, r0	; 59
    1d3e:	0f 90       	pop	r0
    1d40:	09 be       	out	0x39, r0	; 57
    1d42:	0f 90       	pop	r0
    1d44:	08 be       	out	0x38, r0	; 56
    1d46:	0f 90       	pop	r0
    1d48:	0f be       	out	0x3f, r0	; 63
    1d4a:	0f 90       	pop	r0
    1d4c:	1f 90       	pop	r1
    1d4e:	18 95       	reti

00001d50 <__vector_78>:
    1d50:	1f 92       	push	r1
    1d52:	0f 92       	push	r0
    1d54:	0f b6       	in	r0, 0x3f	; 63
    1d56:	0f 92       	push	r0
    1d58:	08 b6       	in	r0, 0x38	; 56
    1d5a:	0f 92       	push	r0
    1d5c:	09 b6       	in	r0, 0x39	; 57
    1d5e:	0f 92       	push	r0
    1d60:	0b b6       	in	r0, 0x3b	; 59
    1d62:	0f 92       	push	r0
    1d64:	11 24       	eor	r1, r1
    1d66:	2f 93       	push	r18
    1d68:	3f 93       	push	r19
    1d6a:	4f 93       	push	r20
    1d6c:	5f 93       	push	r21
    1d6e:	6f 93       	push	r22
    1d70:	7f 93       	push	r23
    1d72:	8f 93       	push	r24
    1d74:	9f 93       	push	r25
    1d76:	af 93       	push	r26
    1d78:	bf 93       	push	r27
    1d7a:	ef 93       	push	r30
    1d7c:	ff 93       	push	r31
    1d7e:	e0 91 66 21 	lds	r30, 0x2166
    1d82:	f0 91 67 21 	lds	r31, 0x2167
    1d86:	30 97       	sbiw	r30, 0x00	; 0
    1d88:	09 f0       	breq	.+2      	; 0x1d8c <__vector_78+0x3c>
    1d8a:	19 95       	eicall
    1d8c:	ff 91       	pop	r31
    1d8e:	ef 91       	pop	r30
    1d90:	bf 91       	pop	r27
    1d92:	af 91       	pop	r26
    1d94:	9f 91       	pop	r25
    1d96:	8f 91       	pop	r24
    1d98:	7f 91       	pop	r23
    1d9a:	6f 91       	pop	r22
    1d9c:	5f 91       	pop	r21
    1d9e:	4f 91       	pop	r20
    1da0:	3f 91       	pop	r19
    1da2:	2f 91       	pop	r18
    1da4:	0f 90       	pop	r0
    1da6:	0b be       	out	0x3b, r0	; 59
    1da8:	0f 90       	pop	r0
    1daa:	09 be       	out	0x39, r0	; 57
    1dac:	0f 90       	pop	r0
    1dae:	08 be       	out	0x38, r0	; 56
    1db0:	0f 90       	pop	r0
    1db2:	0f be       	out	0x3f, r0	; 63
    1db4:	0f 90       	pop	r0
    1db6:	1f 90       	pop	r1
    1db8:	18 95       	reti

00001dba <__vector_79>:
    1dba:	1f 92       	push	r1
    1dbc:	0f 92       	push	r0
    1dbe:	0f b6       	in	r0, 0x3f	; 63
    1dc0:	0f 92       	push	r0
    1dc2:	08 b6       	in	r0, 0x38	; 56
    1dc4:	0f 92       	push	r0
    1dc6:	09 b6       	in	r0, 0x39	; 57
    1dc8:	0f 92       	push	r0
    1dca:	0b b6       	in	r0, 0x3b	; 59
    1dcc:	0f 92       	push	r0
    1dce:	11 24       	eor	r1, r1
    1dd0:	2f 93       	push	r18
    1dd2:	3f 93       	push	r19
    1dd4:	4f 93       	push	r20
    1dd6:	5f 93       	push	r21
    1dd8:	6f 93       	push	r22
    1dda:	7f 93       	push	r23
    1ddc:	8f 93       	push	r24
    1dde:	9f 93       	push	r25
    1de0:	af 93       	push	r26
    1de2:	bf 93       	push	r27
    1de4:	ef 93       	push	r30
    1de6:	ff 93       	push	r31
    1de8:	e0 91 68 21 	lds	r30, 0x2168
    1dec:	f0 91 69 21 	lds	r31, 0x2169
    1df0:	30 97       	sbiw	r30, 0x00	; 0
    1df2:	09 f0       	breq	.+2      	; 0x1df6 <__vector_79+0x3c>
    1df4:	19 95       	eicall
    1df6:	ff 91       	pop	r31
    1df8:	ef 91       	pop	r30
    1dfa:	bf 91       	pop	r27
    1dfc:	af 91       	pop	r26
    1dfe:	9f 91       	pop	r25
    1e00:	8f 91       	pop	r24
    1e02:	7f 91       	pop	r23
    1e04:	6f 91       	pop	r22
    1e06:	5f 91       	pop	r21
    1e08:	4f 91       	pop	r20
    1e0a:	3f 91       	pop	r19
    1e0c:	2f 91       	pop	r18
    1e0e:	0f 90       	pop	r0
    1e10:	0b be       	out	0x3b, r0	; 59
    1e12:	0f 90       	pop	r0
    1e14:	09 be       	out	0x39, r0	; 57
    1e16:	0f 90       	pop	r0
    1e18:	08 be       	out	0x38, r0	; 56
    1e1a:	0f 90       	pop	r0
    1e1c:	0f be       	out	0x3f, r0	; 63
    1e1e:	0f 90       	pop	r0
    1e20:	1f 90       	pop	r1
    1e22:	18 95       	reti

00001e24 <__vector_80>:
    1e24:	1f 92       	push	r1
    1e26:	0f 92       	push	r0
    1e28:	0f b6       	in	r0, 0x3f	; 63
    1e2a:	0f 92       	push	r0
    1e2c:	08 b6       	in	r0, 0x38	; 56
    1e2e:	0f 92       	push	r0
    1e30:	09 b6       	in	r0, 0x39	; 57
    1e32:	0f 92       	push	r0
    1e34:	0b b6       	in	r0, 0x3b	; 59
    1e36:	0f 92       	push	r0
    1e38:	11 24       	eor	r1, r1
    1e3a:	2f 93       	push	r18
    1e3c:	3f 93       	push	r19
    1e3e:	4f 93       	push	r20
    1e40:	5f 93       	push	r21
    1e42:	6f 93       	push	r22
    1e44:	7f 93       	push	r23
    1e46:	8f 93       	push	r24
    1e48:	9f 93       	push	r25
    1e4a:	af 93       	push	r26
    1e4c:	bf 93       	push	r27
    1e4e:	ef 93       	push	r30
    1e50:	ff 93       	push	r31
    1e52:	e0 91 6a 21 	lds	r30, 0x216A
    1e56:	f0 91 6b 21 	lds	r31, 0x216B
    1e5a:	30 97       	sbiw	r30, 0x00	; 0
    1e5c:	09 f0       	breq	.+2      	; 0x1e60 <__vector_80+0x3c>
    1e5e:	19 95       	eicall
    1e60:	ff 91       	pop	r31
    1e62:	ef 91       	pop	r30
    1e64:	bf 91       	pop	r27
    1e66:	af 91       	pop	r26
    1e68:	9f 91       	pop	r25
    1e6a:	8f 91       	pop	r24
    1e6c:	7f 91       	pop	r23
    1e6e:	6f 91       	pop	r22
    1e70:	5f 91       	pop	r21
    1e72:	4f 91       	pop	r20
    1e74:	3f 91       	pop	r19
    1e76:	2f 91       	pop	r18
    1e78:	0f 90       	pop	r0
    1e7a:	0b be       	out	0x3b, r0	; 59
    1e7c:	0f 90       	pop	r0
    1e7e:	09 be       	out	0x39, r0	; 57
    1e80:	0f 90       	pop	r0
    1e82:	08 be       	out	0x38, r0	; 56
    1e84:	0f 90       	pop	r0
    1e86:	0f be       	out	0x3f, r0	; 63
    1e88:	0f 90       	pop	r0
    1e8a:	1f 90       	pop	r1
    1e8c:	18 95       	reti

00001e8e <__vector_81>:
    1e8e:	1f 92       	push	r1
    1e90:	0f 92       	push	r0
    1e92:	0f b6       	in	r0, 0x3f	; 63
    1e94:	0f 92       	push	r0
    1e96:	08 b6       	in	r0, 0x38	; 56
    1e98:	0f 92       	push	r0
    1e9a:	09 b6       	in	r0, 0x39	; 57
    1e9c:	0f 92       	push	r0
    1e9e:	0b b6       	in	r0, 0x3b	; 59
    1ea0:	0f 92       	push	r0
    1ea2:	11 24       	eor	r1, r1
    1ea4:	2f 93       	push	r18
    1ea6:	3f 93       	push	r19
    1ea8:	4f 93       	push	r20
    1eaa:	5f 93       	push	r21
    1eac:	6f 93       	push	r22
    1eae:	7f 93       	push	r23
    1eb0:	8f 93       	push	r24
    1eb2:	9f 93       	push	r25
    1eb4:	af 93       	push	r26
    1eb6:	bf 93       	push	r27
    1eb8:	ef 93       	push	r30
    1eba:	ff 93       	push	r31
    1ebc:	e0 91 6c 21 	lds	r30, 0x216C
    1ec0:	f0 91 6d 21 	lds	r31, 0x216D
    1ec4:	30 97       	sbiw	r30, 0x00	; 0
    1ec6:	09 f0       	breq	.+2      	; 0x1eca <__vector_81+0x3c>
    1ec8:	19 95       	eicall
    1eca:	ff 91       	pop	r31
    1ecc:	ef 91       	pop	r30
    1ece:	bf 91       	pop	r27
    1ed0:	af 91       	pop	r26
    1ed2:	9f 91       	pop	r25
    1ed4:	8f 91       	pop	r24
    1ed6:	7f 91       	pop	r23
    1ed8:	6f 91       	pop	r22
    1eda:	5f 91       	pop	r21
    1edc:	4f 91       	pop	r20
    1ede:	3f 91       	pop	r19
    1ee0:	2f 91       	pop	r18
    1ee2:	0f 90       	pop	r0
    1ee4:	0b be       	out	0x3b, r0	; 59
    1ee6:	0f 90       	pop	r0
    1ee8:	09 be       	out	0x39, r0	; 57
    1eea:	0f 90       	pop	r0
    1eec:	08 be       	out	0x38, r0	; 56
    1eee:	0f 90       	pop	r0
    1ef0:	0f be       	out	0x3f, r0	; 63
    1ef2:	0f 90       	pop	r0
    1ef4:	1f 90       	pop	r1
    1ef6:	18 95       	reti

00001ef8 <__vector_82>:
    1ef8:	1f 92       	push	r1
    1efa:	0f 92       	push	r0
    1efc:	0f b6       	in	r0, 0x3f	; 63
    1efe:	0f 92       	push	r0
    1f00:	08 b6       	in	r0, 0x38	; 56
    1f02:	0f 92       	push	r0
    1f04:	09 b6       	in	r0, 0x39	; 57
    1f06:	0f 92       	push	r0
    1f08:	0b b6       	in	r0, 0x3b	; 59
    1f0a:	0f 92       	push	r0
    1f0c:	11 24       	eor	r1, r1
    1f0e:	2f 93       	push	r18
    1f10:	3f 93       	push	r19
    1f12:	4f 93       	push	r20
    1f14:	5f 93       	push	r21
    1f16:	6f 93       	push	r22
    1f18:	7f 93       	push	r23
    1f1a:	8f 93       	push	r24
    1f1c:	9f 93       	push	r25
    1f1e:	af 93       	push	r26
    1f20:	bf 93       	push	r27
    1f22:	ef 93       	push	r30
    1f24:	ff 93       	push	r31
    1f26:	e0 91 6e 21 	lds	r30, 0x216E
    1f2a:	f0 91 6f 21 	lds	r31, 0x216F
    1f2e:	30 97       	sbiw	r30, 0x00	; 0
    1f30:	09 f0       	breq	.+2      	; 0x1f34 <__vector_82+0x3c>
    1f32:	19 95       	eicall
    1f34:	ff 91       	pop	r31
    1f36:	ef 91       	pop	r30
    1f38:	bf 91       	pop	r27
    1f3a:	af 91       	pop	r26
    1f3c:	9f 91       	pop	r25
    1f3e:	8f 91       	pop	r24
    1f40:	7f 91       	pop	r23
    1f42:	6f 91       	pop	r22
    1f44:	5f 91       	pop	r21
    1f46:	4f 91       	pop	r20
    1f48:	3f 91       	pop	r19
    1f4a:	2f 91       	pop	r18
    1f4c:	0f 90       	pop	r0
    1f4e:	0b be       	out	0x3b, r0	; 59
    1f50:	0f 90       	pop	r0
    1f52:	09 be       	out	0x39, r0	; 57
    1f54:	0f 90       	pop	r0
    1f56:	08 be       	out	0x38, r0	; 56
    1f58:	0f 90       	pop	r0
    1f5a:	0f be       	out	0x3f, r0	; 63
    1f5c:	0f 90       	pop	r0
    1f5e:	1f 90       	pop	r1
    1f60:	18 95       	reti

00001f62 <__vector_83>:
    1f62:	1f 92       	push	r1
    1f64:	0f 92       	push	r0
    1f66:	0f b6       	in	r0, 0x3f	; 63
    1f68:	0f 92       	push	r0
    1f6a:	08 b6       	in	r0, 0x38	; 56
    1f6c:	0f 92       	push	r0
    1f6e:	09 b6       	in	r0, 0x39	; 57
    1f70:	0f 92       	push	r0
    1f72:	0b b6       	in	r0, 0x3b	; 59
    1f74:	0f 92       	push	r0
    1f76:	11 24       	eor	r1, r1
    1f78:	2f 93       	push	r18
    1f7a:	3f 93       	push	r19
    1f7c:	4f 93       	push	r20
    1f7e:	5f 93       	push	r21
    1f80:	6f 93       	push	r22
    1f82:	7f 93       	push	r23
    1f84:	8f 93       	push	r24
    1f86:	9f 93       	push	r25
    1f88:	af 93       	push	r26
    1f8a:	bf 93       	push	r27
    1f8c:	ef 93       	push	r30
    1f8e:	ff 93       	push	r31
    1f90:	e0 91 70 21 	lds	r30, 0x2170
    1f94:	f0 91 71 21 	lds	r31, 0x2171
    1f98:	30 97       	sbiw	r30, 0x00	; 0
    1f9a:	09 f0       	breq	.+2      	; 0x1f9e <__vector_83+0x3c>
    1f9c:	19 95       	eicall
    1f9e:	ff 91       	pop	r31
    1fa0:	ef 91       	pop	r30
    1fa2:	bf 91       	pop	r27
    1fa4:	af 91       	pop	r26
    1fa6:	9f 91       	pop	r25
    1fa8:	8f 91       	pop	r24
    1faa:	7f 91       	pop	r23
    1fac:	6f 91       	pop	r22
    1fae:	5f 91       	pop	r21
    1fb0:	4f 91       	pop	r20
    1fb2:	3f 91       	pop	r19
    1fb4:	2f 91       	pop	r18
    1fb6:	0f 90       	pop	r0
    1fb8:	0b be       	out	0x3b, r0	; 59
    1fba:	0f 90       	pop	r0
    1fbc:	09 be       	out	0x39, r0	; 57
    1fbe:	0f 90       	pop	r0
    1fc0:	08 be       	out	0x38, r0	; 56
    1fc2:	0f 90       	pop	r0
    1fc4:	0f be       	out	0x3f, r0	; 63
    1fc6:	0f 90       	pop	r0
    1fc8:	1f 90       	pop	r1
    1fca:	18 95       	reti

00001fcc <__vector_84>:
    1fcc:	1f 92       	push	r1
    1fce:	0f 92       	push	r0
    1fd0:	0f b6       	in	r0, 0x3f	; 63
    1fd2:	0f 92       	push	r0
    1fd4:	08 b6       	in	r0, 0x38	; 56
    1fd6:	0f 92       	push	r0
    1fd8:	09 b6       	in	r0, 0x39	; 57
    1fda:	0f 92       	push	r0
    1fdc:	0b b6       	in	r0, 0x3b	; 59
    1fde:	0f 92       	push	r0
    1fe0:	11 24       	eor	r1, r1
    1fe2:	2f 93       	push	r18
    1fe4:	3f 93       	push	r19
    1fe6:	4f 93       	push	r20
    1fe8:	5f 93       	push	r21
    1fea:	6f 93       	push	r22
    1fec:	7f 93       	push	r23
    1fee:	8f 93       	push	r24
    1ff0:	9f 93       	push	r25
    1ff2:	af 93       	push	r26
    1ff4:	bf 93       	push	r27
    1ff6:	ef 93       	push	r30
    1ff8:	ff 93       	push	r31
    1ffa:	e0 91 72 21 	lds	r30, 0x2172
    1ffe:	f0 91 73 21 	lds	r31, 0x2173
    2002:	30 97       	sbiw	r30, 0x00	; 0
    2004:	09 f0       	breq	.+2      	; 0x2008 <__vector_84+0x3c>
    2006:	19 95       	eicall
    2008:	ff 91       	pop	r31
    200a:	ef 91       	pop	r30
    200c:	bf 91       	pop	r27
    200e:	af 91       	pop	r26
    2010:	9f 91       	pop	r25
    2012:	8f 91       	pop	r24
    2014:	7f 91       	pop	r23
    2016:	6f 91       	pop	r22
    2018:	5f 91       	pop	r21
    201a:	4f 91       	pop	r20
    201c:	3f 91       	pop	r19
    201e:	2f 91       	pop	r18
    2020:	0f 90       	pop	r0
    2022:	0b be       	out	0x3b, r0	; 59
    2024:	0f 90       	pop	r0
    2026:	09 be       	out	0x39, r0	; 57
    2028:	0f 90       	pop	r0
    202a:	08 be       	out	0x38, r0	; 56
    202c:	0f 90       	pop	r0
    202e:	0f be       	out	0x3f, r0	; 63
    2030:	0f 90       	pop	r0
    2032:	1f 90       	pop	r1
    2034:	18 95       	reti

00002036 <__vector_85>:
    2036:	1f 92       	push	r1
    2038:	0f 92       	push	r0
    203a:	0f b6       	in	r0, 0x3f	; 63
    203c:	0f 92       	push	r0
    203e:	08 b6       	in	r0, 0x38	; 56
    2040:	0f 92       	push	r0
    2042:	09 b6       	in	r0, 0x39	; 57
    2044:	0f 92       	push	r0
    2046:	0b b6       	in	r0, 0x3b	; 59
    2048:	0f 92       	push	r0
    204a:	11 24       	eor	r1, r1
    204c:	2f 93       	push	r18
    204e:	3f 93       	push	r19
    2050:	4f 93       	push	r20
    2052:	5f 93       	push	r21
    2054:	6f 93       	push	r22
    2056:	7f 93       	push	r23
    2058:	8f 93       	push	r24
    205a:	9f 93       	push	r25
    205c:	af 93       	push	r26
    205e:	bf 93       	push	r27
    2060:	ef 93       	push	r30
    2062:	ff 93       	push	r31
    2064:	e0 91 74 21 	lds	r30, 0x2174
    2068:	f0 91 75 21 	lds	r31, 0x2175
    206c:	30 97       	sbiw	r30, 0x00	; 0
    206e:	09 f0       	breq	.+2      	; 0x2072 <__vector_85+0x3c>
    2070:	19 95       	eicall
    2072:	ff 91       	pop	r31
    2074:	ef 91       	pop	r30
    2076:	bf 91       	pop	r27
    2078:	af 91       	pop	r26
    207a:	9f 91       	pop	r25
    207c:	8f 91       	pop	r24
    207e:	7f 91       	pop	r23
    2080:	6f 91       	pop	r22
    2082:	5f 91       	pop	r21
    2084:	4f 91       	pop	r20
    2086:	3f 91       	pop	r19
    2088:	2f 91       	pop	r18
    208a:	0f 90       	pop	r0
    208c:	0b be       	out	0x3b, r0	; 59
    208e:	0f 90       	pop	r0
    2090:	09 be       	out	0x39, r0	; 57
    2092:	0f 90       	pop	r0
    2094:	08 be       	out	0x38, r0	; 56
    2096:	0f 90       	pop	r0
    2098:	0f be       	out	0x3f, r0	; 63
    209a:	0f 90       	pop	r0
    209c:	1f 90       	pop	r1
    209e:	18 95       	reti

000020a0 <__vector_86>:
    20a0:	1f 92       	push	r1
    20a2:	0f 92       	push	r0
    20a4:	0f b6       	in	r0, 0x3f	; 63
    20a6:	0f 92       	push	r0
    20a8:	08 b6       	in	r0, 0x38	; 56
    20aa:	0f 92       	push	r0
    20ac:	09 b6       	in	r0, 0x39	; 57
    20ae:	0f 92       	push	r0
    20b0:	0b b6       	in	r0, 0x3b	; 59
    20b2:	0f 92       	push	r0
    20b4:	11 24       	eor	r1, r1
    20b6:	2f 93       	push	r18
    20b8:	3f 93       	push	r19
    20ba:	4f 93       	push	r20
    20bc:	5f 93       	push	r21
    20be:	6f 93       	push	r22
    20c0:	7f 93       	push	r23
    20c2:	8f 93       	push	r24
    20c4:	9f 93       	push	r25
    20c6:	af 93       	push	r26
    20c8:	bf 93       	push	r27
    20ca:	ef 93       	push	r30
    20cc:	ff 93       	push	r31
    20ce:	e0 91 76 21 	lds	r30, 0x2176
    20d2:	f0 91 77 21 	lds	r31, 0x2177
    20d6:	30 97       	sbiw	r30, 0x00	; 0
    20d8:	09 f0       	breq	.+2      	; 0x20dc <__vector_86+0x3c>
    20da:	19 95       	eicall
    20dc:	ff 91       	pop	r31
    20de:	ef 91       	pop	r30
    20e0:	bf 91       	pop	r27
    20e2:	af 91       	pop	r26
    20e4:	9f 91       	pop	r25
    20e6:	8f 91       	pop	r24
    20e8:	7f 91       	pop	r23
    20ea:	6f 91       	pop	r22
    20ec:	5f 91       	pop	r21
    20ee:	4f 91       	pop	r20
    20f0:	3f 91       	pop	r19
    20f2:	2f 91       	pop	r18
    20f4:	0f 90       	pop	r0
    20f6:	0b be       	out	0x3b, r0	; 59
    20f8:	0f 90       	pop	r0
    20fa:	09 be       	out	0x39, r0	; 57
    20fc:	0f 90       	pop	r0
    20fe:	08 be       	out	0x38, r0	; 56
    2100:	0f 90       	pop	r0
    2102:	0f be       	out	0x3f, r0	; 63
    2104:	0f 90       	pop	r0
    2106:	1f 90       	pop	r1
    2108:	18 95       	reti

0000210a <__vector_47>:
    210a:	1f 92       	push	r1
    210c:	0f 92       	push	r0
    210e:	0f b6       	in	r0, 0x3f	; 63
    2110:	0f 92       	push	r0
    2112:	08 b6       	in	r0, 0x38	; 56
    2114:	0f 92       	push	r0
    2116:	09 b6       	in	r0, 0x39	; 57
    2118:	0f 92       	push	r0
    211a:	0b b6       	in	r0, 0x3b	; 59
    211c:	0f 92       	push	r0
    211e:	11 24       	eor	r1, r1
    2120:	2f 93       	push	r18
    2122:	3f 93       	push	r19
    2124:	4f 93       	push	r20
    2126:	5f 93       	push	r21
    2128:	6f 93       	push	r22
    212a:	7f 93       	push	r23
    212c:	8f 93       	push	r24
    212e:	9f 93       	push	r25
    2130:	af 93       	push	r26
    2132:	bf 93       	push	r27
    2134:	ef 93       	push	r30
    2136:	ff 93       	push	r31
    2138:	e0 91 78 21 	lds	r30, 0x2178
    213c:	f0 91 79 21 	lds	r31, 0x2179
    2140:	30 97       	sbiw	r30, 0x00	; 0
    2142:	09 f0       	breq	.+2      	; 0x2146 <__vector_47+0x3c>
    2144:	19 95       	eicall
    2146:	ff 91       	pop	r31
    2148:	ef 91       	pop	r30
    214a:	bf 91       	pop	r27
    214c:	af 91       	pop	r26
    214e:	9f 91       	pop	r25
    2150:	8f 91       	pop	r24
    2152:	7f 91       	pop	r23
    2154:	6f 91       	pop	r22
    2156:	5f 91       	pop	r21
    2158:	4f 91       	pop	r20
    215a:	3f 91       	pop	r19
    215c:	2f 91       	pop	r18
    215e:	0f 90       	pop	r0
    2160:	0b be       	out	0x3b, r0	; 59
    2162:	0f 90       	pop	r0
    2164:	09 be       	out	0x39, r0	; 57
    2166:	0f 90       	pop	r0
    2168:	08 be       	out	0x38, r0	; 56
    216a:	0f 90       	pop	r0
    216c:	0f be       	out	0x3f, r0	; 63
    216e:	0f 90       	pop	r0
    2170:	1f 90       	pop	r1
    2172:	18 95       	reti

00002174 <__vector_48>:
    2174:	1f 92       	push	r1
    2176:	0f 92       	push	r0
    2178:	0f b6       	in	r0, 0x3f	; 63
    217a:	0f 92       	push	r0
    217c:	08 b6       	in	r0, 0x38	; 56
    217e:	0f 92       	push	r0
    2180:	09 b6       	in	r0, 0x39	; 57
    2182:	0f 92       	push	r0
    2184:	0b b6       	in	r0, 0x3b	; 59
    2186:	0f 92       	push	r0
    2188:	11 24       	eor	r1, r1
    218a:	2f 93       	push	r18
    218c:	3f 93       	push	r19
    218e:	4f 93       	push	r20
    2190:	5f 93       	push	r21
    2192:	6f 93       	push	r22
    2194:	7f 93       	push	r23
    2196:	8f 93       	push	r24
    2198:	9f 93       	push	r25
    219a:	af 93       	push	r26
    219c:	bf 93       	push	r27
    219e:	ef 93       	push	r30
    21a0:	ff 93       	push	r31
    21a2:	e0 91 7a 21 	lds	r30, 0x217A
    21a6:	f0 91 7b 21 	lds	r31, 0x217B
    21aa:	30 97       	sbiw	r30, 0x00	; 0
    21ac:	09 f0       	breq	.+2      	; 0x21b0 <__vector_48+0x3c>
    21ae:	19 95       	eicall
    21b0:	ff 91       	pop	r31
    21b2:	ef 91       	pop	r30
    21b4:	bf 91       	pop	r27
    21b6:	af 91       	pop	r26
    21b8:	9f 91       	pop	r25
    21ba:	8f 91       	pop	r24
    21bc:	7f 91       	pop	r23
    21be:	6f 91       	pop	r22
    21c0:	5f 91       	pop	r21
    21c2:	4f 91       	pop	r20
    21c4:	3f 91       	pop	r19
    21c6:	2f 91       	pop	r18
    21c8:	0f 90       	pop	r0
    21ca:	0b be       	out	0x3b, r0	; 59
    21cc:	0f 90       	pop	r0
    21ce:	09 be       	out	0x39, r0	; 57
    21d0:	0f 90       	pop	r0
    21d2:	08 be       	out	0x38, r0	; 56
    21d4:	0f 90       	pop	r0
    21d6:	0f be       	out	0x3f, r0	; 63
    21d8:	0f 90       	pop	r0
    21da:	1f 90       	pop	r1
    21dc:	18 95       	reti

000021de <__vector_49>:
    21de:	1f 92       	push	r1
    21e0:	0f 92       	push	r0
    21e2:	0f b6       	in	r0, 0x3f	; 63
    21e4:	0f 92       	push	r0
    21e6:	08 b6       	in	r0, 0x38	; 56
    21e8:	0f 92       	push	r0
    21ea:	09 b6       	in	r0, 0x39	; 57
    21ec:	0f 92       	push	r0
    21ee:	0b b6       	in	r0, 0x3b	; 59
    21f0:	0f 92       	push	r0
    21f2:	11 24       	eor	r1, r1
    21f4:	2f 93       	push	r18
    21f6:	3f 93       	push	r19
    21f8:	4f 93       	push	r20
    21fa:	5f 93       	push	r21
    21fc:	6f 93       	push	r22
    21fe:	7f 93       	push	r23
    2200:	8f 93       	push	r24
    2202:	9f 93       	push	r25
    2204:	af 93       	push	r26
    2206:	bf 93       	push	r27
    2208:	ef 93       	push	r30
    220a:	ff 93       	push	r31
    220c:	e0 91 7c 21 	lds	r30, 0x217C
    2210:	f0 91 7d 21 	lds	r31, 0x217D
    2214:	30 97       	sbiw	r30, 0x00	; 0
    2216:	09 f0       	breq	.+2      	; 0x221a <__vector_49+0x3c>
    2218:	19 95       	eicall
    221a:	ff 91       	pop	r31
    221c:	ef 91       	pop	r30
    221e:	bf 91       	pop	r27
    2220:	af 91       	pop	r26
    2222:	9f 91       	pop	r25
    2224:	8f 91       	pop	r24
    2226:	7f 91       	pop	r23
    2228:	6f 91       	pop	r22
    222a:	5f 91       	pop	r21
    222c:	4f 91       	pop	r20
    222e:	3f 91       	pop	r19
    2230:	2f 91       	pop	r18
    2232:	0f 90       	pop	r0
    2234:	0b be       	out	0x3b, r0	; 59
    2236:	0f 90       	pop	r0
    2238:	09 be       	out	0x39, r0	; 57
    223a:	0f 90       	pop	r0
    223c:	08 be       	out	0x38, r0	; 56
    223e:	0f 90       	pop	r0
    2240:	0f be       	out	0x3f, r0	; 63
    2242:	0f 90       	pop	r0
    2244:	1f 90       	pop	r1
    2246:	18 95       	reti

00002248 <__vector_50>:
    2248:	1f 92       	push	r1
    224a:	0f 92       	push	r0
    224c:	0f b6       	in	r0, 0x3f	; 63
    224e:	0f 92       	push	r0
    2250:	08 b6       	in	r0, 0x38	; 56
    2252:	0f 92       	push	r0
    2254:	09 b6       	in	r0, 0x39	; 57
    2256:	0f 92       	push	r0
    2258:	0b b6       	in	r0, 0x3b	; 59
    225a:	0f 92       	push	r0
    225c:	11 24       	eor	r1, r1
    225e:	2f 93       	push	r18
    2260:	3f 93       	push	r19
    2262:	4f 93       	push	r20
    2264:	5f 93       	push	r21
    2266:	6f 93       	push	r22
    2268:	7f 93       	push	r23
    226a:	8f 93       	push	r24
    226c:	9f 93       	push	r25
    226e:	af 93       	push	r26
    2270:	bf 93       	push	r27
    2272:	ef 93       	push	r30
    2274:	ff 93       	push	r31
    2276:	e0 91 7e 21 	lds	r30, 0x217E
    227a:	f0 91 7f 21 	lds	r31, 0x217F
    227e:	30 97       	sbiw	r30, 0x00	; 0
    2280:	09 f0       	breq	.+2      	; 0x2284 <__vector_50+0x3c>
    2282:	19 95       	eicall
    2284:	ff 91       	pop	r31
    2286:	ef 91       	pop	r30
    2288:	bf 91       	pop	r27
    228a:	af 91       	pop	r26
    228c:	9f 91       	pop	r25
    228e:	8f 91       	pop	r24
    2290:	7f 91       	pop	r23
    2292:	6f 91       	pop	r22
    2294:	5f 91       	pop	r21
    2296:	4f 91       	pop	r20
    2298:	3f 91       	pop	r19
    229a:	2f 91       	pop	r18
    229c:	0f 90       	pop	r0
    229e:	0b be       	out	0x3b, r0	; 59
    22a0:	0f 90       	pop	r0
    22a2:	09 be       	out	0x39, r0	; 57
    22a4:	0f 90       	pop	r0
    22a6:	08 be       	out	0x38, r0	; 56
    22a8:	0f 90       	pop	r0
    22aa:	0f be       	out	0x3f, r0	; 63
    22ac:	0f 90       	pop	r0
    22ae:	1f 90       	pop	r1
    22b0:	18 95       	reti

000022b2 <__vector_51>:
    22b2:	1f 92       	push	r1
    22b4:	0f 92       	push	r0
    22b6:	0f b6       	in	r0, 0x3f	; 63
    22b8:	0f 92       	push	r0
    22ba:	08 b6       	in	r0, 0x38	; 56
    22bc:	0f 92       	push	r0
    22be:	09 b6       	in	r0, 0x39	; 57
    22c0:	0f 92       	push	r0
    22c2:	0b b6       	in	r0, 0x3b	; 59
    22c4:	0f 92       	push	r0
    22c6:	11 24       	eor	r1, r1
    22c8:	2f 93       	push	r18
    22ca:	3f 93       	push	r19
    22cc:	4f 93       	push	r20
    22ce:	5f 93       	push	r21
    22d0:	6f 93       	push	r22
    22d2:	7f 93       	push	r23
    22d4:	8f 93       	push	r24
    22d6:	9f 93       	push	r25
    22d8:	af 93       	push	r26
    22da:	bf 93       	push	r27
    22dc:	ef 93       	push	r30
    22de:	ff 93       	push	r31
    22e0:	e0 91 80 21 	lds	r30, 0x2180
    22e4:	f0 91 81 21 	lds	r31, 0x2181
    22e8:	30 97       	sbiw	r30, 0x00	; 0
    22ea:	09 f0       	breq	.+2      	; 0x22ee <__vector_51+0x3c>
    22ec:	19 95       	eicall
    22ee:	ff 91       	pop	r31
    22f0:	ef 91       	pop	r30
    22f2:	bf 91       	pop	r27
    22f4:	af 91       	pop	r26
    22f6:	9f 91       	pop	r25
    22f8:	8f 91       	pop	r24
    22fa:	7f 91       	pop	r23
    22fc:	6f 91       	pop	r22
    22fe:	5f 91       	pop	r21
    2300:	4f 91       	pop	r20
    2302:	3f 91       	pop	r19
    2304:	2f 91       	pop	r18
    2306:	0f 90       	pop	r0
    2308:	0b be       	out	0x3b, r0	; 59
    230a:	0f 90       	pop	r0
    230c:	09 be       	out	0x39, r0	; 57
    230e:	0f 90       	pop	r0
    2310:	08 be       	out	0x38, r0	; 56
    2312:	0f 90       	pop	r0
    2314:	0f be       	out	0x3f, r0	; 63
    2316:	0f 90       	pop	r0
    2318:	1f 90       	pop	r1
    231a:	18 95       	reti

0000231c <__vector_52>:
    231c:	1f 92       	push	r1
    231e:	0f 92       	push	r0
    2320:	0f b6       	in	r0, 0x3f	; 63
    2322:	0f 92       	push	r0
    2324:	08 b6       	in	r0, 0x38	; 56
    2326:	0f 92       	push	r0
    2328:	09 b6       	in	r0, 0x39	; 57
    232a:	0f 92       	push	r0
    232c:	0b b6       	in	r0, 0x3b	; 59
    232e:	0f 92       	push	r0
    2330:	11 24       	eor	r1, r1
    2332:	2f 93       	push	r18
    2334:	3f 93       	push	r19
    2336:	4f 93       	push	r20
    2338:	5f 93       	push	r21
    233a:	6f 93       	push	r22
    233c:	7f 93       	push	r23
    233e:	8f 93       	push	r24
    2340:	9f 93       	push	r25
    2342:	af 93       	push	r26
    2344:	bf 93       	push	r27
    2346:	ef 93       	push	r30
    2348:	ff 93       	push	r31
    234a:	e0 91 82 21 	lds	r30, 0x2182
    234e:	f0 91 83 21 	lds	r31, 0x2183
    2352:	30 97       	sbiw	r30, 0x00	; 0
    2354:	09 f0       	breq	.+2      	; 0x2358 <__vector_52+0x3c>
    2356:	19 95       	eicall
    2358:	ff 91       	pop	r31
    235a:	ef 91       	pop	r30
    235c:	bf 91       	pop	r27
    235e:	af 91       	pop	r26
    2360:	9f 91       	pop	r25
    2362:	8f 91       	pop	r24
    2364:	7f 91       	pop	r23
    2366:	6f 91       	pop	r22
    2368:	5f 91       	pop	r21
    236a:	4f 91       	pop	r20
    236c:	3f 91       	pop	r19
    236e:	2f 91       	pop	r18
    2370:	0f 90       	pop	r0
    2372:	0b be       	out	0x3b, r0	; 59
    2374:	0f 90       	pop	r0
    2376:	09 be       	out	0x39, r0	; 57
    2378:	0f 90       	pop	r0
    237a:	08 be       	out	0x38, r0	; 56
    237c:	0f 90       	pop	r0
    237e:	0f be       	out	0x3f, r0	; 63
    2380:	0f 90       	pop	r0
    2382:	1f 90       	pop	r1
    2384:	18 95       	reti

00002386 <__vector_53>:
    2386:	1f 92       	push	r1
    2388:	0f 92       	push	r0
    238a:	0f b6       	in	r0, 0x3f	; 63
    238c:	0f 92       	push	r0
    238e:	08 b6       	in	r0, 0x38	; 56
    2390:	0f 92       	push	r0
    2392:	09 b6       	in	r0, 0x39	; 57
    2394:	0f 92       	push	r0
    2396:	0b b6       	in	r0, 0x3b	; 59
    2398:	0f 92       	push	r0
    239a:	11 24       	eor	r1, r1
    239c:	2f 93       	push	r18
    239e:	3f 93       	push	r19
    23a0:	4f 93       	push	r20
    23a2:	5f 93       	push	r21
    23a4:	6f 93       	push	r22
    23a6:	7f 93       	push	r23
    23a8:	8f 93       	push	r24
    23aa:	9f 93       	push	r25
    23ac:	af 93       	push	r26
    23ae:	bf 93       	push	r27
    23b0:	ef 93       	push	r30
    23b2:	ff 93       	push	r31
    23b4:	e0 91 84 21 	lds	r30, 0x2184
    23b8:	f0 91 85 21 	lds	r31, 0x2185
    23bc:	30 97       	sbiw	r30, 0x00	; 0
    23be:	09 f0       	breq	.+2      	; 0x23c2 <__vector_53+0x3c>
    23c0:	19 95       	eicall
    23c2:	ff 91       	pop	r31
    23c4:	ef 91       	pop	r30
    23c6:	bf 91       	pop	r27
    23c8:	af 91       	pop	r26
    23ca:	9f 91       	pop	r25
    23cc:	8f 91       	pop	r24
    23ce:	7f 91       	pop	r23
    23d0:	6f 91       	pop	r22
    23d2:	5f 91       	pop	r21
    23d4:	4f 91       	pop	r20
    23d6:	3f 91       	pop	r19
    23d8:	2f 91       	pop	r18
    23da:	0f 90       	pop	r0
    23dc:	0b be       	out	0x3b, r0	; 59
    23de:	0f 90       	pop	r0
    23e0:	09 be       	out	0x39, r0	; 57
    23e2:	0f 90       	pop	r0
    23e4:	08 be       	out	0x38, r0	; 56
    23e6:	0f 90       	pop	r0
    23e8:	0f be       	out	0x3f, r0	; 63
    23ea:	0f 90       	pop	r0
    23ec:	1f 90       	pop	r1
    23ee:	18 95       	reti

000023f0 <__vector_54>:
    23f0:	1f 92       	push	r1
    23f2:	0f 92       	push	r0
    23f4:	0f b6       	in	r0, 0x3f	; 63
    23f6:	0f 92       	push	r0
    23f8:	08 b6       	in	r0, 0x38	; 56
    23fa:	0f 92       	push	r0
    23fc:	09 b6       	in	r0, 0x39	; 57
    23fe:	0f 92       	push	r0
    2400:	0b b6       	in	r0, 0x3b	; 59
    2402:	0f 92       	push	r0
    2404:	11 24       	eor	r1, r1
    2406:	2f 93       	push	r18
    2408:	3f 93       	push	r19
    240a:	4f 93       	push	r20
    240c:	5f 93       	push	r21
    240e:	6f 93       	push	r22
    2410:	7f 93       	push	r23
    2412:	8f 93       	push	r24
    2414:	9f 93       	push	r25
    2416:	af 93       	push	r26
    2418:	bf 93       	push	r27
    241a:	ef 93       	push	r30
    241c:	ff 93       	push	r31
    241e:	e0 91 86 21 	lds	r30, 0x2186
    2422:	f0 91 87 21 	lds	r31, 0x2187
    2426:	30 97       	sbiw	r30, 0x00	; 0
    2428:	09 f0       	breq	.+2      	; 0x242c <__vector_54+0x3c>
    242a:	19 95       	eicall
    242c:	ff 91       	pop	r31
    242e:	ef 91       	pop	r30
    2430:	bf 91       	pop	r27
    2432:	af 91       	pop	r26
    2434:	9f 91       	pop	r25
    2436:	8f 91       	pop	r24
    2438:	7f 91       	pop	r23
    243a:	6f 91       	pop	r22
    243c:	5f 91       	pop	r21
    243e:	4f 91       	pop	r20
    2440:	3f 91       	pop	r19
    2442:	2f 91       	pop	r18
    2444:	0f 90       	pop	r0
    2446:	0b be       	out	0x3b, r0	; 59
    2448:	0f 90       	pop	r0
    244a:	09 be       	out	0x39, r0	; 57
    244c:	0f 90       	pop	r0
    244e:	08 be       	out	0x38, r0	; 56
    2450:	0f 90       	pop	r0
    2452:	0f be       	out	0x3f, r0	; 63
    2454:	0f 90       	pop	r0
    2456:	1f 90       	pop	r1
    2458:	18 95       	reti

0000245a <__vector_55>:
    245a:	1f 92       	push	r1
    245c:	0f 92       	push	r0
    245e:	0f b6       	in	r0, 0x3f	; 63
    2460:	0f 92       	push	r0
    2462:	08 b6       	in	r0, 0x38	; 56
    2464:	0f 92       	push	r0
    2466:	09 b6       	in	r0, 0x39	; 57
    2468:	0f 92       	push	r0
    246a:	0b b6       	in	r0, 0x3b	; 59
    246c:	0f 92       	push	r0
    246e:	11 24       	eor	r1, r1
    2470:	2f 93       	push	r18
    2472:	3f 93       	push	r19
    2474:	4f 93       	push	r20
    2476:	5f 93       	push	r21
    2478:	6f 93       	push	r22
    247a:	7f 93       	push	r23
    247c:	8f 93       	push	r24
    247e:	9f 93       	push	r25
    2480:	af 93       	push	r26
    2482:	bf 93       	push	r27
    2484:	ef 93       	push	r30
    2486:	ff 93       	push	r31
    2488:	e0 91 88 21 	lds	r30, 0x2188
    248c:	f0 91 89 21 	lds	r31, 0x2189
    2490:	30 97       	sbiw	r30, 0x00	; 0
    2492:	09 f0       	breq	.+2      	; 0x2496 <__vector_55+0x3c>
    2494:	19 95       	eicall
    2496:	ff 91       	pop	r31
    2498:	ef 91       	pop	r30
    249a:	bf 91       	pop	r27
    249c:	af 91       	pop	r26
    249e:	9f 91       	pop	r25
    24a0:	8f 91       	pop	r24
    24a2:	7f 91       	pop	r23
    24a4:	6f 91       	pop	r22
    24a6:	5f 91       	pop	r21
    24a8:	4f 91       	pop	r20
    24aa:	3f 91       	pop	r19
    24ac:	2f 91       	pop	r18
    24ae:	0f 90       	pop	r0
    24b0:	0b be       	out	0x3b, r0	; 59
    24b2:	0f 90       	pop	r0
    24b4:	09 be       	out	0x39, r0	; 57
    24b6:	0f 90       	pop	r0
    24b8:	08 be       	out	0x38, r0	; 56
    24ba:	0f 90       	pop	r0
    24bc:	0f be       	out	0x3f, r0	; 63
    24be:	0f 90       	pop	r0
    24c0:	1f 90       	pop	r1
    24c2:	18 95       	reti

000024c4 <__vector_56>:
    24c4:	1f 92       	push	r1
    24c6:	0f 92       	push	r0
    24c8:	0f b6       	in	r0, 0x3f	; 63
    24ca:	0f 92       	push	r0
    24cc:	08 b6       	in	r0, 0x38	; 56
    24ce:	0f 92       	push	r0
    24d0:	09 b6       	in	r0, 0x39	; 57
    24d2:	0f 92       	push	r0
    24d4:	0b b6       	in	r0, 0x3b	; 59
    24d6:	0f 92       	push	r0
    24d8:	11 24       	eor	r1, r1
    24da:	2f 93       	push	r18
    24dc:	3f 93       	push	r19
    24de:	4f 93       	push	r20
    24e0:	5f 93       	push	r21
    24e2:	6f 93       	push	r22
    24e4:	7f 93       	push	r23
    24e6:	8f 93       	push	r24
    24e8:	9f 93       	push	r25
    24ea:	af 93       	push	r26
    24ec:	bf 93       	push	r27
    24ee:	ef 93       	push	r30
    24f0:	ff 93       	push	r31
    24f2:	e0 91 8a 21 	lds	r30, 0x218A
    24f6:	f0 91 8b 21 	lds	r31, 0x218B
    24fa:	30 97       	sbiw	r30, 0x00	; 0
    24fc:	09 f0       	breq	.+2      	; 0x2500 <__vector_56+0x3c>
    24fe:	19 95       	eicall
    2500:	ff 91       	pop	r31
    2502:	ef 91       	pop	r30
    2504:	bf 91       	pop	r27
    2506:	af 91       	pop	r26
    2508:	9f 91       	pop	r25
    250a:	8f 91       	pop	r24
    250c:	7f 91       	pop	r23
    250e:	6f 91       	pop	r22
    2510:	5f 91       	pop	r21
    2512:	4f 91       	pop	r20
    2514:	3f 91       	pop	r19
    2516:	2f 91       	pop	r18
    2518:	0f 90       	pop	r0
    251a:	0b be       	out	0x3b, r0	; 59
    251c:	0f 90       	pop	r0
    251e:	09 be       	out	0x39, r0	; 57
    2520:	0f 90       	pop	r0
    2522:	08 be       	out	0x38, r0	; 56
    2524:	0f 90       	pop	r0
    2526:	0f be       	out	0x3f, r0	; 63
    2528:	0f 90       	pop	r0
    252a:	1f 90       	pop	r1
    252c:	18 95       	reti

0000252e <__vector_108>:
    252e:	1f 92       	push	r1
    2530:	0f 92       	push	r0
    2532:	0f b6       	in	r0, 0x3f	; 63
    2534:	0f 92       	push	r0
    2536:	08 b6       	in	r0, 0x38	; 56
    2538:	0f 92       	push	r0
    253a:	09 b6       	in	r0, 0x39	; 57
    253c:	0f 92       	push	r0
    253e:	0b b6       	in	r0, 0x3b	; 59
    2540:	0f 92       	push	r0
    2542:	11 24       	eor	r1, r1
    2544:	2f 93       	push	r18
    2546:	3f 93       	push	r19
    2548:	4f 93       	push	r20
    254a:	5f 93       	push	r21
    254c:	6f 93       	push	r22
    254e:	7f 93       	push	r23
    2550:	8f 93       	push	r24
    2552:	9f 93       	push	r25
    2554:	af 93       	push	r26
    2556:	bf 93       	push	r27
    2558:	ef 93       	push	r30
    255a:	ff 93       	push	r31
    255c:	e0 91 8c 21 	lds	r30, 0x218C
    2560:	f0 91 8d 21 	lds	r31, 0x218D
    2564:	30 97       	sbiw	r30, 0x00	; 0
    2566:	09 f0       	breq	.+2      	; 0x256a <__vector_108+0x3c>
    2568:	19 95       	eicall
    256a:	ff 91       	pop	r31
    256c:	ef 91       	pop	r30
    256e:	bf 91       	pop	r27
    2570:	af 91       	pop	r26
    2572:	9f 91       	pop	r25
    2574:	8f 91       	pop	r24
    2576:	7f 91       	pop	r23
    2578:	6f 91       	pop	r22
    257a:	5f 91       	pop	r21
    257c:	4f 91       	pop	r20
    257e:	3f 91       	pop	r19
    2580:	2f 91       	pop	r18
    2582:	0f 90       	pop	r0
    2584:	0b be       	out	0x3b, r0	; 59
    2586:	0f 90       	pop	r0
    2588:	09 be       	out	0x39, r0	; 57
    258a:	0f 90       	pop	r0
    258c:	08 be       	out	0x38, r0	; 56
    258e:	0f 90       	pop	r0
    2590:	0f be       	out	0x3f, r0	; 63
    2592:	0f 90       	pop	r0
    2594:	1f 90       	pop	r1
    2596:	18 95       	reti

00002598 <__vector_109>:
    2598:	1f 92       	push	r1
    259a:	0f 92       	push	r0
    259c:	0f b6       	in	r0, 0x3f	; 63
    259e:	0f 92       	push	r0
    25a0:	08 b6       	in	r0, 0x38	; 56
    25a2:	0f 92       	push	r0
    25a4:	09 b6       	in	r0, 0x39	; 57
    25a6:	0f 92       	push	r0
    25a8:	0b b6       	in	r0, 0x3b	; 59
    25aa:	0f 92       	push	r0
    25ac:	11 24       	eor	r1, r1
    25ae:	2f 93       	push	r18
    25b0:	3f 93       	push	r19
    25b2:	4f 93       	push	r20
    25b4:	5f 93       	push	r21
    25b6:	6f 93       	push	r22
    25b8:	7f 93       	push	r23
    25ba:	8f 93       	push	r24
    25bc:	9f 93       	push	r25
    25be:	af 93       	push	r26
    25c0:	bf 93       	push	r27
    25c2:	ef 93       	push	r30
    25c4:	ff 93       	push	r31
    25c6:	e0 91 8e 21 	lds	r30, 0x218E
    25ca:	f0 91 8f 21 	lds	r31, 0x218F
    25ce:	30 97       	sbiw	r30, 0x00	; 0
    25d0:	09 f0       	breq	.+2      	; 0x25d4 <__vector_109+0x3c>
    25d2:	19 95       	eicall
    25d4:	ff 91       	pop	r31
    25d6:	ef 91       	pop	r30
    25d8:	bf 91       	pop	r27
    25da:	af 91       	pop	r26
    25dc:	9f 91       	pop	r25
    25de:	8f 91       	pop	r24
    25e0:	7f 91       	pop	r23
    25e2:	6f 91       	pop	r22
    25e4:	5f 91       	pop	r21
    25e6:	4f 91       	pop	r20
    25e8:	3f 91       	pop	r19
    25ea:	2f 91       	pop	r18
    25ec:	0f 90       	pop	r0
    25ee:	0b be       	out	0x3b, r0	; 59
    25f0:	0f 90       	pop	r0
    25f2:	09 be       	out	0x39, r0	; 57
    25f4:	0f 90       	pop	r0
    25f6:	08 be       	out	0x38, r0	; 56
    25f8:	0f 90       	pop	r0
    25fa:	0f be       	out	0x3f, r0	; 63
    25fc:	0f 90       	pop	r0
    25fe:	1f 90       	pop	r1
    2600:	18 95       	reti

00002602 <__vector_110>:
    2602:	1f 92       	push	r1
    2604:	0f 92       	push	r0
    2606:	0f b6       	in	r0, 0x3f	; 63
    2608:	0f 92       	push	r0
    260a:	08 b6       	in	r0, 0x38	; 56
    260c:	0f 92       	push	r0
    260e:	09 b6       	in	r0, 0x39	; 57
    2610:	0f 92       	push	r0
    2612:	0b b6       	in	r0, 0x3b	; 59
    2614:	0f 92       	push	r0
    2616:	11 24       	eor	r1, r1
    2618:	2f 93       	push	r18
    261a:	3f 93       	push	r19
    261c:	4f 93       	push	r20
    261e:	5f 93       	push	r21
    2620:	6f 93       	push	r22
    2622:	7f 93       	push	r23
    2624:	8f 93       	push	r24
    2626:	9f 93       	push	r25
    2628:	af 93       	push	r26
    262a:	bf 93       	push	r27
    262c:	ef 93       	push	r30
    262e:	ff 93       	push	r31
    2630:	e0 91 90 21 	lds	r30, 0x2190
    2634:	f0 91 91 21 	lds	r31, 0x2191
    2638:	30 97       	sbiw	r30, 0x00	; 0
    263a:	09 f0       	breq	.+2      	; 0x263e <__vector_110+0x3c>
    263c:	19 95       	eicall
    263e:	ff 91       	pop	r31
    2640:	ef 91       	pop	r30
    2642:	bf 91       	pop	r27
    2644:	af 91       	pop	r26
    2646:	9f 91       	pop	r25
    2648:	8f 91       	pop	r24
    264a:	7f 91       	pop	r23
    264c:	6f 91       	pop	r22
    264e:	5f 91       	pop	r21
    2650:	4f 91       	pop	r20
    2652:	3f 91       	pop	r19
    2654:	2f 91       	pop	r18
    2656:	0f 90       	pop	r0
    2658:	0b be       	out	0x3b, r0	; 59
    265a:	0f 90       	pop	r0
    265c:	09 be       	out	0x39, r0	; 57
    265e:	0f 90       	pop	r0
    2660:	08 be       	out	0x38, r0	; 56
    2662:	0f 90       	pop	r0
    2664:	0f be       	out	0x3f, r0	; 63
    2666:	0f 90       	pop	r0
    2668:	1f 90       	pop	r1
    266a:	18 95       	reti

0000266c <__vector_111>:
    266c:	1f 92       	push	r1
    266e:	0f 92       	push	r0
    2670:	0f b6       	in	r0, 0x3f	; 63
    2672:	0f 92       	push	r0
    2674:	08 b6       	in	r0, 0x38	; 56
    2676:	0f 92       	push	r0
    2678:	09 b6       	in	r0, 0x39	; 57
    267a:	0f 92       	push	r0
    267c:	0b b6       	in	r0, 0x3b	; 59
    267e:	0f 92       	push	r0
    2680:	11 24       	eor	r1, r1
    2682:	2f 93       	push	r18
    2684:	3f 93       	push	r19
    2686:	4f 93       	push	r20
    2688:	5f 93       	push	r21
    268a:	6f 93       	push	r22
    268c:	7f 93       	push	r23
    268e:	8f 93       	push	r24
    2690:	9f 93       	push	r25
    2692:	af 93       	push	r26
    2694:	bf 93       	push	r27
    2696:	ef 93       	push	r30
    2698:	ff 93       	push	r31
    269a:	e0 91 92 21 	lds	r30, 0x2192
    269e:	f0 91 93 21 	lds	r31, 0x2193
    26a2:	30 97       	sbiw	r30, 0x00	; 0
    26a4:	09 f0       	breq	.+2      	; 0x26a8 <__vector_111+0x3c>
    26a6:	19 95       	eicall
    26a8:	ff 91       	pop	r31
    26aa:	ef 91       	pop	r30
    26ac:	bf 91       	pop	r27
    26ae:	af 91       	pop	r26
    26b0:	9f 91       	pop	r25
    26b2:	8f 91       	pop	r24
    26b4:	7f 91       	pop	r23
    26b6:	6f 91       	pop	r22
    26b8:	5f 91       	pop	r21
    26ba:	4f 91       	pop	r20
    26bc:	3f 91       	pop	r19
    26be:	2f 91       	pop	r18
    26c0:	0f 90       	pop	r0
    26c2:	0b be       	out	0x3b, r0	; 59
    26c4:	0f 90       	pop	r0
    26c6:	09 be       	out	0x39, r0	; 57
    26c8:	0f 90       	pop	r0
    26ca:	08 be       	out	0x38, r0	; 56
    26cc:	0f 90       	pop	r0
    26ce:	0f be       	out	0x3f, r0	; 63
    26d0:	0f 90       	pop	r0
    26d2:	1f 90       	pop	r1
    26d4:	18 95       	reti

000026d6 <__vector_112>:
    26d6:	1f 92       	push	r1
    26d8:	0f 92       	push	r0
    26da:	0f b6       	in	r0, 0x3f	; 63
    26dc:	0f 92       	push	r0
    26de:	08 b6       	in	r0, 0x38	; 56
    26e0:	0f 92       	push	r0
    26e2:	09 b6       	in	r0, 0x39	; 57
    26e4:	0f 92       	push	r0
    26e6:	0b b6       	in	r0, 0x3b	; 59
    26e8:	0f 92       	push	r0
    26ea:	11 24       	eor	r1, r1
    26ec:	2f 93       	push	r18
    26ee:	3f 93       	push	r19
    26f0:	4f 93       	push	r20
    26f2:	5f 93       	push	r21
    26f4:	6f 93       	push	r22
    26f6:	7f 93       	push	r23
    26f8:	8f 93       	push	r24
    26fa:	9f 93       	push	r25
    26fc:	af 93       	push	r26
    26fe:	bf 93       	push	r27
    2700:	ef 93       	push	r30
    2702:	ff 93       	push	r31
    2704:	e0 91 94 21 	lds	r30, 0x2194
    2708:	f0 91 95 21 	lds	r31, 0x2195
    270c:	30 97       	sbiw	r30, 0x00	; 0
    270e:	09 f0       	breq	.+2      	; 0x2712 <__vector_112+0x3c>
    2710:	19 95       	eicall
    2712:	ff 91       	pop	r31
    2714:	ef 91       	pop	r30
    2716:	bf 91       	pop	r27
    2718:	af 91       	pop	r26
    271a:	9f 91       	pop	r25
    271c:	8f 91       	pop	r24
    271e:	7f 91       	pop	r23
    2720:	6f 91       	pop	r22
    2722:	5f 91       	pop	r21
    2724:	4f 91       	pop	r20
    2726:	3f 91       	pop	r19
    2728:	2f 91       	pop	r18
    272a:	0f 90       	pop	r0
    272c:	0b be       	out	0x3b, r0	; 59
    272e:	0f 90       	pop	r0
    2730:	09 be       	out	0x39, r0	; 57
    2732:	0f 90       	pop	r0
    2734:	08 be       	out	0x38, r0	; 56
    2736:	0f 90       	pop	r0
    2738:	0f be       	out	0x3f, r0	; 63
    273a:	0f 90       	pop	r0
    273c:	1f 90       	pop	r1
    273e:	18 95       	reti

00002740 <__vector_113>:
    2740:	1f 92       	push	r1
    2742:	0f 92       	push	r0
    2744:	0f b6       	in	r0, 0x3f	; 63
    2746:	0f 92       	push	r0
    2748:	08 b6       	in	r0, 0x38	; 56
    274a:	0f 92       	push	r0
    274c:	09 b6       	in	r0, 0x39	; 57
    274e:	0f 92       	push	r0
    2750:	0b b6       	in	r0, 0x3b	; 59
    2752:	0f 92       	push	r0
    2754:	11 24       	eor	r1, r1
    2756:	2f 93       	push	r18
    2758:	3f 93       	push	r19
    275a:	4f 93       	push	r20
    275c:	5f 93       	push	r21
    275e:	6f 93       	push	r22
    2760:	7f 93       	push	r23
    2762:	8f 93       	push	r24
    2764:	9f 93       	push	r25
    2766:	af 93       	push	r26
    2768:	bf 93       	push	r27
    276a:	ef 93       	push	r30
    276c:	ff 93       	push	r31
    276e:	e0 91 96 21 	lds	r30, 0x2196
    2772:	f0 91 97 21 	lds	r31, 0x2197
    2776:	30 97       	sbiw	r30, 0x00	; 0
    2778:	09 f0       	breq	.+2      	; 0x277c <__vector_113+0x3c>
    277a:	19 95       	eicall
    277c:	ff 91       	pop	r31
    277e:	ef 91       	pop	r30
    2780:	bf 91       	pop	r27
    2782:	af 91       	pop	r26
    2784:	9f 91       	pop	r25
    2786:	8f 91       	pop	r24
    2788:	7f 91       	pop	r23
    278a:	6f 91       	pop	r22
    278c:	5f 91       	pop	r21
    278e:	4f 91       	pop	r20
    2790:	3f 91       	pop	r19
    2792:	2f 91       	pop	r18
    2794:	0f 90       	pop	r0
    2796:	0b be       	out	0x3b, r0	; 59
    2798:	0f 90       	pop	r0
    279a:	09 be       	out	0x39, r0	; 57
    279c:	0f 90       	pop	r0
    279e:	08 be       	out	0x38, r0	; 56
    27a0:	0f 90       	pop	r0
    27a2:	0f be       	out	0x3f, r0	; 63
    27a4:	0f 90       	pop	r0
    27a6:	1f 90       	pop	r1
    27a8:	18 95       	reti

000027aa <__vector_114>:
    27aa:	1f 92       	push	r1
    27ac:	0f 92       	push	r0
    27ae:	0f b6       	in	r0, 0x3f	; 63
    27b0:	0f 92       	push	r0
    27b2:	08 b6       	in	r0, 0x38	; 56
    27b4:	0f 92       	push	r0
    27b6:	09 b6       	in	r0, 0x39	; 57
    27b8:	0f 92       	push	r0
    27ba:	0b b6       	in	r0, 0x3b	; 59
    27bc:	0f 92       	push	r0
    27be:	11 24       	eor	r1, r1
    27c0:	2f 93       	push	r18
    27c2:	3f 93       	push	r19
    27c4:	4f 93       	push	r20
    27c6:	5f 93       	push	r21
    27c8:	6f 93       	push	r22
    27ca:	7f 93       	push	r23
    27cc:	8f 93       	push	r24
    27ce:	9f 93       	push	r25
    27d0:	af 93       	push	r26
    27d2:	bf 93       	push	r27
    27d4:	ef 93       	push	r30
    27d6:	ff 93       	push	r31
    27d8:	e0 91 98 21 	lds	r30, 0x2198
    27dc:	f0 91 99 21 	lds	r31, 0x2199
    27e0:	30 97       	sbiw	r30, 0x00	; 0
    27e2:	09 f0       	breq	.+2      	; 0x27e6 <__vector_114+0x3c>
    27e4:	19 95       	eicall
    27e6:	ff 91       	pop	r31
    27e8:	ef 91       	pop	r30
    27ea:	bf 91       	pop	r27
    27ec:	af 91       	pop	r26
    27ee:	9f 91       	pop	r25
    27f0:	8f 91       	pop	r24
    27f2:	7f 91       	pop	r23
    27f4:	6f 91       	pop	r22
    27f6:	5f 91       	pop	r21
    27f8:	4f 91       	pop	r20
    27fa:	3f 91       	pop	r19
    27fc:	2f 91       	pop	r18
    27fe:	0f 90       	pop	r0
    2800:	0b be       	out	0x3b, r0	; 59
    2802:	0f 90       	pop	r0
    2804:	09 be       	out	0x39, r0	; 57
    2806:	0f 90       	pop	r0
    2808:	08 be       	out	0x38, r0	; 56
    280a:	0f 90       	pop	r0
    280c:	0f be       	out	0x3f, r0	; 63
    280e:	0f 90       	pop	r0
    2810:	1f 90       	pop	r1
    2812:	18 95       	reti

00002814 <__vector_115>:
    2814:	1f 92       	push	r1
    2816:	0f 92       	push	r0
    2818:	0f b6       	in	r0, 0x3f	; 63
    281a:	0f 92       	push	r0
    281c:	08 b6       	in	r0, 0x38	; 56
    281e:	0f 92       	push	r0
    2820:	09 b6       	in	r0, 0x39	; 57
    2822:	0f 92       	push	r0
    2824:	0b b6       	in	r0, 0x3b	; 59
    2826:	0f 92       	push	r0
    2828:	11 24       	eor	r1, r1
    282a:	2f 93       	push	r18
    282c:	3f 93       	push	r19
    282e:	4f 93       	push	r20
    2830:	5f 93       	push	r21
    2832:	6f 93       	push	r22
    2834:	7f 93       	push	r23
    2836:	8f 93       	push	r24
    2838:	9f 93       	push	r25
    283a:	af 93       	push	r26
    283c:	bf 93       	push	r27
    283e:	ef 93       	push	r30
    2840:	ff 93       	push	r31
    2842:	e0 91 9a 21 	lds	r30, 0x219A
    2846:	f0 91 9b 21 	lds	r31, 0x219B
    284a:	30 97       	sbiw	r30, 0x00	; 0
    284c:	09 f0       	breq	.+2      	; 0x2850 <__vector_115+0x3c>
    284e:	19 95       	eicall
    2850:	ff 91       	pop	r31
    2852:	ef 91       	pop	r30
    2854:	bf 91       	pop	r27
    2856:	af 91       	pop	r26
    2858:	9f 91       	pop	r25
    285a:	8f 91       	pop	r24
    285c:	7f 91       	pop	r23
    285e:	6f 91       	pop	r22
    2860:	5f 91       	pop	r21
    2862:	4f 91       	pop	r20
    2864:	3f 91       	pop	r19
    2866:	2f 91       	pop	r18
    2868:	0f 90       	pop	r0
    286a:	0b be       	out	0x3b, r0	; 59
    286c:	0f 90       	pop	r0
    286e:	09 be       	out	0x39, r0	; 57
    2870:	0f 90       	pop	r0
    2872:	08 be       	out	0x38, r0	; 56
    2874:	0f 90       	pop	r0
    2876:	0f be       	out	0x3f, r0	; 63
    2878:	0f 90       	pop	r0
    287a:	1f 90       	pop	r1
    287c:	18 95       	reti

0000287e <__vector_116>:
    287e:	1f 92       	push	r1
    2880:	0f 92       	push	r0
    2882:	0f b6       	in	r0, 0x3f	; 63
    2884:	0f 92       	push	r0
    2886:	08 b6       	in	r0, 0x38	; 56
    2888:	0f 92       	push	r0
    288a:	09 b6       	in	r0, 0x39	; 57
    288c:	0f 92       	push	r0
    288e:	0b b6       	in	r0, 0x3b	; 59
    2890:	0f 92       	push	r0
    2892:	11 24       	eor	r1, r1
    2894:	2f 93       	push	r18
    2896:	3f 93       	push	r19
    2898:	4f 93       	push	r20
    289a:	5f 93       	push	r21
    289c:	6f 93       	push	r22
    289e:	7f 93       	push	r23
    28a0:	8f 93       	push	r24
    28a2:	9f 93       	push	r25
    28a4:	af 93       	push	r26
    28a6:	bf 93       	push	r27
    28a8:	ef 93       	push	r30
    28aa:	ff 93       	push	r31
    28ac:	e0 91 9c 21 	lds	r30, 0x219C
    28b0:	f0 91 9d 21 	lds	r31, 0x219D
    28b4:	30 97       	sbiw	r30, 0x00	; 0
    28b6:	09 f0       	breq	.+2      	; 0x28ba <__vector_116+0x3c>
    28b8:	19 95       	eicall
    28ba:	ff 91       	pop	r31
    28bc:	ef 91       	pop	r30
    28be:	bf 91       	pop	r27
    28c0:	af 91       	pop	r26
    28c2:	9f 91       	pop	r25
    28c4:	8f 91       	pop	r24
    28c6:	7f 91       	pop	r23
    28c8:	6f 91       	pop	r22
    28ca:	5f 91       	pop	r21
    28cc:	4f 91       	pop	r20
    28ce:	3f 91       	pop	r19
    28d0:	2f 91       	pop	r18
    28d2:	0f 90       	pop	r0
    28d4:	0b be       	out	0x3b, r0	; 59
    28d6:	0f 90       	pop	r0
    28d8:	09 be       	out	0x39, r0	; 57
    28da:	0f 90       	pop	r0
    28dc:	08 be       	out	0x38, r0	; 56
    28de:	0f 90       	pop	r0
    28e0:	0f be       	out	0x3f, r0	; 63
    28e2:	0f 90       	pop	r0
    28e4:	1f 90       	pop	r1
    28e6:	18 95       	reti

000028e8 <__vector_117>:
    28e8:	1f 92       	push	r1
    28ea:	0f 92       	push	r0
    28ec:	0f b6       	in	r0, 0x3f	; 63
    28ee:	0f 92       	push	r0
    28f0:	08 b6       	in	r0, 0x38	; 56
    28f2:	0f 92       	push	r0
    28f4:	09 b6       	in	r0, 0x39	; 57
    28f6:	0f 92       	push	r0
    28f8:	0b b6       	in	r0, 0x3b	; 59
    28fa:	0f 92       	push	r0
    28fc:	11 24       	eor	r1, r1
    28fe:	2f 93       	push	r18
    2900:	3f 93       	push	r19
    2902:	4f 93       	push	r20
    2904:	5f 93       	push	r21
    2906:	6f 93       	push	r22
    2908:	7f 93       	push	r23
    290a:	8f 93       	push	r24
    290c:	9f 93       	push	r25
    290e:	af 93       	push	r26
    2910:	bf 93       	push	r27
    2912:	ef 93       	push	r30
    2914:	ff 93       	push	r31
    2916:	e0 91 9e 21 	lds	r30, 0x219E
    291a:	f0 91 9f 21 	lds	r31, 0x219F
    291e:	30 97       	sbiw	r30, 0x00	; 0
    2920:	09 f0       	breq	.+2      	; 0x2924 <__vector_117+0x3c>
    2922:	19 95       	eicall
    2924:	ff 91       	pop	r31
    2926:	ef 91       	pop	r30
    2928:	bf 91       	pop	r27
    292a:	af 91       	pop	r26
    292c:	9f 91       	pop	r25
    292e:	8f 91       	pop	r24
    2930:	7f 91       	pop	r23
    2932:	6f 91       	pop	r22
    2934:	5f 91       	pop	r21
    2936:	4f 91       	pop	r20
    2938:	3f 91       	pop	r19
    293a:	2f 91       	pop	r18
    293c:	0f 90       	pop	r0
    293e:	0b be       	out	0x3b, r0	; 59
    2940:	0f 90       	pop	r0
    2942:	09 be       	out	0x39, r0	; 57
    2944:	0f 90       	pop	r0
    2946:	08 be       	out	0x38, r0	; 56
    2948:	0f 90       	pop	r0
    294a:	0f be       	out	0x3f, r0	; 63
    294c:	0f 90       	pop	r0
    294e:	1f 90       	pop	r1
    2950:	18 95       	reti

00002952 <tc_enable>:
    2952:	cf 93       	push	r28
    2954:	cf b7       	in	r28, 0x3f	; 63
    2956:	f8 94       	cli
    2958:	28 e0       	ldi	r18, 0x08	; 8
    295a:	80 30       	cpi	r24, 0x00	; 0
    295c:	92 07       	cpc	r25, r18
    295e:	59 f4       	brne	.+22     	; 0x2976 <tc_enable+0x24>
    2960:	83 e0       	ldi	r24, 0x03	; 3
    2962:	90 e0       	ldi	r25, 0x00	; 0
    2964:	61 e0       	ldi	r22, 0x01	; 1
    2966:	0e 94 00 0b 	call	0x1600	; 0x1600 <sysclk_enable_module>
    296a:	83 e0       	ldi	r24, 0x03	; 3
    296c:	90 e0       	ldi	r25, 0x00	; 0
    296e:	64 e0       	ldi	r22, 0x04	; 4
    2970:	0e 94 00 0b 	call	0x1600	; 0x1600 <sysclk_enable_module>
    2974:	6b c0       	rjmp	.+214    	; 0x2a4c <tc_enable+0xfa>
    2976:	28 e0       	ldi	r18, 0x08	; 8
    2978:	80 34       	cpi	r24, 0x40	; 64
    297a:	92 07       	cpc	r25, r18
    297c:	59 f4       	brne	.+22     	; 0x2994 <tc_enable+0x42>
    297e:	83 e0       	ldi	r24, 0x03	; 3
    2980:	90 e0       	ldi	r25, 0x00	; 0
    2982:	62 e0       	ldi	r22, 0x02	; 2
    2984:	0e 94 00 0b 	call	0x1600	; 0x1600 <sysclk_enable_module>
    2988:	83 e0       	ldi	r24, 0x03	; 3
    298a:	90 e0       	ldi	r25, 0x00	; 0
    298c:	64 e0       	ldi	r22, 0x04	; 4
    298e:	0e 94 00 0b 	call	0x1600	; 0x1600 <sysclk_enable_module>
    2992:	5c c0       	rjmp	.+184    	; 0x2a4c <tc_enable+0xfa>
    2994:	29 e0       	ldi	r18, 0x09	; 9
    2996:	80 30       	cpi	r24, 0x00	; 0
    2998:	92 07       	cpc	r25, r18
    299a:	59 f4       	brne	.+22     	; 0x29b2 <tc_enable+0x60>
    299c:	84 e0       	ldi	r24, 0x04	; 4
    299e:	90 e0       	ldi	r25, 0x00	; 0
    29a0:	61 e0       	ldi	r22, 0x01	; 1
    29a2:	0e 94 00 0b 	call	0x1600	; 0x1600 <sysclk_enable_module>
    29a6:	84 e0       	ldi	r24, 0x04	; 4
    29a8:	90 e0       	ldi	r25, 0x00	; 0
    29aa:	64 e0       	ldi	r22, 0x04	; 4
    29ac:	0e 94 00 0b 	call	0x1600	; 0x1600 <sysclk_enable_module>
    29b0:	4d c0       	rjmp	.+154    	; 0x2a4c <tc_enable+0xfa>
    29b2:	29 e0       	ldi	r18, 0x09	; 9
    29b4:	80 34       	cpi	r24, 0x40	; 64
    29b6:	92 07       	cpc	r25, r18
    29b8:	59 f4       	brne	.+22     	; 0x29d0 <tc_enable+0x7e>
    29ba:	84 e0       	ldi	r24, 0x04	; 4
    29bc:	90 e0       	ldi	r25, 0x00	; 0
    29be:	62 e0       	ldi	r22, 0x02	; 2
    29c0:	0e 94 00 0b 	call	0x1600	; 0x1600 <sysclk_enable_module>
    29c4:	84 e0       	ldi	r24, 0x04	; 4
    29c6:	90 e0       	ldi	r25, 0x00	; 0
    29c8:	64 e0       	ldi	r22, 0x04	; 4
    29ca:	0e 94 00 0b 	call	0x1600	; 0x1600 <sysclk_enable_module>
    29ce:	3e c0       	rjmp	.+124    	; 0x2a4c <tc_enable+0xfa>
    29d0:	2a e0       	ldi	r18, 0x0A	; 10
    29d2:	80 30       	cpi	r24, 0x00	; 0
    29d4:	92 07       	cpc	r25, r18
    29d6:	59 f4       	brne	.+22     	; 0x29ee <tc_enable+0x9c>
    29d8:	85 e0       	ldi	r24, 0x05	; 5
    29da:	90 e0       	ldi	r25, 0x00	; 0
    29dc:	61 e0       	ldi	r22, 0x01	; 1
    29de:	0e 94 00 0b 	call	0x1600	; 0x1600 <sysclk_enable_module>
    29e2:	85 e0       	ldi	r24, 0x05	; 5
    29e4:	90 e0       	ldi	r25, 0x00	; 0
    29e6:	64 e0       	ldi	r22, 0x04	; 4
    29e8:	0e 94 00 0b 	call	0x1600	; 0x1600 <sysclk_enable_module>
    29ec:	2f c0       	rjmp	.+94     	; 0x2a4c <tc_enable+0xfa>
    29ee:	2a e0       	ldi	r18, 0x0A	; 10
    29f0:	80 34       	cpi	r24, 0x40	; 64
    29f2:	92 07       	cpc	r25, r18
    29f4:	59 f4       	brne	.+22     	; 0x2a0c <tc_enable+0xba>
    29f6:	85 e0       	ldi	r24, 0x05	; 5
    29f8:	90 e0       	ldi	r25, 0x00	; 0
    29fa:	62 e0       	ldi	r22, 0x02	; 2
    29fc:	0e 94 00 0b 	call	0x1600	; 0x1600 <sysclk_enable_module>
    2a00:	85 e0       	ldi	r24, 0x05	; 5
    2a02:	90 e0       	ldi	r25, 0x00	; 0
    2a04:	64 e0       	ldi	r22, 0x04	; 4
    2a06:	0e 94 00 0b 	call	0x1600	; 0x1600 <sysclk_enable_module>
    2a0a:	20 c0       	rjmp	.+64     	; 0x2a4c <tc_enable+0xfa>
    2a0c:	2b e0       	ldi	r18, 0x0B	; 11
    2a0e:	80 30       	cpi	r24, 0x00	; 0
    2a10:	92 07       	cpc	r25, r18
    2a12:	59 f4       	brne	.+22     	; 0x2a2a <tc_enable+0xd8>
    2a14:	86 e0       	ldi	r24, 0x06	; 6
    2a16:	90 e0       	ldi	r25, 0x00	; 0
    2a18:	61 e0       	ldi	r22, 0x01	; 1
    2a1a:	0e 94 00 0b 	call	0x1600	; 0x1600 <sysclk_enable_module>
    2a1e:	86 e0       	ldi	r24, 0x06	; 6
    2a20:	90 e0       	ldi	r25, 0x00	; 0
    2a22:	64 e0       	ldi	r22, 0x04	; 4
    2a24:	0e 94 00 0b 	call	0x1600	; 0x1600 <sysclk_enable_module>
    2a28:	11 c0       	rjmp	.+34     	; 0x2a4c <tc_enable+0xfa>
    2a2a:	2b e0       	ldi	r18, 0x0B	; 11
    2a2c:	80 34       	cpi	r24, 0x40	; 64
    2a2e:	92 07       	cpc	r25, r18
    2a30:	59 f4       	brne	.+22     	; 0x2a48 <tc_enable+0xf6>
    2a32:	86 e0       	ldi	r24, 0x06	; 6
    2a34:	90 e0       	ldi	r25, 0x00	; 0
    2a36:	62 e0       	ldi	r22, 0x02	; 2
    2a38:	0e 94 00 0b 	call	0x1600	; 0x1600 <sysclk_enable_module>
    2a3c:	86 e0       	ldi	r24, 0x06	; 6
    2a3e:	90 e0       	ldi	r25, 0x00	; 0
    2a40:	64 e0       	ldi	r22, 0x04	; 4
    2a42:	0e 94 00 0b 	call	0x1600	; 0x1600 <sysclk_enable_module>
    2a46:	02 c0       	rjmp	.+4      	; 0x2a4c <tc_enable+0xfa>
    2a48:	cf bf       	out	0x3f, r28	; 63
    2a4a:	09 c0       	rjmp	.+18     	; 0x2a5e <tc_enable+0x10c>
    2a4c:	8f b7       	in	r24, 0x3f	; 63
    2a4e:	f8 94       	cli
    2a50:	90 91 af 21 	lds	r25, 0x21AF
    2a54:	9f 5f       	subi	r25, 0xFF	; 255
    2a56:	90 93 af 21 	sts	0x21AF, r25
    2a5a:	8f bf       	out	0x3f, r24	; 63
    2a5c:	cf bf       	out	0x3f, r28	; 63
    2a5e:	cf 91       	pop	r28
    2a60:	08 95       	ret

00002a62 <usart_putchar>:
    2a62:	fc 01       	movw	r30, r24
    2a64:	81 81       	ldd	r24, Z+1	; 0x01
    2a66:	85 ff       	sbrs	r24, 5
    2a68:	fd cf       	rjmp	.-6      	; 0x2a64 <usart_putchar+0x2>
    2a6a:	60 83       	st	Z, r22
    2a6c:	80 e0       	ldi	r24, 0x00	; 0
    2a6e:	90 e0       	ldi	r25, 0x00	; 0
    2a70:	08 95       	ret

00002a72 <usart_set_baudrate>:
    2a72:	6f 92       	push	r6
    2a74:	7f 92       	push	r7
    2a76:	8f 92       	push	r8
    2a78:	9f 92       	push	r9
    2a7a:	af 92       	push	r10
    2a7c:	bf 92       	push	r11
    2a7e:	cf 92       	push	r12
    2a80:	df 92       	push	r13
    2a82:	ef 92       	push	r14
    2a84:	ff 92       	push	r15
    2a86:	0f 93       	push	r16
    2a88:	1f 93       	push	r17
    2a8a:	cf 93       	push	r28
    2a8c:	3c 01       	movw	r6, r24
    2a8e:	4a 01       	movw	r8, r20
    2a90:	5b 01       	movw	r10, r22
    2a92:	68 01       	movw	r12, r16
    2a94:	79 01       	movw	r14, r18
    2a96:	d9 01       	movw	r26, r18
    2a98:	c8 01       	movw	r24, r16
    2a9a:	68 94       	set
    2a9c:	12 f8       	bld	r1, 2
    2a9e:	b6 95       	lsr	r27
    2aa0:	a7 95       	ror	r26
    2aa2:	97 95       	ror	r25
    2aa4:	87 95       	ror	r24
    2aa6:	16 94       	lsr	r1
    2aa8:	d1 f7       	brne	.-12     	; 0x2a9e <usart_set_baudrate+0x2c>
    2aaa:	b9 01       	movw	r22, r18
    2aac:	a8 01       	movw	r20, r16
    2aae:	03 2e       	mov	r0, r19
    2ab0:	36 e1       	ldi	r19, 0x16	; 22
    2ab2:	76 95       	lsr	r23
    2ab4:	67 95       	ror	r22
    2ab6:	57 95       	ror	r21
    2ab8:	47 95       	ror	r20
    2aba:	3a 95       	dec	r19
    2abc:	d1 f7       	brne	.-12     	; 0x2ab2 <usart_set_baudrate+0x40>
    2abe:	30 2d       	mov	r19, r0
    2ac0:	f3 01       	movw	r30, r6
    2ac2:	24 81       	ldd	r18, Z+4	; 0x04
    2ac4:	22 fd       	sbrc	r18, 2
    2ac6:	08 c0       	rjmp	.+16     	; 0x2ad8 <usart_set_baudrate+0x66>
    2ac8:	b6 95       	lsr	r27
    2aca:	a7 95       	ror	r26
    2acc:	97 95       	ror	r25
    2ace:	87 95       	ror	r24
    2ad0:	76 95       	lsr	r23
    2ad2:	67 95       	ror	r22
    2ad4:	57 95       	ror	r21
    2ad6:	47 95       	ror	r20
    2ad8:	88 15       	cp	r24, r8
    2ada:	99 05       	cpc	r25, r9
    2adc:	aa 05       	cpc	r26, r10
    2ade:	bb 05       	cpc	r27, r11
    2ae0:	08 f4       	brcc	.+2      	; 0x2ae4 <usart_set_baudrate+0x72>
    2ae2:	c2 c0       	rjmp	.+388    	; 0x2c68 <usart_set_baudrate+0x1f6>
    2ae4:	84 16       	cp	r8, r20
    2ae6:	95 06       	cpc	r9, r21
    2ae8:	a6 06       	cpc	r10, r22
    2aea:	b7 06       	cpc	r11, r23
    2aec:	08 f4       	brcc	.+2      	; 0x2af0 <usart_set_baudrate+0x7e>
    2aee:	be c0       	rjmp	.+380    	; 0x2c6c <usart_set_baudrate+0x1fa>
    2af0:	d3 01       	movw	r26, r6
    2af2:	14 96       	adiw	r26, 0x04	; 4
    2af4:	8c 91       	ld	r24, X
    2af6:	14 97       	sbiw	r26, 0x04	; 4
    2af8:	82 fd       	sbrc	r24, 2
    2afa:	04 c0       	rjmp	.+8      	; 0x2b04 <usart_set_baudrate+0x92>
    2afc:	88 0c       	add	r8, r8
    2afe:	99 1c       	adc	r9, r9
    2b00:	aa 1c       	adc	r10, r10
    2b02:	bb 1c       	adc	r11, r11
    2b04:	c7 01       	movw	r24, r14
    2b06:	b6 01       	movw	r22, r12
    2b08:	a5 01       	movw	r20, r10
    2b0a:	94 01       	movw	r18, r8
    2b0c:	0e 94 06 32 	call	0x640c	; 0x640c <__udivmodsi4>
    2b10:	89 01       	movw	r16, r18
    2b12:	9a 01       	movw	r18, r20
    2b14:	0f 3f       	cpi	r16, 0xFF	; 255
    2b16:	11 05       	cpc	r17, r1
    2b18:	21 05       	cpc	r18, r1
    2b1a:	31 05       	cpc	r19, r1
    2b1c:	08 f4       	brcc	.+2      	; 0x2b20 <usart_set_baudrate+0xae>
    2b1e:	b5 c0       	rjmp	.+362    	; 0x2c8a <usart_set_baudrate+0x218>
    2b20:	8f ef       	ldi	r24, 0xFF	; 255
    2b22:	90 e0       	ldi	r25, 0x00	; 0
    2b24:	a0 e0       	ldi	r26, 0x00	; 0
    2b26:	b0 e0       	ldi	r27, 0x00	; 0
    2b28:	c9 ef       	ldi	r28, 0xF9	; 249
    2b2a:	05 c0       	rjmp	.+10     	; 0x2b36 <usart_set_baudrate+0xc4>
    2b2c:	08 17       	cp	r16, r24
    2b2e:	19 07       	cpc	r17, r25
    2b30:	2a 07       	cpc	r18, r26
    2b32:	3b 07       	cpc	r19, r27
    2b34:	60 f0       	brcs	.+24     	; 0x2b4e <usart_set_baudrate+0xdc>
    2b36:	88 0f       	add	r24, r24
    2b38:	99 1f       	adc	r25, r25
    2b3a:	aa 1f       	adc	r26, r26
    2b3c:	bb 1f       	adc	r27, r27
    2b3e:	cd 3f       	cpi	r28, 0xFD	; 253
    2b40:	0c f4       	brge	.+2      	; 0x2b44 <usart_set_baudrate+0xd2>
    2b42:	81 60       	ori	r24, 0x01	; 1
    2b44:	cf 5f       	subi	r28, 0xFF	; 255
    2b46:	c7 30       	cpi	r28, 0x07	; 7
    2b48:	89 f7       	brne	.-30     	; 0x2b2c <usart_set_baudrate+0xba>
    2b4a:	2c 2f       	mov	r18, r28
    2b4c:	5d c0       	rjmp	.+186    	; 0x2c08 <usart_set_baudrate+0x196>
    2b4e:	2c 2f       	mov	r18, r28
    2b50:	cc 23       	and	r28, r28
    2b52:	0c f0       	brlt	.+2      	; 0x2b56 <usart_set_baudrate+0xe4>
    2b54:	59 c0       	rjmp	.+178    	; 0x2c08 <usart_set_baudrate+0x196>
    2b56:	d5 01       	movw	r26, r10
    2b58:	c4 01       	movw	r24, r8
    2b5a:	88 0f       	add	r24, r24
    2b5c:	99 1f       	adc	r25, r25
    2b5e:	aa 1f       	adc	r26, r26
    2b60:	bb 1f       	adc	r27, r27
    2b62:	88 0f       	add	r24, r24
    2b64:	99 1f       	adc	r25, r25
    2b66:	aa 1f       	adc	r26, r26
    2b68:	bb 1f       	adc	r27, r27
    2b6a:	88 0f       	add	r24, r24
    2b6c:	99 1f       	adc	r25, r25
    2b6e:	aa 1f       	adc	r26, r26
    2b70:	bb 1f       	adc	r27, r27
    2b72:	c8 1a       	sub	r12, r24
    2b74:	d9 0a       	sbc	r13, r25
    2b76:	ea 0a       	sbc	r14, r26
    2b78:	fb 0a       	sbc	r15, r27
    2b7a:	ce 3f       	cpi	r28, 0xFE	; 254
    2b7c:	34 f5       	brge	.+76     	; 0x2bca <usart_set_baudrate+0x158>
    2b7e:	8c 2f       	mov	r24, r28
    2b80:	99 27       	eor	r25, r25
    2b82:	87 fd       	sbrc	r24, 7
    2b84:	90 95       	com	r25
    2b86:	4d ef       	ldi	r20, 0xFD	; 253
    2b88:	5f ef       	ldi	r21, 0xFF	; 255
    2b8a:	48 1b       	sub	r20, r24
    2b8c:	59 0b       	sbc	r21, r25
    2b8e:	d7 01       	movw	r26, r14
    2b90:	c6 01       	movw	r24, r12
    2b92:	04 c0       	rjmp	.+8      	; 0x2b9c <usart_set_baudrate+0x12a>
    2b94:	88 0f       	add	r24, r24
    2b96:	99 1f       	adc	r25, r25
    2b98:	aa 1f       	adc	r26, r26
    2b9a:	bb 1f       	adc	r27, r27
    2b9c:	4a 95       	dec	r20
    2b9e:	d2 f7       	brpl	.-12     	; 0x2b94 <usart_set_baudrate+0x122>
    2ba0:	ac 01       	movw	r20, r24
    2ba2:	bd 01       	movw	r22, r26
    2ba4:	d5 01       	movw	r26, r10
    2ba6:	c4 01       	movw	r24, r8
    2ba8:	b6 95       	lsr	r27
    2baa:	a7 95       	ror	r26
    2bac:	97 95       	ror	r25
    2bae:	87 95       	ror	r24
    2bb0:	84 0f       	add	r24, r20
    2bb2:	95 1f       	adc	r25, r21
    2bb4:	a6 1f       	adc	r26, r22
    2bb6:	b7 1f       	adc	r27, r23
    2bb8:	bc 01       	movw	r22, r24
    2bba:	cd 01       	movw	r24, r26
    2bbc:	a5 01       	movw	r20, r10
    2bbe:	94 01       	movw	r18, r8
    2bc0:	0e 94 06 32 	call	0x640c	; 0x640c <__udivmodsi4>
    2bc4:	89 01       	movw	r16, r18
    2bc6:	9a 01       	movw	r18, r20
    2bc8:	41 c0       	rjmp	.+130    	; 0x2c4c <usart_set_baudrate+0x1da>
    2bca:	8c 2f       	mov	r24, r28
    2bcc:	99 27       	eor	r25, r25
    2bce:	87 fd       	sbrc	r24, 7
    2bd0:	90 95       	com	r25
    2bd2:	03 96       	adiw	r24, 0x03	; 3
    2bd4:	04 c0       	rjmp	.+8      	; 0x2bde <usart_set_baudrate+0x16c>
    2bd6:	88 0c       	add	r8, r8
    2bd8:	99 1c       	adc	r9, r9
    2bda:	aa 1c       	adc	r10, r10
    2bdc:	bb 1c       	adc	r11, r11
    2bde:	8a 95       	dec	r24
    2be0:	d2 f7       	brpl	.-12     	; 0x2bd6 <usart_set_baudrate+0x164>
    2be2:	b5 01       	movw	r22, r10
    2be4:	a4 01       	movw	r20, r8
    2be6:	76 95       	lsr	r23
    2be8:	67 95       	ror	r22
    2bea:	57 95       	ror	r21
    2bec:	47 95       	ror	r20
    2bee:	cb 01       	movw	r24, r22
    2bf0:	ba 01       	movw	r22, r20
    2bf2:	6c 0d       	add	r22, r12
    2bf4:	7d 1d       	adc	r23, r13
    2bf6:	8e 1d       	adc	r24, r14
    2bf8:	9f 1d       	adc	r25, r15
    2bfa:	a5 01       	movw	r20, r10
    2bfc:	94 01       	movw	r18, r8
    2bfe:	0e 94 06 32 	call	0x640c	; 0x640c <__udivmodsi4>
    2c02:	89 01       	movw	r16, r18
    2c04:	9a 01       	movw	r18, r20
    2c06:	22 c0       	rjmp	.+68     	; 0x2c4c <usart_set_baudrate+0x1da>
    2c08:	33 27       	eor	r19, r19
    2c0a:	27 fd       	sbrc	r18, 7
    2c0c:	30 95       	com	r19
    2c0e:	2d 5f       	subi	r18, 0xFD	; 253
    2c10:	3f 4f       	sbci	r19, 0xFF	; 255
    2c12:	d5 01       	movw	r26, r10
    2c14:	c4 01       	movw	r24, r8
    2c16:	04 c0       	rjmp	.+8      	; 0x2c20 <usart_set_baudrate+0x1ae>
    2c18:	88 0f       	add	r24, r24
    2c1a:	99 1f       	adc	r25, r25
    2c1c:	aa 1f       	adc	r26, r26
    2c1e:	bb 1f       	adc	r27, r27
    2c20:	2a 95       	dec	r18
    2c22:	d2 f7       	brpl	.-12     	; 0x2c18 <usart_set_baudrate+0x1a6>
    2c24:	9c 01       	movw	r18, r24
    2c26:	ad 01       	movw	r20, r26
    2c28:	b6 95       	lsr	r27
    2c2a:	a7 95       	ror	r26
    2c2c:	97 95       	ror	r25
    2c2e:	87 95       	ror	r24
    2c30:	c8 0e       	add	r12, r24
    2c32:	d9 1e       	adc	r13, r25
    2c34:	ea 1e       	adc	r14, r26
    2c36:	fb 1e       	adc	r15, r27
    2c38:	c7 01       	movw	r24, r14
    2c3a:	b6 01       	movw	r22, r12
    2c3c:	0e 94 06 32 	call	0x640c	; 0x640c <__udivmodsi4>
    2c40:	89 01       	movw	r16, r18
    2c42:	9a 01       	movw	r18, r20
    2c44:	01 50       	subi	r16, 0x01	; 1
    2c46:	10 40       	sbci	r17, 0x00	; 0
    2c48:	20 40       	sbci	r18, 0x00	; 0
    2c4a:	30 40       	sbci	r19, 0x00	; 0
    2c4c:	81 2f       	mov	r24, r17
    2c4e:	8f 70       	andi	r24, 0x0F	; 15
    2c50:	c2 95       	swap	r28
    2c52:	c0 7f       	andi	r28, 0xF0	; 240
    2c54:	c8 2b       	or	r28, r24
    2c56:	d3 01       	movw	r26, r6
    2c58:	17 96       	adiw	r26, 0x07	; 7
    2c5a:	cc 93       	st	X, r28
    2c5c:	17 97       	sbiw	r26, 0x07	; 7
    2c5e:	16 96       	adiw	r26, 0x06	; 6
    2c60:	0c 93       	st	X, r16
    2c62:	16 97       	sbiw	r26, 0x06	; 6
    2c64:	81 e0       	ldi	r24, 0x01	; 1
    2c66:	03 c0       	rjmp	.+6      	; 0x2c6e <usart_set_baudrate+0x1fc>
    2c68:	80 e0       	ldi	r24, 0x00	; 0
    2c6a:	01 c0       	rjmp	.+2      	; 0x2c6e <usart_set_baudrate+0x1fc>
    2c6c:	80 e0       	ldi	r24, 0x00	; 0
    2c6e:	cf 91       	pop	r28
    2c70:	1f 91       	pop	r17
    2c72:	0f 91       	pop	r16
    2c74:	ff 90       	pop	r15
    2c76:	ef 90       	pop	r14
    2c78:	df 90       	pop	r13
    2c7a:	cf 90       	pop	r12
    2c7c:	bf 90       	pop	r11
    2c7e:	af 90       	pop	r10
    2c80:	9f 90       	pop	r9
    2c82:	8f 90       	pop	r8
    2c84:	7f 90       	pop	r7
    2c86:	6f 90       	pop	r6
    2c88:	08 95       	ret
    2c8a:	d5 01       	movw	r26, r10
    2c8c:	c4 01       	movw	r24, r8
    2c8e:	88 0f       	add	r24, r24
    2c90:	99 1f       	adc	r25, r25
    2c92:	aa 1f       	adc	r26, r26
    2c94:	bb 1f       	adc	r27, r27
    2c96:	88 0f       	add	r24, r24
    2c98:	99 1f       	adc	r25, r25
    2c9a:	aa 1f       	adc	r26, r26
    2c9c:	bb 1f       	adc	r27, r27
    2c9e:	88 0f       	add	r24, r24
    2ca0:	99 1f       	adc	r25, r25
    2ca2:	aa 1f       	adc	r26, r26
    2ca4:	bb 1f       	adc	r27, r27
    2ca6:	c8 1a       	sub	r12, r24
    2ca8:	d9 0a       	sbc	r13, r25
    2caa:	ea 0a       	sbc	r14, r26
    2cac:	fb 0a       	sbc	r15, r27
    2cae:	c9 ef       	ldi	r28, 0xF9	; 249
    2cb0:	66 cf       	rjmp	.-308    	; 0x2b7e <usart_set_baudrate+0x10c>

00002cb2 <wdt_reset_mcu>:
    2cb2:	80 e8       	ldi	r24, 0x80	; 128
    2cb4:	90 e0       	ldi	r25, 0x00	; 0
    2cb6:	63 e0       	ldi	r22, 0x03	; 3
    2cb8:	0e 94 3c 0c 	call	0x1878	; 0x1878 <ccp_write_io>
    2cbc:	e0 e8       	ldi	r30, 0x80	; 128
    2cbe:	f0 e0       	ldi	r31, 0x00	; 0
    2cc0:	82 81       	ldd	r24, Z+2	; 0x02
    2cc2:	80 fd       	sbrc	r24, 0
    2cc4:	fd cf       	rjmp	.-6      	; 0x2cc0 <wdt_reset_mcu+0xe>
    2cc6:	81 e8       	ldi	r24, 0x81	; 129
    2cc8:	90 e0       	ldi	r25, 0x00	; 0
    2cca:	6b e2       	ldi	r22, 0x2B	; 43
    2ccc:	0e 94 3c 0c 	call	0x1878	; 0x1878 <ccp_write_io>
    2cd0:	e0 e8       	ldi	r30, 0x80	; 128
    2cd2:	f0 e0       	ldi	r31, 0x00	; 0
    2cd4:	82 81       	ldd	r24, Z+2	; 0x02
    2cd6:	80 fd       	sbrc	r24, 0
    2cd8:	fd cf       	rjmp	.-6      	; 0x2cd4 <wdt_reset_mcu+0x22>
    2cda:	a8 95       	wdr
    2cdc:	ff cf       	rjmp	.-2      	; 0x2cdc <wdt_reset_mcu+0x2a>

00002cde <En_RC32M>:
    2cde:	e0 e5       	ldi	r30, 0x50	; 80
    2ce0:	f0 e0       	ldi	r31, 0x00	; 0
    2ce2:	80 81       	ld	r24, Z
    2ce4:	82 60       	ori	r24, 0x02	; 2
    2ce6:	80 83       	st	Z, r24
    2ce8:	e1 e5       	ldi	r30, 0x51	; 81
    2cea:	f0 e0       	ldi	r31, 0x00	; 0
    2cec:	80 81       	ld	r24, Z
    2cee:	81 ff       	sbrs	r24, 1
    2cf0:	fd cf       	rjmp	.-6      	; 0x2cec <En_RC32M+0xe>
    2cf2:	88 ed       	ldi	r24, 0xD8	; 216
    2cf4:	84 bf       	out	0x34, r24	; 52
    2cf6:	81 e0       	ldi	r24, 0x01	; 1
    2cf8:	80 93 40 00 	sts	0x0040, r24
    2cfc:	e0 e5       	ldi	r30, 0x50	; 80
    2cfe:	f0 e0       	ldi	r31, 0x00	; 0
    2d00:	80 81       	ld	r24, Z
    2d02:	82 7e       	andi	r24, 0xE2	; 226
    2d04:	80 83       	st	Z, r24
    2d06:	08 95       	ret

00002d08 <PORT_init>:
    2d08:	80 e4       	ldi	r24, 0x40	; 64
    2d0a:	80 93 21 06 	sts	0x0621, r24
    2d0e:	87 e4       	ldi	r24, 0x47	; 71
    2d10:	80 93 41 06 	sts	0x0641, r24
    2d14:	10 92 53 06 	sts	0x0653, r1
    2d18:	91 e0       	ldi	r25, 0x01	; 1
    2d1a:	90 93 49 06 	sts	0x0649, r25
    2d1e:	88 e0       	ldi	r24, 0x08	; 8
    2d20:	80 93 4a 06 	sts	0x064A, r24
    2d24:	2e e2       	ldi	r18, 0x2E	; 46
    2d26:	20 93 61 06 	sts	0x0661, r18
    2d2a:	22 eb       	ldi	r18, 0xB2	; 178
    2d2c:	20 93 81 06 	sts	0x0681, r18
    2d30:	e0 e9       	ldi	r30, 0x90	; 144
    2d32:	f6 e0       	ldi	r31, 0x06	; 6
    2d34:	20 81       	ld	r18, Z
    2d36:	22 60       	ori	r18, 0x02	; 2
    2d38:	20 83       	st	Z, r18
    2d3a:	e9 e8       	ldi	r30, 0x89	; 137
    2d3c:	f6 e0       	ldi	r31, 0x06	; 6
    2d3e:	20 81       	ld	r18, Z
    2d40:	21 60       	ori	r18, 0x01	; 1
    2d42:	20 83       	st	Z, r18
    2d44:	ea e8       	ldi	r30, 0x8A	; 138
    2d46:	f6 e0       	ldi	r31, 0x06	; 6
    2d48:	20 81       	ld	r18, Z
    2d4a:	21 60       	ori	r18, 0x01	; 1
    2d4c:	20 83       	st	Z, r18
    2d4e:	20 e1       	ldi	r18, 0x10	; 16
    2d50:	20 93 aa 06 	sts	0x06AA, r18
    2d54:	80 93 a1 06 	sts	0x06A1, r24
    2d58:	80 93 a5 06 	sts	0x06A5, r24
    2d5c:	2f ef       	ldi	r18, 0xFF	; 255
    2d5e:	20 93 20 07 	sts	0x0720, r18
    2d62:	20 93 00 07 	sts	0x0700, r18
    2d66:	10 92 d0 07 	sts	0x07D0, r1
    2d6a:	10 92 d3 07 	sts	0x07D3, r1
    2d6e:	25 e0       	ldi	r18, 0x05	; 5
    2d70:	20 93 c9 07 	sts	0x07C9, r18
    2d74:	90 93 ca 07 	sts	0x07CA, r25
    2d78:	80 93 cb 07 	sts	0x07CB, r24
    2d7c:	10 92 f5 06 	sts	0x06F5, r1
    2d80:	90 93 f7 06 	sts	0x06F7, r25
    2d84:	20 93 e9 06 	sts	0x06E9, r18
    2d88:	80 e2       	ldi	r24, 0x20	; 32
    2d8a:	80 93 ea 06 	sts	0x06EA, r24
    2d8e:	8f e8       	ldi	r24, 0x8F	; 143
    2d90:	80 93 eb 06 	sts	0x06EB, r24
    2d94:	08 95       	ret

00002d96 <TimerC0_init>:
    2d96:	e0 e0       	ldi	r30, 0x00	; 0
    2d98:	f8 e0       	ldi	r31, 0x08	; 8
    2d9a:	80 81       	ld	r24, Z
    2d9c:	80 7f       	andi	r24, 0xF0	; 240
    2d9e:	86 60       	ori	r24, 0x06	; 6
    2da0:	80 83       	st	Z, r24
    2da2:	81 81       	ldd	r24, Z+1	; 0x01
    2da4:	88 7f       	andi	r24, 0xF8	; 248
    2da6:	83 60       	ori	r24, 0x03	; 3
    2da8:	81 83       	std	Z+1, r24	; 0x01
    2daa:	8f ef       	ldi	r24, 0xFF	; 255
    2dac:	90 e0       	ldi	r25, 0x00	; 0
    2dae:	86 a3       	lds	r24, 0x56
    2db0:	97 a3       	lds	r25, 0x57
    2db2:	80 85       	ldd	r24, Z+8	; 0x08
    2db4:	8e 6f       	ori	r24, 0xFE	; 254
    2db6:	80 87       	std	Z+8, r24	; 0x08
    2db8:	81 81       	ldd	r24, Z+1	; 0x01
    2dba:	80 61       	ori	r24, 0x10	; 16
    2dbc:	81 83       	std	Z+1, r24	; 0x01
    2dbe:	81 81       	ldd	r24, Z+1	; 0x01
    2dc0:	80 62       	ori	r24, 0x20	; 32
    2dc2:	81 83       	std	Z+1, r24	; 0x01
    2dc4:	80 e0       	ldi	r24, 0x00	; 0
    2dc6:	98 e0       	ldi	r25, 0x08	; 8
    2dc8:	c4 cd       	rjmp	.-1144   	; 0x2952 <tc_enable>

00002dca <TimerD0_init>:
    2dca:	e0 e0       	ldi	r30, 0x00	; 0
    2dcc:	f9 e0       	ldi	r31, 0x09	; 9
    2dce:	80 81       	ld	r24, Z
    2dd0:	80 7f       	andi	r24, 0xF0	; 240
    2dd2:	86 60       	ori	r24, 0x06	; 6
    2dd4:	80 83       	st	Z, r24
    2dd6:	81 81       	ldd	r24, Z+1	; 0x01
    2dd8:	88 7f       	andi	r24, 0xF8	; 248
    2dda:	81 83       	std	Z+1, r24	; 0x01
    2ddc:	86 81       	ldd	r24, Z+6	; 0x06
    2dde:	8c 7f       	andi	r24, 0xFC	; 252
    2de0:	86 83       	std	Z+6, r24	; 0x06
    2de2:	86 81       	ldd	r24, Z+6	; 0x06
    2de4:	82 60       	ori	r24, 0x02	; 2
    2de6:	86 83       	std	Z+6, r24	; 0x06
    2de8:	8d e7       	ldi	r24, 0x7D	; 125
    2dea:	90 e0       	ldi	r25, 0x00	; 0
    2dec:	86 a3       	lds	r24, 0x56
    2dee:	97 a3       	lds	r25, 0x57
    2df0:	80 85       	ldd	r24, Z+8	; 0x08
    2df2:	8e 6f       	ori	r24, 0xFE	; 254
    2df4:	80 87       	std	Z+8, r24	; 0x08
    2df6:	80 e0       	ldi	r24, 0x00	; 0
    2df8:	99 e0       	ldi	r25, 0x09	; 9
    2dfa:	ab cd       	rjmp	.-1194   	; 0x2952 <tc_enable>

00002dfc <SPI_Init>:
    2dfc:	0f 93       	push	r16
    2dfe:	1f 93       	push	r17
    2e00:	80 ec       	ldi	r24, 0xC0	; 192
    2e02:	9a e0       	ldi	r25, 0x0A	; 10
    2e04:	40 e0       	ldi	r20, 0x00	; 0
    2e06:	52 e1       	ldi	r21, 0x12	; 18
    2e08:	6a e7       	ldi	r22, 0x7A	; 122
    2e0a:	70 e0       	ldi	r23, 0x00	; 0
    2e0c:	00 e0       	ldi	r16, 0x00	; 0
    2e0e:	18 e4       	ldi	r17, 0x48	; 72
    2e10:	28 ee       	ldi	r18, 0xE8	; 232
    2e12:	31 e0       	ldi	r19, 0x01	; 1
    2e14:	0e 94 4c 0c 	call	0x1898	; 0x1898 <spi_xmega_set_baud_div>
    2e18:	e0 ec       	ldi	r30, 0xC0	; 192
    2e1a:	fa e0       	ldi	r31, 0x0A	; 10
    2e1c:	80 81       	ld	r24, Z
    2e1e:	80 61       	ori	r24, 0x10	; 16
    2e20:	80 83       	st	Z, r24
    2e22:	80 81       	ld	r24, Z
    2e24:	80 64       	ori	r24, 0x40	; 64
    2e26:	80 83       	st	Z, r24
    2e28:	1f 91       	pop	r17
    2e2a:	0f 91       	pop	r16
    2e2c:	08 95       	ret

00002e2e <USARTF0_init>:
    2e2e:	0f 93       	push	r16
    2e30:	1f 93       	push	r17
    2e32:	cf 93       	push	r28
    2e34:	df 93       	push	r29
    2e36:	c0 ea       	ldi	r28, 0xA0	; 160
    2e38:	db e0       	ldi	r29, 0x0B	; 11
    2e3a:	8d 81       	ldd	r24, Y+5	; 0x05
    2e3c:	8f 73       	andi	r24, 0x3F	; 63
    2e3e:	8d 83       	std	Y+5, r24	; 0x05
    2e40:	83 e0       	ldi	r24, 0x03	; 3
    2e42:	8d 83       	std	Y+5, r24	; 0x05
    2e44:	8b 81       	ldd	r24, Y+3	; 0x03
    2e46:	8f 7c       	andi	r24, 0xCF	; 207
    2e48:	80 62       	ori	r24, 0x20	; 32
    2e4a:	8b 83       	std	Y+3, r24	; 0x03
    2e4c:	80 ea       	ldi	r24, 0xA0	; 160
    2e4e:	9b e0       	ldi	r25, 0x0B	; 11
    2e50:	40 e8       	ldi	r20, 0x80	; 128
    2e52:	55 e2       	ldi	r21, 0x25	; 37
    2e54:	60 e0       	ldi	r22, 0x00	; 0
    2e56:	70 e0       	ldi	r23, 0x00	; 0
    2e58:	00 e0       	ldi	r16, 0x00	; 0
    2e5a:	18 e4       	ldi	r17, 0x48	; 72
    2e5c:	28 ee       	ldi	r18, 0xE8	; 232
    2e5e:	31 e0       	ldi	r19, 0x01	; 1
    2e60:	08 de       	rcall	.-1008   	; 0x2a72 <usart_set_baudrate>
    2e62:	8c 81       	ldd	r24, Y+4	; 0x04
    2e64:	88 60       	ori	r24, 0x08	; 8
    2e66:	8c 83       	std	Y+4, r24	; 0x04
    2e68:	8c 81       	ldd	r24, Y+4	; 0x04
    2e6a:	80 61       	ori	r24, 0x10	; 16
    2e6c:	8c 83       	std	Y+4, r24	; 0x04
    2e6e:	df 91       	pop	r29
    2e70:	cf 91       	pop	r28
    2e72:	1f 91       	pop	r17
    2e74:	0f 91       	pop	r16
    2e76:	08 95       	ret

00002e78 <USARTF1_init>:
    2e78:	0f 93       	push	r16
    2e7a:	1f 93       	push	r17
    2e7c:	cf 93       	push	r28
    2e7e:	df 93       	push	r29
    2e80:	c0 eb       	ldi	r28, 0xB0	; 176
    2e82:	db e0       	ldi	r29, 0x0B	; 11
    2e84:	8d 81       	ldd	r24, Y+5	; 0x05
    2e86:	8f 73       	andi	r24, 0x3F	; 63
    2e88:	8d 83       	std	Y+5, r24	; 0x05
    2e8a:	83 e0       	ldi	r24, 0x03	; 3
    2e8c:	8d 83       	std	Y+5, r24	; 0x05
    2e8e:	80 eb       	ldi	r24, 0xB0	; 176
    2e90:	9b e0       	ldi	r25, 0x0B	; 11
    2e92:	40 e8       	ldi	r20, 0x80	; 128
    2e94:	55 e2       	ldi	r21, 0x25	; 37
    2e96:	60 e0       	ldi	r22, 0x00	; 0
    2e98:	70 e0       	ldi	r23, 0x00	; 0
    2e9a:	00 e0       	ldi	r16, 0x00	; 0
    2e9c:	18 e4       	ldi	r17, 0x48	; 72
    2e9e:	28 ee       	ldi	r18, 0xE8	; 232
    2ea0:	31 e0       	ldi	r19, 0x01	; 1
    2ea2:	e7 dd       	rcall	.-1074   	; 0x2a72 <usart_set_baudrate>
    2ea4:	8c 81       	ldd	r24, Y+4	; 0x04
    2ea6:	88 60       	ori	r24, 0x08	; 8
    2ea8:	8c 83       	std	Y+4, r24	; 0x04
    2eaa:	df 91       	pop	r29
    2eac:	cf 91       	pop	r28
    2eae:	1f 91       	pop	r17
    2eb0:	0f 91       	pop	r16
    2eb2:	08 95       	ret

00002eb4 <ADCA_init>:
    2eb4:	cf 93       	push	r28
    2eb6:	df 93       	push	r29
    2eb8:	cd b7       	in	r28, 0x3d	; 61
    2eba:	de b7       	in	r29, 0x3e	; 62
    2ebc:	2a 97       	sbiw	r28, 0x0a	; 10
    2ebe:	cd bf       	out	0x3d, r28	; 61
    2ec0:	de bf       	out	0x3e, r29	; 62
    2ec2:	82 e0       	ldi	r24, 0x02	; 2
    2ec4:	61 e2       	ldi	r22, 0x21	; 33
    2ec6:	70 e0       	ldi	r23, 0x00	; 0
    2ec8:	0e 94 42 0c 	call	0x1884	; 0x1884 <nvm_read_byte>
    2ecc:	82 e0       	ldi	r24, 0x02	; 2
    2ece:	60 e2       	ldi	r22, 0x20	; 32
    2ed0:	70 e0       	ldi	r23, 0x00	; 0
    2ed2:	0e 94 42 0c 	call	0x1884	; 0x1884 <nvm_read_byte>
    2ed6:	8a 81       	ldd	r24, Y+2	; 0x02
    2ed8:	89 7e       	andi	r24, 0xE9	; 233
    2eda:	9b 81       	ldd	r25, Y+3	; 0x03
    2edc:	9f 7c       	andi	r25, 0xCF	; 207
    2ede:	90 62       	ori	r25, 0x20	; 32
    2ee0:	9b 83       	std	Y+3, r25	; 0x03
    2ee2:	92 e0       	ldi	r25, 0x02	; 2
    2ee4:	9d 83       	std	Y+5, r25	; 0x05
    2ee6:	88 60       	ori	r24, 0x08	; 8
    2ee8:	8a 83       	std	Y+2, r24	; 0x02
    2eea:	1c 82       	std	Y+4, r1	; 0x04
    2eec:	80 e0       	ldi	r24, 0x00	; 0
    2eee:	92 e0       	ldi	r25, 0x02	; 2
    2ef0:	be 01       	movw	r22, r28
    2ef2:	6f 5f       	subi	r22, 0xFF	; 255
    2ef4:	7f 4f       	sbci	r23, 0xFF	; 255
    2ef6:	0e 94 6c 0b 	call	0x16d8	; 0x16d8 <adc_write_configuration>
    2efa:	80 e0       	ldi	r24, 0x00	; 0
    2efc:	92 e0       	ldi	r25, 0x02	; 2
    2efe:	61 e0       	ldi	r22, 0x01	; 1
    2f00:	ae 01       	movw	r20, r28
    2f02:	48 5f       	subi	r20, 0xF8	; 248
    2f04:	5f 4f       	sbci	r21, 0xFF	; 255
    2f06:	0e 94 05 0c 	call	0x180a	; 0x180a <adcch_read_configuration>
    2f0a:	81 e0       	ldi	r24, 0x01	; 1
    2f0c:	88 87       	std	Y+8, r24	; 0x08
    2f0e:	88 e1       	ldi	r24, 0x18	; 24
    2f10:	89 87       	std	Y+9, r24	; 0x09
    2f12:	80 e0       	ldi	r24, 0x00	; 0
    2f14:	92 e0       	ldi	r25, 0x02	; 2
    2f16:	61 e0       	ldi	r22, 0x01	; 1
    2f18:	ae 01       	movw	r20, r28
    2f1a:	48 5f       	subi	r20, 0xF8	; 248
    2f1c:	5f 4f       	sbci	r21, 0xFF	; 255
    2f1e:	0e 94 ce 0b 	call	0x179c	; 0x179c <adcch_write_configuration>
    2f22:	80 e0       	ldi	r24, 0x00	; 0
    2f24:	92 e0       	ldi	r25, 0x02	; 2
    2f26:	0e 94 55 0b 	call	0x16aa	; 0x16aa <adc_enable>
    2f2a:	8f b7       	in	r24, 0x3f	; 63
    2f2c:	f8 94       	cli
    2f2e:	e0 e0       	ldi	r30, 0x00	; 0
    2f30:	f2 e0       	ldi	r31, 0x02	; 2
    2f32:	90 81       	ld	r25, Z
    2f34:	94 60       	ori	r25, 0x04	; 4
    2f36:	90 83       	st	Z, r25
    2f38:	8f bf       	out	0x3f, r24	; 63
    2f3a:	2a 96       	adiw	r28, 0x0a	; 10
    2f3c:	cd bf       	out	0x3d, r28	; 61
    2f3e:	de bf       	out	0x3e, r29	; 62
    2f40:	df 91       	pop	r29
    2f42:	cf 91       	pop	r28
    2f44:	08 95       	ret

00002f46 <main>:
    char PWM
};
typedef	struct _Motor_Param Motor_Param;
Motor_Param M0,M1,M2,M3;
int main (void)
{
    2f46:	cf 93       	push	r28
    2f48:	df 93       	push	r29
    2f4a:	cd b7       	in	r28, 0x3d	; 61
    2f4c:	de b7       	in	r29, 0x3e	; 62
    2f4e:	ae 97       	sbiw	r28, 0x2e	; 46
    2f50:	cd bf       	out	0x3d, r28	; 61
    2f52:	de bf       	out	0x3e, r29	; 62
    En_RC32M();
    2f54:	c4 de       	rcall	.-632    	; 0x2cde <En_RC32M>
    2f56:	e2 ea       	ldi	r30, 0xA2	; 162

    //Enable LowLevel & HighLevel Interrupts
    PMIC_CTRL |= PMIC_HILVLEN_bm | PMIC_LOLVLEN_bm |PMIC_MEDLVLEN_bm;
    2f58:	f0 e0       	ldi	r31, 0x00	; 0
    2f5a:	80 81       	ld	r24, Z
    2f5c:	87 60       	ori	r24, 0x07	; 7
    2f5e:	80 83       	st	Z, r24
    2f60:	d3 de       	rcall	.-602    	; 0x2d08 <PORT_init>

    PORT_init();
    2f62:	33 df       	rcall	.-410    	; 0x2dca <TimerD0_init>
    2f64:	18 df       	rcall	.-464    	; 0x2d96 <TimerC0_init>
    TimerD0_init();
    2f66:	63 df       	rcall	.-314    	; 0x2e2e <USARTF0_init>
    2f68:	87 df       	rcall	.-242    	; 0x2e78 <USARTF1_init>
    TimerC0_init();
    2f6a:	a4 df       	rcall	.-184    	; 0x2eb4 <ADCA_init>
    2f6c:	0e 94 da 08 	call	0x11b4	; 0x11b4 <LCDInit>
    USARTF0_init();
    2f70:	e8 e0       	ldi	r30, 0x08	; 8
    USARTF1_init();
    2f72:	f6 e0       	ldi	r31, 0x06	; 6
    2f74:	50 81       	ld	r21, Z
    ADCA_init();
    2f76:	80 81       	ld	r24, Z
    2f78:	40 81       	ld	r20, Z
    LCDInit();
    2f7a:	60 81       	ld	r22, Z
    2f7c:	90 e0       	ldi	r25, 0x00	; 0
	
	Address[0] = RobotID ;
    2f7e:	80 71       	andi	r24, 0x10	; 16
    2f80:	90 70       	andi	r25, 0x00	; 0
    2f82:	95 95       	asr	r25
    2f84:	87 95       	ror	r24
    2f86:	95 95       	asr	r25
    2f88:	87 95       	ror	r24
    2f8a:	95 95       	asr	r25
    2f8c:	87 95       	ror	r24
    2f8e:	95 95       	asr	r25
    2f90:	87 95       	ror	r24
    2f92:	9c 01       	movw	r18, r24
    2f94:	22 0f       	add	r18, r18
    2f96:	33 1f       	adc	r19, r19
    2f98:	84 2f       	mov	r24, r20
    2f9a:	88 1f       	adc	r24, r24
    2f9c:	88 27       	eor	r24, r24
    2f9e:	88 1f       	adc	r24, r24
    2fa0:	88 0f       	add	r24, r24
    2fa2:	88 0f       	add	r24, r24
    2fa4:	28 2b       	or	r18, r24
    2fa6:	85 2f       	mov	r24, r21
    2fa8:	90 e0       	ldi	r25, 0x00	; 0
    2faa:	80 74       	andi	r24, 0x40	; 64
    2fac:	90 70       	andi	r25, 0x00	; 0
    2fae:	08 2e       	mov	r0, r24
    2fb0:	89 2f       	mov	r24, r25
    2fb2:	00 0c       	add	r0, r0
    2fb4:	88 1f       	adc	r24, r24
    2fb6:	99 0b       	sbc	r25, r25
    2fb8:	00 0c       	add	r0, r0
    2fba:	88 1f       	adc	r24, r24
    2fbc:	99 1f       	adc	r25, r25
    2fbe:	28 2b       	or	r18, r24
    2fc0:	86 2f       	mov	r24, r22
    2fc2:	90 e0       	ldi	r25, 0x00	; 0
    2fc4:	80 72       	andi	r24, 0x20	; 32
    2fc6:	90 70       	andi	r25, 0x00	; 0
    2fc8:	95 95       	asr	r25
    2fca:	87 95       	ror	r24
    2fcc:	95 95       	asr	r25
    2fce:	87 95       	ror	r24
    2fd0:	95 95       	asr	r25
    2fd2:	87 95       	ror	r24
    2fd4:	95 95       	asr	r25
    2fd6:	87 95       	ror	r24
    2fd8:	95 95       	asr	r25
    2fda:	87 95       	ror	r24
    2fdc:	88 0f       	add	r24, r24
    2fde:	99 1f       	adc	r25, r25
    2fe0:	88 0f       	add	r24, r24
    2fe2:	99 1f       	adc	r25, r25
    2fe4:	88 0f       	add	r24, r24
    2fe6:	99 1f       	adc	r25, r25
    2fe8:	82 2b       	or	r24, r18
    2fea:	80 93 be 24 	sts	0x24BE, r24
    2fee:	82 e2       	ldi	r24, 0x22	; 34
    2ff0:	80 93 bf 24 	sts	0x24BF, r24
    2ff4:	83 e3       	ldi	r24, 0x33	; 51
    2ff6:	80 93 c0 24 	sts	0x24C0, r24
    2ffa:	84 e4       	ldi	r24, 0x44	; 68
	Address[1] = 0x22;
    2ffc:	80 93 c1 24 	sts	0x24C1, r24
    3000:	85 e5       	ldi	r24, 0x55	; 85
	Address[2] = 0x33;
    3002:	80 93 c2 24 	sts	0x24C2, r24
    3006:	78 94       	sei
	Address[3] = 0x44;
    3008:	88 eb       	ldi	r24, 0xB8	; 184
    300a:	9b e0       	ldi	r25, 0x0B	; 11
    300c:	a0 e0       	ldi	r26, 0x00	; 0
	Address[4] = 0x55;
    300e:	b0 e0       	ldi	r27, 0x00	; 0
    3010:	80 93 43 21 	sts	0x2143, r24
    //wdt_enable();

    // Globally enable interrupts
    sei();
    3014:	90 93 44 21 	sts	0x2144, r25

    LED_Green_Time	= 3000;	LED_Green_Speed = 500;
    3018:	a0 93 45 21 	sts	0x2145, r26
    301c:	b0 93 46 21 	sts	0x2146, r27
    3020:	24 ef       	ldi	r18, 0xF4	; 244
    3022:	31 e0       	ldi	r19, 0x01	; 1
    3024:	20 93 d6 24 	sts	0x24D6, r18
    3028:	30 93 d7 24 	sts	0x24D7, r19
    302c:	80 93 47 21 	sts	0x2147, r24
    3030:	90 93 48 21 	sts	0x2148, r25
    3034:	a0 93 49 21 	sts	0x2149, r26
    3038:	b0 93 4a 21 	sts	0x214A, r27
    LED_Red_Time	= 3000;	LED_Red_Speed	= 100;
    303c:	84 e6       	ldi	r24, 0x64	; 100
    303e:	90 e0       	ldi	r25, 0x00	; 0
    3040:	80 93 e9 22 	sts	0x22E9, r24
    3044:	90 93 ea 22 	sts	0x22EA, r25
    3048:	88 ee       	ldi	r24, 0xE8	; 232
    304a:	93 e0       	ldi	r25, 0x03	; 3
    304c:	a0 e0       	ldi	r26, 0x00	; 0
    304e:	b0 e0       	ldi	r27, 0x00	; 0
    3050:	80 93 3f 21 	sts	0x213F, r24
    3054:	90 93 40 21 	sts	0x2140, r25
    LED_White_Time	= 1000;	LED_White_Speed = 200;
    3058:	a0 93 41 21 	sts	0x2141, r26
    305c:	b0 93 42 21 	sts	0x2142, r27
    3060:	88 ec       	ldi	r24, 0xC8	; 200
    3062:	90 e0       	ldi	r25, 0x00	; 0
    3064:	80 93 04 25 	sts	0x2504, r24
    3068:	90 93 05 25 	sts	0x2505, r25
    306c:	80 ed       	ldi	r24, 0xD0	; 208
    306e:	97 e0       	ldi	r25, 0x07	; 7
    3070:	a0 e0       	ldi	r26, 0x00	; 0
    3072:	b0 e0       	ldi	r27, 0x00	; 0
    3074:	80 93 3b 21 	sts	0x213B, r24
    3078:	90 93 3c 21 	sts	0x213C, r25
    Buzzer_Time		= 2000;	Buzzer_Speed	= 150;
    307c:	a0 93 3d 21 	sts	0x213D, r26
    3080:	b0 93 3e 21 	sts	0x213E, r27
    3084:	86 e9       	ldi	r24, 0x96	; 150
    3086:	90 e0       	ldi	r25, 0x00	; 0
    3088:	80 93 31 23 	sts	0x2331, r24
    308c:	90 93 32 23 	sts	0x2332, r25
    3090:	0f 2e       	mov	r0, r31
    3092:	f0 e8       	ldi	r31, 0x80	; 128
    3094:	af 2e       	mov	r10, r31
    3096:	f6 e0       	ldi	r31, 0x06	; 6
    3098:	bf 2e       	mov	r11, r31
    309a:	f0 2d       	mov	r31, r0
    309c:	12 e0       	ldi	r17, 0x02	; 2

  //  Address[0]=Address[0] + RobotID ;
  //Address[0] = RobotID ;

    ///////////////////////////////////////////////////////////////////////////////////////////////Begin NRF Initialize
    NRF24L01_L_CE_LOW;       //disable transceiver modes
    309e:	d5 01       	movw	r26, r10
    30a0:	16 96       	adiw	r26, 0x06	; 6
    30a2:	1c 93       	st	X, r17
    30a4:	ab de       	rcall	.-682    	; 0x2dfc <SPI_Init>
    30a6:	ba e6       	ldi	r27, 0x6A	; 106
    30a8:	ba 95       	dec	r27
    30aa:	f1 f7       	brne	.-4      	; 0x30a8 <main+0x162>
    30ac:	00 c0       	rjmp	.+0      	; 0x30ae <main+0x168>
    30ae:	8f ef       	ldi	r24, 0xFF	; 255
    30b0:	93 ec       	ldi	r25, 0xC3	; 195

    SPI_Init();
    30b2:	a9 e0       	ldi	r26, 0x09	; 9
    30b4:	81 50       	subi	r24, 0x01	; 1
    30b6:	90 40       	sbci	r25, 0x00	; 0
    30b8:	a0 40       	sbci	r26, 0x00	; 0
    30ba:	e1 f7       	brne	.-8      	; 0x30b4 <main+0x16e>
    30bc:	00 c0       	rjmp	.+0      	; 0x30be <main+0x178>
	#else
		//round up by default
		__ticks_dc = (uint32_t)(ceil(fabs(__tmp)));
	#endif

	__builtin_avr_delay_cycles(__ticks_dc);
    30be:	00 00       	nop
    30c0:	0e 94 82 31 	call	0x6304	; 0x6304 <NRF24L01_L_Clear_Interrupts>
    30c4:	0e 94 fb 30 	call	0x61f6	; 0x61f6 <NRF24L01_L_Flush_TX>
    30c8:	0e 94 ed 30 	call	0x61da	; 0x61da <NRF24L01_L_Flush_RX>
    30cc:	d5 01       	movw	r26, r10
    30ce:	16 96       	adiw	r26, 0x06	; 6

    _delay_us(10);
    _delay_ms(100);      //power on reset delay needs 100ms
    NRF24L01_L_Clear_Interrupts();
    30d0:	1c 93       	st	X, r17
    30d2:	81 e0       	ldi	r24, 0x01	; 1
    NRF24L01_L_Flush_TX();
    30d4:	61 e0       	ldi	r22, 0x01	; 1
    30d6:	48 e0       	ldi	r20, 0x08	; 8
    NRF24L01_L_Flush_RX();
    30d8:	2e eb       	ldi	r18, 0xBE	; 190
    30da:	34 e2       	ldi	r19, 0x24	; 36
    NRF24L01_L_CE_LOW;
    30dc:	05 e0       	ldi	r16, 0x05	; 5
    30de:	ee 24       	eor	r14, r14
    30e0:	68 94       	set
	
   //if (RobotID < 6)
   NRF24L01_L_Init(_RX_MODE, _CH_1, _2Mbps, Address, _Address_Width, _Buffer_Size, RF_PWR_MAX);
    30e2:	e5 f8       	bld	r14, 5
    30e4:	0f 2e       	mov	r0, r31
    30e6:	f6 e0       	ldi	r31, 0x06	; 6
    30e8:	cf 2e       	mov	r12, r31
    30ea:	f0 2d       	mov	r31, r0
    30ec:	0e 94 ce 31 	call	0x639c	; 0x639c <NRF24L01_L_Init>
    30f0:	f5 01       	movw	r30, r10
    30f2:	15 83       	std	Z+5, r17	; 0x05
    30f4:	8f e0       	ldi	r24, 0x0F	; 15
    30f6:	94 e0       	ldi	r25, 0x04	; 4
    30f8:	01 97       	sbiw	r24, 0x01	; 1
    30fa:	f1 f7       	brne	.-4      	; 0x30f8 <main+0x1b2>
    30fc:	00 c0       	rjmp	.+0      	; 0x30fe <main+0x1b8>
    30fe:	00 00       	nop
   //else
   //NRF24L01_L_Init(_RX_MODE, _CH_0, _2Mbps, Address, _Address_Width, _Buffer_Size, RF_PWR_MAX);
   


    NRF24L01_L_CE_HIGH;
    3100:	ab e7       	ldi	r26, 0x7B	; 123
    3102:	b4 e2       	ldi	r27, 0x24	; 36
	#else
		//round up by default
		__ticks_dc = (uint32_t)(ceil(fabs(__tmp)));
	#endif

	__builtin_avr_delay_cycles(__ticks_dc);
    3104:	12 97       	sbiw	r26, 0x02	; 2
    3106:	ad 8f       	std	Y+29, r26	; 0x1d
    3108:	be 8f       	std	Y+30, r27	; 0x1e
    310a:	e9 e0       	ldi	r30, 0x09	; 9
    310c:	f5 e2       	ldi	r31, 0x25	; 37
    310e:	32 96       	adiw	r30, 0x02	; 2
    while(1)
    {
        asm("wdr");
        if (ctrlflg)
        {
                    M0.Speed_past = M0.Speed; M0.Speed = M0.Encoder*7.5; M0.Encoder = 0;
    3110:	eb a3       	lds	r30, 0x5b
    3112:	fc a3       	lds	r31, 0x5c
    3114:	2f e1       	ldi	r18, 0x1F	; 31
    3116:	35 e2       	ldi	r19, 0x25	; 37
    3118:	2e 5f       	subi	r18, 0xFE	; 254
					M0.Speed = M0.Speed_past +_FILTER_CONST*(M0.Speed - M0.Speed_past);
                    M1.Speed_past = M1.Speed; M1.Speed = M1.Encoder*7.5; M1.Encoder = 0;
    311a:	3f 4f       	sbci	r19, 0xFF	; 255
    311c:	2d a3       	lds	r18, 0x5d
    311e:	3e a3       	lds	r19, 0x5e
    3120:	8f ea       	ldi	r24, 0xAF	; 175
    3122:	94 e2       	ldi	r25, 0x24	; 36
                    M1.Speed = M1.Speed_past +_FILTER_CONST*(M1.Speed - M1.Speed_past);
                    M2.Speed_past = M2.Speed; M2.Speed = M2.Encoder*7.5; M2.Encoder = 0;
    3124:	02 96       	adiw	r24, 0x02	; 2
    3126:	8f a3       	lds	r24, 0x5f
    3128:	98 a7       	lds	r25, 0x78
    312a:	16 96       	adiw	r26, 0x06	; 6
    312c:	a9 a7       	lds	r26, 0x79
    312e:	ba a7       	lds	r27, 0x7a
                    M2.Speed = M2.Speed_past +_FILTER_CONST*(M2.Speed - M2.Speed_past);
                    M3.Speed_past = M3.Speed; M3.Speed = M3.Encoder*7.5; M3.Encoder = 0;
    3130:	af e7       	ldi	r26, 0x7F	; 127
    3132:	b4 e2       	ldi	r27, 0x24	; 36
    3134:	12 96       	adiw	r26, 0x02	; 2
    3136:	ab a7       	lds	r26, 0x7b
    3138:	bc a7       	lds	r27, 0x7c
    

    int PID_Err=Setpoint-Feed_Back;

    
    int d=(PID_Err-(*PID_Err_past))*10 ;
    313a:	ed e0       	ldi	r30, 0x0D	; 13
    313c:	f5 e2       	ldi	r31, 0x25	; 37
    313e:	32 96       	adiw	r30, 0x02	; 2
    if(PID_U>127)
        PID_U=127;
    if( PID_U<-127)
        PID_U=-127;
    *PID_Err_past=PID_Err;
	*d_past=d;
    3140:	ed a7       	lds	r30, 0x7d
    3142:	fe a7       	lds	r31, 0x7e
    3144:	a8 95       	wdr
    3146:	80 91 a2 21 	lds	r24, 0x21A2
    314a:	88 23       	and	r24, r24
    314c:	11 f4       	brne	.+4      	; 0x3152 <main+0x20c>
    314e:	0c 94 fb 27 	jmp	0x4ff6	; 0x4ff6 <__stack+0xff7>
    3152:	ab e7       	ldi	r26, 0x7B	; 123
    ///////////////////////////////////////////////////////////////////////////////////////////////END   NRF Initialize

    // Insert application code here, after the board has been initialized.
    while(1)
    {
        asm("wdr");
    3154:	b4 e2       	ldi	r27, 0x24	; 36
        if (ctrlflg)
    3156:	ad 90       	ld	r10, X+
    3158:	bc 90       	ld	r11, X
    315a:	a0 92 7d 24 	sts	0x247D, r10
    315e:	b0 92 7e 24 	sts	0x247E, r11
        {
                    M0.Speed_past = M0.Speed; M0.Speed = M0.Encoder*7.5; M0.Encoder = 0;
    3162:	ed 8d       	ldd	r30, Y+29	; 0x1d
    3164:	fe 8d       	ldd	r31, Y+30	; 0x1e
    3166:	60 81       	ld	r22, Z
    3168:	71 81       	ldd	r23, Z+1	; 0x01
    316a:	88 27       	eor	r24, r24
    316c:	77 fd       	sbrc	r23, 7
    316e:	80 95       	com	r24
    3170:	98 2f       	mov	r25, r24
    3172:	0e 94 d7 04 	call	0x9ae	; 0x9ae <__floatsisf>
    3176:	20 e0       	ldi	r18, 0x00	; 0
    3178:	30 e0       	ldi	r19, 0x00	; 0
    317a:	40 ef       	ldi	r20, 0xF0	; 240
    317c:	50 e4       	ldi	r21, 0x40	; 64
    317e:	0e 94 d5 02 	call	0x5aa	; 0x5aa <__mulsf3>
    3182:	0e 94 46 05 	call	0xa8c	; 0xa8c <__fixsfsi>
    3186:	8b 01       	movw	r16, r22
    3188:	ad 8d       	ldd	r26, Y+29	; 0x1d
    318a:	be 8d       	ldd	r27, Y+30	; 0x1e
    318c:	1d 92       	st	X+, r1
    318e:	1c 92       	st	X, r1
    3190:	b5 01       	movw	r22, r10
    3192:	88 27       	eor	r24, r24
    3194:	77 fd       	sbrc	r23, 7
    3196:	80 95       	com	r24
    3198:	98 2f       	mov	r25, r24
    319a:	0e 94 d7 04 	call	0x9ae	; 0x9ae <__floatsisf>
    319e:	6b 01       	movw	r12, r22
					M0.Speed = M0.Speed_past +_FILTER_CONST*(M0.Speed - M0.Speed_past);
    31a0:	7c 01       	movw	r14, r24
    31a2:	b8 01       	movw	r22, r16
    31a4:	6a 19       	sub	r22, r10
    31a6:	7b 09       	sbc	r23, r11
    31a8:	88 27       	eor	r24, r24
    31aa:	77 fd       	sbrc	r23, 7
    31ac:	80 95       	com	r24
    31ae:	98 2f       	mov	r25, r24
    31b0:	0e 94 d7 04 	call	0x9ae	; 0x9ae <__floatsisf>
    31b4:	2e ea       	ldi	r18, 0xAE	; 174
    31b6:	37 e4       	ldi	r19, 0x47	; 71
    31b8:	41 ee       	ldi	r20, 0xE1	; 225
    31ba:	5d e3       	ldi	r21, 0x3D	; 61
    31bc:	0e 94 d5 02 	call	0x5aa	; 0x5aa <__mulsf3>
    31c0:	9b 01       	movw	r18, r22
    31c2:	ac 01       	movw	r20, r24
    31c4:	c7 01       	movw	r24, r14
    31c6:	b6 01       	movw	r22, r12
    31c8:	0e 94 71 02 	call	0x4e2	; 0x4e2 <__addsf3>
    31cc:	0e 94 46 05 	call	0xa8c	; 0xa8c <__fixsfsi>
    31d0:	dc 01       	movw	r26, r24
    31d2:	cb 01       	movw	r24, r22
    31d4:	4c 01       	movw	r8, r24
    31d6:	eb e7       	ldi	r30, 0x7B	; 123
    31d8:	f4 e2       	ldi	r31, 0x24	; 36
    31da:	80 83       	st	Z, r24
    31dc:	91 83       	std	Z+1, r25	; 0x01
    31de:	a9 e0       	ldi	r26, 0x09	; 9
    31e0:	b5 e2       	ldi	r27, 0x25	; 37
    31e2:	0d 91       	ld	r16, X+
    31e4:	1c 91       	ld	r17, X
    31e6:	11 97       	sbiw	r26, 0x01	; 1
    31e8:	eb a1       	lds	r30, 0x4b
    31ea:	fc a1       	lds	r31, 0x4c
    31ec:	00 83       	st	Z, r16
                    M1.Speed_past = M1.Speed; M1.Speed = M1.Encoder*7.5; M1.Encoder = 0;
    31ee:	11 83       	std	Z+1, r17	; 0x01
    31f0:	7e 91       	ld	r23, -X
    31f2:	6e 91       	ld	r22, -X
    31f4:	6d 01       	movw	r12, r26
    31f6:	88 27       	eor	r24, r24
    31f8:	77 fd       	sbrc	r23, 7
    31fa:	80 95       	com	r24
    31fc:	98 2f       	mov	r25, r24
    31fe:	0e 94 d7 04 	call	0x9ae	; 0x9ae <__floatsisf>
    3202:	20 e0       	ldi	r18, 0x00	; 0
    3204:	30 e0       	ldi	r19, 0x00	; 0
    3206:	40 ef       	ldi	r20, 0xF0	; 240
    3208:	50 e4       	ldi	r21, 0x40	; 64
    320a:	0e 94 d5 02 	call	0x5aa	; 0x5aa <__mulsf3>
    320e:	0e 94 46 05 	call	0xa8c	; 0xa8c <__fixsfsi>
    3212:	5b 01       	movw	r10, r22
    3214:	f6 01       	movw	r30, r12
    3216:	10 82       	st	Z, r1
    3218:	11 82       	std	Z+1, r1	; 0x01
    321a:	b8 01       	movw	r22, r16
    321c:	88 27       	eor	r24, r24
    321e:	77 fd       	sbrc	r23, 7
    3220:	80 95       	com	r24
    3222:	98 2f       	mov	r25, r24
    3224:	0e 94 d7 04 	call	0x9ae	; 0x9ae <__floatsisf>
    3228:	6b 01       	movw	r12, r22
                    M1.Speed = M1.Speed_past +_FILTER_CONST*(M1.Speed - M1.Speed_past);
    322a:	7c 01       	movw	r14, r24
    322c:	b5 01       	movw	r22, r10
    322e:	60 1b       	sub	r22, r16
    3230:	71 0b       	sbc	r23, r17
    3232:	88 27       	eor	r24, r24
    3234:	77 fd       	sbrc	r23, 7
    3236:	80 95       	com	r24
    3238:	98 2f       	mov	r25, r24
    323a:	0e 94 d7 04 	call	0x9ae	; 0x9ae <__floatsisf>
    323e:	2e ea       	ldi	r18, 0xAE	; 174
    3240:	37 e4       	ldi	r19, 0x47	; 71
    3242:	41 ee       	ldi	r20, 0xE1	; 225
    3244:	5d e3       	ldi	r21, 0x3D	; 61
    3246:	0e 94 d5 02 	call	0x5aa	; 0x5aa <__mulsf3>
    324a:	9b 01       	movw	r18, r22
    324c:	ac 01       	movw	r20, r24
    324e:	c7 01       	movw	r24, r14
    3250:	b6 01       	movw	r22, r12
    3252:	0e 94 71 02 	call	0x4e2	; 0x4e2 <__addsf3>
    3256:	0e 94 46 05 	call	0xa8c	; 0xa8c <__fixsfsi>
    325a:	dc 01       	movw	r26, r24
    325c:	cb 01       	movw	r24, r22
    325e:	2c 01       	movw	r4, r24
    3260:	e9 e0       	ldi	r30, 0x09	; 9
    3262:	f5 e2       	ldi	r31, 0x25	; 37
    3264:	80 83       	st	Z, r24
    3266:	91 83       	std	Z+1, r25	; 0x01
    3268:	af e1       	ldi	r26, 0x1F	; 31
    326a:	b5 e2       	ldi	r27, 0x25	; 37
    326c:	0d 91       	ld	r16, X+
    326e:	1c 91       	ld	r17, X
    3270:	11 97       	sbiw	r26, 0x01	; 1
    3272:	ed a1       	lds	r30, 0x4d
    3274:	fe a1       	lds	r31, 0x4e
    3276:	00 83       	st	Z, r16
                    M2.Speed_past = M2.Speed; M2.Speed = M2.Encoder*7.5; M2.Encoder = 0;
    3278:	11 83       	std	Z+1, r17	; 0x01
    327a:	7e 91       	ld	r23, -X
    327c:	6e 91       	ld	r22, -X
    327e:	6d 01       	movw	r12, r26
    3280:	88 27       	eor	r24, r24
    3282:	77 fd       	sbrc	r23, 7
    3284:	80 95       	com	r24
    3286:	98 2f       	mov	r25, r24
    3288:	0e 94 d7 04 	call	0x9ae	; 0x9ae <__floatsisf>
    328c:	20 e0       	ldi	r18, 0x00	; 0
    328e:	30 e0       	ldi	r19, 0x00	; 0
    3290:	40 ef       	ldi	r20, 0xF0	; 240
    3292:	50 e4       	ldi	r21, 0x40	; 64
    3294:	0e 94 d5 02 	call	0x5aa	; 0x5aa <__mulsf3>
    3298:	0e 94 46 05 	call	0xa8c	; 0xa8c <__fixsfsi>
    329c:	5b 01       	movw	r10, r22
    329e:	f6 01       	movw	r30, r12
    32a0:	10 82       	st	Z, r1
    32a2:	11 82       	std	Z+1, r1	; 0x01
    32a4:	b8 01       	movw	r22, r16
    32a6:	88 27       	eor	r24, r24
    32a8:	77 fd       	sbrc	r23, 7
    32aa:	80 95       	com	r24
    32ac:	98 2f       	mov	r25, r24
    32ae:	0e 94 d7 04 	call	0x9ae	; 0x9ae <__floatsisf>
    32b2:	6b 01       	movw	r12, r22
                    M2.Speed = M2.Speed_past +_FILTER_CONST*(M2.Speed - M2.Speed_past);
    32b4:	7c 01       	movw	r14, r24
    32b6:	b5 01       	movw	r22, r10
    32b8:	60 1b       	sub	r22, r16
    32ba:	71 0b       	sbc	r23, r17
    32bc:	88 27       	eor	r24, r24
    32be:	77 fd       	sbrc	r23, 7
    32c0:	80 95       	com	r24
    32c2:	98 2f       	mov	r25, r24
    32c4:	0e 94 d7 04 	call	0x9ae	; 0x9ae <__floatsisf>
    32c8:	2e ea       	ldi	r18, 0xAE	; 174
    32ca:	37 e4       	ldi	r19, 0x47	; 71
    32cc:	41 ee       	ldi	r20, 0xE1	; 225
    32ce:	5d e3       	ldi	r21, 0x3D	; 61
    32d0:	0e 94 d5 02 	call	0x5aa	; 0x5aa <__mulsf3>
    32d4:	9b 01       	movw	r18, r22
    32d6:	ac 01       	movw	r20, r24
    32d8:	c7 01       	movw	r24, r14
    32da:	b6 01       	movw	r22, r12
    32dc:	0e 94 71 02 	call	0x4e2	; 0x4e2 <__addsf3>
    32e0:	0e 94 46 05 	call	0xa8c	; 0xa8c <__fixsfsi>
    32e4:	dc 01       	movw	r26, r24
    32e6:	cb 01       	movw	r24, r22
    32e8:	8f 8f       	std	Y+31, r24	; 0x1f
    32ea:	98 a3       	lds	r25, 0x58
    32ec:	ef e1       	ldi	r30, 0x1F	; 31
    32ee:	f5 e2       	ldi	r31, 0x25	; 37
    32f0:	80 83       	st	Z, r24
    32f2:	91 83       	std	Z+1, r25	; 0x01
    32f4:	af ea       	ldi	r26, 0xAF	; 175
    32f6:	b4 e2       	ldi	r27, 0x24	; 36
    32f8:	0d 91       	ld	r16, X+
    32fa:	1c 91       	ld	r17, X
    32fc:	11 97       	sbiw	r26, 0x01	; 1
    32fe:	ef a1       	lds	r30, 0x4f
    3300:	f8 a5       	lds	r31, 0x68
    3302:	00 83       	st	Z, r16
                    M3.Speed_past = M3.Speed; M3.Speed = M3.Encoder*7.5; M3.Encoder = 0;
    3304:	11 83       	std	Z+1, r17	; 0x01
    3306:	7e 91       	ld	r23, -X
    3308:	6e 91       	ld	r22, -X
    330a:	6d 01       	movw	r12, r26
    330c:	88 27       	eor	r24, r24
    330e:	77 fd       	sbrc	r23, 7
    3310:	80 95       	com	r24
    3312:	98 2f       	mov	r25, r24
    3314:	0e 94 d7 04 	call	0x9ae	; 0x9ae <__floatsisf>
    3318:	20 e0       	ldi	r18, 0x00	; 0
    331a:	30 e0       	ldi	r19, 0x00	; 0
    331c:	40 ef       	ldi	r20, 0xF0	; 240
    331e:	50 e4       	ldi	r21, 0x40	; 64
    3320:	0e 94 d5 02 	call	0x5aa	; 0x5aa <__mulsf3>
    3324:	0e 94 46 05 	call	0xa8c	; 0xa8c <__fixsfsi>
    3328:	5b 01       	movw	r10, r22
    332a:	f6 01       	movw	r30, r12
    332c:	10 82       	st	Z, r1
    332e:	11 82       	std	Z+1, r1	; 0x01
    3330:	b8 01       	movw	r22, r16
    3332:	88 27       	eor	r24, r24
    3334:	77 fd       	sbrc	r23, 7
    3336:	80 95       	com	r24
    3338:	98 2f       	mov	r25, r24
    333a:	0e 94 d7 04 	call	0x9ae	; 0x9ae <__floatsisf>
    333e:	6b 01       	movw	r12, r22
                    M3.Speed = M3.Speed_past +_FILTER_CONST*(M3.Speed - M3.Speed_past);
    3340:	7c 01       	movw	r14, r24
    3342:	b5 01       	movw	r22, r10
    3344:	60 1b       	sub	r22, r16
    3346:	71 0b       	sbc	r23, r17
    3348:	88 27       	eor	r24, r24
    334a:	77 fd       	sbrc	r23, 7
    334c:	80 95       	com	r24
    334e:	98 2f       	mov	r25, r24
    3350:	0e 94 d7 04 	call	0x9ae	; 0x9ae <__floatsisf>
    3354:	2e ea       	ldi	r18, 0xAE	; 174
    3356:	37 e4       	ldi	r19, 0x47	; 71
    3358:	41 ee       	ldi	r20, 0xE1	; 225
    335a:	5d e3       	ldi	r21, 0x3D	; 61
    335c:	0e 94 d5 02 	call	0x5aa	; 0x5aa <__mulsf3>
    3360:	9b 01       	movw	r18, r22
    3362:	ac 01       	movw	r20, r24
    3364:	c7 01       	movw	r24, r14
    3366:	b6 01       	movw	r22, r12
    3368:	0e 94 71 02 	call	0x4e2	; 0x4e2 <__addsf3>
    336c:	0e 94 46 05 	call	0xa8c	; 0xa8c <__fixsfsi>
    3370:	dc 01       	movw	r26, r24
    3372:	cb 01       	movw	r24, r22
    3374:	89 a3       	lds	r24, 0x59
    3376:	9a a3       	lds	r25, 0x5a
    3378:	ef ea       	ldi	r30, 0xAF	; 175
    337a:	f4 e2       	ldi	r31, 0x24	; 36
    337c:	80 83       	st	Z, r24
    337e:	91 83       	std	Z+1, r25	; 0x01
    3380:	0f 2e       	mov	r0, r31
    3382:	f8 e0       	ldi	r31, 0x08	; 8
    3384:	cf 2e       	mov	r12, r31
    3386:	f6 e0       	ldi	r31, 0x06	; 6
    3388:	df 2e       	mov	r13, r31
    338a:	f0 2d       	mov	r31, r0
    338c:	d6 01       	movw	r26, r12
    338e:	3c 91       	ld	r19, X
            kp = (float)Robot_D[RobotID].P/100.0;
    3390:	8c 91       	ld	r24, X
    3392:	2c 91       	ld	r18, X
    3394:	6c 91       	ld	r22, X
    3396:	90 e0       	ldi	r25, 0x00	; 0
    3398:	80 71       	andi	r24, 0x10	; 16
    339a:	90 70       	andi	r25, 0x00	; 0
    339c:	95 95       	asr	r25
    339e:	87 95       	ror	r24
    33a0:	95 95       	asr	r25
    33a2:	87 95       	ror	r24
    33a4:	95 95       	asr	r25
    33a6:	87 95       	ror	r24
    33a8:	95 95       	asr	r25
    33aa:	87 95       	ror	r24
    33ac:	ac 01       	movw	r20, r24
    33ae:	44 0f       	add	r20, r20
    33b0:	55 1f       	adc	r21, r21
    33b2:	82 2f       	mov	r24, r18
    33b4:	88 1f       	adc	r24, r24
    33b6:	88 27       	eor	r24, r24
    33b8:	88 1f       	adc	r24, r24
    33ba:	90 e0       	ldi	r25, 0x00	; 0
    33bc:	88 0f       	add	r24, r24
    33be:	99 1f       	adc	r25, r25
    33c0:	88 0f       	add	r24, r24
    33c2:	99 1f       	adc	r25, r25
    33c4:	48 2b       	or	r20, r24
    33c6:	59 2b       	or	r21, r25
    33c8:	83 2f       	mov	r24, r19
    33ca:	90 e0       	ldi	r25, 0x00	; 0
    33cc:	80 74       	andi	r24, 0x40	; 64
    33ce:	90 70       	andi	r25, 0x00	; 0
    33d0:	08 2e       	mov	r0, r24
    33d2:	89 2f       	mov	r24, r25
    33d4:	00 0c       	add	r0, r0
    33d6:	88 1f       	adc	r24, r24
    33d8:	99 0b       	sbc	r25, r25
    33da:	00 0c       	add	r0, r0
    33dc:	88 1f       	adc	r24, r24
    33de:	99 1f       	adc	r25, r25
    33e0:	48 2b       	or	r20, r24
    33e2:	59 2b       	or	r21, r25
    33e4:	86 2f       	mov	r24, r22
    33e6:	90 e0       	ldi	r25, 0x00	; 0
    33e8:	80 72       	andi	r24, 0x20	; 32
    33ea:	90 70       	andi	r25, 0x00	; 0
    33ec:	95 95       	asr	r25
    33ee:	87 95       	ror	r24
    33f0:	95 95       	asr	r25
    33f2:	87 95       	ror	r24
    33f4:	95 95       	asr	r25
    33f6:	87 95       	ror	r24
    33f8:	95 95       	asr	r25
    33fa:	87 95       	ror	r24
    33fc:	95 95       	asr	r25
    33fe:	87 95       	ror	r24
    3400:	88 0f       	add	r24, r24
    3402:	99 1f       	adc	r25, r25
    3404:	88 0f       	add	r24, r24
    3406:	99 1f       	adc	r25, r25
    3408:	88 0f       	add	r24, r24
    340a:	99 1f       	adc	r25, r25
    340c:	9a 01       	movw	r18, r20
    340e:	28 2b       	or	r18, r24
    3410:	39 2b       	or	r19, r25
    3412:	06 eb       	ldi	r16, 0xB6	; 182
    3414:	11 e2       	ldi	r17, 0x21	; 33
    3416:	c9 01       	movw	r24, r18
    3418:	88 0f       	add	r24, r24
    341a:	99 1f       	adc	r25, r25
    341c:	82 0f       	add	r24, r18
    341e:	93 1f       	adc	r25, r19
    3420:	88 0f       	add	r24, r24
    3422:	99 1f       	adc	r25, r25
    3424:	88 0f       	add	r24, r24
    3426:	99 1f       	adc	r25, r25
    3428:	88 0f       	add	r24, r24
    342a:	99 1f       	adc	r25, r25
    342c:	82 1b       	sub	r24, r18
    342e:	93 0b       	sbc	r25, r19
    3430:	80 0f       	add	r24, r16
    3432:	91 1f       	adc	r25, r17
    3434:	fc 01       	movw	r30, r24
    3436:	64 89       	ldd	r22, Z+20	; 0x14
    3438:	70 e0       	ldi	r23, 0x00	; 0
    343a:	80 e0       	ldi	r24, 0x00	; 0
    343c:	90 e0       	ldi	r25, 0x00	; 0
    343e:	0e 94 96 05 	call	0xb2c	; 0xb2c <__floatunsisf>
    3442:	20 e0       	ldi	r18, 0x00	; 0
    3444:	30 e0       	ldi	r19, 0x00	; 0
    3446:	48 ec       	ldi	r20, 0xC8	; 200
    3448:	52 e4       	ldi	r21, 0x42	; 66
    344a:	0e 94 d3 03 	call	0x7a6	; 0x7a6 <__divsf3>
    344e:	69 83       	std	Y+1, r22	; 0x01
    3450:	7a 83       	std	Y+2, r23	; 0x02
    3452:	8b 83       	std	Y+3, r24	; 0x03
    3454:	9c 83       	std	Y+4, r25	; 0x04
    3456:	37 2f       	mov	r19, r23
    3458:	48 2f       	mov	r20, r24
    345a:	59 2f       	mov	r21, r25
    345c:	86 2f       	mov	r24, r22
    345e:	93 2f       	mov	r25, r19
    3460:	a4 2f       	mov	r26, r20
    3462:	b5 2f       	mov	r27, r21
    3464:	80 93 31 25 	sts	0x2531, r24
    3468:	90 93 32 25 	sts	0x2532, r25
    346c:	a0 93 33 25 	sts	0x2533, r26
    3470:	b0 93 34 25 	sts	0x2534, r27
    3474:	d6 01       	movw	r26, r12
    3476:	3c 91       	ld	r19, X
    3478:	8c 91       	ld	r24, X
    347a:	2c 91       	ld	r18, X
    347c:	6c 91       	ld	r22, X
    347e:	90 e0       	ldi	r25, 0x00	; 0
    3480:	80 71       	andi	r24, 0x10	; 16
    3482:	90 70       	andi	r25, 0x00	; 0
            ki = (float)Robot_D[RobotID].I/100.0;
    3484:	95 95       	asr	r25
    3486:	87 95       	ror	r24
    3488:	95 95       	asr	r25
    348a:	87 95       	ror	r24
    348c:	95 95       	asr	r25
    348e:	87 95       	ror	r24
    3490:	95 95       	asr	r25
    3492:	87 95       	ror	r24
    3494:	ac 01       	movw	r20, r24
    3496:	44 0f       	add	r20, r20
    3498:	55 1f       	adc	r21, r21
    349a:	82 2f       	mov	r24, r18
    349c:	88 1f       	adc	r24, r24
    349e:	88 27       	eor	r24, r24
    34a0:	88 1f       	adc	r24, r24
    34a2:	90 e0       	ldi	r25, 0x00	; 0
    34a4:	88 0f       	add	r24, r24
    34a6:	99 1f       	adc	r25, r25
    34a8:	88 0f       	add	r24, r24
    34aa:	99 1f       	adc	r25, r25
    34ac:	48 2b       	or	r20, r24
    34ae:	59 2b       	or	r21, r25
    34b0:	83 2f       	mov	r24, r19
    34b2:	90 e0       	ldi	r25, 0x00	; 0
    34b4:	80 74       	andi	r24, 0x40	; 64
    34b6:	90 70       	andi	r25, 0x00	; 0
    34b8:	08 2e       	mov	r0, r24
    34ba:	89 2f       	mov	r24, r25
    34bc:	00 0c       	add	r0, r0
    34be:	88 1f       	adc	r24, r24
    34c0:	99 0b       	sbc	r25, r25
    34c2:	00 0c       	add	r0, r0
    34c4:	88 1f       	adc	r24, r24
    34c6:	99 1f       	adc	r25, r25
    34c8:	48 2b       	or	r20, r24
    34ca:	59 2b       	or	r21, r25
    34cc:	86 2f       	mov	r24, r22
    34ce:	90 e0       	ldi	r25, 0x00	; 0
    34d0:	80 72       	andi	r24, 0x20	; 32
    34d2:	90 70       	andi	r25, 0x00	; 0
    34d4:	95 95       	asr	r25
    34d6:	87 95       	ror	r24
    34d8:	95 95       	asr	r25
    34da:	87 95       	ror	r24
    34dc:	95 95       	asr	r25
    34de:	87 95       	ror	r24
    34e0:	95 95       	asr	r25
    34e2:	87 95       	ror	r24
    34e4:	95 95       	asr	r25
    34e6:	87 95       	ror	r24
    34e8:	88 0f       	add	r24, r24
    34ea:	99 1f       	adc	r25, r25
    34ec:	88 0f       	add	r24, r24
    34ee:	99 1f       	adc	r25, r25
    34f0:	88 0f       	add	r24, r24
    34f2:	99 1f       	adc	r25, r25
    34f4:	9a 01       	movw	r18, r20
    34f6:	28 2b       	or	r18, r24
    34f8:	39 2b       	or	r19, r25
    34fa:	c9 01       	movw	r24, r18
    34fc:	88 0f       	add	r24, r24
    34fe:	99 1f       	adc	r25, r25
    3500:	82 0f       	add	r24, r18
    3502:	93 1f       	adc	r25, r19
    3504:	88 0f       	add	r24, r24
    3506:	99 1f       	adc	r25, r25
    3508:	88 0f       	add	r24, r24
    350a:	99 1f       	adc	r25, r25
    350c:	88 0f       	add	r24, r24
    350e:	99 1f       	adc	r25, r25
    3510:	82 1b       	sub	r24, r18
    3512:	93 0b       	sbc	r25, r19
    3514:	80 0f       	add	r24, r16
    3516:	91 1f       	adc	r25, r17
    3518:	fc 01       	movw	r30, r24
    351a:	65 89       	ldd	r22, Z+21	; 0x15
    351c:	70 e0       	ldi	r23, 0x00	; 0
    351e:	80 e0       	ldi	r24, 0x00	; 0
    3520:	90 e0       	ldi	r25, 0x00	; 0
    3522:	0e 94 96 05 	call	0xb2c	; 0xb2c <__floatunsisf>
    3526:	20 e0       	ldi	r18, 0x00	; 0
    3528:	30 e0       	ldi	r19, 0x00	; 0
    352a:	48 ec       	ldi	r20, 0xC8	; 200
    352c:	52 e4       	ldi	r21, 0x42	; 66
    352e:	0e 94 d3 03 	call	0x7a6	; 0x7a6 <__divsf3>
    3532:	36 2e       	mov	r3, r22
    3534:	27 2e       	mov	r2, r23
    3536:	8d 83       	std	Y+5, r24	; 0x05
    3538:	9e 83       	std	Y+6, r25	; 0x06
    353a:	48 2f       	mov	r20, r24
    353c:	59 2f       	mov	r21, r25
    353e:	86 2f       	mov	r24, r22
    3540:	92 2d       	mov	r25, r2
    3542:	a4 2f       	mov	r26, r20
    3544:	b5 2f       	mov	r27, r21
    3546:	80 93 c5 24 	sts	0x24C5, r24
    354a:	90 93 c6 24 	sts	0x24C6, r25
    354e:	a0 93 c7 24 	sts	0x24C7, r26
    3552:	b0 93 c8 24 	sts	0x24C8, r27
    3556:	d6 01       	movw	r26, r12
    3558:	3c 91       	ld	r19, X
    355a:	8c 91       	ld	r24, X
    355c:	2c 91       	ld	r18, X
    355e:	6c 91       	ld	r22, X
    3560:	90 e0       	ldi	r25, 0x00	; 0
    3562:	80 71       	andi	r24, 0x10	; 16
    3564:	90 70       	andi	r25, 0x00	; 0
            kd = (float)Robot_D[RobotID].D/100.0;
    3566:	95 95       	asr	r25
    3568:	87 95       	ror	r24
    356a:	95 95       	asr	r25
    356c:	87 95       	ror	r24
    356e:	95 95       	asr	r25
    3570:	87 95       	ror	r24
    3572:	95 95       	asr	r25
    3574:	87 95       	ror	r24
    3576:	ac 01       	movw	r20, r24
    3578:	44 0f       	add	r20, r20
    357a:	55 1f       	adc	r21, r21
    357c:	82 2f       	mov	r24, r18
    357e:	88 1f       	adc	r24, r24
    3580:	88 27       	eor	r24, r24
    3582:	88 1f       	adc	r24, r24
    3584:	90 e0       	ldi	r25, 0x00	; 0
    3586:	88 0f       	add	r24, r24
    3588:	99 1f       	adc	r25, r25
    358a:	88 0f       	add	r24, r24
    358c:	99 1f       	adc	r25, r25
    358e:	48 2b       	or	r20, r24
    3590:	59 2b       	or	r21, r25
    3592:	83 2f       	mov	r24, r19
    3594:	90 e0       	ldi	r25, 0x00	; 0
    3596:	80 74       	andi	r24, 0x40	; 64
    3598:	90 70       	andi	r25, 0x00	; 0
    359a:	08 2e       	mov	r0, r24
    359c:	89 2f       	mov	r24, r25
    359e:	00 0c       	add	r0, r0
    35a0:	88 1f       	adc	r24, r24
    35a2:	99 0b       	sbc	r25, r25
    35a4:	00 0c       	add	r0, r0
    35a6:	88 1f       	adc	r24, r24
    35a8:	99 1f       	adc	r25, r25
    35aa:	48 2b       	or	r20, r24
    35ac:	59 2b       	or	r21, r25
    35ae:	86 2f       	mov	r24, r22
    35b0:	90 e0       	ldi	r25, 0x00	; 0
    35b2:	80 72       	andi	r24, 0x20	; 32
    35b4:	90 70       	andi	r25, 0x00	; 0
    35b6:	95 95       	asr	r25
    35b8:	87 95       	ror	r24
    35ba:	95 95       	asr	r25
    35bc:	87 95       	ror	r24
    35be:	95 95       	asr	r25
    35c0:	87 95       	ror	r24
    35c2:	95 95       	asr	r25
    35c4:	87 95       	ror	r24
    35c6:	95 95       	asr	r25
    35c8:	87 95       	ror	r24
    35ca:	88 0f       	add	r24, r24
    35cc:	99 1f       	adc	r25, r25
    35ce:	88 0f       	add	r24, r24
    35d0:	99 1f       	adc	r25, r25
    35d2:	88 0f       	add	r24, r24
    35d4:	99 1f       	adc	r25, r25
    35d6:	9a 01       	movw	r18, r20
    35d8:	28 2b       	or	r18, r24
    35da:	39 2b       	or	r19, r25
    35dc:	c9 01       	movw	r24, r18
    35de:	88 0f       	add	r24, r24
    35e0:	99 1f       	adc	r25, r25
    35e2:	82 0f       	add	r24, r18
    35e4:	93 1f       	adc	r25, r19
    35e6:	88 0f       	add	r24, r24
    35e8:	99 1f       	adc	r25, r25
    35ea:	88 0f       	add	r24, r24
    35ec:	99 1f       	adc	r25, r25
    35ee:	88 0f       	add	r24, r24
    35f0:	99 1f       	adc	r25, r25
    35f2:	82 1b       	sub	r24, r18
    35f4:	93 0b       	sbc	r25, r19
    35f6:	80 0f       	add	r24, r16
    35f8:	91 1f       	adc	r25, r17
    35fa:	fc 01       	movw	r30, r24
    35fc:	66 89       	ldd	r22, Z+22	; 0x16
    35fe:	70 e0       	ldi	r23, 0x00	; 0
    3600:	80 e0       	ldi	r24, 0x00	; 0
    3602:	90 e0       	ldi	r25, 0x00	; 0
    3604:	0e 94 96 05 	call	0xb2c	; 0xb2c <__floatunsisf>
    3608:	20 e0       	ldi	r18, 0x00	; 0
    360a:	30 e0       	ldi	r19, 0x00	; 0
    360c:	48 ec       	ldi	r20, 0xC8	; 200
    360e:	52 e4       	ldi	r21, 0x42	; 66
    3610:	0e 94 d3 03 	call	0x7a6	; 0x7a6 <__divsf3>
    3614:	6f 83       	std	Y+7, r22	; 0x07
    3616:	78 87       	std	Y+8, r23	; 0x08
    3618:	89 87       	std	Y+9, r24	; 0x09
    361a:	9a 87       	std	Y+10, r25	; 0x0a
    361c:	37 2f       	mov	r19, r23
    361e:	48 2f       	mov	r20, r24
    3620:	59 2f       	mov	r21, r25
    3622:	86 2f       	mov	r24, r22
    3624:	93 2f       	mov	r25, r19
    3626:	a4 2f       	mov	r26, r20
    3628:	b5 2f       	mov	r27, r21
    362a:	80 93 cc 22 	sts	0x22CC, r24
    362e:	90 93 cd 22 	sts	0x22CD, r25
    3632:	a0 93 ce 22 	sts	0x22CE, r26
    3636:	b0 93 cf 22 	sts	0x22CF, r27
    363a:	10 92 a2 21 	sts	0x21A2, r1
    363e:	d6 01       	movw	r26, r12
    3640:	fc 91       	ld	r31, X
    3642:	7c 91       	ld	r23, X
    3644:	ec 91       	ld	r30, X
    3646:	fc 90       	ld	r15, X
    3648:	3c 91       	ld	r19, X
            ctrlflg = 0;
    364a:	8c 91       	ld	r24, X
    364c:	2c 91       	ld	r18, X
            M0.PWM=PD_CTRL(Robot_D[RobotID].M0b|(Robot_D[RobotID].M0a<<8),M0.Speed,&M0.Err,&M0.d,&M0.i);
    364e:	6c 91       	ld	r22, X
    3650:	90 e0       	ldi	r25, 0x00	; 0
    3652:	80 71       	andi	r24, 0x10	; 16
    3654:	90 70       	andi	r25, 0x00	; 0
    3656:	95 95       	asr	r25
    3658:	87 95       	ror	r24
    365a:	95 95       	asr	r25
    365c:	87 95       	ror	r24
    365e:	95 95       	asr	r25
    3660:	87 95       	ror	r24
    3662:	95 95       	asr	r25
    3664:	87 95       	ror	r24
    3666:	ac 01       	movw	r20, r24
    3668:	44 0f       	add	r20, r20
    366a:	55 1f       	adc	r21, r21
    366c:	82 2f       	mov	r24, r18
    366e:	88 1f       	adc	r24, r24
    3670:	88 27       	eor	r24, r24
    3672:	88 1f       	adc	r24, r24
    3674:	90 e0       	ldi	r25, 0x00	; 0
    3676:	88 0f       	add	r24, r24
    3678:	99 1f       	adc	r25, r25
    367a:	88 0f       	add	r24, r24
    367c:	99 1f       	adc	r25, r25
    367e:	48 2b       	or	r20, r24
    3680:	59 2b       	or	r21, r25
    3682:	83 2f       	mov	r24, r19
    3684:	90 e0       	ldi	r25, 0x00	; 0
    3686:	80 74       	andi	r24, 0x40	; 64
    3688:	90 70       	andi	r25, 0x00	; 0
    368a:	08 2e       	mov	r0, r24
    368c:	89 2f       	mov	r24, r25
    368e:	00 0c       	add	r0, r0
    3690:	88 1f       	adc	r24, r24
    3692:	99 0b       	sbc	r25, r25
    3694:	00 0c       	add	r0, r0
    3696:	88 1f       	adc	r24, r24
    3698:	99 1f       	adc	r25, r25
    369a:	48 2b       	or	r20, r24
    369c:	59 2b       	or	r21, r25
    369e:	86 2f       	mov	r24, r22
    36a0:	90 e0       	ldi	r25, 0x00	; 0
    36a2:	80 72       	andi	r24, 0x20	; 32
    36a4:	90 70       	andi	r25, 0x00	; 0
    36a6:	95 95       	asr	r25
    36a8:	87 95       	ror	r24
    36aa:	95 95       	asr	r25
    36ac:	87 95       	ror	r24
    36ae:	95 95       	asr	r25
    36b0:	87 95       	ror	r24
    36b2:	95 95       	asr	r25
    36b4:	87 95       	ror	r24
    36b6:	95 95       	asr	r25
    36b8:	87 95       	ror	r24
    36ba:	88 0f       	add	r24, r24
    36bc:	99 1f       	adc	r25, r25
    36be:	88 0f       	add	r24, r24
    36c0:	99 1f       	adc	r25, r25
    36c2:	88 0f       	add	r24, r24
    36c4:	99 1f       	adc	r25, r25
    36c6:	9a 01       	movw	r18, r20
    36c8:	28 2b       	or	r18, r24
    36ca:	39 2b       	or	r19, r25
    36cc:	c9 01       	movw	r24, r18
    36ce:	88 0f       	add	r24, r24
    36d0:	99 1f       	adc	r25, r25
    36d2:	82 0f       	add	r24, r18
    36d4:	93 1f       	adc	r25, r19
    36d6:	88 0f       	add	r24, r24
    36d8:	99 1f       	adc	r25, r25
    36da:	88 0f       	add	r24, r24
    36dc:	99 1f       	adc	r25, r25
    36de:	88 0f       	add	r24, r24
    36e0:	99 1f       	adc	r25, r25
    36e2:	82 1b       	sub	r24, r18
    36e4:	93 0b       	sbc	r25, r19
    36e6:	80 0f       	add	r24, r16
    36e8:	91 1f       	adc	r25, r17
    36ea:	dc 01       	movw	r26, r24
    36ec:	11 96       	adiw	r26, 0x01	; 1
    36ee:	bc 91       	ld	r27, X
    36f0:	bc 87       	std	Y+12, r27	; 0x0c
    36f2:	1b 86       	std	Y+11, r1	; 0x0b
    36f4:	87 2f       	mov	r24, r23
    36f6:	90 e0       	ldi	r25, 0x00	; 0
    36f8:	80 71       	andi	r24, 0x10	; 16
    36fa:	90 70       	andi	r25, 0x00	; 0
    36fc:	95 95       	asr	r25
    36fe:	87 95       	ror	r24
    3700:	95 95       	asr	r25
    3702:	87 95       	ror	r24
    3704:	95 95       	asr	r25
    3706:	87 95       	ror	r24
    3708:	95 95       	asr	r25
    370a:	87 95       	ror	r24
    370c:	9c 01       	movw	r18, r24
    370e:	22 0f       	add	r18, r18
    3710:	33 1f       	adc	r19, r19
    3712:	8e 2f       	mov	r24, r30
    3714:	88 1f       	adc	r24, r24
    3716:	88 27       	eor	r24, r24
    3718:	88 1f       	adc	r24, r24
    371a:	90 e0       	ldi	r25, 0x00	; 0
    371c:	88 0f       	add	r24, r24
    371e:	99 1f       	adc	r25, r25
    3720:	88 0f       	add	r24, r24
    3722:	99 1f       	adc	r25, r25
    3724:	28 2b       	or	r18, r24
    3726:	39 2b       	or	r19, r25
    3728:	8f 2f       	mov	r24, r31
    372a:	90 e0       	ldi	r25, 0x00	; 0
    372c:	80 74       	andi	r24, 0x40	; 64
    372e:	90 70       	andi	r25, 0x00	; 0
    3730:	08 2e       	mov	r0, r24
    3732:	89 2f       	mov	r24, r25
    3734:	00 0c       	add	r0, r0
    3736:	88 1f       	adc	r24, r24
    3738:	99 0b       	sbc	r25, r25
    373a:	00 0c       	add	r0, r0
    373c:	88 1f       	adc	r24, r24
    373e:	99 1f       	adc	r25, r25
    3740:	28 2b       	or	r18, r24
    3742:	39 2b       	or	r19, r25
    3744:	8f 2d       	mov	r24, r15
    3746:	90 e0       	ldi	r25, 0x00	; 0
    3748:	80 72       	andi	r24, 0x20	; 32
    374a:	90 70       	andi	r25, 0x00	; 0
    374c:	95 95       	asr	r25
    374e:	87 95       	ror	r24
    3750:	95 95       	asr	r25
    3752:	87 95       	ror	r24
    3754:	95 95       	asr	r25
    3756:	87 95       	ror	r24
    3758:	95 95       	asr	r25
    375a:	87 95       	ror	r24
    375c:	95 95       	asr	r25
    375e:	87 95       	ror	r24
    3760:	88 0f       	add	r24, r24
    3762:	99 1f       	adc	r25, r25
    3764:	88 0f       	add	r24, r24
    3766:	99 1f       	adc	r25, r25
    3768:	88 0f       	add	r24, r24
    376a:	99 1f       	adc	r25, r25
    376c:	82 2b       	or	r24, r18
    376e:	93 2b       	or	r25, r19
    3770:	fc 01       	movw	r30, r24
    3772:	ee 0f       	add	r30, r30
    3774:	ff 1f       	adc	r31, r31
    3776:	e8 0f       	add	r30, r24
    3778:	f9 1f       	adc	r31, r25
    377a:	ee 0f       	add	r30, r30
    377c:	ff 1f       	adc	r31, r31
    377e:	ee 0f       	add	r30, r30
    3780:	ff 1f       	adc	r31, r31
    3782:	ee 0f       	add	r30, r30
    3784:	ff 1f       	adc	r31, r31
    3786:	e8 1b       	sub	r30, r24
    3788:	f9 0b       	sbc	r31, r25
    378a:	e0 0f       	add	r30, r16
    378c:	f1 1f       	adc	r31, r17
    378e:	83 81       	ldd	r24, Z+3	; 0x03
    3790:	94 81       	ldd	r25, Z+4	; 0x04
    3792:	eb 85       	ldd	r30, Y+11	; 0x0b
    3794:	fc 85       	ldd	r31, Y+12	; 0x0c
    3796:	8e 2b       	or	r24, r30
    3798:	9f 2b       	or	r25, r31
    379a:	3c 01       	movw	r6, r24
    379c:	68 18       	sub	r6, r8
    379e:	79 08       	sbc	r7, r9
    37a0:	a9 a5       	lds	r26, 0x69
    37a2:	ba a5       	lds	r27, 0x6a
    37a4:	8d 91       	ld	r24, X+
    37a6:	9c 91       	ld	r25, X
    37a8:	11 97       	sbiw	r26, 0x01	; 1
{

    //Setpoint=(40*Setpoint);
    

    int PID_Err=Setpoint-Feed_Back;
    37aa:	f3 01       	movw	r30, r6
    37ac:	e8 1b       	sub	r30, r24
    37ae:	f9 0b       	sbc	r31, r25

    
    int d=(PID_Err-(*PID_Err_past))*10 ;
    37b0:	cf 01       	movw	r24, r30
    37b2:	9f 01       	movw	r18, r30
    37b4:	22 0f       	add	r18, r18
    37b6:	33 1f       	adc	r19, r19
    37b8:	88 0f       	add	r24, r24
    37ba:	99 1f       	adc	r25, r25
    37bc:	88 0f       	add	r24, r24
    37be:	99 1f       	adc	r25, r25
    37c0:	88 0f       	add	r24, r24
    37c2:	99 1f       	adc	r25, r25
    37c4:	59 01       	movw	r10, r18
    37c6:	a8 0e       	add	r10, r24
    37c8:	b9 1e       	adc	r11, r25
    37ca:	c5 01       	movw	r24, r10
    37cc:	c1 96       	adiw	r24, 0x31	; 49
    37ce:	83 36       	cpi	r24, 0x63	; 99
    37d0:	91 05       	cpc	r25, r1
    37d2:	58 f0       	brcs	.+22     	; 0x37ea <main+0x8a4>
    37d4:	f1 e6       	ldi	r31, 0x61	; 97
    37d6:	af 16       	cp	r10, r31
    37d8:	f9 e0       	ldi	r31, 0x09	; 9
    // d= (*d_past) +0.05*(d-(*d_past));

    d=(abs(d)<50)?0:d;
    37da:	bf 06       	cpc	r11, r31
    37dc:	4c f4       	brge	.+18     	; 0x37f0 <main+0x8aa>
    37de:	20 ea       	ldi	r18, 0xA0	; 160
    37e0:	a2 16       	cp	r10, r18
    37e2:	26 ef       	ldi	r18, 0xF6	; 246

    d=(d>2400)?(0):d;
    37e4:	b2 06       	cpc	r11, r18
    37e6:	3c f0       	brlt	.+14     	; 0x37f6 <main+0x8b0>
    37e8:	08 c0       	rjmp	.+16     	; 0x37fa <main+0x8b4>
    37ea:	aa 24       	eor	r10, r10
    37ec:	bb 24       	eor	r11, r11
    d=(d<-2400)?(0):d;
    37ee:	05 c0       	rjmp	.+10     	; 0x37fa <main+0x8b4>
    37f0:	aa 24       	eor	r10, r10
    37f2:	bb 24       	eor	r11, r11
    37f4:	02 c0       	rjmp	.+4      	; 0x37fa <main+0x8b4>
    37f6:	aa 24       	eor	r10, r10
    37f8:	bb 24       	eor	r11, r11

    
    int d=(PID_Err-(*PID_Err_past))*10 ;
    // d= (*d_past) +0.05*(d-(*d_past));

    d=(abs(d)<50)?0:d;
    37fa:	b3 01       	movw	r22, r6
    37fc:	88 27       	eor	r24, r24
    37fe:	77 fd       	sbrc	r23, 7

    d=(d>2400)?(0):d;
    3800:	80 95       	com	r24
    3802:	98 2f       	mov	r25, r24
    3804:	0e 94 d7 04 	call	0x9ae	; 0x9ae <__floatsisf>
    d=(d<-2400)?(0):d;
    3808:	6b 01       	movw	r12, r22

    int p=PID_Err*kp;
    380a:	7c 01       	movw	r14, r24
    380c:	29 81       	ldd	r18, Y+1	; 0x01
    380e:	3a 81       	ldd	r19, Y+2	; 0x02
    3810:	4b 81       	ldd	r20, Y+3	; 0x03
    3812:	5c 81       	ldd	r21, Y+4	; 0x04
    3814:	82 2f       	mov	r24, r18
    3816:	93 2f       	mov	r25, r19
    3818:	a4 2f       	mov	r26, r20
    381a:	b5 2f       	mov	r27, r21
    381c:	bc 01       	movw	r22, r24
    381e:	cd 01       	movw	r24, r26
    3820:	a7 01       	movw	r20, r14
    3822:	96 01       	movw	r18, r12
    3824:	0e 94 d5 02 	call	0x5aa	; 0x5aa <__mulsf3>
    3828:	0e 94 46 05 	call	0xa8c	; 0xa8c <__fixsfsi>
    382c:	96 2e       	mov	r9, r22
    382e:	87 2e       	mov	r8, r23
    3830:	4d 81       	ldd	r20, Y+5	; 0x05
    3832:	5e 81       	ldd	r21, Y+6	; 0x06
    3834:	83 2d       	mov	r24, r3
    3836:	92 2d       	mov	r25, r2
    3838:	a4 2f       	mov	r26, r20
    383a:	b5 2f       	mov	r27, r21
    383c:	bc 01       	movw	r22, r24
    383e:	cd 01       	movw	r24, r26


    (*i)=(*i)+(ki*PID_Err)*.020;
    3840:	a7 01       	movw	r20, r14
    3842:	96 01       	movw	r18, r12
    3844:	0e 94 d5 02 	call	0x5aa	; 0x5aa <__mulsf3>
    3848:	2a e0       	ldi	r18, 0x0A	; 10
    384a:	37 ed       	ldi	r19, 0xD7	; 215
    384c:	43 ea       	ldi	r20, 0xA3	; 163
    384e:	5c e3       	ldi	r21, 0x3C	; 60
    3850:	0e 94 d5 02 	call	0x5aa	; 0x5aa <__mulsf3>
    3854:	20 91 83 24 	lds	r18, 0x2483
    3858:	30 91 84 24 	lds	r19, 0x2484
    385c:	40 91 85 24 	lds	r20, 0x2485
    3860:	50 91 86 24 	lds	r21, 0x2486
    3864:	0e 94 71 02 	call	0x4e2	; 0x4e2 <__addsf3>
    3868:	c6 2e       	mov	r12, r22
    386a:	f7 2e       	mov	r15, r23
    386c:	18 2f       	mov	r17, r24
    386e:	09 2f       	mov	r16, r25
    3870:	86 2f       	mov	r24, r22
    3872:	9f 2d       	mov	r25, r15
    3874:	a1 2f       	mov	r26, r17
    3876:	b0 2f       	mov	r27, r16
    3878:	80 93 83 24 	sts	0x2483, r24
    387c:	90 93 84 24 	sts	0x2484, r25
    3880:	a0 93 85 24 	sts	0x2485, r26
    3884:	b0 93 86 24 	sts	0x2486, r27
    3888:	bc 01       	movw	r22, r24
    388a:	cd 01       	movw	r24, r26
    388c:	20 e0       	ldi	r18, 0x00	; 0
    388e:	30 e0       	ldi	r19, 0x00	; 0
    3890:	40 ef       	ldi	r20, 0xF0	; 240
    3892:	52 e4       	ldi	r21, 0x42	; 66
    3894:	0e 94 7b 04 	call	0x8f6	; 0x8f6 <__gtsf2>


    if ((*i)>120)
    3898:	18 16       	cp	r1, r24
    389a:	6c f4       	brge	.+26     	; 0x38b6 <main+0x970>
    389c:	80 e0       	ldi	r24, 0x00	; 0
    389e:	90 e0       	ldi	r25, 0x00	; 0
    38a0:	a0 ef       	ldi	r26, 0xF0	; 240
    38a2:	b2 e4       	ldi	r27, 0x42	; 66
    38a4:	80 93 83 24 	sts	0x2483, r24
    38a8:	90 93 84 24 	sts	0x2484, r25
        (*i)=120;
    38ac:	a0 93 85 24 	sts	0x2485, r26
    38b0:	b0 93 86 24 	sts	0x2486, r27
    38b4:	1a c0       	rjmp	.+52     	; 0x38ea <main+0x9a4>
    38b6:	8c 2d       	mov	r24, r12
    38b8:	9f 2d       	mov	r25, r15
    38ba:	a1 2f       	mov	r26, r17
    38bc:	b0 2f       	mov	r27, r16
    38be:	bc 01       	movw	r22, r24
    38c0:	cd 01       	movw	r24, r26
    38c2:	20 e0       	ldi	r18, 0x00	; 0
    38c4:	30 e0       	ldi	r19, 0x00	; 0
    if ((*i)<-1200)
    38c6:	46 e9       	ldi	r20, 0x96	; 150
    38c8:	54 ec       	ldi	r21, 0xC4	; 196
    38ca:	0e 94 a9 04 	call	0x952	; 0x952 <__ltsf2>
    38ce:	88 23       	and	r24, r24
    38d0:	64 f4       	brge	.+24     	; 0x38ea <main+0x9a4>
    38d2:	80 e0       	ldi	r24, 0x00	; 0
    38d4:	90 e0       	ldi	r25, 0x00	; 0
    38d6:	a0 ef       	ldi	r26, 0xF0	; 240
    38d8:	b2 ec       	ldi	r27, 0xC2	; 194
    38da:	80 93 83 24 	sts	0x2483, r24
    38de:	90 93 84 24 	sts	0x2484, r25
        (*i)=-120;
    38e2:	a0 93 85 24 	sts	0x2485, r26
    38e6:	b0 93 86 24 	sts	0x2486, r27
    38ea:	89 2d       	mov	r24, r9
    38ec:	98 2d       	mov	r25, r8
    38ee:	80 38       	cpi	r24, 0x80	; 128
    38f0:	91 05       	cpc	r25, r1
    38f2:	14 f0       	brlt	.+4      	; 0x38f8 <main+0x9b2>
    38f4:	8f e7       	ldi	r24, 0x7F	; 127
    38f6:	90 e0       	ldi	r25, 0x00	; 0
    38f8:	3f ef       	ldi	r19, 0xFF	; 255

    p=(p>127)?(127):p;
    38fa:	81 38       	cpi	r24, 0x81	; 129
    38fc:	93 07       	cpc	r25, r19
    38fe:	14 f4       	brge	.+4      	; 0x3904 <main+0x9be>
    3900:	81 e8       	ldi	r24, 0x81	; 129
    3902:	9f ef       	ldi	r25, 0xFF	; 255
    3904:	dc 01       	movw	r26, r24
    3906:	bd 01       	movw	r22, r26
    p=(p<-127)?(-127):p;
    3908:	88 27       	eor	r24, r24
    390a:	77 fd       	sbrc	r23, 7
    390c:	80 95       	com	r24
    390e:	98 2f       	mov	r25, r24
    3910:	0e 94 d7 04 	call	0x9ae	; 0x9ae <__floatsisf>

    //PID_U_past=PID_U;
    int PID_U=p+(*i)+kd*d;//(0.5)*PID_Err2_M1+(1.5)*(PID_Err1_M1+PID_Err2_M1);//+(12.5)*(float)(PID_Err2_M1-PID_Err1_M1)/10.0; //kp=0.5  kd=9
    3914:	20 91 83 24 	lds	r18, 0x2483
    3918:	30 91 84 24 	lds	r19, 0x2484
    391c:	40 91 85 24 	lds	r20, 0x2485
    3920:	50 91 86 24 	lds	r21, 0x2486
    3924:	0e 94 71 02 	call	0x4e2	; 0x4e2 <__addsf3>
    3928:	6b 01       	movw	r12, r22
    392a:	7c 01       	movw	r14, r24
    392c:	b5 01       	movw	r22, r10
    392e:	88 27       	eor	r24, r24
    3930:	77 fd       	sbrc	r23, 7
    3932:	80 95       	com	r24
    3934:	98 2f       	mov	r25, r24
    3936:	0e 94 d7 04 	call	0x9ae	; 0x9ae <__floatsisf>
    393a:	9b 01       	movw	r18, r22
    393c:	ac 01       	movw	r20, r24
    393e:	6f 81       	ldd	r22, Y+7	; 0x07
    3940:	78 85       	ldd	r23, Y+8	; 0x08
    3942:	e9 85       	ldd	r30, Y+9	; 0x09
    3944:	fa 85       	ldd	r31, Y+10	; 0x0a
    3946:	86 2f       	mov	r24, r22
    3948:	97 2f       	mov	r25, r23
    394a:	ae 2f       	mov	r26, r30
    394c:	bf 2f       	mov	r27, r31
    394e:	bc 01       	movw	r22, r24
    3950:	cd 01       	movw	r24, r26
    3952:	0e 94 d5 02 	call	0x5aa	; 0x5aa <__mulsf3>
    3956:	9b 01       	movw	r18, r22
    3958:	ac 01       	movw	r20, r24
    395a:	c7 01       	movw	r24, r14
    395c:	b6 01       	movw	r22, r12
    395e:	0e 94 71 02 	call	0x4e2	; 0x4e2 <__addsf3>
    3962:	0e 94 46 05 	call	0xa8c	; 0xa8c <__fixsfsi>
    3966:	86 2f       	mov	r24, r22
    3968:	97 2f       	mov	r25, r23
    396a:	80 38       	cpi	r24, 0x80	; 128
    396c:	91 05       	cpc	r25, r1
    396e:	14 f0       	brlt	.+4      	; 0x3974 <main+0xa2e>
    3970:	8f e7       	ldi	r24, 0x7F	; 127
    3972:	90 e0       	ldi	r25, 0x00	; 0
    3974:	ef e7       	ldi	r30, 0x7F	; 127
    3976:	f4 e2       	ldi	r31, 0x24	; 36
    3978:	60 82       	st	Z, r6
    397a:	71 82       	std	Z+1, r7	; 0x01
    397c:	ab a5       	lds	r26, 0x6b
    397e:	bc a5       	lds	r27, 0x6c
    3980:	ad 92       	st	X+, r10
    3982:	bc 92       	st	X, r11

    if(PID_U>127)
        PID_U=127;
    if( PID_U<-127)
        PID_U=-127;
    *PID_Err_past=PID_Err;
    3984:	11 97       	sbiw	r26, 0x01	; 1
    3986:	bf ef       	ldi	r27, 0xFF	; 255
    3988:	81 38       	cpi	r24, 0x81	; 129
    398a:	9b 07       	cpc	r25, r27
	*d_past=d;
    398c:	14 f4       	brge	.+4      	; 0x3992 <main+0xa4c>
    398e:	81 e8       	ldi	r24, 0x81	; 129
    3990:	9f ef       	ldi	r25, 0xFF	; 255
    3992:	80 93 89 24 	sts	0x2489, r24
                    M3.Speed = M3.Speed_past +_FILTER_CONST*(M3.Speed - M3.Speed_past);
            kp = (float)Robot_D[RobotID].P/100.0;
            ki = (float)Robot_D[RobotID].I/100.0;
            kd = (float)Robot_D[RobotID].D/100.0;
            ctrlflg = 0;
            M0.PWM=PD_CTRL(Robot_D[RobotID].M0b|(Robot_D[RobotID].M0a<<8),M0.Speed,&M0.Err,&M0.d,&M0.i);
    3996:	e8 e0       	ldi	r30, 0x08	; 8
    3998:	f6 e0       	ldi	r31, 0x06	; 6
    399a:	b0 81       	ld	r27, Z
    399c:	70 81       	ld	r23, Z
    399e:	a0 81       	ld	r26, Z
    39a0:	10 81       	ld	r17, Z
    39a2:	30 81       	ld	r19, Z
    39a4:	80 81       	ld	r24, Z
            M1.PWM=PD_CTRL((Robot_D[RobotID].M1b|(Robot_D[RobotID].M1a<<8)),M1.Speed,&M1.Err,&M1.d,&M1.i);
    39a6:	20 81       	ld	r18, Z
    39a8:	60 81       	ld	r22, Z
    39aa:	90 e0       	ldi	r25, 0x00	; 0
    39ac:	80 71       	andi	r24, 0x10	; 16
    39ae:	90 70       	andi	r25, 0x00	; 0
    39b0:	95 95       	asr	r25
    39b2:	87 95       	ror	r24
    39b4:	95 95       	asr	r25
    39b6:	87 95       	ror	r24
    39b8:	95 95       	asr	r25
    39ba:	87 95       	ror	r24
    39bc:	95 95       	asr	r25
    39be:	87 95       	ror	r24
    39c0:	ac 01       	movw	r20, r24
    39c2:	44 0f       	add	r20, r20
    39c4:	55 1f       	adc	r21, r21
    39c6:	82 2f       	mov	r24, r18
    39c8:	88 1f       	adc	r24, r24
    39ca:	88 27       	eor	r24, r24
    39cc:	88 1f       	adc	r24, r24
    39ce:	90 e0       	ldi	r25, 0x00	; 0
    39d0:	88 0f       	add	r24, r24
    39d2:	99 1f       	adc	r25, r25
    39d4:	88 0f       	add	r24, r24
    39d6:	99 1f       	adc	r25, r25
    39d8:	48 2b       	or	r20, r24
    39da:	59 2b       	or	r21, r25
    39dc:	83 2f       	mov	r24, r19
    39de:	90 e0       	ldi	r25, 0x00	; 0
    39e0:	80 74       	andi	r24, 0x40	; 64
    39e2:	90 70       	andi	r25, 0x00	; 0
    39e4:	08 2e       	mov	r0, r24
    39e6:	89 2f       	mov	r24, r25
    39e8:	00 0c       	add	r0, r0
    39ea:	88 1f       	adc	r24, r24
    39ec:	99 0b       	sbc	r25, r25
    39ee:	00 0c       	add	r0, r0
    39f0:	88 1f       	adc	r24, r24
    39f2:	99 1f       	adc	r25, r25
    39f4:	48 2b       	or	r20, r24
    39f6:	59 2b       	or	r21, r25
    39f8:	86 2f       	mov	r24, r22
    39fa:	90 e0       	ldi	r25, 0x00	; 0
    39fc:	80 72       	andi	r24, 0x20	; 32
    39fe:	90 70       	andi	r25, 0x00	; 0
    3a00:	95 95       	asr	r25
    3a02:	87 95       	ror	r24
    3a04:	95 95       	asr	r25
    3a06:	87 95       	ror	r24
    3a08:	95 95       	asr	r25
    3a0a:	87 95       	ror	r24
    3a0c:	95 95       	asr	r25
    3a0e:	87 95       	ror	r24
    3a10:	95 95       	asr	r25
    3a12:	87 95       	ror	r24
    3a14:	88 0f       	add	r24, r24
    3a16:	99 1f       	adc	r25, r25
    3a18:	88 0f       	add	r24, r24
    3a1a:	99 1f       	adc	r25, r25
    3a1c:	88 0f       	add	r24, r24
    3a1e:	99 1f       	adc	r25, r25
    3a20:	9a 01       	movw	r18, r20
    3a22:	28 2b       	or	r18, r24
    3a24:	39 2b       	or	r19, r25
    3a26:	46 eb       	ldi	r20, 0xB6	; 182
    3a28:	51 e2       	ldi	r21, 0x21	; 33
    3a2a:	c9 01       	movw	r24, r18
    3a2c:	88 0f       	add	r24, r24
    3a2e:	99 1f       	adc	r25, r25
    3a30:	82 0f       	add	r24, r18
    3a32:	93 1f       	adc	r25, r19
    3a34:	88 0f       	add	r24, r24
    3a36:	99 1f       	adc	r25, r25
    3a38:	88 0f       	add	r24, r24
    3a3a:	99 1f       	adc	r25, r25
    3a3c:	88 0f       	add	r24, r24
    3a3e:	99 1f       	adc	r25, r25
    3a40:	82 1b       	sub	r24, r18
    3a42:	93 0b       	sbc	r25, r19
    3a44:	84 0f       	add	r24, r20
    3a46:	95 1f       	adc	r25, r21
    3a48:	fc 01       	movw	r30, r24
    3a4a:	f5 81       	ldd	r31, Z+5	; 0x05
    3a4c:	fe 87       	std	Y+14, r31	; 0x0e
    3a4e:	1d 86       	std	Y+13, r1	; 0x0d
    3a50:	87 2f       	mov	r24, r23
    3a52:	90 e0       	ldi	r25, 0x00	; 0
    3a54:	80 71       	andi	r24, 0x10	; 16
    3a56:	90 70       	andi	r25, 0x00	; 0
    3a58:	95 95       	asr	r25
    3a5a:	87 95       	ror	r24
    3a5c:	95 95       	asr	r25
    3a5e:	87 95       	ror	r24
    3a60:	95 95       	asr	r25
    3a62:	87 95       	ror	r24
    3a64:	95 95       	asr	r25
    3a66:	87 95       	ror	r24
    3a68:	9c 01       	movw	r18, r24
    3a6a:	22 0f       	add	r18, r18
    3a6c:	33 1f       	adc	r19, r19
    3a6e:	8a 2f       	mov	r24, r26
    3a70:	88 1f       	adc	r24, r24
    3a72:	88 27       	eor	r24, r24
    3a74:	88 1f       	adc	r24, r24
    3a76:	90 e0       	ldi	r25, 0x00	; 0
    3a78:	88 0f       	add	r24, r24
    3a7a:	99 1f       	adc	r25, r25
    3a7c:	88 0f       	add	r24, r24
    3a7e:	99 1f       	adc	r25, r25
    3a80:	28 2b       	or	r18, r24
    3a82:	39 2b       	or	r19, r25
    3a84:	8b 2f       	mov	r24, r27
    3a86:	90 e0       	ldi	r25, 0x00	; 0
    3a88:	80 74       	andi	r24, 0x40	; 64
    3a8a:	90 70       	andi	r25, 0x00	; 0
    3a8c:	08 2e       	mov	r0, r24
    3a8e:	89 2f       	mov	r24, r25
    3a90:	00 0c       	add	r0, r0
    3a92:	88 1f       	adc	r24, r24
    3a94:	99 0b       	sbc	r25, r25
    3a96:	00 0c       	add	r0, r0
    3a98:	88 1f       	adc	r24, r24
    3a9a:	99 1f       	adc	r25, r25
    3a9c:	28 2b       	or	r18, r24
    3a9e:	39 2b       	or	r19, r25
    3aa0:	81 2f       	mov	r24, r17
    3aa2:	90 e0       	ldi	r25, 0x00	; 0
    3aa4:	80 72       	andi	r24, 0x20	; 32
    3aa6:	90 70       	andi	r25, 0x00	; 0
    3aa8:	95 95       	asr	r25
    3aaa:	87 95       	ror	r24
    3aac:	95 95       	asr	r25
    3aae:	87 95       	ror	r24
    3ab0:	95 95       	asr	r25
    3ab2:	87 95       	ror	r24
    3ab4:	95 95       	asr	r25
    3ab6:	87 95       	ror	r24
    3ab8:	95 95       	asr	r25
    3aba:	87 95       	ror	r24
    3abc:	88 0f       	add	r24, r24
    3abe:	99 1f       	adc	r25, r25
    3ac0:	88 0f       	add	r24, r24
    3ac2:	99 1f       	adc	r25, r25
    3ac4:	88 0f       	add	r24, r24
    3ac6:	99 1f       	adc	r25, r25
    3ac8:	82 2b       	or	r24, r18
    3aca:	93 2b       	or	r25, r19
    3acc:	fc 01       	movw	r30, r24
    3ace:	ee 0f       	add	r30, r30
    3ad0:	ff 1f       	adc	r31, r31
    3ad2:	e8 0f       	add	r30, r24
    3ad4:	f9 1f       	adc	r31, r25
    3ad6:	ee 0f       	add	r30, r30
    3ad8:	ff 1f       	adc	r31, r31
    3ada:	ee 0f       	add	r30, r30
    3adc:	ff 1f       	adc	r31, r31
    3ade:	ee 0f       	add	r30, r30
    3ae0:	ff 1f       	adc	r31, r31
    3ae2:	e8 1b       	sub	r30, r24
    3ae4:	f9 0b       	sbc	r31, r25
    3ae6:	e4 0f       	add	r30, r20
    3ae8:	f5 1f       	adc	r31, r21
    3aea:	87 81       	ldd	r24, Z+7	; 0x07
    3aec:	90 85       	ldd	r25, Z+8	; 0x08
    3aee:	2d 85       	ldd	r18, Y+13	; 0x0d
    3af0:	3e 85       	ldd	r19, Y+14	; 0x0e
    3af2:	82 2b       	or	r24, r18
    3af4:	93 2b       	or	r25, r19
    3af6:	dc 01       	movw	r26, r24
    3af8:	a4 19       	sub	r26, r4
    3afa:	b5 09       	sbc	r27, r5
    3afc:	2d 01       	movw	r4, r26
    3afe:	ed e0       	ldi	r30, 0x0D	; 13
    3b00:	f5 e2       	ldi	r31, 0x25	; 37
    3b02:	80 81       	ld	r24, Z
    3b04:	91 81       	ldd	r25, Z+1	; 0x01
{

    //Setpoint=(40*Setpoint);
    

    int PID_Err=Setpoint-Feed_Back;
    3b06:	9d 01       	movw	r18, r26
    3b08:	28 1b       	sub	r18, r24
    3b0a:	39 0b       	sbc	r19, r25
    3b0c:	c9 01       	movw	r24, r18

    
    int d=(PID_Err-(*PID_Err_past))*10 ;
    3b0e:	22 0f       	add	r18, r18
    3b10:	33 1f       	adc	r19, r19
    3b12:	88 0f       	add	r24, r24
    3b14:	99 1f       	adc	r25, r25
    3b16:	88 0f       	add	r24, r24
    3b18:	99 1f       	adc	r25, r25
    3b1a:	88 0f       	add	r24, r24
    3b1c:	99 1f       	adc	r25, r25
    3b1e:	39 01       	movw	r6, r18
    3b20:	68 0e       	add	r6, r24
    3b22:	79 1e       	adc	r7, r25
    3b24:	c3 01       	movw	r24, r6
    3b26:	c1 96       	adiw	r24, 0x31	; 49
    3b28:	83 36       	cpi	r24, 0x63	; 99
    3b2a:	91 05       	cpc	r25, r1
    3b2c:	58 f0       	brcs	.+22     	; 0x3b44 <main+0xbfe>
    3b2e:	31 e6       	ldi	r19, 0x61	; 97
    3b30:	63 16       	cp	r6, r19
    3b32:	39 e0       	ldi	r19, 0x09	; 9
    // d= (*d_past) +0.05*(d-(*d_past));

    d=(abs(d)<50)?0:d;
    3b34:	73 06       	cpc	r7, r19
    3b36:	4c f4       	brge	.+18     	; 0x3b4a <main+0xc04>
    3b38:	80 ea       	ldi	r24, 0xA0	; 160
    3b3a:	68 16       	cp	r6, r24
    3b3c:	86 ef       	ldi	r24, 0xF6	; 246

    d=(d>2400)?(0):d;
    3b3e:	78 06       	cpc	r7, r24
    3b40:	3c f0       	brlt	.+14     	; 0x3b50 <main+0xc0a>
    3b42:	08 c0       	rjmp	.+16     	; 0x3b54 <main+0xc0e>
    3b44:	66 24       	eor	r6, r6
    3b46:	77 24       	eor	r7, r7
    d=(d<-2400)?(0):d;
    3b48:	05 c0       	rjmp	.+10     	; 0x3b54 <main+0xc0e>
    3b4a:	66 24       	eor	r6, r6
    3b4c:	77 24       	eor	r7, r7
    3b4e:	02 c0       	rjmp	.+4      	; 0x3b54 <main+0xc0e>
    3b50:	66 24       	eor	r6, r6
    3b52:	77 24       	eor	r7, r7

    
    int d=(PID_Err-(*PID_Err_past))*10 ;
    // d= (*d_past) +0.05*(d-(*d_past));

    d=(abs(d)<50)?0:d;
    3b54:	b2 01       	movw	r22, r4
    3b56:	88 27       	eor	r24, r24
    3b58:	77 fd       	sbrc	r23, 7

    d=(d>2400)?(0):d;
    3b5a:	80 95       	com	r24
    3b5c:	98 2f       	mov	r25, r24
    3b5e:	0e 94 d7 04 	call	0x9ae	; 0x9ae <__floatsisf>
    d=(d<-2400)?(0):d;
    3b62:	6b 01       	movw	r12, r22

    int p=PID_Err*kp;
    3b64:	7c 01       	movw	r14, r24
    3b66:	29 81       	ldd	r18, Y+1	; 0x01
    3b68:	3a 81       	ldd	r19, Y+2	; 0x02
    3b6a:	4b 81       	ldd	r20, Y+3	; 0x03
    3b6c:	5c 81       	ldd	r21, Y+4	; 0x04
    3b6e:	82 2f       	mov	r24, r18
    3b70:	93 2f       	mov	r25, r19
    3b72:	a4 2f       	mov	r26, r20
    3b74:	b5 2f       	mov	r27, r21
    3b76:	bc 01       	movw	r22, r24
    3b78:	cd 01       	movw	r24, r26
    3b7a:	a7 01       	movw	r20, r14
    3b7c:	96 01       	movw	r18, r12
    3b7e:	0e 94 d5 02 	call	0x5aa	; 0x5aa <__mulsf3>
    3b82:	0e 94 46 05 	call	0xa8c	; 0xa8c <__fixsfsi>
    3b86:	a6 2e       	mov	r10, r22
    3b88:	97 2e       	mov	r9, r23
    3b8a:	4d 81       	ldd	r20, Y+5	; 0x05
    3b8c:	5e 81       	ldd	r21, Y+6	; 0x06
    3b8e:	83 2d       	mov	r24, r3
    3b90:	92 2d       	mov	r25, r2
    3b92:	a4 2f       	mov	r26, r20
    3b94:	b5 2f       	mov	r27, r21
    3b96:	bc 01       	movw	r22, r24
    3b98:	cd 01       	movw	r24, r26


    (*i)=(*i)+(ki*PID_Err)*.020;
    3b9a:	a7 01       	movw	r20, r14
    3b9c:	96 01       	movw	r18, r12
    3b9e:	0e 94 d5 02 	call	0x5aa	; 0x5aa <__mulsf3>
    3ba2:	2a e0       	ldi	r18, 0x0A	; 10
    3ba4:	37 ed       	ldi	r19, 0xD7	; 215
    3ba6:	43 ea       	ldi	r20, 0xA3	; 163
    3ba8:	5c e3       	ldi	r21, 0x3C	; 60
    3baa:	0e 94 d5 02 	call	0x5aa	; 0x5aa <__mulsf3>
    3bae:	20 91 11 25 	lds	r18, 0x2511
    3bb2:	30 91 12 25 	lds	r19, 0x2512
    3bb6:	40 91 13 25 	lds	r20, 0x2513
    3bba:	50 91 14 25 	lds	r21, 0x2514
    3bbe:	0e 94 71 02 	call	0x4e2	; 0x4e2 <__addsf3>
    3bc2:	c6 2e       	mov	r12, r22
    3bc4:	f7 2e       	mov	r15, r23
    3bc6:	18 2f       	mov	r17, r24
    3bc8:	09 2f       	mov	r16, r25
    3bca:	86 2f       	mov	r24, r22
    3bcc:	9f 2d       	mov	r25, r15
    3bce:	a1 2f       	mov	r26, r17
    3bd0:	b0 2f       	mov	r27, r16
    3bd2:	80 93 11 25 	sts	0x2511, r24
    3bd6:	90 93 12 25 	sts	0x2512, r25
    3bda:	a0 93 13 25 	sts	0x2513, r26
    3bde:	b0 93 14 25 	sts	0x2514, r27
    3be2:	bc 01       	movw	r22, r24
    3be4:	cd 01       	movw	r24, r26
    3be6:	20 e0       	ldi	r18, 0x00	; 0
    3be8:	30 e0       	ldi	r19, 0x00	; 0
    3bea:	40 ef       	ldi	r20, 0xF0	; 240
    3bec:	52 e4       	ldi	r21, 0x42	; 66
    3bee:	0e 94 7b 04 	call	0x8f6	; 0x8f6 <__gtsf2>


    if ((*i)>120)
    3bf2:	18 16       	cp	r1, r24
    3bf4:	6c f4       	brge	.+26     	; 0x3c10 <main+0xcca>
    3bf6:	80 e0       	ldi	r24, 0x00	; 0
    3bf8:	90 e0       	ldi	r25, 0x00	; 0
    3bfa:	a0 ef       	ldi	r26, 0xF0	; 240
    3bfc:	b2 e4       	ldi	r27, 0x42	; 66
    3bfe:	80 93 11 25 	sts	0x2511, r24
    3c02:	90 93 12 25 	sts	0x2512, r25
        (*i)=120;
    3c06:	a0 93 13 25 	sts	0x2513, r26
    3c0a:	b0 93 14 25 	sts	0x2514, r27
    3c0e:	1a c0       	rjmp	.+52     	; 0x3c44 <main+0xcfe>
    3c10:	8c 2d       	mov	r24, r12
    3c12:	9f 2d       	mov	r25, r15
    3c14:	a1 2f       	mov	r26, r17
    3c16:	b0 2f       	mov	r27, r16
    3c18:	bc 01       	movw	r22, r24
    3c1a:	cd 01       	movw	r24, r26
    3c1c:	20 e0       	ldi	r18, 0x00	; 0
    3c1e:	30 e0       	ldi	r19, 0x00	; 0
    if ((*i)<-1200)
    3c20:	46 e9       	ldi	r20, 0x96	; 150
    3c22:	54 ec       	ldi	r21, 0xC4	; 196
    3c24:	0e 94 a9 04 	call	0x952	; 0x952 <__ltsf2>
    3c28:	88 23       	and	r24, r24
    3c2a:	64 f4       	brge	.+24     	; 0x3c44 <main+0xcfe>
    3c2c:	80 e0       	ldi	r24, 0x00	; 0
    3c2e:	90 e0       	ldi	r25, 0x00	; 0
    3c30:	a0 ef       	ldi	r26, 0xF0	; 240
    3c32:	b2 ec       	ldi	r27, 0xC2	; 194
    3c34:	80 93 11 25 	sts	0x2511, r24
    3c38:	90 93 12 25 	sts	0x2512, r25
        (*i)=-120;
    3c3c:	a0 93 13 25 	sts	0x2513, r26
    3c40:	b0 93 14 25 	sts	0x2514, r27
    3c44:	8a 2d       	mov	r24, r10
    3c46:	99 2d       	mov	r25, r9
    3c48:	80 38       	cpi	r24, 0x80	; 128
    3c4a:	91 05       	cpc	r25, r1
    3c4c:	14 f0       	brlt	.+4      	; 0x3c52 <main+0xd0c>
    3c4e:	8f e7       	ldi	r24, 0x7F	; 127
    3c50:	90 e0       	ldi	r25, 0x00	; 0
    3c52:	af ef       	ldi	r26, 0xFF	; 255

    p=(p>127)?(127):p;
    3c54:	81 38       	cpi	r24, 0x81	; 129
    3c56:	9a 07       	cpc	r25, r26
    3c58:	14 f4       	brge	.+4      	; 0x3c5e <main+0xd18>
    3c5a:	81 e8       	ldi	r24, 0x81	; 129
    3c5c:	9f ef       	ldi	r25, 0xFF	; 255
    3c5e:	fc 01       	movw	r30, r24
    3c60:	bf 01       	movw	r22, r30
    p=(p<-127)?(-127):p;
    3c62:	88 27       	eor	r24, r24
    3c64:	77 fd       	sbrc	r23, 7
    3c66:	80 95       	com	r24
    3c68:	98 2f       	mov	r25, r24
    3c6a:	0e 94 d7 04 	call	0x9ae	; 0x9ae <__floatsisf>

    //PID_U_past=PID_U;
    int PID_U=p+(*i)+kd*d;//(0.5)*PID_Err2_M1+(1.5)*(PID_Err1_M1+PID_Err2_M1);//+(12.5)*(float)(PID_Err2_M1-PID_Err1_M1)/10.0; //kp=0.5  kd=9
    3c6e:	20 91 11 25 	lds	r18, 0x2511
    3c72:	30 91 12 25 	lds	r19, 0x2512
    3c76:	40 91 13 25 	lds	r20, 0x2513
    3c7a:	50 91 14 25 	lds	r21, 0x2514
    3c7e:	0e 94 71 02 	call	0x4e2	; 0x4e2 <__addsf3>
    3c82:	6b 01       	movw	r12, r22
    3c84:	7c 01       	movw	r14, r24
    3c86:	b3 01       	movw	r22, r6
    3c88:	88 27       	eor	r24, r24
    3c8a:	77 fd       	sbrc	r23, 7
    3c8c:	80 95       	com	r24
    3c8e:	98 2f       	mov	r25, r24
    3c90:	0e 94 d7 04 	call	0x9ae	; 0x9ae <__floatsisf>
    3c94:	9b 01       	movw	r18, r22
    3c96:	ac 01       	movw	r20, r24
    3c98:	6f 81       	ldd	r22, Y+7	; 0x07
    3c9a:	78 85       	ldd	r23, Y+8	; 0x08
    3c9c:	e9 85       	ldd	r30, Y+9	; 0x09
    3c9e:	fa 85       	ldd	r31, Y+10	; 0x0a
    3ca0:	86 2f       	mov	r24, r22
    3ca2:	97 2f       	mov	r25, r23
    3ca4:	ae 2f       	mov	r26, r30
    3ca6:	bf 2f       	mov	r27, r31
    3ca8:	bc 01       	movw	r22, r24
    3caa:	cd 01       	movw	r24, r26
    3cac:	0e 94 d5 02 	call	0x5aa	; 0x5aa <__mulsf3>
    3cb0:	9b 01       	movw	r18, r22
    3cb2:	ac 01       	movw	r20, r24
    3cb4:	c7 01       	movw	r24, r14
    3cb6:	b6 01       	movw	r22, r12
    3cb8:	0e 94 71 02 	call	0x4e2	; 0x4e2 <__addsf3>
    3cbc:	0e 94 46 05 	call	0xa8c	; 0xa8c <__fixsfsi>
    3cc0:	86 2f       	mov	r24, r22
    3cc2:	97 2f       	mov	r25, r23
    3cc4:	80 38       	cpi	r24, 0x80	; 128
    3cc6:	91 05       	cpc	r25, r1
    3cc8:	14 f0       	brlt	.+4      	; 0x3cce <main+0xd88>
    3cca:	8f e7       	ldi	r24, 0x7F	; 127
    3ccc:	90 e0       	ldi	r25, 0x00	; 0
    3cce:	ad e0       	ldi	r26, 0x0D	; 13
    3cd0:	b5 e2       	ldi	r27, 0x25	; 37
    3cd2:	4d 92       	st	X+, r4
    3cd4:	5c 92       	st	X, r5
    3cd6:	11 97       	sbiw	r26, 0x01	; 1
    3cd8:	ed a5       	lds	r30, 0x6d
    3cda:	fe a5       	lds	r31, 0x6e
    3cdc:	60 82       	st	Z, r6

    if(PID_U>127)
        PID_U=127;
    if( PID_U<-127)
        PID_U=-127;
    *PID_Err_past=PID_Err;
    3cde:	71 82       	std	Z+1, r7	; 0x01
    3ce0:	ff ef       	ldi	r31, 0xFF	; 255
    3ce2:	81 38       	cpi	r24, 0x81	; 129
    3ce4:	9f 07       	cpc	r25, r31
    3ce6:	14 f4       	brge	.+4      	; 0x3cec <main+0xda6>
	*d_past=d;
    3ce8:	81 e8       	ldi	r24, 0x81	; 129
    3cea:	9f ef       	ldi	r25, 0xFF	; 255
    3cec:	80 93 17 25 	sts	0x2517, r24
            kp = (float)Robot_D[RobotID].P/100.0;
            ki = (float)Robot_D[RobotID].I/100.0;
            kd = (float)Robot_D[RobotID].D/100.0;
            ctrlflg = 0;
            M0.PWM=PD_CTRL(Robot_D[RobotID].M0b|(Robot_D[RobotID].M0a<<8),M0.Speed,&M0.Err,&M0.d,&M0.i);
            M1.PWM=PD_CTRL((Robot_D[RobotID].M1b|(Robot_D[RobotID].M1a<<8)),M1.Speed,&M1.Err,&M1.d,&M1.i);
    3cf0:	e8 e0       	ldi	r30, 0x08	; 8
    3cf2:	f6 e0       	ldi	r31, 0x06	; 6
    3cf4:	b0 81       	ld	r27, Z
    3cf6:	70 81       	ld	r23, Z
    3cf8:	a0 81       	ld	r26, Z
    3cfa:	10 81       	ld	r17, Z
    3cfc:	30 81       	ld	r19, Z
    3cfe:	80 81       	ld	r24, Z
            M2.PWM=PD_CTRL((Robot_D[RobotID].M2b|(Robot_D[RobotID].M2a<<8)),M2.Speed,&M2.Err,&M2.d,&M2.i);
    3d00:	20 81       	ld	r18, Z
    3d02:	60 81       	ld	r22, Z
    3d04:	90 e0       	ldi	r25, 0x00	; 0
    3d06:	80 71       	andi	r24, 0x10	; 16
    3d08:	90 70       	andi	r25, 0x00	; 0
    3d0a:	95 95       	asr	r25
    3d0c:	87 95       	ror	r24
    3d0e:	95 95       	asr	r25
    3d10:	87 95       	ror	r24
    3d12:	95 95       	asr	r25
    3d14:	87 95       	ror	r24
    3d16:	95 95       	asr	r25
    3d18:	87 95       	ror	r24
    3d1a:	ac 01       	movw	r20, r24
    3d1c:	44 0f       	add	r20, r20
    3d1e:	55 1f       	adc	r21, r21
    3d20:	82 2f       	mov	r24, r18
    3d22:	88 1f       	adc	r24, r24
    3d24:	88 27       	eor	r24, r24
    3d26:	88 1f       	adc	r24, r24
    3d28:	90 e0       	ldi	r25, 0x00	; 0
    3d2a:	88 0f       	add	r24, r24
    3d2c:	99 1f       	adc	r25, r25
    3d2e:	88 0f       	add	r24, r24
    3d30:	99 1f       	adc	r25, r25
    3d32:	48 2b       	or	r20, r24
    3d34:	59 2b       	or	r21, r25
    3d36:	83 2f       	mov	r24, r19
    3d38:	90 e0       	ldi	r25, 0x00	; 0
    3d3a:	80 74       	andi	r24, 0x40	; 64
    3d3c:	90 70       	andi	r25, 0x00	; 0
    3d3e:	08 2e       	mov	r0, r24
    3d40:	89 2f       	mov	r24, r25
    3d42:	00 0c       	add	r0, r0
    3d44:	88 1f       	adc	r24, r24
    3d46:	99 0b       	sbc	r25, r25
    3d48:	00 0c       	add	r0, r0
    3d4a:	88 1f       	adc	r24, r24
    3d4c:	99 1f       	adc	r25, r25
    3d4e:	48 2b       	or	r20, r24
    3d50:	59 2b       	or	r21, r25
    3d52:	86 2f       	mov	r24, r22
    3d54:	90 e0       	ldi	r25, 0x00	; 0
    3d56:	80 72       	andi	r24, 0x20	; 32
    3d58:	90 70       	andi	r25, 0x00	; 0
    3d5a:	95 95       	asr	r25
    3d5c:	87 95       	ror	r24
    3d5e:	95 95       	asr	r25
    3d60:	87 95       	ror	r24
    3d62:	95 95       	asr	r25
    3d64:	87 95       	ror	r24
    3d66:	95 95       	asr	r25
    3d68:	87 95       	ror	r24
    3d6a:	95 95       	asr	r25
    3d6c:	87 95       	ror	r24
    3d6e:	88 0f       	add	r24, r24
    3d70:	99 1f       	adc	r25, r25
    3d72:	88 0f       	add	r24, r24
    3d74:	99 1f       	adc	r25, r25
    3d76:	88 0f       	add	r24, r24
    3d78:	99 1f       	adc	r25, r25
    3d7a:	9a 01       	movw	r18, r20
    3d7c:	28 2b       	or	r18, r24
    3d7e:	39 2b       	or	r19, r25
    3d80:	46 eb       	ldi	r20, 0xB6	; 182
    3d82:	51 e2       	ldi	r21, 0x21	; 33
    3d84:	c9 01       	movw	r24, r18
    3d86:	88 0f       	add	r24, r24
    3d88:	99 1f       	adc	r25, r25
    3d8a:	82 0f       	add	r24, r18
    3d8c:	93 1f       	adc	r25, r19
    3d8e:	88 0f       	add	r24, r24
    3d90:	99 1f       	adc	r25, r25
    3d92:	88 0f       	add	r24, r24
    3d94:	99 1f       	adc	r25, r25
    3d96:	88 0f       	add	r24, r24
    3d98:	99 1f       	adc	r25, r25
    3d9a:	82 1b       	sub	r24, r18
    3d9c:	93 0b       	sbc	r25, r19
    3d9e:	84 0f       	add	r24, r20
    3da0:	95 1f       	adc	r25, r21
    3da2:	fc 01       	movw	r30, r24
    3da4:	f1 85       	ldd	r31, Z+9	; 0x09
    3da6:	f8 8b       	std	Y+16, r31	; 0x10
    3da8:	1f 86       	std	Y+15, r1	; 0x0f
    3daa:	87 2f       	mov	r24, r23
    3dac:	90 e0       	ldi	r25, 0x00	; 0
    3dae:	80 71       	andi	r24, 0x10	; 16
    3db0:	90 70       	andi	r25, 0x00	; 0
    3db2:	95 95       	asr	r25
    3db4:	87 95       	ror	r24
    3db6:	95 95       	asr	r25
    3db8:	87 95       	ror	r24
    3dba:	95 95       	asr	r25
    3dbc:	87 95       	ror	r24
    3dbe:	95 95       	asr	r25
    3dc0:	87 95       	ror	r24
    3dc2:	9c 01       	movw	r18, r24
    3dc4:	22 0f       	add	r18, r18
    3dc6:	33 1f       	adc	r19, r19
    3dc8:	8a 2f       	mov	r24, r26
    3dca:	88 1f       	adc	r24, r24
    3dcc:	88 27       	eor	r24, r24
    3dce:	88 1f       	adc	r24, r24
    3dd0:	90 e0       	ldi	r25, 0x00	; 0
    3dd2:	88 0f       	add	r24, r24
    3dd4:	99 1f       	adc	r25, r25
    3dd6:	88 0f       	add	r24, r24
    3dd8:	99 1f       	adc	r25, r25
    3dda:	28 2b       	or	r18, r24
    3ddc:	39 2b       	or	r19, r25
    3dde:	8b 2f       	mov	r24, r27
    3de0:	90 e0       	ldi	r25, 0x00	; 0
    3de2:	80 74       	andi	r24, 0x40	; 64
    3de4:	90 70       	andi	r25, 0x00	; 0
    3de6:	08 2e       	mov	r0, r24
    3de8:	89 2f       	mov	r24, r25
    3dea:	00 0c       	add	r0, r0
    3dec:	88 1f       	adc	r24, r24
    3dee:	99 0b       	sbc	r25, r25
    3df0:	00 0c       	add	r0, r0
    3df2:	88 1f       	adc	r24, r24
    3df4:	99 1f       	adc	r25, r25
    3df6:	28 2b       	or	r18, r24
    3df8:	39 2b       	or	r19, r25
    3dfa:	81 2f       	mov	r24, r17
    3dfc:	90 e0       	ldi	r25, 0x00	; 0
    3dfe:	80 72       	andi	r24, 0x20	; 32
    3e00:	90 70       	andi	r25, 0x00	; 0
    3e02:	95 95       	asr	r25
    3e04:	87 95       	ror	r24
    3e06:	95 95       	asr	r25
    3e08:	87 95       	ror	r24
    3e0a:	95 95       	asr	r25
    3e0c:	87 95       	ror	r24
    3e0e:	95 95       	asr	r25
    3e10:	87 95       	ror	r24
    3e12:	95 95       	asr	r25
    3e14:	87 95       	ror	r24
    3e16:	88 0f       	add	r24, r24
    3e18:	99 1f       	adc	r25, r25
    3e1a:	88 0f       	add	r24, r24
    3e1c:	99 1f       	adc	r25, r25
    3e1e:	88 0f       	add	r24, r24
    3e20:	99 1f       	adc	r25, r25
    3e22:	82 2b       	or	r24, r18
    3e24:	93 2b       	or	r25, r19
    3e26:	fc 01       	movw	r30, r24
    3e28:	ee 0f       	add	r30, r30
    3e2a:	ff 1f       	adc	r31, r31
    3e2c:	e8 0f       	add	r30, r24
    3e2e:	f9 1f       	adc	r31, r25
    3e30:	ee 0f       	add	r30, r30
    3e32:	ff 1f       	adc	r31, r31
    3e34:	ee 0f       	add	r30, r30
    3e36:	ff 1f       	adc	r31, r31
    3e38:	ee 0f       	add	r30, r30
    3e3a:	ff 1f       	adc	r31, r31
    3e3c:	e8 1b       	sub	r30, r24
    3e3e:	f9 0b       	sbc	r31, r25
    3e40:	e4 0f       	add	r30, r20
    3e42:	f5 1f       	adc	r31, r21
    3e44:	83 85       	ldd	r24, Z+11	; 0x0b
    3e46:	94 85       	ldd	r25, Z+12	; 0x0c
    3e48:	2f 85       	ldd	r18, Y+15	; 0x0f
    3e4a:	38 89       	ldd	r19, Y+16	; 0x10
    3e4c:	82 2b       	or	r24, r18
    3e4e:	93 2b       	or	r25, r19
    3e50:	2c 01       	movw	r4, r24
    3e52:	af 8d       	ldd	r26, Y+31	; 0x1f
    3e54:	b8 a1       	lds	r27, 0x48
    3e56:	4a 1a       	sub	r4, r26
    3e58:	5b 0a       	sbc	r5, r27
    3e5a:	80 91 23 25 	lds	r24, 0x2523
    3e5e:	90 91 24 25 	lds	r25, 0x2524
{

    //Setpoint=(40*Setpoint);
    

    int PID_Err=Setpoint-Feed_Back;
    3e62:	f2 01       	movw	r30, r4
    3e64:	e8 1b       	sub	r30, r24
    3e66:	f9 0b       	sbc	r31, r25
    3e68:	cf 01       	movw	r24, r30

    
    int d=(PID_Err-(*PID_Err_past))*10 ;
    3e6a:	9f 01       	movw	r18, r30
    3e6c:	22 0f       	add	r18, r18
    3e6e:	33 1f       	adc	r19, r19
    3e70:	88 0f       	add	r24, r24
    3e72:	99 1f       	adc	r25, r25
    3e74:	88 0f       	add	r24, r24
    3e76:	99 1f       	adc	r25, r25
    3e78:	88 0f       	add	r24, r24
    3e7a:	99 1f       	adc	r25, r25
    3e7c:	39 01       	movw	r6, r18
    3e7e:	68 0e       	add	r6, r24
    3e80:	79 1e       	adc	r7, r25
    3e82:	c3 01       	movw	r24, r6
    3e84:	c1 96       	adiw	r24, 0x31	; 49
    3e86:	83 36       	cpi	r24, 0x63	; 99
    3e88:	91 05       	cpc	r25, r1
    3e8a:	58 f0       	brcs	.+22     	; 0x3ea2 <main+0xf5c>
    3e8c:	f1 e6       	ldi	r31, 0x61	; 97
    3e8e:	6f 16       	cp	r6, r31
    3e90:	f9 e0       	ldi	r31, 0x09	; 9
    // d= (*d_past) +0.05*(d-(*d_past));

    d=(abs(d)<50)?0:d;
    3e92:	7f 06       	cpc	r7, r31
    3e94:	4c f4       	brge	.+18     	; 0x3ea8 <main+0xf62>
    3e96:	20 ea       	ldi	r18, 0xA0	; 160
    3e98:	62 16       	cp	r6, r18
    3e9a:	26 ef       	ldi	r18, 0xF6	; 246

    d=(d>2400)?(0):d;
    3e9c:	72 06       	cpc	r7, r18
    3e9e:	3c f0       	brlt	.+14     	; 0x3eae <main+0xf68>
    3ea0:	08 c0       	rjmp	.+16     	; 0x3eb2 <main+0xf6c>
    3ea2:	66 24       	eor	r6, r6
    3ea4:	77 24       	eor	r7, r7
    d=(d<-2400)?(0):d;
    3ea6:	05 c0       	rjmp	.+10     	; 0x3eb2 <main+0xf6c>
    3ea8:	66 24       	eor	r6, r6
    3eaa:	77 24       	eor	r7, r7
    3eac:	02 c0       	rjmp	.+4      	; 0x3eb2 <main+0xf6c>
    3eae:	66 24       	eor	r6, r6
    3eb0:	77 24       	eor	r7, r7

    
    int d=(PID_Err-(*PID_Err_past))*10 ;
    // d= (*d_past) +0.05*(d-(*d_past));

    d=(abs(d)<50)?0:d;
    3eb2:	b2 01       	movw	r22, r4
    3eb4:	88 27       	eor	r24, r24
    3eb6:	77 fd       	sbrc	r23, 7

    d=(d>2400)?(0):d;
    3eb8:	80 95       	com	r24
    3eba:	98 2f       	mov	r25, r24
    3ebc:	0e 94 d7 04 	call	0x9ae	; 0x9ae <__floatsisf>
    d=(d<-2400)?(0):d;
    3ec0:	6b 01       	movw	r12, r22

    int p=PID_Err*kp;
    3ec2:	7c 01       	movw	r14, r24
    3ec4:	29 81       	ldd	r18, Y+1	; 0x01
    3ec6:	3a 81       	ldd	r19, Y+2	; 0x02
    3ec8:	4b 81       	ldd	r20, Y+3	; 0x03
    3eca:	5c 81       	ldd	r21, Y+4	; 0x04
    3ecc:	82 2f       	mov	r24, r18
    3ece:	93 2f       	mov	r25, r19
    3ed0:	a4 2f       	mov	r26, r20
    3ed2:	b5 2f       	mov	r27, r21
    3ed4:	bc 01       	movw	r22, r24
    3ed6:	cd 01       	movw	r24, r26
    3ed8:	a7 01       	movw	r20, r14
    3eda:	96 01       	movw	r18, r12
    3edc:	0e 94 d5 02 	call	0x5aa	; 0x5aa <__mulsf3>
    3ee0:	0e 94 46 05 	call	0xa8c	; 0xa8c <__fixsfsi>
    3ee4:	a6 2e       	mov	r10, r22
    3ee6:	97 2e       	mov	r9, r23
    3ee8:	4d 81       	ldd	r20, Y+5	; 0x05
    3eea:	5e 81       	ldd	r21, Y+6	; 0x06
    3eec:	83 2d       	mov	r24, r3
    3eee:	92 2d       	mov	r25, r2
    3ef0:	a4 2f       	mov	r26, r20
    3ef2:	b5 2f       	mov	r27, r21
    3ef4:	bc 01       	movw	r22, r24
    3ef6:	cd 01       	movw	r24, r26


    (*i)=(*i)+(ki*PID_Err)*.020;
    3ef8:	a7 01       	movw	r20, r14
    3efa:	96 01       	movw	r18, r12
    3efc:	0e 94 d5 02 	call	0x5aa	; 0x5aa <__mulsf3>
    3f00:	2a e0       	ldi	r18, 0x0A	; 10
    3f02:	37 ed       	ldi	r19, 0xD7	; 215
    3f04:	43 ea       	ldi	r20, 0xA3	; 163
    3f06:	5c e3       	ldi	r21, 0x3C	; 60
    3f08:	0e 94 d5 02 	call	0x5aa	; 0x5aa <__mulsf3>
    3f0c:	20 91 27 25 	lds	r18, 0x2527
    3f10:	30 91 28 25 	lds	r19, 0x2528
    3f14:	40 91 29 25 	lds	r20, 0x2529
    3f18:	50 91 2a 25 	lds	r21, 0x252A
    3f1c:	0e 94 71 02 	call	0x4e2	; 0x4e2 <__addsf3>
    3f20:	c6 2e       	mov	r12, r22
    3f22:	f7 2e       	mov	r15, r23
    3f24:	18 2f       	mov	r17, r24
    3f26:	09 2f       	mov	r16, r25
    3f28:	86 2f       	mov	r24, r22
    3f2a:	9f 2d       	mov	r25, r15
    3f2c:	a1 2f       	mov	r26, r17
    3f2e:	b0 2f       	mov	r27, r16
    3f30:	80 93 27 25 	sts	0x2527, r24
    3f34:	90 93 28 25 	sts	0x2528, r25
    3f38:	a0 93 29 25 	sts	0x2529, r26
    3f3c:	b0 93 2a 25 	sts	0x252A, r27
    3f40:	bc 01       	movw	r22, r24
    3f42:	cd 01       	movw	r24, r26
    3f44:	20 e0       	ldi	r18, 0x00	; 0
    3f46:	30 e0       	ldi	r19, 0x00	; 0
    3f48:	40 ef       	ldi	r20, 0xF0	; 240
    3f4a:	52 e4       	ldi	r21, 0x42	; 66
    3f4c:	0e 94 7b 04 	call	0x8f6	; 0x8f6 <__gtsf2>


    if ((*i)>120)
    3f50:	18 16       	cp	r1, r24
    3f52:	6c f4       	brge	.+26     	; 0x3f6e <main+0x1028>
    3f54:	80 e0       	ldi	r24, 0x00	; 0
    3f56:	90 e0       	ldi	r25, 0x00	; 0
    3f58:	a0 ef       	ldi	r26, 0xF0	; 240
    3f5a:	b2 e4       	ldi	r27, 0x42	; 66
    3f5c:	80 93 27 25 	sts	0x2527, r24
    3f60:	90 93 28 25 	sts	0x2528, r25
        (*i)=120;
    3f64:	a0 93 29 25 	sts	0x2529, r26
    3f68:	b0 93 2a 25 	sts	0x252A, r27
    3f6c:	1a c0       	rjmp	.+52     	; 0x3fa2 <main+0x105c>
    3f6e:	8c 2d       	mov	r24, r12
    3f70:	9f 2d       	mov	r25, r15
    3f72:	a1 2f       	mov	r26, r17
    3f74:	b0 2f       	mov	r27, r16
    3f76:	bc 01       	movw	r22, r24
    3f78:	cd 01       	movw	r24, r26
    3f7a:	20 e0       	ldi	r18, 0x00	; 0
    3f7c:	30 e0       	ldi	r19, 0x00	; 0
    if ((*i)<-1200)
    3f7e:	46 e9       	ldi	r20, 0x96	; 150
    3f80:	54 ec       	ldi	r21, 0xC4	; 196
    3f82:	0e 94 a9 04 	call	0x952	; 0x952 <__ltsf2>
    3f86:	88 23       	and	r24, r24
    3f88:	64 f4       	brge	.+24     	; 0x3fa2 <main+0x105c>
    3f8a:	80 e0       	ldi	r24, 0x00	; 0
    3f8c:	90 e0       	ldi	r25, 0x00	; 0
    3f8e:	a0 ef       	ldi	r26, 0xF0	; 240
    3f90:	b2 ec       	ldi	r27, 0xC2	; 194
    3f92:	80 93 27 25 	sts	0x2527, r24
    3f96:	90 93 28 25 	sts	0x2528, r25
        (*i)=-120;
    3f9a:	a0 93 29 25 	sts	0x2529, r26
    3f9e:	b0 93 2a 25 	sts	0x252A, r27
    3fa2:	8a 2d       	mov	r24, r10
    3fa4:	99 2d       	mov	r25, r9
    3fa6:	80 38       	cpi	r24, 0x80	; 128
    3fa8:	91 05       	cpc	r25, r1
    3faa:	14 f0       	brlt	.+4      	; 0x3fb0 <main+0x106a>
    3fac:	8f e7       	ldi	r24, 0x7F	; 127
    3fae:	90 e0       	ldi	r25, 0x00	; 0
    3fb0:	3f ef       	ldi	r19, 0xFF	; 255

    p=(p>127)?(127):p;
    3fb2:	81 38       	cpi	r24, 0x81	; 129
    3fb4:	93 07       	cpc	r25, r19
    3fb6:	14 f4       	brge	.+4      	; 0x3fbc <main+0x1076>
    3fb8:	81 e8       	ldi	r24, 0x81	; 129
    3fba:	9f ef       	ldi	r25, 0xFF	; 255
    3fbc:	dc 01       	movw	r26, r24
    3fbe:	bd 01       	movw	r22, r26
    p=(p<-127)?(-127):p;
    3fc0:	88 27       	eor	r24, r24
    3fc2:	77 fd       	sbrc	r23, 7
    3fc4:	80 95       	com	r24
    3fc6:	98 2f       	mov	r25, r24
    3fc8:	0e 94 d7 04 	call	0x9ae	; 0x9ae <__floatsisf>

    //PID_U_past=PID_U;
    int PID_U=p+(*i)+kd*d;//(0.5)*PID_Err2_M1+(1.5)*(PID_Err1_M1+PID_Err2_M1);//+(12.5)*(float)(PID_Err2_M1-PID_Err1_M1)/10.0; //kp=0.5  kd=9
    3fcc:	20 91 27 25 	lds	r18, 0x2527
    3fd0:	30 91 28 25 	lds	r19, 0x2528
    3fd4:	40 91 29 25 	lds	r20, 0x2529
    3fd8:	50 91 2a 25 	lds	r21, 0x252A
    3fdc:	0e 94 71 02 	call	0x4e2	; 0x4e2 <__addsf3>
    3fe0:	6b 01       	movw	r12, r22
    3fe2:	7c 01       	movw	r14, r24
    3fe4:	b3 01       	movw	r22, r6
    3fe6:	88 27       	eor	r24, r24
    3fe8:	77 fd       	sbrc	r23, 7
    3fea:	80 95       	com	r24
    3fec:	98 2f       	mov	r25, r24
    3fee:	0e 94 d7 04 	call	0x9ae	; 0x9ae <__floatsisf>
    3ff2:	9b 01       	movw	r18, r22
    3ff4:	ac 01       	movw	r20, r24
    3ff6:	6f 81       	ldd	r22, Y+7	; 0x07
    3ff8:	78 85       	ldd	r23, Y+8	; 0x08
    3ffa:	e9 85       	ldd	r30, Y+9	; 0x09
    3ffc:	fa 85       	ldd	r31, Y+10	; 0x0a
    3ffe:	86 2f       	mov	r24, r22
    4000:	97 2f       	mov	r25, r23
    4002:	ae 2f       	mov	r26, r30
    4004:	bf 2f       	mov	r27, r31
    4006:	bc 01       	movw	r22, r24
    4008:	cd 01       	movw	r24, r26
    400a:	0e 94 d5 02 	call	0x5aa	; 0x5aa <__mulsf3>
    400e:	9b 01       	movw	r18, r22
    4010:	ac 01       	movw	r20, r24
    4012:	c7 01       	movw	r24, r14
    4014:	b6 01       	movw	r22, r12
    4016:	0e 94 71 02 	call	0x4e2	; 0x4e2 <__addsf3>
    401a:	0e 94 46 05 	call	0xa8c	; 0xa8c <__fixsfsi>
    401e:	86 2f       	mov	r24, r22
    4020:	97 2f       	mov	r25, r23
    4022:	80 38       	cpi	r24, 0x80	; 128
    4024:	91 05       	cpc	r25, r1
    4026:	14 f0       	brlt	.+4      	; 0x402c <__stack+0x2d>
    4028:	8f e7       	ldi	r24, 0x7F	; 127
    402a:	90 e0       	ldi	r25, 0x00	; 0
    402c:	40 92 23 25 	sts	0x2523, r4
    4030:	50 92 24 25 	sts	0x2524, r5
    4034:	60 92 25 25 	sts	0x2525, r6
    4038:	70 92 26 25 	sts	0x2526, r7

    if(PID_U>127)
        PID_U=127;
    if( PID_U<-127)
        PID_U=-127;
    *PID_Err_past=PID_Err;
    403c:	bf ef       	ldi	r27, 0xFF	; 255
    403e:	81 38       	cpi	r24, 0x81	; 129
    4040:	9b 07       	cpc	r25, r27
    4042:	14 f4       	brge	.+4      	; 0x4048 <__stack+0x49>
	*d_past=d;
    4044:	81 e8       	ldi	r24, 0x81	; 129
    4046:	9f ef       	ldi	r25, 0xFF	; 255
    4048:	80 93 2d 25 	sts	0x252D, r24
            ki = (float)Robot_D[RobotID].I/100.0;
            kd = (float)Robot_D[RobotID].D/100.0;
            ctrlflg = 0;
            M0.PWM=PD_CTRL(Robot_D[RobotID].M0b|(Robot_D[RobotID].M0a<<8),M0.Speed,&M0.Err,&M0.d,&M0.i);
            M1.PWM=PD_CTRL((Robot_D[RobotID].M1b|(Robot_D[RobotID].M1a<<8)),M1.Speed,&M1.Err,&M1.d,&M1.i);
            M2.PWM=PD_CTRL((Robot_D[RobotID].M2b|(Robot_D[RobotID].M2a<<8)),M2.Speed,&M2.Err,&M2.d,&M2.i);
    404c:	e8 e0       	ldi	r30, 0x08	; 8
    404e:	f6 e0       	ldi	r31, 0x06	; 6
    4050:	b0 81       	ld	r27, Z
    4052:	70 81       	ld	r23, Z
    4054:	a0 81       	ld	r26, Z
    4056:	10 81       	ld	r17, Z
    4058:	30 81       	ld	r19, Z
    405a:	80 81       	ld	r24, Z
            M3.PWM=PD_CTRL((Robot_D[RobotID].M3b|(Robot_D[RobotID].M3a<<8)),M3.Speed,&M3.Err,&M3.d,&M3.i);
    405c:	20 81       	ld	r18, Z
    405e:	60 81       	ld	r22, Z
    4060:	90 e0       	ldi	r25, 0x00	; 0
    4062:	80 71       	andi	r24, 0x10	; 16
    4064:	90 70       	andi	r25, 0x00	; 0
    4066:	95 95       	asr	r25
    4068:	87 95       	ror	r24
    406a:	95 95       	asr	r25
    406c:	87 95       	ror	r24
    406e:	95 95       	asr	r25
    4070:	87 95       	ror	r24
    4072:	95 95       	asr	r25
    4074:	87 95       	ror	r24
    4076:	ac 01       	movw	r20, r24
    4078:	44 0f       	add	r20, r20
    407a:	55 1f       	adc	r21, r21
    407c:	82 2f       	mov	r24, r18
    407e:	88 1f       	adc	r24, r24
    4080:	88 27       	eor	r24, r24
    4082:	88 1f       	adc	r24, r24
    4084:	90 e0       	ldi	r25, 0x00	; 0
    4086:	88 0f       	add	r24, r24
    4088:	99 1f       	adc	r25, r25
    408a:	88 0f       	add	r24, r24
    408c:	99 1f       	adc	r25, r25
    408e:	48 2b       	or	r20, r24
    4090:	59 2b       	or	r21, r25
    4092:	83 2f       	mov	r24, r19
    4094:	90 e0       	ldi	r25, 0x00	; 0
    4096:	80 74       	andi	r24, 0x40	; 64
    4098:	90 70       	andi	r25, 0x00	; 0
    409a:	08 2e       	mov	r0, r24
    409c:	89 2f       	mov	r24, r25
    409e:	00 0c       	add	r0, r0
    40a0:	88 1f       	adc	r24, r24
    40a2:	99 0b       	sbc	r25, r25
    40a4:	00 0c       	add	r0, r0
    40a6:	88 1f       	adc	r24, r24
    40a8:	99 1f       	adc	r25, r25
    40aa:	48 2b       	or	r20, r24
    40ac:	59 2b       	or	r21, r25
    40ae:	86 2f       	mov	r24, r22
    40b0:	90 e0       	ldi	r25, 0x00	; 0
    40b2:	80 72       	andi	r24, 0x20	; 32
    40b4:	90 70       	andi	r25, 0x00	; 0
    40b6:	95 95       	asr	r25
    40b8:	87 95       	ror	r24
    40ba:	95 95       	asr	r25
    40bc:	87 95       	ror	r24
    40be:	95 95       	asr	r25
    40c0:	87 95       	ror	r24
    40c2:	95 95       	asr	r25
    40c4:	87 95       	ror	r24
    40c6:	95 95       	asr	r25
    40c8:	87 95       	ror	r24
    40ca:	88 0f       	add	r24, r24
    40cc:	99 1f       	adc	r25, r25
    40ce:	88 0f       	add	r24, r24
    40d0:	99 1f       	adc	r25, r25
    40d2:	88 0f       	add	r24, r24
    40d4:	99 1f       	adc	r25, r25
    40d6:	9a 01       	movw	r18, r20
    40d8:	28 2b       	or	r18, r24
    40da:	39 2b       	or	r19, r25
    40dc:	46 eb       	ldi	r20, 0xB6	; 182
    40de:	51 e2       	ldi	r21, 0x21	; 33
    40e0:	c9 01       	movw	r24, r18
    40e2:	88 0f       	add	r24, r24
    40e4:	99 1f       	adc	r25, r25
    40e6:	82 0f       	add	r24, r18
    40e8:	93 1f       	adc	r25, r19
    40ea:	88 0f       	add	r24, r24
    40ec:	99 1f       	adc	r25, r25
    40ee:	88 0f       	add	r24, r24
    40f0:	99 1f       	adc	r25, r25
    40f2:	88 0f       	add	r24, r24
    40f4:	99 1f       	adc	r25, r25
    40f6:	82 1b       	sub	r24, r18
    40f8:	93 0b       	sbc	r25, r19
    40fa:	84 0f       	add	r24, r20
    40fc:	95 1f       	adc	r25, r21
    40fe:	fc 01       	movw	r30, r24
    4100:	f5 85       	ldd	r31, Z+13	; 0x0d
    4102:	fa 8b       	std	Y+18, r31	; 0x12
    4104:	19 8a       	std	Y+17, r1	; 0x11
    4106:	87 2f       	mov	r24, r23
    4108:	90 e0       	ldi	r25, 0x00	; 0
    410a:	80 71       	andi	r24, 0x10	; 16
    410c:	90 70       	andi	r25, 0x00	; 0
    410e:	95 95       	asr	r25
    4110:	87 95       	ror	r24
    4112:	95 95       	asr	r25
    4114:	87 95       	ror	r24
    4116:	95 95       	asr	r25
    4118:	87 95       	ror	r24
    411a:	95 95       	asr	r25
    411c:	87 95       	ror	r24
    411e:	9c 01       	movw	r18, r24
    4120:	22 0f       	add	r18, r18
    4122:	33 1f       	adc	r19, r19
    4124:	8a 2f       	mov	r24, r26
    4126:	88 1f       	adc	r24, r24
    4128:	88 27       	eor	r24, r24
    412a:	88 1f       	adc	r24, r24
    412c:	90 e0       	ldi	r25, 0x00	; 0
    412e:	88 0f       	add	r24, r24
    4130:	99 1f       	adc	r25, r25
    4132:	88 0f       	add	r24, r24
    4134:	99 1f       	adc	r25, r25
    4136:	28 2b       	or	r18, r24
    4138:	39 2b       	or	r19, r25
    413a:	8b 2f       	mov	r24, r27
    413c:	90 e0       	ldi	r25, 0x00	; 0
    413e:	80 74       	andi	r24, 0x40	; 64
    4140:	90 70       	andi	r25, 0x00	; 0
    4142:	08 2e       	mov	r0, r24
    4144:	89 2f       	mov	r24, r25
    4146:	00 0c       	add	r0, r0
    4148:	88 1f       	adc	r24, r24
    414a:	99 0b       	sbc	r25, r25
    414c:	00 0c       	add	r0, r0
    414e:	88 1f       	adc	r24, r24
    4150:	99 1f       	adc	r25, r25
    4152:	28 2b       	or	r18, r24
    4154:	39 2b       	or	r19, r25
    4156:	81 2f       	mov	r24, r17
    4158:	90 e0       	ldi	r25, 0x00	; 0
    415a:	80 72       	andi	r24, 0x20	; 32
    415c:	90 70       	andi	r25, 0x00	; 0
    415e:	95 95       	asr	r25
    4160:	87 95       	ror	r24
    4162:	95 95       	asr	r25
    4164:	87 95       	ror	r24
    4166:	95 95       	asr	r25
    4168:	87 95       	ror	r24
    416a:	95 95       	asr	r25
    416c:	87 95       	ror	r24
    416e:	95 95       	asr	r25
    4170:	87 95       	ror	r24
    4172:	88 0f       	add	r24, r24
    4174:	99 1f       	adc	r25, r25
    4176:	88 0f       	add	r24, r24
    4178:	99 1f       	adc	r25, r25
    417a:	88 0f       	add	r24, r24
    417c:	99 1f       	adc	r25, r25
    417e:	82 2b       	or	r24, r18
    4180:	93 2b       	or	r25, r19
    4182:	fc 01       	movw	r30, r24
    4184:	ee 0f       	add	r30, r30
    4186:	ff 1f       	adc	r31, r31
    4188:	e8 0f       	add	r30, r24
    418a:	f9 1f       	adc	r31, r25
    418c:	ee 0f       	add	r30, r30
    418e:	ff 1f       	adc	r31, r31
    4190:	ee 0f       	add	r30, r30
    4192:	ff 1f       	adc	r31, r31
    4194:	ee 0f       	add	r30, r30
    4196:	ff 1f       	adc	r31, r31
    4198:	e8 1b       	sub	r30, r24
    419a:	f9 0b       	sbc	r31, r25
    419c:	e4 0f       	add	r30, r20
    419e:	f5 1f       	adc	r31, r21
    41a0:	87 85       	ldd	r24, Z+15	; 0x0f
    41a2:	90 89       	ldd	r25, Z+16	; 0x10
    41a4:	29 89       	ldd	r18, Y+17	; 0x11
    41a6:	3a 89       	ldd	r19, Y+18	; 0x12
    41a8:	82 2b       	or	r24, r18
    41aa:	93 2b       	or	r25, r19
    41ac:	3c 01       	movw	r6, r24
    41ae:	a9 a1       	lds	r26, 0x49
    41b0:	ba a1       	lds	r27, 0x4a
    41b2:	6a 1a       	sub	r6, r26
    41b4:	7b 0a       	sbc	r7, r27
    41b6:	80 91 b3 24 	lds	r24, 0x24B3
    41ba:	90 91 b4 24 	lds	r25, 0x24B4
{

    //Setpoint=(40*Setpoint);
    

    int PID_Err=Setpoint-Feed_Back;
    41be:	f3 01       	movw	r30, r6
    41c0:	e8 1b       	sub	r30, r24
    41c2:	f9 0b       	sbc	r31, r25
    41c4:	cf 01       	movw	r24, r30

    
    int d=(PID_Err-(*PID_Err_past))*10 ;
    41c6:	9f 01       	movw	r18, r30
    41c8:	22 0f       	add	r18, r18
    41ca:	33 1f       	adc	r19, r19
    41cc:	88 0f       	add	r24, r24
    41ce:	99 1f       	adc	r25, r25
    41d0:	88 0f       	add	r24, r24
    41d2:	99 1f       	adc	r25, r25
    41d4:	88 0f       	add	r24, r24
    41d6:	99 1f       	adc	r25, r25
    41d8:	59 01       	movw	r10, r18
    41da:	a8 0e       	add	r10, r24
    41dc:	b9 1e       	adc	r11, r25
    41de:	c5 01       	movw	r24, r10
    41e0:	c1 96       	adiw	r24, 0x31	; 49
    41e2:	83 36       	cpi	r24, 0x63	; 99
    41e4:	91 05       	cpc	r25, r1
    41e6:	58 f0       	brcs	.+22     	; 0x41fe <__stack+0x1ff>
    41e8:	f1 e6       	ldi	r31, 0x61	; 97
    41ea:	af 16       	cp	r10, r31
    41ec:	f9 e0       	ldi	r31, 0x09	; 9
    // d= (*d_past) +0.05*(d-(*d_past));

    d=(abs(d)<50)?0:d;
    41ee:	bf 06       	cpc	r11, r31
    41f0:	4c f4       	brge	.+18     	; 0x4204 <__stack+0x205>
    41f2:	20 ea       	ldi	r18, 0xA0	; 160
    41f4:	a2 16       	cp	r10, r18
    41f6:	26 ef       	ldi	r18, 0xF6	; 246

    d=(d>2400)?(0):d;
    41f8:	b2 06       	cpc	r11, r18
    41fa:	3c f0       	brlt	.+14     	; 0x420a <__stack+0x20b>
    41fc:	08 c0       	rjmp	.+16     	; 0x420e <__stack+0x20f>
    41fe:	aa 24       	eor	r10, r10
    4200:	bb 24       	eor	r11, r11
    d=(d<-2400)?(0):d;
    4202:	05 c0       	rjmp	.+10     	; 0x420e <__stack+0x20f>
    4204:	aa 24       	eor	r10, r10
    4206:	bb 24       	eor	r11, r11
    4208:	02 c0       	rjmp	.+4      	; 0x420e <__stack+0x20f>
    420a:	aa 24       	eor	r10, r10
    420c:	bb 24       	eor	r11, r11

    
    int d=(PID_Err-(*PID_Err_past))*10 ;
    // d= (*d_past) +0.05*(d-(*d_past));

    d=(abs(d)<50)?0:d;
    420e:	b3 01       	movw	r22, r6
    4210:	88 27       	eor	r24, r24
    4212:	77 fd       	sbrc	r23, 7

    d=(d>2400)?(0):d;
    4214:	80 95       	com	r24
    4216:	98 2f       	mov	r25, r24
    4218:	0e 94 d7 04 	call	0x9ae	; 0x9ae <__floatsisf>
    d=(d<-2400)?(0):d;
    421c:	6b 01       	movw	r12, r22

    int p=PID_Err*kp;
    421e:	7c 01       	movw	r14, r24
    4220:	29 81       	ldd	r18, Y+1	; 0x01
    4222:	3a 81       	ldd	r19, Y+2	; 0x02
    4224:	4b 81       	ldd	r20, Y+3	; 0x03
    4226:	5c 81       	ldd	r21, Y+4	; 0x04
    4228:	82 2f       	mov	r24, r18
    422a:	93 2f       	mov	r25, r19
    422c:	a4 2f       	mov	r26, r20
    422e:	b5 2f       	mov	r27, r21
    4230:	bc 01       	movw	r22, r24
    4232:	cd 01       	movw	r24, r26
    4234:	a7 01       	movw	r20, r14
    4236:	96 01       	movw	r18, r12
    4238:	0e 94 d5 02 	call	0x5aa	; 0x5aa <__mulsf3>
    423c:	0e 94 46 05 	call	0xa8c	; 0xa8c <__fixsfsi>
    4240:	96 2e       	mov	r9, r22
    4242:	87 2e       	mov	r8, r23
    4244:	4d 81       	ldd	r20, Y+5	; 0x05
    4246:	5e 81       	ldd	r21, Y+6	; 0x06
    4248:	83 2d       	mov	r24, r3
    424a:	92 2d       	mov	r25, r2
    424c:	a4 2f       	mov	r26, r20
    424e:	b5 2f       	mov	r27, r21
    4250:	bc 01       	movw	r22, r24
    4252:	cd 01       	movw	r24, r26


    (*i)=(*i)+(ki*PID_Err)*.020;
    4254:	a7 01       	movw	r20, r14
    4256:	96 01       	movw	r18, r12
    4258:	0e 94 d5 02 	call	0x5aa	; 0x5aa <__mulsf3>
    425c:	2a e0       	ldi	r18, 0x0A	; 10
    425e:	37 ed       	ldi	r19, 0xD7	; 215
    4260:	43 ea       	ldi	r20, 0xA3	; 163
    4262:	5c e3       	ldi	r21, 0x3C	; 60
    4264:	0e 94 d5 02 	call	0x5aa	; 0x5aa <__mulsf3>
    4268:	20 91 b7 24 	lds	r18, 0x24B7
    426c:	30 91 b8 24 	lds	r19, 0x24B8
    4270:	40 91 b9 24 	lds	r20, 0x24B9
    4274:	50 91 ba 24 	lds	r21, 0x24BA
    4278:	0e 94 71 02 	call	0x4e2	; 0x4e2 <__addsf3>
    427c:	c6 2e       	mov	r12, r22
    427e:	f7 2e       	mov	r15, r23
    4280:	18 2f       	mov	r17, r24
    4282:	09 2f       	mov	r16, r25
    4284:	86 2f       	mov	r24, r22
    4286:	9f 2d       	mov	r25, r15
    4288:	a1 2f       	mov	r26, r17
    428a:	b0 2f       	mov	r27, r16
    428c:	80 93 b7 24 	sts	0x24B7, r24
    4290:	90 93 b8 24 	sts	0x24B8, r25
    4294:	a0 93 b9 24 	sts	0x24B9, r26
    4298:	b0 93 ba 24 	sts	0x24BA, r27
    429c:	bc 01       	movw	r22, r24
    429e:	cd 01       	movw	r24, r26
    42a0:	20 e0       	ldi	r18, 0x00	; 0
    42a2:	30 e0       	ldi	r19, 0x00	; 0
    42a4:	40 ef       	ldi	r20, 0xF0	; 240
    42a6:	52 e4       	ldi	r21, 0x42	; 66
    42a8:	0e 94 7b 04 	call	0x8f6	; 0x8f6 <__gtsf2>


    if ((*i)>120)
    42ac:	18 16       	cp	r1, r24
    42ae:	6c f4       	brge	.+26     	; 0x42ca <__stack+0x2cb>
    42b0:	80 e0       	ldi	r24, 0x00	; 0
    42b2:	90 e0       	ldi	r25, 0x00	; 0
    42b4:	a0 ef       	ldi	r26, 0xF0	; 240
    42b6:	b2 e4       	ldi	r27, 0x42	; 66
    42b8:	80 93 b7 24 	sts	0x24B7, r24
    42bc:	90 93 b8 24 	sts	0x24B8, r25
        (*i)=120;
    42c0:	a0 93 b9 24 	sts	0x24B9, r26
    42c4:	b0 93 ba 24 	sts	0x24BA, r27
    42c8:	1a c0       	rjmp	.+52     	; 0x42fe <__stack+0x2ff>
    42ca:	8c 2d       	mov	r24, r12
    42cc:	9f 2d       	mov	r25, r15
    42ce:	a1 2f       	mov	r26, r17
    42d0:	b0 2f       	mov	r27, r16
    42d2:	bc 01       	movw	r22, r24
    42d4:	cd 01       	movw	r24, r26
    42d6:	20 e0       	ldi	r18, 0x00	; 0
    42d8:	30 e0       	ldi	r19, 0x00	; 0
    if ((*i)<-1200)
    42da:	46 e9       	ldi	r20, 0x96	; 150
    42dc:	54 ec       	ldi	r21, 0xC4	; 196
    42de:	0e 94 a9 04 	call	0x952	; 0x952 <__ltsf2>
    42e2:	88 23       	and	r24, r24
    42e4:	64 f4       	brge	.+24     	; 0x42fe <__stack+0x2ff>
    42e6:	80 e0       	ldi	r24, 0x00	; 0
    42e8:	90 e0       	ldi	r25, 0x00	; 0
    42ea:	a0 ef       	ldi	r26, 0xF0	; 240
    42ec:	b2 ec       	ldi	r27, 0xC2	; 194
    42ee:	80 93 b7 24 	sts	0x24B7, r24
    42f2:	90 93 b8 24 	sts	0x24B8, r25
        (*i)=-120;
    42f6:	a0 93 b9 24 	sts	0x24B9, r26
    42fa:	b0 93 ba 24 	sts	0x24BA, r27
    42fe:	89 2d       	mov	r24, r9
    4300:	98 2d       	mov	r25, r8
    4302:	80 38       	cpi	r24, 0x80	; 128
    4304:	91 05       	cpc	r25, r1
    4306:	14 f0       	brlt	.+4      	; 0x430c <__stack+0x30d>
    4308:	8f e7       	ldi	r24, 0x7F	; 127
    430a:	90 e0       	ldi	r25, 0x00	; 0
    430c:	3f ef       	ldi	r19, 0xFF	; 255

    p=(p>127)?(127):p;
    430e:	81 38       	cpi	r24, 0x81	; 129
    4310:	93 07       	cpc	r25, r19
    4312:	14 f4       	brge	.+4      	; 0x4318 <__stack+0x319>
    4314:	81 e8       	ldi	r24, 0x81	; 129
    4316:	9f ef       	ldi	r25, 0xFF	; 255
    4318:	dc 01       	movw	r26, r24
    431a:	bd 01       	movw	r22, r26
    p=(p<-127)?(-127):p;
    431c:	88 27       	eor	r24, r24
    431e:	77 fd       	sbrc	r23, 7
    4320:	80 95       	com	r24
    4322:	98 2f       	mov	r25, r24
    4324:	0e 94 d7 04 	call	0x9ae	; 0x9ae <__floatsisf>

    //PID_U_past=PID_U;
    int PID_U=p+(*i)+kd*d;//(0.5)*PID_Err2_M1+(1.5)*(PID_Err1_M1+PID_Err2_M1);//+(12.5)*(float)(PID_Err2_M1-PID_Err1_M1)/10.0; //kp=0.5  kd=9
    4328:	20 91 b7 24 	lds	r18, 0x24B7
    432c:	30 91 b8 24 	lds	r19, 0x24B8
    4330:	40 91 b9 24 	lds	r20, 0x24B9
    4334:	50 91 ba 24 	lds	r21, 0x24BA
    4338:	0e 94 71 02 	call	0x4e2	; 0x4e2 <__addsf3>
    433c:	6b 01       	movw	r12, r22
    433e:	7c 01       	movw	r14, r24
    4340:	b5 01       	movw	r22, r10
    4342:	88 27       	eor	r24, r24
    4344:	77 fd       	sbrc	r23, 7
    4346:	80 95       	com	r24
    4348:	98 2f       	mov	r25, r24
    434a:	0e 94 d7 04 	call	0x9ae	; 0x9ae <__floatsisf>
    434e:	9b 01       	movw	r18, r22
    4350:	ac 01       	movw	r20, r24
    4352:	6f 81       	ldd	r22, Y+7	; 0x07
    4354:	78 85       	ldd	r23, Y+8	; 0x08
    4356:	e9 85       	ldd	r30, Y+9	; 0x09
    4358:	fa 85       	ldd	r31, Y+10	; 0x0a
    435a:	86 2f       	mov	r24, r22
    435c:	97 2f       	mov	r25, r23
    435e:	ae 2f       	mov	r26, r30
    4360:	bf 2f       	mov	r27, r31
    4362:	bc 01       	movw	r22, r24
    4364:	cd 01       	movw	r24, r26
    4366:	0e 94 d5 02 	call	0x5aa	; 0x5aa <__mulsf3>
    436a:	9b 01       	movw	r18, r22
    436c:	ac 01       	movw	r20, r24
    436e:	c7 01       	movw	r24, r14
    4370:	b6 01       	movw	r22, r12
    4372:	0e 94 71 02 	call	0x4e2	; 0x4e2 <__addsf3>
    4376:	0e 94 46 05 	call	0xa8c	; 0xa8c <__fixsfsi>
    437a:	86 2f       	mov	r24, r22
    437c:	97 2f       	mov	r25, r23
    437e:	80 38       	cpi	r24, 0x80	; 128
    4380:	91 05       	cpc	r25, r1
    4382:	14 f0       	brlt	.+4      	; 0x4388 <__stack+0x389>
    4384:	8f e7       	ldi	r24, 0x7F	; 127
    4386:	90 e0       	ldi	r25, 0x00	; 0
    4388:	60 92 b3 24 	sts	0x24B3, r6
    438c:	70 92 b4 24 	sts	0x24B4, r7
    4390:	a0 92 b5 24 	sts	0x24B5, r10
    4394:	b0 92 b6 24 	sts	0x24B6, r11

    if(PID_U>127)
        PID_U=127;
    if( PID_U<-127)
        PID_U=-127;
    *PID_Err_past=PID_Err;
    4398:	bf ef       	ldi	r27, 0xFF	; 255
    439a:	81 38       	cpi	r24, 0x81	; 129
    439c:	9b 07       	cpc	r25, r27
    439e:	14 f4       	brge	.+4      	; 0x43a4 <__stack+0x3a5>
	*d_past=d;
    43a0:	81 e8       	ldi	r24, 0x81	; 129
    43a2:	9f ef       	ldi	r25, 0xFF	; 255
    43a4:	80 93 bd 24 	sts	0x24BD, r24
            kd = (float)Robot_D[RobotID].D/100.0;
            ctrlflg = 0;
            M0.PWM=PD_CTRL(Robot_D[RobotID].M0b|(Robot_D[RobotID].M0a<<8),M0.Speed,&M0.Err,&M0.d,&M0.i);
            M1.PWM=PD_CTRL((Robot_D[RobotID].M1b|(Robot_D[RobotID].M1a<<8)),M1.Speed,&M1.Err,&M1.d,&M1.i);
            M2.PWM=PD_CTRL((Robot_D[RobotID].M2b|(Robot_D[RobotID].M2a<<8)),M2.Speed,&M2.Err,&M2.d,&M2.i);
            M3.PWM=PD_CTRL((Robot_D[RobotID].M3b|(Robot_D[RobotID].M3a<<8)),M3.Speed,&M3.Err,&M3.d,&M3.i);
    43a8:	80 ea       	ldi	r24, 0xA0	; 160
    43aa:	9b e0       	ldi	r25, 0x0B	; 11
    43ac:	6a e2       	ldi	r22, 0x2A	; 42
    43ae:	0e 94 31 15 	call	0x2a62	; 0x2a62 <usart_putchar>
    43b2:	80 ea       	ldi	r24, 0xA0	; 160
    43b4:	9b e0       	ldi	r25, 0x0B	; 11
    43b6:	6e e7       	ldi	r22, 0x7E	; 126
			
			usart_putchar(&USARTF0,'*');
    43b8:	0e 94 31 15 	call	0x2a62	; 0x2a62 <usart_putchar>
    43bc:	80 ea       	ldi	r24, 0xA0	; 160
    43be:	9b e0       	ldi	r25, 0x0B	; 11
    43c0:	60 91 89 24 	lds	r22, 0x2489
			usart_putchar(&USARTF0,'~');
    43c4:	0e 94 31 15 	call	0x2a62	; 0x2a62 <usart_putchar>
    43c8:	80 ea       	ldi	r24, 0xA0	; 160
    43ca:	9b e0       	ldi	r25, 0x0B	; 11
			usart_putchar(&USARTF0,M0.PWM);
    43cc:	60 91 17 25 	lds	r22, 0x2517
    43d0:	0e 94 31 15 	call	0x2a62	; 0x2a62 <usart_putchar>
    43d4:	80 ea       	ldi	r24, 0xA0	; 160
    43d6:	9b e0       	ldi	r25, 0x0B	; 11
			usart_putchar(&USARTF0,M1.PWM);
    43d8:	60 91 2d 25 	lds	r22, 0x252D
    43dc:	0e 94 31 15 	call	0x2a62	; 0x2a62 <usart_putchar>
    43e0:	80 ea       	ldi	r24, 0xA0	; 160
    43e2:	9b e0       	ldi	r25, 0x0B	; 11
			usart_putchar(&USARTF0,M2.PWM);
    43e4:	60 91 bd 24 	lds	r22, 0x24BD
    43e8:	0e 94 31 15 	call	0x2a62	; 0x2a62 <usart_putchar>
    43ec:	80 ea       	ldi	r24, 0xA0	; 160
    43ee:	9b e0       	ldi	r25, 0x0B	; 11
			usart_putchar(&USARTF0,M3.PWM);
    43f0:	63 e2       	ldi	r22, 0x23	; 35
    43f2:	0e 94 31 15 	call	0x2a62	; 0x2a62 <usart_putchar>
    43f6:	2f b7       	in	r18, 0x3f	; 63
    43f8:	f8 94       	cli
    43fa:	e0 e0       	ldi	r30, 0x00	; 0
			usart_putchar(&USARTF0,'#');
    43fc:	f2 e0       	ldi	r31, 0x02	; 2
    43fe:	84 a1       	lds	r24, 0x44
    4400:	95 a1       	lds	r25, 0x45
    4402:	2f bf       	out	0x3f, r18	; 63
    4404:	80 93 a7 21 	sts	0x21A7, r24
typedef uint8_t irqflags_t;

static inline irqflags_t cpu_irq_save(void)
{
	irqflags_t flags = SREG;
	cpu_irq_disable();
    4408:	90 93 a8 21 	sts	0x21A8, r25
	ADC_CH_t   *adc_ch;

	adc_ch = adc_get_channel(adc, ch_mask);

	flags = cpu_irq_save();
	val = adc_ch->RES;
    440c:	e4 e0       	ldi	r30, 0x04	; 4
    440e:	89 3d       	cpi	r24, 0xD9	; 217
    4410:	9e 07       	cpc	r25, r30
}

static inline void cpu_irq_restore(irqflags_t flags)
{
	barrier();
	SREG = flags;
    4412:	3c f4       	brge	.+14     	; 0x4422 <__stack+0x423>
			
			//Buzzer_PORT.OUTSET = Buzzer_PIN_bm;
			
			
            adc = adc_get_unsigned_result(&ADCA,ADC_CH0);
    4414:	e0 e4       	ldi	r30, 0x40	; 64
    4416:	f6 e0       	ldi	r31, 0x06	; 6
    4418:	80 e4       	ldi	r24, 0x40	; 64
    441a:	85 83       	std	Z+5, r24	; 0x05

            if (adc<=1240)
    441c:	84 e0       	ldi	r24, 0x04	; 4
    441e:	85 83       	std	Z+5, r24	; 0x05
    4420:	06 c0       	rjmp	.+12     	; 0x442e <__stack+0x42f>
    4422:	e0 e4       	ldi	r30, 0x40	; 64
            {
                Buzzer_PORT.OUTSET = Buzzer_PIN_bm;//10.3 volt
    4424:	f6 e0       	ldi	r31, 0x06	; 6
    4426:	80 e4       	ldi	r24, 0x40	; 64
    4428:	86 83       	std	Z+6, r24	; 0x06
    442a:	84 e0       	ldi	r24, 0x04	; 4
				PORTC.OUTSET = PIN2_bm ;
    442c:	86 83       	std	Z+6, r24	; 0x06
    442e:	80 e0       	ldi	r24, 0x00	; 0
    4430:	60 e0       	ldi	r22, 0x00	; 0
            }
			else
			{
			    Buzzer_PORT.OUTCLR = Buzzer_PIN_bm;
    4432:	0e 94 67 09 	call	0x12ce	; 0x12ce <LCDGotoXY>
    4436:	2d b7       	in	r18, 0x3d	; 61
    4438:	3e b7       	in	r19, 0x3e	; 62
				PORTC.OUTCLR = PIN2_bm ;
    443a:	28 50       	subi	r18, 0x08	; 8
    443c:	30 40       	sbci	r19, 0x00	; 0
			}				

            LCDGotoXY(0,0);
    443e:	2d bf       	out	0x3d, r18	; 61
    4440:	3e bf       	out	0x3e, r19	; 62
    4442:	ed b7       	in	r30, 0x3d	; 61
    4444:	fe b7       	in	r31, 0x3e	; 62
            sprintf(str,"%3d,%3d",Robot_D[4].M0b|(Robot_D[4].M0a<<8),Buf_Rx_L[4]);
    4446:	31 96       	adiw	r30, 0x01	; 1
    4448:	0a ed       	ldi	r16, 0xDA	; 218
    444a:	14 e2       	ldi	r17, 0x24	; 36
    444c:	ad b7       	in	r26, 0x3d	; 61
    444e:	be b7       	in	r27, 0x3e	; 62
    4450:	11 96       	adiw	r26, 0x01	; 1
    4452:	0d 93       	st	X+, r16
    4454:	1c 93       	st	X, r17
    4456:	12 97       	sbiw	r26, 0x02	; 2
    4458:	80 e0       	ldi	r24, 0x00	; 0
    445a:	90 e2       	ldi	r25, 0x20	; 32
    445c:	82 83       	std	Z+2, r24	; 0x02
    445e:	93 83       	std	Z+3, r25	; 0x03
    4460:	b0 91 13 22 	lds	r27, 0x2213
    4464:	bc 8b       	std	Y+20, r27	; 0x14
    4466:	1b 8a       	std	Y+19, r1	; 0x13
    4468:	80 91 15 22 	lds	r24, 0x2215
    446c:	90 91 16 22 	lds	r25, 0x2216
    4470:	2b 89       	ldd	r18, Y+19	; 0x13
    4472:	3c 89       	ldd	r19, Y+20	; 0x14
    4474:	82 2b       	or	r24, r18
    4476:	93 2b       	or	r25, r19
    4478:	84 83       	std	Z+4, r24	; 0x04
    447a:	95 83       	std	Z+5, r25	; 0x05
    447c:	80 91 4d 24 	lds	r24, 0x244D
    4480:	86 83       	std	Z+6, r24	; 0x06
    4482:	17 82       	std	Z+7, r1	; 0x07
    4484:	0e 94 59 32 	call	0x64b2	; 0x64b2 <sprintf>
    4488:	8d b7       	in	r24, 0x3d	; 61
    448a:	9e b7       	in	r25, 0x3e	; 62
    448c:	08 96       	adiw	r24, 0x08	; 8
    448e:	8d bf       	out	0x3d, r24	; 61
    4490:	9e bf       	out	0x3e, r25	; 62
    4492:	c8 01       	movw	r24, r16
    4494:	0e 94 59 09 	call	0x12b2	; 0x12b2 <LCDStringRam>
            LCDStringRam(str);
    4498:	80 e0       	ldi	r24, 0x00	; 0
    449a:	61 e0       	ldi	r22, 0x01	; 1
    449c:	0e 94 67 09 	call	0x12ce	; 0x12ce <LCDGotoXY>
    44a0:	00 d0       	rcall	.+0      	; 0x44a2 <__stack+0x4a3>
    44a2:	00 d0       	rcall	.+0      	; 0x44a4 <__stack+0x4a5>
    44a4:	ed b7       	in	r30, 0x3d	; 61
    44a6:	fe b7       	in	r31, 0x3e	; 62
			LCDGotoXY(0,1);
    44a8:	31 96       	adiw	r30, 0x01	; 1
    44aa:	ad b7       	in	r26, 0x3d	; 61
    44ac:	be b7       	in	r27, 0x3e	; 62
    44ae:	11 96       	adiw	r26, 0x01	; 1
			sprintf(str,"%4d",M0.Speed);
    44b0:	0d 93       	st	X+, r16
    44b2:	1c 93       	st	X, r17
    44b4:	12 97       	sbiw	r26, 0x02	; 2
    44b6:	88 e0       	ldi	r24, 0x08	; 8
    44b8:	90 e2       	ldi	r25, 0x20	; 32
    44ba:	82 83       	std	Z+2, r24	; 0x02
    44bc:	93 83       	std	Z+3, r25	; 0x03
    44be:	ab e7       	ldi	r26, 0x7B	; 123
    44c0:	b4 e2       	ldi	r27, 0x24	; 36
    44c2:	8d 91       	ld	r24, X+
    44c4:	9c 91       	ld	r25, X
    44c6:	84 83       	std	Z+4, r24	; 0x04
    44c8:	95 83       	std	Z+5, r25	; 0x05
    44ca:	0e 94 59 32 	call	0x64b2	; 0x64b2 <sprintf>
    44ce:	ed b7       	in	r30, 0x3d	; 61
    44d0:	fe b7       	in	r31, 0x3e	; 62
    44d2:	36 96       	adiw	r30, 0x06	; 6
    44d4:	ed bf       	out	0x3d, r30	; 61
    44d6:	fe bf       	out	0x3e, r31	; 62
    44d8:	c8 01       	movw	r24, r16
    44da:	0e 94 59 09 	call	0x12b2	; 0x12b2 <LCDStringRam>
			LCDStringRam(str);
    44de:	e8 e0       	ldi	r30, 0x08	; 8
    44e0:	f6 e0       	ldi	r31, 0x06	; 6
    44e2:	30 81       	ld	r19, Z
    44e4:	80 81       	ld	r24, Z
    44e6:	20 81       	ld	r18, Z
    44e8:	60 81       	ld	r22, Z
    44ea:	90 e0       	ldi	r25, 0x00	; 0
    44ec:	80 71       	andi	r24, 0x10	; 16
			//LCDGotoXY(0,1);
			//sprintf(str,"salam");
			//LCDStringRam(str);

	            if ((Robot_D[RobotID].KCK))
    44ee:	90 70       	andi	r25, 0x00	; 0
    44f0:	95 95       	asr	r25
    44f2:	87 95       	ror	r24
    44f4:	95 95       	asr	r25
    44f6:	87 95       	ror	r24
    44f8:	95 95       	asr	r25
    44fa:	87 95       	ror	r24
    44fc:	95 95       	asr	r25
    44fe:	87 95       	ror	r24
    4500:	ac 01       	movw	r20, r24
    4502:	44 0f       	add	r20, r20
    4504:	55 1f       	adc	r21, r21
    4506:	82 2f       	mov	r24, r18
    4508:	88 1f       	adc	r24, r24
    450a:	88 27       	eor	r24, r24
    450c:	88 1f       	adc	r24, r24
    450e:	90 e0       	ldi	r25, 0x00	; 0
    4510:	88 0f       	add	r24, r24
    4512:	99 1f       	adc	r25, r25
    4514:	88 0f       	add	r24, r24
    4516:	99 1f       	adc	r25, r25
    4518:	48 2b       	or	r20, r24
    451a:	59 2b       	or	r21, r25
    451c:	83 2f       	mov	r24, r19
    451e:	90 e0       	ldi	r25, 0x00	; 0
    4520:	80 74       	andi	r24, 0x40	; 64
    4522:	90 70       	andi	r25, 0x00	; 0
    4524:	08 2e       	mov	r0, r24
    4526:	89 2f       	mov	r24, r25
    4528:	00 0c       	add	r0, r0
    452a:	88 1f       	adc	r24, r24
    452c:	99 0b       	sbc	r25, r25
    452e:	00 0c       	add	r0, r0
    4530:	88 1f       	adc	r24, r24
    4532:	99 1f       	adc	r25, r25
    4534:	48 2b       	or	r20, r24
    4536:	59 2b       	or	r21, r25
    4538:	86 2f       	mov	r24, r22
    453a:	90 e0       	ldi	r25, 0x00	; 0
    453c:	80 72       	andi	r24, 0x20	; 32
    453e:	90 70       	andi	r25, 0x00	; 0
    4540:	95 95       	asr	r25
    4542:	87 95       	ror	r24
    4544:	95 95       	asr	r25
    4546:	87 95       	ror	r24
    4548:	95 95       	asr	r25
    454a:	87 95       	ror	r24
    454c:	95 95       	asr	r25
    454e:	87 95       	ror	r24
    4550:	95 95       	asr	r25
    4552:	87 95       	ror	r24
    4554:	88 0f       	add	r24, r24
    4556:	99 1f       	adc	r25, r25
    4558:	88 0f       	add	r24, r24
    455a:	99 1f       	adc	r25, r25
    455c:	88 0f       	add	r24, r24
    455e:	99 1f       	adc	r25, r25
    4560:	9a 01       	movw	r18, r20
    4562:	28 2b       	or	r18, r24
    4564:	39 2b       	or	r19, r25
    4566:	c9 01       	movw	r24, r18
    4568:	88 0f       	add	r24, r24
    456a:	99 1f       	adc	r25, r25
    456c:	82 0f       	add	r24, r18
    456e:	93 1f       	adc	r25, r19
    4570:	88 0f       	add	r24, r24
    4572:	99 1f       	adc	r25, r25
    4574:	88 0f       	add	r24, r24
    4576:	99 1f       	adc	r25, r25
    4578:	88 0f       	add	r24, r24
    457a:	99 1f       	adc	r25, r25
    457c:	82 1b       	sub	r24, r18
    457e:	93 0b       	sbc	r25, r19
    4580:	8a 54       	subi	r24, 0x4A	; 74
    4582:	9e 4d       	sbci	r25, 0xDE	; 222
    4584:	dc 01       	movw	r26, r24
    4586:	51 96       	adiw	r26, 0x11	; 17
    4588:	8c 91       	ld	r24, X
    458a:	51 97       	sbiw	r26, 0x11	; 17
    458c:	88 23       	and	r24, r24
    458e:	09 f4       	brne	.+2      	; 0x4592 <__stack+0x593>
    4590:	57 c0       	rjmp	.+174    	; 0x4640 <__stack+0x641>
    4592:	30 81       	ld	r19, Z
    4594:	80 81       	ld	r24, Z
    4596:	20 81       	ld	r18, Z
    4598:	60 81       	ld	r22, Z
    459a:	90 e0       	ldi	r25, 0x00	; 0
    459c:	80 71       	andi	r24, 0x10	; 16
    459e:	90 70       	andi	r25, 0x00	; 0
    45a0:	95 95       	asr	r25
	            {
					
		            speed=Robot_D[RobotID].KCK;
    45a2:	87 95       	ror	r24
    45a4:	95 95       	asr	r25
    45a6:	87 95       	ror	r24
    45a8:	95 95       	asr	r25
    45aa:	87 95       	ror	r24
    45ac:	95 95       	asr	r25
    45ae:	87 95       	ror	r24
    45b0:	ac 01       	movw	r20, r24
    45b2:	44 0f       	add	r20, r20
    45b4:	55 1f       	adc	r21, r21
    45b6:	82 2f       	mov	r24, r18
    45b8:	88 1f       	adc	r24, r24
    45ba:	88 27       	eor	r24, r24
    45bc:	88 1f       	adc	r24, r24
    45be:	90 e0       	ldi	r25, 0x00	; 0
    45c0:	88 0f       	add	r24, r24
    45c2:	99 1f       	adc	r25, r25
    45c4:	88 0f       	add	r24, r24
    45c6:	99 1f       	adc	r25, r25
    45c8:	48 2b       	or	r20, r24
    45ca:	59 2b       	or	r21, r25
    45cc:	83 2f       	mov	r24, r19
    45ce:	90 e0       	ldi	r25, 0x00	; 0
    45d0:	80 74       	andi	r24, 0x40	; 64
    45d2:	90 70       	andi	r25, 0x00	; 0
    45d4:	08 2e       	mov	r0, r24
    45d6:	89 2f       	mov	r24, r25
    45d8:	00 0c       	add	r0, r0
    45da:	88 1f       	adc	r24, r24
    45dc:	99 0b       	sbc	r25, r25
    45de:	00 0c       	add	r0, r0
    45e0:	88 1f       	adc	r24, r24
    45e2:	99 1f       	adc	r25, r25
    45e4:	48 2b       	or	r20, r24
    45e6:	59 2b       	or	r21, r25
    45e8:	86 2f       	mov	r24, r22
    45ea:	90 e0       	ldi	r25, 0x00	; 0
    45ec:	80 72       	andi	r24, 0x20	; 32
    45ee:	90 70       	andi	r25, 0x00	; 0
    45f0:	95 95       	asr	r25
    45f2:	87 95       	ror	r24
    45f4:	95 95       	asr	r25
    45f6:	87 95       	ror	r24
    45f8:	95 95       	asr	r25
    45fa:	87 95       	ror	r24
    45fc:	95 95       	asr	r25
    45fe:	87 95       	ror	r24
    4600:	95 95       	asr	r25
    4602:	87 95       	ror	r24
    4604:	88 0f       	add	r24, r24
    4606:	99 1f       	adc	r25, r25
    4608:	88 0f       	add	r24, r24
    460a:	99 1f       	adc	r25, r25
    460c:	88 0f       	add	r24, r24
    460e:	99 1f       	adc	r25, r25
    4610:	9a 01       	movw	r18, r20
    4612:	28 2b       	or	r18, r24
    4614:	39 2b       	or	r19, r25
    4616:	c9 01       	movw	r24, r18
    4618:	88 0f       	add	r24, r24
    461a:	99 1f       	adc	r25, r25
    461c:	82 0f       	add	r24, r18
    461e:	93 1f       	adc	r25, r19
    4620:	88 0f       	add	r24, r24
    4622:	99 1f       	adc	r25, r25
    4624:	88 0f       	add	r24, r24
    4626:	99 1f       	adc	r25, r25
    4628:	88 0f       	add	r24, r24
    462a:	99 1f       	adc	r25, r25
    462c:	82 1b       	sub	r24, r18
    462e:	93 0b       	sbc	r25, r19
    4630:	8a 54       	subi	r24, 0x4A	; 74
    4632:	9e 4d       	sbci	r25, 0xDE	; 222
    4634:	fc 01       	movw	r30, r24
    4636:	81 89       	ldd	r24, Z+17	; 0x11
    4638:	80 93 a9 21 	sts	0x21A9, r24
    463c:	10 92 aa 21 	sts	0x21AA, r1
    4640:	e8 e0       	ldi	r30, 0x08	; 8
    4642:	f6 e0       	ldi	r31, 0x06	; 6
    4644:	30 81       	ld	r19, Z
    4646:	80 81       	ld	r24, Z
    4648:	20 81       	ld	r18, Z
    464a:	60 81       	ld	r22, Z
    464c:	90 e0       	ldi	r25, 0x00	; 0
    464e:	80 71       	andi	r24, 0x10	; 16
}
            if ((Robot_D[RobotID].CHP))
    4650:	90 70       	andi	r25, 0x00	; 0
    4652:	95 95       	asr	r25
    4654:	87 95       	ror	r24
    4656:	95 95       	asr	r25
    4658:	87 95       	ror	r24
    465a:	95 95       	asr	r25
    465c:	87 95       	ror	r24
    465e:	95 95       	asr	r25
    4660:	87 95       	ror	r24
    4662:	ac 01       	movw	r20, r24
    4664:	44 0f       	add	r20, r20
    4666:	55 1f       	adc	r21, r21
    4668:	82 2f       	mov	r24, r18
    466a:	88 1f       	adc	r24, r24
    466c:	88 27       	eor	r24, r24
    466e:	88 1f       	adc	r24, r24
    4670:	90 e0       	ldi	r25, 0x00	; 0
    4672:	88 0f       	add	r24, r24
    4674:	99 1f       	adc	r25, r25
    4676:	88 0f       	add	r24, r24
    4678:	99 1f       	adc	r25, r25
    467a:	48 2b       	or	r20, r24
    467c:	59 2b       	or	r21, r25
    467e:	83 2f       	mov	r24, r19
    4680:	90 e0       	ldi	r25, 0x00	; 0
    4682:	80 74       	andi	r24, 0x40	; 64
    4684:	90 70       	andi	r25, 0x00	; 0
    4686:	08 2e       	mov	r0, r24
    4688:	89 2f       	mov	r24, r25
    468a:	00 0c       	add	r0, r0
    468c:	88 1f       	adc	r24, r24
    468e:	99 0b       	sbc	r25, r25
    4690:	00 0c       	add	r0, r0
    4692:	88 1f       	adc	r24, r24
    4694:	99 1f       	adc	r25, r25
    4696:	48 2b       	or	r20, r24
    4698:	59 2b       	or	r21, r25
    469a:	86 2f       	mov	r24, r22
    469c:	90 e0       	ldi	r25, 0x00	; 0
    469e:	80 72       	andi	r24, 0x20	; 32
    46a0:	90 70       	andi	r25, 0x00	; 0
    46a2:	95 95       	asr	r25
    46a4:	87 95       	ror	r24
    46a6:	95 95       	asr	r25
    46a8:	87 95       	ror	r24
    46aa:	95 95       	asr	r25
    46ac:	87 95       	ror	r24
    46ae:	95 95       	asr	r25
    46b0:	87 95       	ror	r24
    46b2:	95 95       	asr	r25
    46b4:	87 95       	ror	r24
    46b6:	88 0f       	add	r24, r24
    46b8:	99 1f       	adc	r25, r25
    46ba:	88 0f       	add	r24, r24
    46bc:	99 1f       	adc	r25, r25
    46be:	88 0f       	add	r24, r24
    46c0:	99 1f       	adc	r25, r25
    46c2:	9a 01       	movw	r18, r20
    46c4:	28 2b       	or	r18, r24
    46c6:	39 2b       	or	r19, r25
    46c8:	c9 01       	movw	r24, r18
    46ca:	88 0f       	add	r24, r24
    46cc:	99 1f       	adc	r25, r25
    46ce:	82 0f       	add	r24, r18
    46d0:	93 1f       	adc	r25, r19
    46d2:	88 0f       	add	r24, r24
    46d4:	99 1f       	adc	r25, r25
    46d6:	88 0f       	add	r24, r24
    46d8:	99 1f       	adc	r25, r25
    46da:	88 0f       	add	r24, r24
    46dc:	99 1f       	adc	r25, r25
    46de:	82 1b       	sub	r24, r18
    46e0:	93 0b       	sbc	r25, r19
    46e2:	8a 54       	subi	r24, 0x4A	; 74
    46e4:	9e 4d       	sbci	r25, 0xDE	; 222
    46e6:	dc 01       	movw	r26, r24
    46e8:	52 96       	adiw	r26, 0x12	; 18
    46ea:	8c 91       	ld	r24, X
    46ec:	52 97       	sbiw	r26, 0x12	; 18
    46ee:	88 23       	and	r24, r24
    46f0:	19 f0       	breq	.+6      	; 0x46f8 <__stack+0x6f9>
    46f2:	e0 e6       	ldi	r30, 0x60	; 96
    46f4:	f6 e0       	ldi	r31, 0x06	; 6
    46f6:	80 85       	ldd	r24, Z+8	; 0x08
    46f8:	e0 e0       	ldi	r30, 0x00	; 0
    46fa:	f6 e0       	ldi	r31, 0x06	; 6
    46fc:	80 85       	ldd	r24, Z+8	; 0x08
    46fe:	82 ff       	sbrs	r24, 2
    4700:	16 c0       	rjmp	.+44     	; 0x472e <__stack+0x72f>
            {
	            if (KCK_Sens2)
    4702:	e0 e2       	ldi	r30, 0x20	; 32
    4704:	f6 e0       	ldi	r31, 0x06	; 6
    4706:	84 81       	ldd	r24, Z+4	; 0x04
	            {
		              // flg1=1;
	            }
            }
            
            if(KCK_DSH_SW)
    4708:	80 64       	ori	r24, 0x40	; 64
    470a:	84 83       	std	Z+4, r24	; 0x04
    470c:	ea e2       	ldi	r30, 0x2A	; 42
    470e:	f8 e0       	ldi	r31, 0x08	; 8
    4710:	8f ef       	ldi	r24, 0xFF	; 255
            {
	            
	            KCK_Charge(KCK_CHARGE_OFF); KCK_Speed_DIR(KCK_SPEED_HI);
    4712:	90 e0       	ldi	r25, 0x00	; 0
    4714:	80 83       	st	Z, r24
    4716:	91 83       	std	Z+1, r25	; 0x01
    4718:	8f ef       	ldi	r24, 0xFF	; 255
    471a:	93 ec       	ldi	r25, 0xC3	; 195
    471c:	a9 e0       	ldi	r26, 0x09	; 9
    471e:	81 50       	subi	r24, 0x01	; 1
    4720:	90 40       	sbci	r25, 0x00	; 0
    4722:	a0 40       	sbci	r26, 0x00	; 0
    4724:	e1 f7       	brne	.-8      	; 0x471e <__stack+0x71f>
    4726:	00 c0       	rjmp	.+0      	; 0x4728 <__stack+0x729>
	#else
		//round up by default
		__ticks_dc = (uint32_t)(ceil(fabs(__tmp)));
	#endif

	__builtin_avr_delay_cycles(__ticks_dc);
    4728:	00 00       	nop
    472a:	10 82       	st	Z, r1
    472c:	11 82       	std	Z+1, r1	; 0x01
    472e:	ab e7       	ldi	r26, 0x7B	; 123
    4730:	b4 e2       	ldi	r27, 0x24	; 36
    4732:	8c 91       	ld	r24, X
    4734:	90 91 7c 24 	lds	r25, 0x247C
    4738:	80 93 8b 24 	sts	0x248B, r24
	            _delay_ms(100);
	            KCK_Speed_DIR(KCK_SPEED_OFF);
    473c:	90 93 8c 24 	sts	0x248C, r25
	            
            }

//M0.Speed=1;
Buf_Tx_L[0] = LOWByte(M0.Speed);
    4740:	e9 e0       	ldi	r30, 0x09	; 9
    4742:	f5 e2       	ldi	r31, 0x25	; 37
    4744:	80 81       	ld	r24, Z
    4746:	90 91 0a 25 	lds	r25, 0x250A
    474a:	80 93 8d 24 	sts	0x248D, r24
Buf_Tx_L[1] = HIGHByte(M0.Speed);
    474e:	90 93 8e 24 	sts	0x248E, r25
Buf_Tx_L[2] = M1.Speed & 0xFF;
    4752:	af e1       	ldi	r26, 0x1F	; 31
    4754:	b5 e2       	ldi	r27, 0x25	; 37
    4756:	8c 91       	ld	r24, X
    4758:	90 91 20 25 	lds	r25, 0x2520
    475c:	80 93 8f 24 	sts	0x248F, r24
Buf_Tx_L[3] = (M1.Speed >> 8) & 0xFF;
    4760:	90 93 90 24 	sts	0x2490, r25
Buf_Tx_L[4] = M2.Speed & 0xFF;
    4764:	ef ea       	ldi	r30, 0xAF	; 175
    4766:	f4 e2       	ldi	r31, 0x24	; 36
    4768:	80 81       	ld	r24, Z
    476a:	90 91 b0 24 	lds	r25, 0x24B0
    476e:	80 93 91 24 	sts	0x2491, r24
Buf_Tx_L[5] = (M2.Speed >> 8) & 0xFF;
    4772:	90 93 92 24 	sts	0x2492, r25
Buf_Tx_L[6] = M3.Speed & 0xFF;
    4776:	80 91 a7 21 	lds	r24, 0x21A7
    477a:	90 91 a8 21 	lds	r25, 0x21A8
    477e:	95 95       	asr	r25
    4780:	87 95       	ror	r24
Buf_Tx_L[7] = (M3.Speed >> 8) & 0xFF;
    4782:	95 95       	asr	r25
    4784:	87 95       	ror	r24
Buf_Tx_L[8] = adc >> 4;
    4786:	95 95       	asr	r25
    4788:	87 95       	ror	r24
    478a:	95 95       	asr	r25
    478c:	87 95       	ror	r24
    478e:	80 93 93 24 	sts	0x2493, r24
    4792:	80 93 94 24 	sts	0x2494, r24
    4796:	e8 e0       	ldi	r30, 0x08	; 8
    4798:	f6 e0       	ldi	r31, 0x06	; 6
    479a:	30 81       	ld	r19, Z
    479c:	80 81       	ld	r24, Z
    479e:	20 81       	ld	r18, Z
    47a0:	60 81       	ld	r22, Z
Buf_Tx_L[9] = adc >> 4;          
    47a2:	90 81       	ld	r25, Z
    47a4:	90 81       	ld	r25, Z
Buf_Tx_L[10] = LOWByte((Robot_D[RobotID].M0b|(Robot_D[RobotID].M0a<<8)));
    47a6:	90 81       	ld	r25, Z
    47a8:	90 81       	ld	r25, Z
    47aa:	90 e0       	ldi	r25, 0x00	; 0
    47ac:	80 71       	andi	r24, 0x10	; 16
    47ae:	90 70       	andi	r25, 0x00	; 0
    47b0:	95 95       	asr	r25
    47b2:	87 95       	ror	r24
    47b4:	95 95       	asr	r25
    47b6:	87 95       	ror	r24
    47b8:	95 95       	asr	r25
    47ba:	87 95       	ror	r24
    47bc:	95 95       	asr	r25
    47be:	87 95       	ror	r24
    47c0:	ac 01       	movw	r20, r24
    47c2:	44 0f       	add	r20, r20
    47c4:	55 1f       	adc	r21, r21
    47c6:	82 2f       	mov	r24, r18
    47c8:	88 1f       	adc	r24, r24
    47ca:	88 27       	eor	r24, r24
    47cc:	88 1f       	adc	r24, r24
    47ce:	90 e0       	ldi	r25, 0x00	; 0
    47d0:	88 0f       	add	r24, r24
    47d2:	99 1f       	adc	r25, r25
    47d4:	88 0f       	add	r24, r24
    47d6:	99 1f       	adc	r25, r25
    47d8:	48 2b       	or	r20, r24
    47da:	59 2b       	or	r21, r25
    47dc:	83 2f       	mov	r24, r19
    47de:	90 e0       	ldi	r25, 0x00	; 0
    47e0:	80 74       	andi	r24, 0x40	; 64
    47e2:	90 70       	andi	r25, 0x00	; 0
    47e4:	08 2e       	mov	r0, r24
    47e6:	89 2f       	mov	r24, r25
    47e8:	00 0c       	add	r0, r0
    47ea:	88 1f       	adc	r24, r24
    47ec:	99 0b       	sbc	r25, r25
    47ee:	00 0c       	add	r0, r0
    47f0:	88 1f       	adc	r24, r24
    47f2:	99 1f       	adc	r25, r25
    47f4:	48 2b       	or	r20, r24
    47f6:	59 2b       	or	r21, r25
    47f8:	86 2f       	mov	r24, r22
    47fa:	90 e0       	ldi	r25, 0x00	; 0
    47fc:	80 72       	andi	r24, 0x20	; 32
    47fe:	90 70       	andi	r25, 0x00	; 0
    4800:	95 95       	asr	r25
    4802:	87 95       	ror	r24
    4804:	95 95       	asr	r25
    4806:	87 95       	ror	r24
    4808:	95 95       	asr	r25
    480a:	87 95       	ror	r24
    480c:	95 95       	asr	r25
    480e:	87 95       	ror	r24
    4810:	95 95       	asr	r25
    4812:	87 95       	ror	r24
    4814:	88 0f       	add	r24, r24
    4816:	99 1f       	adc	r25, r25
    4818:	88 0f       	add	r24, r24
    481a:	99 1f       	adc	r25, r25
    481c:	88 0f       	add	r24, r24
    481e:	99 1f       	adc	r25, r25
    4820:	9a 01       	movw	r18, r20
    4822:	28 2b       	or	r18, r24
    4824:	39 2b       	or	r19, r25
    4826:	06 eb       	ldi	r16, 0xB6	; 182
    4828:	11 e2       	ldi	r17, 0x21	; 33
    482a:	c9 01       	movw	r24, r18
    482c:	88 0f       	add	r24, r24
    482e:	99 1f       	adc	r25, r25
    4830:	82 0f       	add	r24, r18
    4832:	93 1f       	adc	r25, r19
    4834:	88 0f       	add	r24, r24
    4836:	99 1f       	adc	r25, r25
    4838:	88 0f       	add	r24, r24
    483a:	99 1f       	adc	r25, r25
    483c:	88 0f       	add	r24, r24
    483e:	99 1f       	adc	r25, r25
    4840:	82 1b       	sub	r24, r18
    4842:	93 0b       	sbc	r25, r19
    4844:	80 0f       	add	r24, r16
    4846:	91 1f       	adc	r25, r17
    4848:	dc 01       	movw	r26, r24
    484a:	13 96       	adiw	r26, 0x03	; 3
    484c:	8c 91       	ld	r24, X
    484e:	80 93 95 24 	sts	0x2495, r24
    4852:	f0 80       	ld	r15, Z
    4854:	70 81       	ld	r23, Z
    4856:	c0 80       	ld	r12, Z
    4858:	a0 80       	ld	r10, Z
    485a:	30 81       	ld	r19, Z
    485c:	80 81       	ld	r24, Z
    485e:	20 81       	ld	r18, Z
    4860:	60 81       	ld	r22, Z
Buf_Tx_L[11] = HIGHByte(((Robot_D[RobotID].M0b|(Robot_D[RobotID].M0a<<8))));
    4862:	90 e0       	ldi	r25, 0x00	; 0
    4864:	80 71       	andi	r24, 0x10	; 16
    4866:	90 70       	andi	r25, 0x00	; 0
    4868:	95 95       	asr	r25
    486a:	87 95       	ror	r24
    486c:	95 95       	asr	r25
    486e:	87 95       	ror	r24
    4870:	95 95       	asr	r25
    4872:	87 95       	ror	r24
    4874:	95 95       	asr	r25
    4876:	87 95       	ror	r24
    4878:	ac 01       	movw	r20, r24
    487a:	44 0f       	add	r20, r20
    487c:	55 1f       	adc	r21, r21
    487e:	82 2f       	mov	r24, r18
    4880:	88 1f       	adc	r24, r24
    4882:	88 27       	eor	r24, r24
    4884:	88 1f       	adc	r24, r24
    4886:	90 e0       	ldi	r25, 0x00	; 0
    4888:	88 0f       	add	r24, r24
    488a:	99 1f       	adc	r25, r25
    488c:	88 0f       	add	r24, r24
    488e:	99 1f       	adc	r25, r25
    4890:	48 2b       	or	r20, r24
    4892:	59 2b       	or	r21, r25
    4894:	83 2f       	mov	r24, r19
    4896:	90 e0       	ldi	r25, 0x00	; 0
    4898:	80 74       	andi	r24, 0x40	; 64
    489a:	90 70       	andi	r25, 0x00	; 0
    489c:	08 2e       	mov	r0, r24
    489e:	89 2f       	mov	r24, r25
    48a0:	00 0c       	add	r0, r0
    48a2:	88 1f       	adc	r24, r24
    48a4:	99 0b       	sbc	r25, r25
    48a6:	00 0c       	add	r0, r0
    48a8:	88 1f       	adc	r24, r24
    48aa:	99 1f       	adc	r25, r25
    48ac:	48 2b       	or	r20, r24
    48ae:	59 2b       	or	r21, r25
    48b0:	86 2f       	mov	r24, r22
    48b2:	90 e0       	ldi	r25, 0x00	; 0
    48b4:	80 72       	andi	r24, 0x20	; 32
    48b6:	90 70       	andi	r25, 0x00	; 0
    48b8:	95 95       	asr	r25
    48ba:	87 95       	ror	r24
    48bc:	95 95       	asr	r25
    48be:	87 95       	ror	r24
    48c0:	95 95       	asr	r25
    48c2:	87 95       	ror	r24
    48c4:	95 95       	asr	r25
    48c6:	87 95       	ror	r24
    48c8:	95 95       	asr	r25
    48ca:	87 95       	ror	r24
    48cc:	88 0f       	add	r24, r24
    48ce:	99 1f       	adc	r25, r25
    48d0:	88 0f       	add	r24, r24
    48d2:	99 1f       	adc	r25, r25
    48d4:	88 0f       	add	r24, r24
    48d6:	99 1f       	adc	r25, r25
    48d8:	9a 01       	movw	r18, r20
    48da:	28 2b       	or	r18, r24
    48dc:	39 2b       	or	r19, r25
    48de:	c9 01       	movw	r24, r18
    48e0:	88 0f       	add	r24, r24
    48e2:	99 1f       	adc	r25, r25
    48e4:	82 0f       	add	r24, r18
    48e6:	93 1f       	adc	r25, r19
    48e8:	88 0f       	add	r24, r24
    48ea:	99 1f       	adc	r25, r25
    48ec:	88 0f       	add	r24, r24
    48ee:	99 1f       	adc	r25, r25
    48f0:	88 0f       	add	r24, r24
    48f2:	99 1f       	adc	r25, r25
    48f4:	82 1b       	sub	r24, r18
    48f6:	93 0b       	sbc	r25, r19
    48f8:	80 0f       	add	r24, r16
    48fa:	91 1f       	adc	r25, r17
    48fc:	dc 01       	movw	r26, r24
    48fe:	11 96       	adiw	r26, 0x01	; 1
    4900:	bc 91       	ld	r27, X
    4902:	be 8b       	std	Y+22, r27	; 0x16
    4904:	1d 8a       	std	Y+21, r1	; 0x15
    4906:	87 2f       	mov	r24, r23
    4908:	90 e0       	ldi	r25, 0x00	; 0
    490a:	80 71       	andi	r24, 0x10	; 16
    490c:	90 70       	andi	r25, 0x00	; 0
    490e:	95 95       	asr	r25
    4910:	87 95       	ror	r24
    4912:	95 95       	asr	r25
    4914:	87 95       	ror	r24
    4916:	95 95       	asr	r25
    4918:	87 95       	ror	r24
    491a:	95 95       	asr	r25
    491c:	87 95       	ror	r24
    491e:	9c 01       	movw	r18, r24
    4920:	22 0f       	add	r18, r18
    4922:	33 1f       	adc	r19, r19
    4924:	8c 2d       	mov	r24, r12
    4926:	88 1f       	adc	r24, r24
    4928:	88 27       	eor	r24, r24
    492a:	88 1f       	adc	r24, r24
    492c:	90 e0       	ldi	r25, 0x00	; 0
    492e:	88 0f       	add	r24, r24
    4930:	99 1f       	adc	r25, r25
    4932:	88 0f       	add	r24, r24
    4934:	99 1f       	adc	r25, r25
    4936:	28 2b       	or	r18, r24
    4938:	39 2b       	or	r19, r25
    493a:	8f 2d       	mov	r24, r15
    493c:	90 e0       	ldi	r25, 0x00	; 0
    493e:	80 74       	andi	r24, 0x40	; 64
    4940:	90 70       	andi	r25, 0x00	; 0
    4942:	08 2e       	mov	r0, r24
    4944:	89 2f       	mov	r24, r25
    4946:	00 0c       	add	r0, r0
    4948:	88 1f       	adc	r24, r24
    494a:	99 0b       	sbc	r25, r25
    494c:	00 0c       	add	r0, r0
    494e:	88 1f       	adc	r24, r24
    4950:	99 1f       	adc	r25, r25
    4952:	28 2b       	or	r18, r24
    4954:	39 2b       	or	r19, r25
    4956:	8a 2d       	mov	r24, r10
    4958:	90 e0       	ldi	r25, 0x00	; 0
    495a:	80 72       	andi	r24, 0x20	; 32
    495c:	90 70       	andi	r25, 0x00	; 0
    495e:	95 95       	asr	r25
    4960:	87 95       	ror	r24
    4962:	95 95       	asr	r25
    4964:	87 95       	ror	r24
    4966:	95 95       	asr	r25
    4968:	87 95       	ror	r24
    496a:	95 95       	asr	r25
    496c:	87 95       	ror	r24
    496e:	95 95       	asr	r25
    4970:	87 95       	ror	r24
    4972:	88 0f       	add	r24, r24
    4974:	99 1f       	adc	r25, r25
    4976:	88 0f       	add	r24, r24
    4978:	99 1f       	adc	r25, r25
    497a:	88 0f       	add	r24, r24
    497c:	99 1f       	adc	r25, r25
    497e:	28 2b       	or	r18, r24
    4980:	39 2b       	or	r19, r25
    4982:	c9 01       	movw	r24, r18
    4984:	88 0f       	add	r24, r24
    4986:	99 1f       	adc	r25, r25
    4988:	82 0f       	add	r24, r18
    498a:	93 1f       	adc	r25, r19
    498c:	88 0f       	add	r24, r24
    498e:	99 1f       	adc	r25, r25
    4990:	88 0f       	add	r24, r24
    4992:	99 1f       	adc	r25, r25
    4994:	88 0f       	add	r24, r24
    4996:	99 1f       	adc	r25, r25
    4998:	82 1b       	sub	r24, r18
    499a:	93 0b       	sbc	r25, r19
    499c:	80 0f       	add	r24, r16
    499e:	91 1f       	adc	r25, r17
    49a0:	dc 01       	movw	r26, r24
    49a2:	13 96       	adiw	r26, 0x03	; 3
    49a4:	8d 91       	ld	r24, X+
    49a6:	9c 91       	ld	r25, X
    49a8:	14 97       	sbiw	r26, 0x04	; 4
    49aa:	2d 89       	ldd	r18, Y+21	; 0x15
    49ac:	3e 89       	ldd	r19, Y+22	; 0x16
    49ae:	82 2b       	or	r24, r18
    49b0:	93 2b       	or	r25, r19
    49b2:	90 93 96 24 	sts	0x2496, r25
    49b6:	30 81       	ld	r19, Z
    49b8:	80 81       	ld	r24, Z
    49ba:	20 81       	ld	r18, Z
    49bc:	60 81       	ld	r22, Z
    49be:	90 81       	ld	r25, Z
    49c0:	90 81       	ld	r25, Z
    49c2:	90 81       	ld	r25, Z
    49c4:	90 81       	ld	r25, Z
Buf_Tx_L[12] = ((Robot_D[RobotID].M1b|(Robot_D[RobotID].M1a<<8)))& 0x0FF;
    49c6:	90 e0       	ldi	r25, 0x00	; 0
    49c8:	80 71       	andi	r24, 0x10	; 16
    49ca:	90 70       	andi	r25, 0x00	; 0
    49cc:	95 95       	asr	r25
    49ce:	87 95       	ror	r24
    49d0:	95 95       	asr	r25
    49d2:	87 95       	ror	r24
    49d4:	95 95       	asr	r25
    49d6:	87 95       	ror	r24
    49d8:	95 95       	asr	r25
    49da:	87 95       	ror	r24
    49dc:	ac 01       	movw	r20, r24
    49de:	44 0f       	add	r20, r20
    49e0:	55 1f       	adc	r21, r21
    49e2:	82 2f       	mov	r24, r18
    49e4:	88 1f       	adc	r24, r24
    49e6:	88 27       	eor	r24, r24
    49e8:	88 1f       	adc	r24, r24
    49ea:	90 e0       	ldi	r25, 0x00	; 0
    49ec:	88 0f       	add	r24, r24
    49ee:	99 1f       	adc	r25, r25
    49f0:	88 0f       	add	r24, r24
    49f2:	99 1f       	adc	r25, r25
    49f4:	48 2b       	or	r20, r24
    49f6:	59 2b       	or	r21, r25
    49f8:	83 2f       	mov	r24, r19
    49fa:	90 e0       	ldi	r25, 0x00	; 0
    49fc:	80 74       	andi	r24, 0x40	; 64
    49fe:	90 70       	andi	r25, 0x00	; 0
    4a00:	08 2e       	mov	r0, r24
    4a02:	89 2f       	mov	r24, r25
    4a04:	00 0c       	add	r0, r0
    4a06:	88 1f       	adc	r24, r24
    4a08:	99 0b       	sbc	r25, r25
    4a0a:	00 0c       	add	r0, r0
    4a0c:	88 1f       	adc	r24, r24
    4a0e:	99 1f       	adc	r25, r25
    4a10:	48 2b       	or	r20, r24
    4a12:	59 2b       	or	r21, r25
    4a14:	86 2f       	mov	r24, r22
    4a16:	90 e0       	ldi	r25, 0x00	; 0
    4a18:	80 72       	andi	r24, 0x20	; 32
    4a1a:	90 70       	andi	r25, 0x00	; 0
    4a1c:	95 95       	asr	r25
    4a1e:	87 95       	ror	r24
    4a20:	95 95       	asr	r25
    4a22:	87 95       	ror	r24
    4a24:	95 95       	asr	r25
    4a26:	87 95       	ror	r24
    4a28:	95 95       	asr	r25
    4a2a:	87 95       	ror	r24
    4a2c:	95 95       	asr	r25
    4a2e:	87 95       	ror	r24
    4a30:	88 0f       	add	r24, r24
    4a32:	99 1f       	adc	r25, r25
    4a34:	88 0f       	add	r24, r24
    4a36:	99 1f       	adc	r25, r25
    4a38:	88 0f       	add	r24, r24
    4a3a:	99 1f       	adc	r25, r25
    4a3c:	9a 01       	movw	r18, r20
    4a3e:	28 2b       	or	r18, r24
    4a40:	39 2b       	or	r19, r25
    4a42:	c9 01       	movw	r24, r18
    4a44:	88 0f       	add	r24, r24
    4a46:	99 1f       	adc	r25, r25
    4a48:	82 0f       	add	r24, r18
    4a4a:	93 1f       	adc	r25, r19
    4a4c:	88 0f       	add	r24, r24
    4a4e:	99 1f       	adc	r25, r25
    4a50:	88 0f       	add	r24, r24
    4a52:	99 1f       	adc	r25, r25
    4a54:	88 0f       	add	r24, r24
    4a56:	99 1f       	adc	r25, r25
    4a58:	82 1b       	sub	r24, r18
    4a5a:	93 0b       	sbc	r25, r19
    4a5c:	80 0f       	add	r24, r16
    4a5e:	91 1f       	adc	r25, r17
    4a60:	dc 01       	movw	r26, r24
    4a62:	17 96       	adiw	r26, 0x07	; 7
    4a64:	8c 91       	ld	r24, X
    4a66:	80 93 97 24 	sts	0x2497, r24
    4a6a:	f0 80       	ld	r15, Z
    4a6c:	70 81       	ld	r23, Z
    4a6e:	c0 80       	ld	r12, Z
    4a70:	a0 80       	ld	r10, Z
    4a72:	30 81       	ld	r19, Z
    4a74:	80 81       	ld	r24, Z
    4a76:	20 81       	ld	r18, Z
    4a78:	60 81       	ld	r22, Z
Buf_Tx_L[13] = (((Robot_D[RobotID].M1b|(Robot_D[RobotID].M1a<<8)))  >> 8) & 0x0FF;
    4a7a:	90 e0       	ldi	r25, 0x00	; 0
    4a7c:	80 71       	andi	r24, 0x10	; 16
    4a7e:	90 70       	andi	r25, 0x00	; 0
    4a80:	95 95       	asr	r25
    4a82:	87 95       	ror	r24
    4a84:	95 95       	asr	r25
    4a86:	87 95       	ror	r24
    4a88:	95 95       	asr	r25
    4a8a:	87 95       	ror	r24
    4a8c:	95 95       	asr	r25
    4a8e:	87 95       	ror	r24
    4a90:	ac 01       	movw	r20, r24
    4a92:	44 0f       	add	r20, r20
    4a94:	55 1f       	adc	r21, r21
    4a96:	82 2f       	mov	r24, r18
    4a98:	88 1f       	adc	r24, r24
    4a9a:	88 27       	eor	r24, r24
    4a9c:	88 1f       	adc	r24, r24
    4a9e:	90 e0       	ldi	r25, 0x00	; 0
    4aa0:	88 0f       	add	r24, r24
    4aa2:	99 1f       	adc	r25, r25
    4aa4:	88 0f       	add	r24, r24
    4aa6:	99 1f       	adc	r25, r25
    4aa8:	48 2b       	or	r20, r24
    4aaa:	59 2b       	or	r21, r25
    4aac:	83 2f       	mov	r24, r19
    4aae:	90 e0       	ldi	r25, 0x00	; 0
    4ab0:	80 74       	andi	r24, 0x40	; 64
    4ab2:	90 70       	andi	r25, 0x00	; 0
    4ab4:	08 2e       	mov	r0, r24
    4ab6:	89 2f       	mov	r24, r25
    4ab8:	00 0c       	add	r0, r0
    4aba:	88 1f       	adc	r24, r24
    4abc:	99 0b       	sbc	r25, r25
    4abe:	00 0c       	add	r0, r0
    4ac0:	88 1f       	adc	r24, r24
    4ac2:	99 1f       	adc	r25, r25
    4ac4:	48 2b       	or	r20, r24
    4ac6:	59 2b       	or	r21, r25
    4ac8:	86 2f       	mov	r24, r22
    4aca:	90 e0       	ldi	r25, 0x00	; 0
    4acc:	80 72       	andi	r24, 0x20	; 32
    4ace:	90 70       	andi	r25, 0x00	; 0
    4ad0:	95 95       	asr	r25
    4ad2:	87 95       	ror	r24
    4ad4:	95 95       	asr	r25
    4ad6:	87 95       	ror	r24
    4ad8:	95 95       	asr	r25
    4ada:	87 95       	ror	r24
    4adc:	95 95       	asr	r25
    4ade:	87 95       	ror	r24
    4ae0:	95 95       	asr	r25
    4ae2:	87 95       	ror	r24
    4ae4:	88 0f       	add	r24, r24
    4ae6:	99 1f       	adc	r25, r25
    4ae8:	88 0f       	add	r24, r24
    4aea:	99 1f       	adc	r25, r25
    4aec:	88 0f       	add	r24, r24
    4aee:	99 1f       	adc	r25, r25
    4af0:	9a 01       	movw	r18, r20
    4af2:	28 2b       	or	r18, r24
    4af4:	39 2b       	or	r19, r25
    4af6:	c9 01       	movw	r24, r18
    4af8:	88 0f       	add	r24, r24
    4afa:	99 1f       	adc	r25, r25
    4afc:	82 0f       	add	r24, r18
    4afe:	93 1f       	adc	r25, r19
    4b00:	88 0f       	add	r24, r24
    4b02:	99 1f       	adc	r25, r25
    4b04:	88 0f       	add	r24, r24
    4b06:	99 1f       	adc	r25, r25
    4b08:	88 0f       	add	r24, r24
    4b0a:	99 1f       	adc	r25, r25
    4b0c:	82 1b       	sub	r24, r18
    4b0e:	93 0b       	sbc	r25, r19
    4b10:	80 0f       	add	r24, r16
    4b12:	91 1f       	adc	r25, r17
    4b14:	dc 01       	movw	r26, r24
    4b16:	15 96       	adiw	r26, 0x05	; 5
    4b18:	bc 91       	ld	r27, X
    4b1a:	b8 8f       	std	Y+24, r27	; 0x18
    4b1c:	1f 8a       	std	Y+23, r1	; 0x17
    4b1e:	87 2f       	mov	r24, r23
    4b20:	90 e0       	ldi	r25, 0x00	; 0
    4b22:	80 71       	andi	r24, 0x10	; 16
    4b24:	90 70       	andi	r25, 0x00	; 0
    4b26:	95 95       	asr	r25
    4b28:	87 95       	ror	r24
    4b2a:	95 95       	asr	r25
    4b2c:	87 95       	ror	r24
    4b2e:	95 95       	asr	r25
    4b30:	87 95       	ror	r24
    4b32:	95 95       	asr	r25
    4b34:	87 95       	ror	r24
    4b36:	9c 01       	movw	r18, r24
    4b38:	22 0f       	add	r18, r18
    4b3a:	33 1f       	adc	r19, r19
    4b3c:	8c 2d       	mov	r24, r12
    4b3e:	88 1f       	adc	r24, r24
    4b40:	88 27       	eor	r24, r24
    4b42:	88 1f       	adc	r24, r24
    4b44:	90 e0       	ldi	r25, 0x00	; 0
    4b46:	88 0f       	add	r24, r24
    4b48:	99 1f       	adc	r25, r25
    4b4a:	88 0f       	add	r24, r24
    4b4c:	99 1f       	adc	r25, r25
    4b4e:	28 2b       	or	r18, r24
    4b50:	39 2b       	or	r19, r25
    4b52:	8f 2d       	mov	r24, r15
    4b54:	90 e0       	ldi	r25, 0x00	; 0
    4b56:	80 74       	andi	r24, 0x40	; 64
    4b58:	90 70       	andi	r25, 0x00	; 0
    4b5a:	08 2e       	mov	r0, r24
    4b5c:	89 2f       	mov	r24, r25
    4b5e:	00 0c       	add	r0, r0
    4b60:	88 1f       	adc	r24, r24
    4b62:	99 0b       	sbc	r25, r25
    4b64:	00 0c       	add	r0, r0
    4b66:	88 1f       	adc	r24, r24
    4b68:	99 1f       	adc	r25, r25
    4b6a:	28 2b       	or	r18, r24
    4b6c:	39 2b       	or	r19, r25
    4b6e:	8a 2d       	mov	r24, r10
    4b70:	90 e0       	ldi	r25, 0x00	; 0
    4b72:	80 72       	andi	r24, 0x20	; 32
    4b74:	90 70       	andi	r25, 0x00	; 0
    4b76:	95 95       	asr	r25
    4b78:	87 95       	ror	r24
    4b7a:	95 95       	asr	r25
    4b7c:	87 95       	ror	r24
    4b7e:	95 95       	asr	r25
    4b80:	87 95       	ror	r24
    4b82:	95 95       	asr	r25
    4b84:	87 95       	ror	r24
    4b86:	95 95       	asr	r25
    4b88:	87 95       	ror	r24
    4b8a:	88 0f       	add	r24, r24
    4b8c:	99 1f       	adc	r25, r25
    4b8e:	88 0f       	add	r24, r24
    4b90:	99 1f       	adc	r25, r25
    4b92:	88 0f       	add	r24, r24
    4b94:	99 1f       	adc	r25, r25
    4b96:	28 2b       	or	r18, r24
    4b98:	39 2b       	or	r19, r25
    4b9a:	c9 01       	movw	r24, r18
    4b9c:	88 0f       	add	r24, r24
    4b9e:	99 1f       	adc	r25, r25
    4ba0:	82 0f       	add	r24, r18
    4ba2:	93 1f       	adc	r25, r19
    4ba4:	88 0f       	add	r24, r24
    4ba6:	99 1f       	adc	r25, r25
    4ba8:	88 0f       	add	r24, r24
    4baa:	99 1f       	adc	r25, r25
    4bac:	88 0f       	add	r24, r24
    4bae:	99 1f       	adc	r25, r25
    4bb0:	82 1b       	sub	r24, r18
    4bb2:	93 0b       	sbc	r25, r19
    4bb4:	80 0f       	add	r24, r16
    4bb6:	91 1f       	adc	r25, r17
    4bb8:	dc 01       	movw	r26, r24
    4bba:	17 96       	adiw	r26, 0x07	; 7
    4bbc:	8d 91       	ld	r24, X+
    4bbe:	9c 91       	ld	r25, X
    4bc0:	18 97       	sbiw	r26, 0x08	; 8
    4bc2:	2f 89       	ldd	r18, Y+23	; 0x17
    4bc4:	38 8d       	ldd	r19, Y+24	; 0x18
    4bc6:	82 2b       	or	r24, r18
    4bc8:	93 2b       	or	r25, r19
    4bca:	90 93 98 24 	sts	0x2498, r25
    4bce:	30 81       	ld	r19, Z
    4bd0:	80 81       	ld	r24, Z
    4bd2:	20 81       	ld	r18, Z
    4bd4:	60 81       	ld	r22, Z
    4bd6:	90 81       	ld	r25, Z
    4bd8:	90 81       	ld	r25, Z
    4bda:	90 81       	ld	r25, Z
    4bdc:	90 81       	ld	r25, Z
Buf_Tx_L[14] = ((Robot_D[RobotID].M2b|(Robot_D[RobotID].M2a<<8)))& 0x0FF;
    4bde:	90 e0       	ldi	r25, 0x00	; 0
    4be0:	80 71       	andi	r24, 0x10	; 16
    4be2:	90 70       	andi	r25, 0x00	; 0
    4be4:	95 95       	asr	r25
    4be6:	87 95       	ror	r24
    4be8:	95 95       	asr	r25
    4bea:	87 95       	ror	r24
    4bec:	95 95       	asr	r25
    4bee:	87 95       	ror	r24
    4bf0:	95 95       	asr	r25
    4bf2:	87 95       	ror	r24
    4bf4:	ac 01       	movw	r20, r24
    4bf6:	44 0f       	add	r20, r20
    4bf8:	55 1f       	adc	r21, r21
    4bfa:	82 2f       	mov	r24, r18
    4bfc:	88 1f       	adc	r24, r24
    4bfe:	88 27       	eor	r24, r24
    4c00:	88 1f       	adc	r24, r24
    4c02:	90 e0       	ldi	r25, 0x00	; 0
    4c04:	88 0f       	add	r24, r24
    4c06:	99 1f       	adc	r25, r25
    4c08:	88 0f       	add	r24, r24
    4c0a:	99 1f       	adc	r25, r25
    4c0c:	48 2b       	or	r20, r24
    4c0e:	59 2b       	or	r21, r25
    4c10:	83 2f       	mov	r24, r19
    4c12:	90 e0       	ldi	r25, 0x00	; 0
    4c14:	80 74       	andi	r24, 0x40	; 64
    4c16:	90 70       	andi	r25, 0x00	; 0
    4c18:	08 2e       	mov	r0, r24
    4c1a:	89 2f       	mov	r24, r25
    4c1c:	00 0c       	add	r0, r0
    4c1e:	88 1f       	adc	r24, r24
    4c20:	99 0b       	sbc	r25, r25
    4c22:	00 0c       	add	r0, r0
    4c24:	88 1f       	adc	r24, r24
    4c26:	99 1f       	adc	r25, r25
    4c28:	48 2b       	or	r20, r24
    4c2a:	59 2b       	or	r21, r25
    4c2c:	86 2f       	mov	r24, r22
    4c2e:	90 e0       	ldi	r25, 0x00	; 0
    4c30:	80 72       	andi	r24, 0x20	; 32
    4c32:	90 70       	andi	r25, 0x00	; 0
    4c34:	95 95       	asr	r25
    4c36:	87 95       	ror	r24
    4c38:	95 95       	asr	r25
    4c3a:	87 95       	ror	r24
    4c3c:	95 95       	asr	r25
    4c3e:	87 95       	ror	r24
    4c40:	95 95       	asr	r25
    4c42:	87 95       	ror	r24
    4c44:	95 95       	asr	r25
    4c46:	87 95       	ror	r24
    4c48:	88 0f       	add	r24, r24
    4c4a:	99 1f       	adc	r25, r25
    4c4c:	88 0f       	add	r24, r24
    4c4e:	99 1f       	adc	r25, r25
    4c50:	88 0f       	add	r24, r24
    4c52:	99 1f       	adc	r25, r25
    4c54:	9a 01       	movw	r18, r20
    4c56:	28 2b       	or	r18, r24
    4c58:	39 2b       	or	r19, r25
    4c5a:	c9 01       	movw	r24, r18
    4c5c:	88 0f       	add	r24, r24
    4c5e:	99 1f       	adc	r25, r25
    4c60:	82 0f       	add	r24, r18
    4c62:	93 1f       	adc	r25, r19
    4c64:	88 0f       	add	r24, r24
    4c66:	99 1f       	adc	r25, r25
    4c68:	88 0f       	add	r24, r24
    4c6a:	99 1f       	adc	r25, r25
    4c6c:	88 0f       	add	r24, r24
    4c6e:	99 1f       	adc	r25, r25
    4c70:	82 1b       	sub	r24, r18
    4c72:	93 0b       	sbc	r25, r19
    4c74:	80 0f       	add	r24, r16
    4c76:	91 1f       	adc	r25, r17
    4c78:	dc 01       	movw	r26, r24
    4c7a:	1b 96       	adiw	r26, 0x0b	; 11
    4c7c:	8c 91       	ld	r24, X
    4c7e:	80 93 99 24 	sts	0x2499, r24
    4c82:	f0 80       	ld	r15, Z
    4c84:	70 81       	ld	r23, Z
    4c86:	c0 80       	ld	r12, Z
    4c88:	a0 80       	ld	r10, Z
    4c8a:	30 81       	ld	r19, Z
    4c8c:	80 81       	ld	r24, Z
    4c8e:	20 81       	ld	r18, Z
    4c90:	60 81       	ld	r22, Z
Buf_Tx_L[15] = (((Robot_D[RobotID].M2b|(Robot_D[RobotID].M2a<<8)))  >> 8) & 0x0FF;
    4c92:	90 e0       	ldi	r25, 0x00	; 0
    4c94:	80 71       	andi	r24, 0x10	; 16
    4c96:	90 70       	andi	r25, 0x00	; 0
    4c98:	95 95       	asr	r25
    4c9a:	87 95       	ror	r24
    4c9c:	95 95       	asr	r25
    4c9e:	87 95       	ror	r24
    4ca0:	95 95       	asr	r25
    4ca2:	87 95       	ror	r24
    4ca4:	95 95       	asr	r25
    4ca6:	87 95       	ror	r24
    4ca8:	ac 01       	movw	r20, r24
    4caa:	44 0f       	add	r20, r20
    4cac:	55 1f       	adc	r21, r21
    4cae:	82 2f       	mov	r24, r18
    4cb0:	88 1f       	adc	r24, r24
    4cb2:	88 27       	eor	r24, r24
    4cb4:	88 1f       	adc	r24, r24
    4cb6:	90 e0       	ldi	r25, 0x00	; 0
    4cb8:	88 0f       	add	r24, r24
    4cba:	99 1f       	adc	r25, r25
    4cbc:	88 0f       	add	r24, r24
    4cbe:	99 1f       	adc	r25, r25
    4cc0:	48 2b       	or	r20, r24
    4cc2:	59 2b       	or	r21, r25
    4cc4:	83 2f       	mov	r24, r19
    4cc6:	90 e0       	ldi	r25, 0x00	; 0
    4cc8:	80 74       	andi	r24, 0x40	; 64
    4cca:	90 70       	andi	r25, 0x00	; 0
    4ccc:	08 2e       	mov	r0, r24
    4cce:	89 2f       	mov	r24, r25
    4cd0:	00 0c       	add	r0, r0
    4cd2:	88 1f       	adc	r24, r24
    4cd4:	99 0b       	sbc	r25, r25
    4cd6:	00 0c       	add	r0, r0
    4cd8:	88 1f       	adc	r24, r24
    4cda:	99 1f       	adc	r25, r25
    4cdc:	48 2b       	or	r20, r24
    4cde:	59 2b       	or	r21, r25
    4ce0:	86 2f       	mov	r24, r22
    4ce2:	90 e0       	ldi	r25, 0x00	; 0
    4ce4:	80 72       	andi	r24, 0x20	; 32
    4ce6:	90 70       	andi	r25, 0x00	; 0
    4ce8:	95 95       	asr	r25
    4cea:	87 95       	ror	r24
    4cec:	95 95       	asr	r25
    4cee:	87 95       	ror	r24
    4cf0:	95 95       	asr	r25
    4cf2:	87 95       	ror	r24
    4cf4:	95 95       	asr	r25
    4cf6:	87 95       	ror	r24
    4cf8:	95 95       	asr	r25
    4cfa:	87 95       	ror	r24
    4cfc:	88 0f       	add	r24, r24
    4cfe:	99 1f       	adc	r25, r25
    4d00:	88 0f       	add	r24, r24
    4d02:	99 1f       	adc	r25, r25
    4d04:	88 0f       	add	r24, r24
    4d06:	99 1f       	adc	r25, r25
    4d08:	9a 01       	movw	r18, r20
    4d0a:	28 2b       	or	r18, r24
    4d0c:	39 2b       	or	r19, r25
    4d0e:	c9 01       	movw	r24, r18
    4d10:	88 0f       	add	r24, r24
    4d12:	99 1f       	adc	r25, r25
    4d14:	82 0f       	add	r24, r18
    4d16:	93 1f       	adc	r25, r19
    4d18:	88 0f       	add	r24, r24
    4d1a:	99 1f       	adc	r25, r25
    4d1c:	88 0f       	add	r24, r24
    4d1e:	99 1f       	adc	r25, r25
    4d20:	88 0f       	add	r24, r24
    4d22:	99 1f       	adc	r25, r25
    4d24:	82 1b       	sub	r24, r18
    4d26:	93 0b       	sbc	r25, r19
    4d28:	80 0f       	add	r24, r16
    4d2a:	91 1f       	adc	r25, r17
    4d2c:	dc 01       	movw	r26, r24
    4d2e:	19 96       	adiw	r26, 0x09	; 9
    4d30:	bc 91       	ld	r27, X
    4d32:	ba 8f       	std	Y+26, r27	; 0x1a
    4d34:	19 8e       	std	Y+25, r1	; 0x19
    4d36:	87 2f       	mov	r24, r23
    4d38:	90 e0       	ldi	r25, 0x00	; 0
    4d3a:	80 71       	andi	r24, 0x10	; 16
    4d3c:	90 70       	andi	r25, 0x00	; 0
    4d3e:	95 95       	asr	r25
    4d40:	87 95       	ror	r24
    4d42:	95 95       	asr	r25
    4d44:	87 95       	ror	r24
    4d46:	95 95       	asr	r25
    4d48:	87 95       	ror	r24
    4d4a:	95 95       	asr	r25
    4d4c:	87 95       	ror	r24
    4d4e:	9c 01       	movw	r18, r24
    4d50:	22 0f       	add	r18, r18
    4d52:	33 1f       	adc	r19, r19
    4d54:	8c 2d       	mov	r24, r12
    4d56:	88 1f       	adc	r24, r24
    4d58:	88 27       	eor	r24, r24
    4d5a:	88 1f       	adc	r24, r24
    4d5c:	90 e0       	ldi	r25, 0x00	; 0
    4d5e:	88 0f       	add	r24, r24
    4d60:	99 1f       	adc	r25, r25
    4d62:	88 0f       	add	r24, r24
    4d64:	99 1f       	adc	r25, r25
    4d66:	28 2b       	or	r18, r24
    4d68:	39 2b       	or	r19, r25
    4d6a:	8f 2d       	mov	r24, r15
    4d6c:	90 e0       	ldi	r25, 0x00	; 0
    4d6e:	80 74       	andi	r24, 0x40	; 64
    4d70:	90 70       	andi	r25, 0x00	; 0
    4d72:	08 2e       	mov	r0, r24
    4d74:	89 2f       	mov	r24, r25
    4d76:	00 0c       	add	r0, r0
    4d78:	88 1f       	adc	r24, r24
    4d7a:	99 0b       	sbc	r25, r25
    4d7c:	00 0c       	add	r0, r0
    4d7e:	88 1f       	adc	r24, r24
    4d80:	99 1f       	adc	r25, r25
    4d82:	28 2b       	or	r18, r24
    4d84:	39 2b       	or	r19, r25
    4d86:	8a 2d       	mov	r24, r10
    4d88:	90 e0       	ldi	r25, 0x00	; 0
    4d8a:	80 72       	andi	r24, 0x20	; 32
    4d8c:	90 70       	andi	r25, 0x00	; 0
    4d8e:	95 95       	asr	r25
    4d90:	87 95       	ror	r24
    4d92:	95 95       	asr	r25
    4d94:	87 95       	ror	r24
    4d96:	95 95       	asr	r25
    4d98:	87 95       	ror	r24
    4d9a:	95 95       	asr	r25
    4d9c:	87 95       	ror	r24
    4d9e:	95 95       	asr	r25
    4da0:	87 95       	ror	r24
    4da2:	88 0f       	add	r24, r24
    4da4:	99 1f       	adc	r25, r25
    4da6:	88 0f       	add	r24, r24
    4da8:	99 1f       	adc	r25, r25
    4daa:	88 0f       	add	r24, r24
    4dac:	99 1f       	adc	r25, r25
    4dae:	28 2b       	or	r18, r24
    4db0:	39 2b       	or	r19, r25
    4db2:	c9 01       	movw	r24, r18
    4db4:	88 0f       	add	r24, r24
    4db6:	99 1f       	adc	r25, r25
    4db8:	82 0f       	add	r24, r18
    4dba:	93 1f       	adc	r25, r19
    4dbc:	88 0f       	add	r24, r24
    4dbe:	99 1f       	adc	r25, r25
    4dc0:	88 0f       	add	r24, r24
    4dc2:	99 1f       	adc	r25, r25
    4dc4:	88 0f       	add	r24, r24
    4dc6:	99 1f       	adc	r25, r25
    4dc8:	82 1b       	sub	r24, r18
    4dca:	93 0b       	sbc	r25, r19
    4dcc:	80 0f       	add	r24, r16
    4dce:	91 1f       	adc	r25, r17
    4dd0:	dc 01       	movw	r26, r24
    4dd2:	1b 96       	adiw	r26, 0x0b	; 11
    4dd4:	8d 91       	ld	r24, X+
    4dd6:	9c 91       	ld	r25, X
    4dd8:	1c 97       	sbiw	r26, 0x0c	; 12
    4dda:	29 8d       	ldd	r18, Y+25	; 0x19
    4ddc:	3a 8d       	ldd	r19, Y+26	; 0x1a
    4dde:	82 2b       	or	r24, r18
    4de0:	93 2b       	or	r25, r19
    4de2:	90 93 9a 24 	sts	0x249A, r25
    4de6:	30 81       	ld	r19, Z
    4de8:	80 81       	ld	r24, Z
    4dea:	20 81       	ld	r18, Z
    4dec:	60 81       	ld	r22, Z
    4dee:	90 81       	ld	r25, Z
    4df0:	90 81       	ld	r25, Z
    4df2:	90 81       	ld	r25, Z
    4df4:	90 81       	ld	r25, Z
Buf_Tx_L[16] = ((Robot_D[RobotID].M3b|(Robot_D[RobotID].M3a<<8)))& 0x0FF;
    4df6:	90 e0       	ldi	r25, 0x00	; 0
    4df8:	80 71       	andi	r24, 0x10	; 16
    4dfa:	90 70       	andi	r25, 0x00	; 0
    4dfc:	95 95       	asr	r25
    4dfe:	87 95       	ror	r24
    4e00:	95 95       	asr	r25
    4e02:	87 95       	ror	r24
    4e04:	95 95       	asr	r25
    4e06:	87 95       	ror	r24
    4e08:	95 95       	asr	r25
    4e0a:	87 95       	ror	r24
    4e0c:	ac 01       	movw	r20, r24
    4e0e:	44 0f       	add	r20, r20
    4e10:	55 1f       	adc	r21, r21
    4e12:	82 2f       	mov	r24, r18
    4e14:	88 1f       	adc	r24, r24
    4e16:	88 27       	eor	r24, r24
    4e18:	88 1f       	adc	r24, r24
    4e1a:	90 e0       	ldi	r25, 0x00	; 0
    4e1c:	88 0f       	add	r24, r24
    4e1e:	99 1f       	adc	r25, r25
    4e20:	88 0f       	add	r24, r24
    4e22:	99 1f       	adc	r25, r25
    4e24:	48 2b       	or	r20, r24
    4e26:	59 2b       	or	r21, r25
    4e28:	83 2f       	mov	r24, r19
    4e2a:	90 e0       	ldi	r25, 0x00	; 0
    4e2c:	80 74       	andi	r24, 0x40	; 64
    4e2e:	90 70       	andi	r25, 0x00	; 0
    4e30:	08 2e       	mov	r0, r24
    4e32:	89 2f       	mov	r24, r25
    4e34:	00 0c       	add	r0, r0
    4e36:	88 1f       	adc	r24, r24
    4e38:	99 0b       	sbc	r25, r25
    4e3a:	00 0c       	add	r0, r0
    4e3c:	88 1f       	adc	r24, r24
    4e3e:	99 1f       	adc	r25, r25
    4e40:	48 2b       	or	r20, r24
    4e42:	59 2b       	or	r21, r25
    4e44:	86 2f       	mov	r24, r22
    4e46:	90 e0       	ldi	r25, 0x00	; 0
    4e48:	80 72       	andi	r24, 0x20	; 32
    4e4a:	90 70       	andi	r25, 0x00	; 0
    4e4c:	95 95       	asr	r25
    4e4e:	87 95       	ror	r24
    4e50:	95 95       	asr	r25
    4e52:	87 95       	ror	r24
    4e54:	95 95       	asr	r25
    4e56:	87 95       	ror	r24
    4e58:	95 95       	asr	r25
    4e5a:	87 95       	ror	r24
    4e5c:	95 95       	asr	r25
    4e5e:	87 95       	ror	r24
    4e60:	88 0f       	add	r24, r24
    4e62:	99 1f       	adc	r25, r25
    4e64:	88 0f       	add	r24, r24
    4e66:	99 1f       	adc	r25, r25
    4e68:	88 0f       	add	r24, r24
    4e6a:	99 1f       	adc	r25, r25
    4e6c:	9a 01       	movw	r18, r20
    4e6e:	28 2b       	or	r18, r24
    4e70:	39 2b       	or	r19, r25
    4e72:	c9 01       	movw	r24, r18
    4e74:	88 0f       	add	r24, r24
    4e76:	99 1f       	adc	r25, r25
    4e78:	82 0f       	add	r24, r18
    4e7a:	93 1f       	adc	r25, r19
    4e7c:	88 0f       	add	r24, r24
    4e7e:	99 1f       	adc	r25, r25
    4e80:	88 0f       	add	r24, r24
    4e82:	99 1f       	adc	r25, r25
    4e84:	88 0f       	add	r24, r24
    4e86:	99 1f       	adc	r25, r25
    4e88:	82 1b       	sub	r24, r18
    4e8a:	93 0b       	sbc	r25, r19
    4e8c:	80 0f       	add	r24, r16
    4e8e:	91 1f       	adc	r25, r17
    4e90:	dc 01       	movw	r26, r24
    4e92:	1f 96       	adiw	r26, 0x0f	; 15
    4e94:	8c 91       	ld	r24, X
    4e96:	80 93 9b 24 	sts	0x249B, r24
    4e9a:	b0 81       	ld	r27, Z
    4e9c:	70 81       	ld	r23, Z
    4e9e:	a0 81       	ld	r26, Z
    4ea0:	f0 80       	ld	r15, Z
    4ea2:	30 81       	ld	r19, Z
    4ea4:	80 81       	ld	r24, Z
    4ea6:	20 81       	ld	r18, Z
    4ea8:	60 81       	ld	r22, Z
Buf_Tx_L[17] = (((Robot_D[RobotID].M3b|(Robot_D[RobotID].M3a<<8)))  >> 8) & 0x0FF;
    4eaa:	90 e0       	ldi	r25, 0x00	; 0
    4eac:	80 71       	andi	r24, 0x10	; 16
    4eae:	90 70       	andi	r25, 0x00	; 0
    4eb0:	95 95       	asr	r25
    4eb2:	87 95       	ror	r24
    4eb4:	95 95       	asr	r25
    4eb6:	87 95       	ror	r24
    4eb8:	95 95       	asr	r25
    4eba:	87 95       	ror	r24
    4ebc:	95 95       	asr	r25
    4ebe:	87 95       	ror	r24
    4ec0:	ac 01       	movw	r20, r24
    4ec2:	44 0f       	add	r20, r20
    4ec4:	55 1f       	adc	r21, r21
    4ec6:	82 2f       	mov	r24, r18
    4ec8:	88 1f       	adc	r24, r24
    4eca:	88 27       	eor	r24, r24
    4ecc:	88 1f       	adc	r24, r24
    4ece:	90 e0       	ldi	r25, 0x00	; 0
    4ed0:	88 0f       	add	r24, r24
    4ed2:	99 1f       	adc	r25, r25
    4ed4:	88 0f       	add	r24, r24
    4ed6:	99 1f       	adc	r25, r25
    4ed8:	48 2b       	or	r20, r24
    4eda:	59 2b       	or	r21, r25
    4edc:	83 2f       	mov	r24, r19
    4ede:	90 e0       	ldi	r25, 0x00	; 0
    4ee0:	80 74       	andi	r24, 0x40	; 64
    4ee2:	90 70       	andi	r25, 0x00	; 0
    4ee4:	08 2e       	mov	r0, r24
    4ee6:	89 2f       	mov	r24, r25
    4ee8:	00 0c       	add	r0, r0
    4eea:	88 1f       	adc	r24, r24
    4eec:	99 0b       	sbc	r25, r25
    4eee:	00 0c       	add	r0, r0
    4ef0:	88 1f       	adc	r24, r24
    4ef2:	99 1f       	adc	r25, r25
    4ef4:	48 2b       	or	r20, r24
    4ef6:	59 2b       	or	r21, r25
    4ef8:	86 2f       	mov	r24, r22
    4efa:	90 e0       	ldi	r25, 0x00	; 0
    4efc:	80 72       	andi	r24, 0x20	; 32
    4efe:	90 70       	andi	r25, 0x00	; 0
    4f00:	95 95       	asr	r25
    4f02:	87 95       	ror	r24
    4f04:	95 95       	asr	r25
    4f06:	87 95       	ror	r24
    4f08:	95 95       	asr	r25
    4f0a:	87 95       	ror	r24
    4f0c:	95 95       	asr	r25
    4f0e:	87 95       	ror	r24
    4f10:	95 95       	asr	r25
    4f12:	87 95       	ror	r24
    4f14:	88 0f       	add	r24, r24
    4f16:	99 1f       	adc	r25, r25
    4f18:	88 0f       	add	r24, r24
    4f1a:	99 1f       	adc	r25, r25
    4f1c:	88 0f       	add	r24, r24
    4f1e:	99 1f       	adc	r25, r25
    4f20:	9a 01       	movw	r18, r20
    4f22:	28 2b       	or	r18, r24
    4f24:	39 2b       	or	r19, r25
    4f26:	c9 01       	movw	r24, r18
    4f28:	88 0f       	add	r24, r24
    4f2a:	99 1f       	adc	r25, r25
    4f2c:	82 0f       	add	r24, r18
    4f2e:	93 1f       	adc	r25, r19
    4f30:	88 0f       	add	r24, r24
    4f32:	99 1f       	adc	r25, r25
    4f34:	88 0f       	add	r24, r24
    4f36:	99 1f       	adc	r25, r25
    4f38:	88 0f       	add	r24, r24
    4f3a:	99 1f       	adc	r25, r25
    4f3c:	82 1b       	sub	r24, r18
    4f3e:	93 0b       	sbc	r25, r19
    4f40:	80 0f       	add	r24, r16
    4f42:	91 1f       	adc	r25, r17
    4f44:	fc 01       	movw	r30, r24
    4f46:	f5 85       	ldd	r31, Z+13	; 0x0d
    4f48:	fc 8f       	std	Y+28, r31	; 0x1c
    4f4a:	1b 8e       	std	Y+27, r1	; 0x1b
    4f4c:	87 2f       	mov	r24, r23
    4f4e:	90 e0       	ldi	r25, 0x00	; 0
    4f50:	80 71       	andi	r24, 0x10	; 16
    4f52:	90 70       	andi	r25, 0x00	; 0
    4f54:	95 95       	asr	r25
    4f56:	87 95       	ror	r24
    4f58:	95 95       	asr	r25
    4f5a:	87 95       	ror	r24
    4f5c:	95 95       	asr	r25
    4f5e:	87 95       	ror	r24
    4f60:	95 95       	asr	r25
    4f62:	87 95       	ror	r24
    4f64:	9c 01       	movw	r18, r24
    4f66:	22 0f       	add	r18, r18
    4f68:	33 1f       	adc	r19, r19
    4f6a:	8a 2f       	mov	r24, r26
    4f6c:	88 1f       	adc	r24, r24
    4f6e:	88 27       	eor	r24, r24
    4f70:	88 1f       	adc	r24, r24
    4f72:	90 e0       	ldi	r25, 0x00	; 0
    4f74:	88 0f       	add	r24, r24
    4f76:	99 1f       	adc	r25, r25
    4f78:	88 0f       	add	r24, r24
    4f7a:	99 1f       	adc	r25, r25
    4f7c:	28 2b       	or	r18, r24
    4f7e:	39 2b       	or	r19, r25
    4f80:	8b 2f       	mov	r24, r27
    4f82:	90 e0       	ldi	r25, 0x00	; 0
    4f84:	80 74       	andi	r24, 0x40	; 64
    4f86:	90 70       	andi	r25, 0x00	; 0
    4f88:	08 2e       	mov	r0, r24
    4f8a:	89 2f       	mov	r24, r25
    4f8c:	00 0c       	add	r0, r0
    4f8e:	88 1f       	adc	r24, r24
    4f90:	99 0b       	sbc	r25, r25
    4f92:	00 0c       	add	r0, r0
    4f94:	88 1f       	adc	r24, r24
    4f96:	99 1f       	adc	r25, r25
    4f98:	28 2b       	or	r18, r24
    4f9a:	39 2b       	or	r19, r25
    4f9c:	8f 2d       	mov	r24, r15
    4f9e:	90 e0       	ldi	r25, 0x00	; 0
    4fa0:	80 72       	andi	r24, 0x20	; 32
    4fa2:	90 70       	andi	r25, 0x00	; 0
    4fa4:	95 95       	asr	r25
    4fa6:	87 95       	ror	r24
    4fa8:	95 95       	asr	r25
    4faa:	87 95       	ror	r24
    4fac:	95 95       	asr	r25
    4fae:	87 95       	ror	r24
    4fb0:	95 95       	asr	r25
    4fb2:	87 95       	ror	r24
    4fb4:	95 95       	asr	r25
    4fb6:	87 95       	ror	r24
    4fb8:	88 0f       	add	r24, r24
    4fba:	99 1f       	adc	r25, r25
    4fbc:	88 0f       	add	r24, r24
    4fbe:	99 1f       	adc	r25, r25
    4fc0:	88 0f       	add	r24, r24
    4fc2:	99 1f       	adc	r25, r25
    4fc4:	82 2b       	or	r24, r18
    4fc6:	93 2b       	or	r25, r19
    4fc8:	fc 01       	movw	r30, r24
    4fca:	ee 0f       	add	r30, r30
    4fcc:	ff 1f       	adc	r31, r31
    4fce:	e8 0f       	add	r30, r24
    4fd0:	f9 1f       	adc	r31, r25
    4fd2:	ee 0f       	add	r30, r30
    4fd4:	ff 1f       	adc	r31, r31
    4fd6:	ee 0f       	add	r30, r30
    4fd8:	ff 1f       	adc	r31, r31
    4fda:	ee 0f       	add	r30, r30
    4fdc:	ff 1f       	adc	r31, r31
    4fde:	e8 1b       	sub	r30, r24
    4fe0:	f9 0b       	sbc	r31, r25
    4fe2:	e0 0f       	add	r30, r16
    4fe4:	f1 1f       	adc	r31, r17
    4fe6:	87 85       	ldd	r24, Z+15	; 0x0f
    4fe8:	90 89       	ldd	r25, Z+16	; 0x10
    4fea:	2b 8d       	ldd	r18, Y+27	; 0x1b
    4fec:	3c 8d       	ldd	r19, Y+28	; 0x1c
    4fee:	82 2b       	or	r24, r18
    4ff0:	93 2b       	or	r25, r19
    4ff2:	90 93 9c 24 	sts	0x249C, r25
    4ff6:	3a e0       	ldi	r19, 0x0A	; 10
    4ff8:	3a 95       	dec	r19
    4ffa:	f1 f7       	brne	.-4      	; 0x4ff8 <__stack+0xff9>
    4ffc:	00 c0       	rjmp	.+0      	; 0x4ffe <__stack+0xfff>
    4ffe:	0c 94 a2 18 	jmp	0x3144	; 0x3144 <main+0x1fe>

00005002 <__vector_43>:
    5002:	1f 92       	push	r1
    5004:	0f 92       	push	r0
	#else
		//round up by default
		__ticks_dc = (uint32_t)(ceil(fabs(__tmp)));
	#endif

	__builtin_avr_delay_cycles(__ticks_dc);
    5006:	0f b6       	in	r0, 0x3f	; 63
    5008:	0f 92       	push	r0
    500a:	08 b6       	in	r0, 0x38	; 56
    500c:	0f 92       	push	r0
    500e:	09 b6       	in	r0, 0x39	; 57
    5010:	0f 92       	push	r0




ISR(PORTE_INT0_vect)////////////////////////////////////////PTX   IRQ Interrupt Pin
{ //  LED_White_PORT.OUTTGL = LED_White_PIN_bm;
    5012:	0b b6       	in	r0, 0x3b	; 59
    5014:	0f 92       	push	r0
    5016:	11 24       	eor	r1, r1
    5018:	2f 92       	push	r2
    501a:	3f 92       	push	r3
    501c:	4f 92       	push	r4
    501e:	5f 92       	push	r5
    5020:	6f 92       	push	r6
    5022:	7f 92       	push	r7
    5024:	8f 92       	push	r8
    5026:	9f 92       	push	r9
    5028:	af 92       	push	r10
    502a:	bf 92       	push	r11
    502c:	cf 92       	push	r12
    502e:	df 92       	push	r13
    5030:	ef 92       	push	r14
    5032:	ff 92       	push	r15
    5034:	0f 93       	push	r16
    5036:	1f 93       	push	r17
    5038:	2f 93       	push	r18
    503a:	3f 93       	push	r19
    503c:	4f 93       	push	r20
    503e:	5f 93       	push	r21
    5040:	6f 93       	push	r22
    5042:	7f 93       	push	r23
    5044:	8f 93       	push	r24
    5046:	9f 93       	push	r25
    5048:	af 93       	push	r26
    504a:	bf 93       	push	r27
    504c:	ef 93       	push	r30
    504e:	ff 93       	push	r31
    5050:	cf 93       	push	r28
    5052:	df 93       	push	r29
    5054:	cd b7       	in	r28, 0x3d	; 61
    5056:	de b7       	in	r29, 0x3e	; 62
    5058:	2b 97       	sbiw	r28, 0x0b	; 11
    505a:	cd bf       	out	0x3d, r28	; 61
    505c:	de bf       	out	0x3e, r29	; 62
   wdt_reset();
    505e:	a8 95       	wdr
   uint8_t status_L = NRF24L01_L_WriteReg( W_REGISTER|STATUSe,_TX_DS|_MAX_RT);
    5060:	87 e2       	ldi	r24, 0x27	; 39
    5062:	60 e3       	ldi	r22, 0x30	; 48
    5064:	0e 94 6c 31 	call	0x62d8	; 0x62d8 <NRF24L01_L_WriteReg>
    5068:	08 2f       	mov	r16, r24
   if((status_L & _RX_DR) == _RX_DR)
    506a:	86 ff       	sbrs	r24, 6
    506c:	aa c5       	rjmp	.+2900   	; 0x5bc2 <__vector_43+0xbc0>
   {
	   LED_White_PORT.OUTTGL = LED_White_PIN_bm;
    506e:	88 e0       	ldi	r24, 0x08	; 8
    5070:	e0 e6       	ldi	r30, 0x60	; 96
    5072:	f6 e0       	ldi	r31, 0x06	; 6
    5074:	87 83       	std	Z+7, r24	; 0x07
	   do 
	   {
		   wdt_reset();
		   NRF24L01_L_Read_RX_Buf(Buf_Rx_L , _Buffer_Size);
    5076:	0f 2e       	mov	r0, r31
    5078:	f9 e4       	ldi	r31, 0x49	; 73
    507a:	cf 2e       	mov	r12, r31
    507c:	f4 e2       	ldi	r31, 0x24	; 36
    507e:	df 2e       	mov	r13, r31
    5080:	f0 2d       	mov	r31, r0
		   if(Buf_Rx_L[0] == RobotID)
		   {   cnt=0;
			   
			   Robot_D[RobotID].RID = Buf_Rx_L[0];
    5082:	06 eb       	ldi	r16, 0xB6	; 182
    5084:	11 e2       	ldi	r17, 0x21	; 33
			   Robot_D[RobotID].M0a  = Buf_Rx_L[1];
    5086:	0f 2e       	mov	r0, r31
    5088:	fa e4       	ldi	r31, 0x4A	; 74
    508a:	ef 2e       	mov	r14, r31
    508c:	f4 e2       	ldi	r31, 0x24	; 36
    508e:	ff 2e       	mov	r15, r31
    5090:	f0 2d       	mov	r31, r0
			   Robot_D[RobotID].M0b  = Buf_Rx_L[2];
    5092:	57 01       	movw	r10, r14
    5094:	08 94       	sec
    5096:	a1 1c       	adc	r10, r1
    5098:	b1 1c       	adc	r11, r1
			   Robot_D[RobotID].M1a  = Buf_Rx_L[3];
    509a:	88 24       	eor	r8, r8
    509c:	99 24       	eor	r9, r9
    509e:	68 94       	set
    50a0:	81 f8       	bld	r8, 1
    50a2:	8e 0c       	add	r8, r14
    50a4:	9f 1c       	adc	r9, r15
			   Robot_D[RobotID].M1b  = Buf_Rx_L[4];
    50a6:	0f 2e       	mov	r0, r31
    50a8:	f3 e0       	ldi	r31, 0x03	; 3
    50aa:	6f 2e       	mov	r6, r31
    50ac:	77 24       	eor	r7, r7
    50ae:	f0 2d       	mov	r31, r0
    50b0:	6e 0c       	add	r6, r14
    50b2:	7f 1c       	adc	r7, r15
			   Robot_D[RobotID].M2a  = Buf_Rx_L[5];
    50b4:	44 24       	eor	r4, r4
    50b6:	55 24       	eor	r5, r5
    50b8:	68 94       	set
    50ba:	42 f8       	bld	r4, 2
    50bc:	4e 0c       	add	r4, r14
    50be:	5f 1c       	adc	r5, r15
			   Robot_D[RobotID].M2b  = Buf_Rx_L[6];
    50c0:	0f 2e       	mov	r0, r31
    50c2:	f5 e0       	ldi	r31, 0x05	; 5
    50c4:	2f 2e       	mov	r2, r31
    50c6:	33 24       	eor	r3, r3
    50c8:	f0 2d       	mov	r31, r0
    50ca:	2e 0c       	add	r2, r14
    50cc:	3f 1c       	adc	r3, r15
			   Robot_D[RobotID].M3a  = Buf_Rx_L[7];
    50ce:	c7 01       	movw	r24, r14
    50d0:	06 96       	adiw	r24, 0x06	; 6
    50d2:	89 83       	std	Y+1, r24	; 0x01
    50d4:	9a 83       	std	Y+2, r25	; 0x02
			   Robot_D[RobotID].M3b  = Buf_Rx_L[8];
    50d6:	f7 01       	movw	r30, r14
    50d8:	37 96       	adiw	r30, 0x07	; 7
    50da:	eb 83       	std	Y+3, r30	; 0x03
    50dc:	fc 83       	std	Y+4, r31	; 0x04
			   Robot_D[RobotID].KCK = Buf_Rx_L[9];
    50de:	c7 01       	movw	r24, r14
    50e0:	08 96       	adiw	r24, 0x08	; 8
    50e2:	8d 83       	std	Y+5, r24	; 0x05
    50e4:	9e 83       	std	Y+6, r25	; 0x06
			   Robot_D[RobotID].CHP = Buf_Rx_L[10];
    50e6:	f7 01       	movw	r30, r14
    50e8:	39 96       	adiw	r30, 0x09	; 9
    50ea:	ef 83       	std	Y+7, r30	; 0x07
    50ec:	f8 87       	std	Y+8, r31	; 0x08
			   Robot_D[RobotID].ASK = Buf_Rx_L[11];
    50ee:	c7 01       	movw	r24, r14
    50f0:	0a 96       	adiw	r24, 0x0a	; 10
    50f2:	89 87       	std	Y+9, r24	; 0x09
    50f4:	9a 87       	std	Y+10, r25	; 0x0a
   if((status_L & _RX_DR) == _RX_DR)
   {
	   LED_White_PORT.OUTTGL = LED_White_PIN_bm;
	   do 
	   {
		   wdt_reset();
    50f6:	a8 95       	wdr
		   NRF24L01_L_Read_RX_Buf(Buf_Rx_L , _Buffer_Size);
    50f8:	c6 01       	movw	r24, r12
    50fa:	60 e2       	ldi	r22, 0x20	; 32
    50fc:	70 e0       	ldi	r23, 0x00	; 0
    50fe:	0e 94 67 31 	call	0x62ce	; 0x62ce <NRF24L01_L_Read_RX_Buf>
		   if(Buf_Rx_L[0] == RobotID)
    5102:	f6 01       	movw	r30, r12
    5104:	70 81       	ld	r23, Z
    5106:	e8 e0       	ldi	r30, 0x08	; 8
    5108:	f6 e0       	ldi	r31, 0x06	; 6
    510a:	30 81       	ld	r19, Z
    510c:	80 81       	ld	r24, Z
    510e:	20 81       	ld	r18, Z
    5110:	60 81       	ld	r22, Z
    5112:	e7 2f       	mov	r30, r23
    5114:	f0 e0       	ldi	r31, 0x00	; 0
    5116:	90 e0       	ldi	r25, 0x00	; 0
    5118:	80 71       	andi	r24, 0x10	; 16
    511a:	90 70       	andi	r25, 0x00	; 0
    511c:	95 95       	asr	r25
    511e:	87 95       	ror	r24
    5120:	95 95       	asr	r25
    5122:	87 95       	ror	r24
    5124:	95 95       	asr	r25
    5126:	87 95       	ror	r24
    5128:	95 95       	asr	r25
    512a:	87 95       	ror	r24
    512c:	ac 01       	movw	r20, r24
    512e:	44 0f       	add	r20, r20
    5130:	55 1f       	adc	r21, r21
    5132:	82 2f       	mov	r24, r18
    5134:	88 1f       	adc	r24, r24
    5136:	88 27       	eor	r24, r24
    5138:	88 1f       	adc	r24, r24
    513a:	90 e0       	ldi	r25, 0x00	; 0
    513c:	88 0f       	add	r24, r24
    513e:	99 1f       	adc	r25, r25
    5140:	88 0f       	add	r24, r24
    5142:	99 1f       	adc	r25, r25
    5144:	48 2b       	or	r20, r24
    5146:	59 2b       	or	r21, r25
    5148:	83 2f       	mov	r24, r19
    514a:	90 e0       	ldi	r25, 0x00	; 0
    514c:	80 74       	andi	r24, 0x40	; 64
    514e:	90 70       	andi	r25, 0x00	; 0
    5150:	08 2e       	mov	r0, r24
    5152:	89 2f       	mov	r24, r25
    5154:	00 0c       	add	r0, r0
    5156:	88 1f       	adc	r24, r24
    5158:	99 0b       	sbc	r25, r25
    515a:	00 0c       	add	r0, r0
    515c:	88 1f       	adc	r24, r24
    515e:	99 1f       	adc	r25, r25
    5160:	48 2b       	or	r20, r24
    5162:	59 2b       	or	r21, r25
    5164:	86 2f       	mov	r24, r22
    5166:	90 e0       	ldi	r25, 0x00	; 0
    5168:	80 72       	andi	r24, 0x20	; 32
    516a:	90 70       	andi	r25, 0x00	; 0
    516c:	95 95       	asr	r25
    516e:	87 95       	ror	r24
    5170:	95 95       	asr	r25
    5172:	87 95       	ror	r24
    5174:	95 95       	asr	r25
    5176:	87 95       	ror	r24
    5178:	95 95       	asr	r25
    517a:	87 95       	ror	r24
    517c:	95 95       	asr	r25
    517e:	87 95       	ror	r24
    5180:	88 0f       	add	r24, r24
    5182:	99 1f       	adc	r25, r25
    5184:	88 0f       	add	r24, r24
    5186:	99 1f       	adc	r25, r25
    5188:	88 0f       	add	r24, r24
    518a:	99 1f       	adc	r25, r25
    518c:	84 2b       	or	r24, r20
    518e:	95 2b       	or	r25, r21
    5190:	e8 17       	cp	r30, r24
    5192:	f9 07       	cpc	r31, r25
    5194:	09 f0       	breq	.+2      	; 0x5198 <__vector_43+0x196>
    5196:	0c c5       	rjmp	.+2584   	; 0x5bb0 <__vector_43+0xbae>
		   {   cnt=0;
    5198:	10 92 ab 21 	sts	0x21AB, r1
    519c:	10 92 ac 21 	sts	0x21AC, r1
			   
			   Robot_D[RobotID].RID = Buf_Rx_L[0];
    51a0:	a8 e0       	ldi	r26, 0x08	; 8
    51a2:	b6 e0       	ldi	r27, 0x06	; 6
    51a4:	3c 91       	ld	r19, X
    51a6:	8c 91       	ld	r24, X
    51a8:	2c 91       	ld	r18, X
    51aa:	6c 91       	ld	r22, X
    51ac:	90 e0       	ldi	r25, 0x00	; 0
    51ae:	80 71       	andi	r24, 0x10	; 16
    51b0:	90 70       	andi	r25, 0x00	; 0
    51b2:	95 95       	asr	r25
    51b4:	87 95       	ror	r24
    51b6:	95 95       	asr	r25
    51b8:	87 95       	ror	r24
    51ba:	95 95       	asr	r25
    51bc:	87 95       	ror	r24
    51be:	95 95       	asr	r25
    51c0:	87 95       	ror	r24
    51c2:	ac 01       	movw	r20, r24
    51c4:	44 0f       	add	r20, r20
    51c6:	55 1f       	adc	r21, r21
    51c8:	82 2f       	mov	r24, r18
    51ca:	88 1f       	adc	r24, r24
    51cc:	88 27       	eor	r24, r24
    51ce:	88 1f       	adc	r24, r24
    51d0:	90 e0       	ldi	r25, 0x00	; 0
    51d2:	88 0f       	add	r24, r24
    51d4:	99 1f       	adc	r25, r25
    51d6:	88 0f       	add	r24, r24
    51d8:	99 1f       	adc	r25, r25
    51da:	48 2b       	or	r20, r24
    51dc:	59 2b       	or	r21, r25
    51de:	83 2f       	mov	r24, r19
    51e0:	90 e0       	ldi	r25, 0x00	; 0
    51e2:	80 74       	andi	r24, 0x40	; 64
    51e4:	90 70       	andi	r25, 0x00	; 0
    51e6:	08 2e       	mov	r0, r24
    51e8:	89 2f       	mov	r24, r25
    51ea:	00 0c       	add	r0, r0
    51ec:	88 1f       	adc	r24, r24
    51ee:	99 0b       	sbc	r25, r25
    51f0:	00 0c       	add	r0, r0
    51f2:	88 1f       	adc	r24, r24
    51f4:	99 1f       	adc	r25, r25
    51f6:	48 2b       	or	r20, r24
    51f8:	59 2b       	or	r21, r25
    51fa:	86 2f       	mov	r24, r22
    51fc:	90 e0       	ldi	r25, 0x00	; 0
    51fe:	80 72       	andi	r24, 0x20	; 32
    5200:	90 70       	andi	r25, 0x00	; 0
    5202:	95 95       	asr	r25
    5204:	87 95       	ror	r24
    5206:	95 95       	asr	r25
    5208:	87 95       	ror	r24
    520a:	95 95       	asr	r25
    520c:	87 95       	ror	r24
    520e:	95 95       	asr	r25
    5210:	87 95       	ror	r24
    5212:	95 95       	asr	r25
    5214:	87 95       	ror	r24
    5216:	88 0f       	add	r24, r24
    5218:	99 1f       	adc	r25, r25
    521a:	88 0f       	add	r24, r24
    521c:	99 1f       	adc	r25, r25
    521e:	88 0f       	add	r24, r24
    5220:	99 1f       	adc	r25, r25
    5222:	9a 01       	movw	r18, r20
    5224:	28 2b       	or	r18, r24
    5226:	39 2b       	or	r19, r25
    5228:	c9 01       	movw	r24, r18
    522a:	88 0f       	add	r24, r24
    522c:	99 1f       	adc	r25, r25
    522e:	82 0f       	add	r24, r18
    5230:	93 1f       	adc	r25, r19
    5232:	88 0f       	add	r24, r24
    5234:	99 1f       	adc	r25, r25
    5236:	88 0f       	add	r24, r24
    5238:	99 1f       	adc	r25, r25
    523a:	88 0f       	add	r24, r24
    523c:	99 1f       	adc	r25, r25
    523e:	82 1b       	sub	r24, r18
    5240:	93 0b       	sbc	r25, r19
    5242:	80 0f       	add	r24, r16
    5244:	91 1f       	adc	r25, r17
    5246:	fc 01       	movw	r30, r24
    5248:	70 83       	st	Z, r23
			   Robot_D[RobotID].M0a  = Buf_Rx_L[1];
    524a:	3c 91       	ld	r19, X
    524c:	8c 91       	ld	r24, X
    524e:	2c 91       	ld	r18, X
    5250:	6c 91       	ld	r22, X
    5252:	90 e0       	ldi	r25, 0x00	; 0
    5254:	80 71       	andi	r24, 0x10	; 16
    5256:	90 70       	andi	r25, 0x00	; 0
    5258:	95 95       	asr	r25
    525a:	87 95       	ror	r24
    525c:	95 95       	asr	r25
    525e:	87 95       	ror	r24
    5260:	95 95       	asr	r25
    5262:	87 95       	ror	r24
    5264:	95 95       	asr	r25
    5266:	87 95       	ror	r24
    5268:	ac 01       	movw	r20, r24
    526a:	44 0f       	add	r20, r20
    526c:	55 1f       	adc	r21, r21
    526e:	82 2f       	mov	r24, r18
    5270:	88 1f       	adc	r24, r24
    5272:	88 27       	eor	r24, r24
    5274:	88 1f       	adc	r24, r24
    5276:	90 e0       	ldi	r25, 0x00	; 0
    5278:	88 0f       	add	r24, r24
    527a:	99 1f       	adc	r25, r25
    527c:	88 0f       	add	r24, r24
    527e:	99 1f       	adc	r25, r25
    5280:	48 2b       	or	r20, r24
    5282:	59 2b       	or	r21, r25
    5284:	83 2f       	mov	r24, r19
    5286:	90 e0       	ldi	r25, 0x00	; 0
    5288:	80 74       	andi	r24, 0x40	; 64
    528a:	90 70       	andi	r25, 0x00	; 0
    528c:	08 2e       	mov	r0, r24
    528e:	89 2f       	mov	r24, r25
    5290:	00 0c       	add	r0, r0
    5292:	88 1f       	adc	r24, r24
    5294:	99 0b       	sbc	r25, r25
    5296:	00 0c       	add	r0, r0
    5298:	88 1f       	adc	r24, r24
    529a:	99 1f       	adc	r25, r25
    529c:	48 2b       	or	r20, r24
    529e:	59 2b       	or	r21, r25
    52a0:	86 2f       	mov	r24, r22
    52a2:	90 e0       	ldi	r25, 0x00	; 0
    52a4:	80 72       	andi	r24, 0x20	; 32
    52a6:	90 70       	andi	r25, 0x00	; 0
    52a8:	95 95       	asr	r25
    52aa:	87 95       	ror	r24
    52ac:	95 95       	asr	r25
    52ae:	87 95       	ror	r24
    52b0:	95 95       	asr	r25
    52b2:	87 95       	ror	r24
    52b4:	95 95       	asr	r25
    52b6:	87 95       	ror	r24
    52b8:	95 95       	asr	r25
    52ba:	87 95       	ror	r24
    52bc:	88 0f       	add	r24, r24
    52be:	99 1f       	adc	r25, r25
    52c0:	88 0f       	add	r24, r24
    52c2:	99 1f       	adc	r25, r25
    52c4:	88 0f       	add	r24, r24
    52c6:	99 1f       	adc	r25, r25
    52c8:	84 2b       	or	r24, r20
    52ca:	95 2b       	or	r25, r21
    52cc:	fc 01       	movw	r30, r24
    52ce:	ee 0f       	add	r30, r30
    52d0:	ff 1f       	adc	r31, r31
    52d2:	e8 0f       	add	r30, r24
    52d4:	f9 1f       	adc	r31, r25
    52d6:	ee 0f       	add	r30, r30
    52d8:	ff 1f       	adc	r31, r31
    52da:	ee 0f       	add	r30, r30
    52dc:	ff 1f       	adc	r31, r31
    52de:	ee 0f       	add	r30, r30
    52e0:	ff 1f       	adc	r31, r31
    52e2:	e8 1b       	sub	r30, r24
    52e4:	f9 0b       	sbc	r31, r25
    52e6:	9f 01       	movw	r18, r30
    52e8:	20 0f       	add	r18, r16
    52ea:	31 1f       	adc	r19, r17
    52ec:	f7 01       	movw	r30, r14
    52ee:	80 81       	ld	r24, Z
    52f0:	f9 01       	movw	r30, r18
    52f2:	81 83       	std	Z+1, r24	; 0x01
    52f4:	12 82       	std	Z+2, r1	; 0x02
			   Robot_D[RobotID].M0b  = Buf_Rx_L[2];
    52f6:	3c 91       	ld	r19, X
    52f8:	8c 91       	ld	r24, X
    52fa:	2c 91       	ld	r18, X
    52fc:	6c 91       	ld	r22, X
    52fe:	90 e0       	ldi	r25, 0x00	; 0
    5300:	80 71       	andi	r24, 0x10	; 16
    5302:	90 70       	andi	r25, 0x00	; 0
    5304:	95 95       	asr	r25
    5306:	87 95       	ror	r24
    5308:	95 95       	asr	r25
    530a:	87 95       	ror	r24
    530c:	95 95       	asr	r25
    530e:	87 95       	ror	r24
    5310:	95 95       	asr	r25
    5312:	87 95       	ror	r24
    5314:	ac 01       	movw	r20, r24
    5316:	44 0f       	add	r20, r20
    5318:	55 1f       	adc	r21, r21
    531a:	82 2f       	mov	r24, r18
    531c:	88 1f       	adc	r24, r24
    531e:	88 27       	eor	r24, r24
    5320:	88 1f       	adc	r24, r24
    5322:	90 e0       	ldi	r25, 0x00	; 0
    5324:	88 0f       	add	r24, r24
    5326:	99 1f       	adc	r25, r25
    5328:	88 0f       	add	r24, r24
    532a:	99 1f       	adc	r25, r25
    532c:	48 2b       	or	r20, r24
    532e:	59 2b       	or	r21, r25
    5330:	83 2f       	mov	r24, r19
    5332:	90 e0       	ldi	r25, 0x00	; 0
    5334:	80 74       	andi	r24, 0x40	; 64
    5336:	90 70       	andi	r25, 0x00	; 0
    5338:	08 2e       	mov	r0, r24
    533a:	89 2f       	mov	r24, r25
    533c:	00 0c       	add	r0, r0
    533e:	88 1f       	adc	r24, r24
    5340:	99 0b       	sbc	r25, r25
    5342:	00 0c       	add	r0, r0
    5344:	88 1f       	adc	r24, r24
    5346:	99 1f       	adc	r25, r25
    5348:	48 2b       	or	r20, r24
    534a:	59 2b       	or	r21, r25
    534c:	86 2f       	mov	r24, r22
    534e:	90 e0       	ldi	r25, 0x00	; 0
    5350:	80 72       	andi	r24, 0x20	; 32
    5352:	90 70       	andi	r25, 0x00	; 0
    5354:	95 95       	asr	r25
    5356:	87 95       	ror	r24
    5358:	95 95       	asr	r25
    535a:	87 95       	ror	r24
    535c:	95 95       	asr	r25
    535e:	87 95       	ror	r24
    5360:	95 95       	asr	r25
    5362:	87 95       	ror	r24
    5364:	95 95       	asr	r25
    5366:	87 95       	ror	r24
    5368:	88 0f       	add	r24, r24
    536a:	99 1f       	adc	r25, r25
    536c:	88 0f       	add	r24, r24
    536e:	99 1f       	adc	r25, r25
    5370:	88 0f       	add	r24, r24
    5372:	99 1f       	adc	r25, r25
    5374:	84 2b       	or	r24, r20
    5376:	95 2b       	or	r25, r21
    5378:	fc 01       	movw	r30, r24
    537a:	ee 0f       	add	r30, r30
    537c:	ff 1f       	adc	r31, r31
    537e:	e8 0f       	add	r30, r24
    5380:	f9 1f       	adc	r31, r25
    5382:	ee 0f       	add	r30, r30
    5384:	ff 1f       	adc	r31, r31
    5386:	ee 0f       	add	r30, r30
    5388:	ff 1f       	adc	r31, r31
    538a:	ee 0f       	add	r30, r30
    538c:	ff 1f       	adc	r31, r31
    538e:	e8 1b       	sub	r30, r24
    5390:	f9 0b       	sbc	r31, r25
    5392:	9f 01       	movw	r18, r30
    5394:	20 0f       	add	r18, r16
    5396:	31 1f       	adc	r19, r17
    5398:	f5 01       	movw	r30, r10
    539a:	80 81       	ld	r24, Z
    539c:	f9 01       	movw	r30, r18
    539e:	83 83       	std	Z+3, r24	; 0x03
    53a0:	14 82       	std	Z+4, r1	; 0x04
			   Robot_D[RobotID].M1a  = Buf_Rx_L[3];
    53a2:	3c 91       	ld	r19, X
    53a4:	8c 91       	ld	r24, X
    53a6:	2c 91       	ld	r18, X
    53a8:	6c 91       	ld	r22, X
    53aa:	90 e0       	ldi	r25, 0x00	; 0
    53ac:	80 71       	andi	r24, 0x10	; 16
    53ae:	90 70       	andi	r25, 0x00	; 0
    53b0:	95 95       	asr	r25
    53b2:	87 95       	ror	r24
    53b4:	95 95       	asr	r25
    53b6:	87 95       	ror	r24
    53b8:	95 95       	asr	r25
    53ba:	87 95       	ror	r24
    53bc:	95 95       	asr	r25
    53be:	87 95       	ror	r24
    53c0:	ac 01       	movw	r20, r24
    53c2:	44 0f       	add	r20, r20
    53c4:	55 1f       	adc	r21, r21
    53c6:	82 2f       	mov	r24, r18
    53c8:	88 1f       	adc	r24, r24
    53ca:	88 27       	eor	r24, r24
    53cc:	88 1f       	adc	r24, r24
    53ce:	90 e0       	ldi	r25, 0x00	; 0
    53d0:	88 0f       	add	r24, r24
    53d2:	99 1f       	adc	r25, r25
    53d4:	88 0f       	add	r24, r24
    53d6:	99 1f       	adc	r25, r25
    53d8:	48 2b       	or	r20, r24
    53da:	59 2b       	or	r21, r25
    53dc:	83 2f       	mov	r24, r19
    53de:	90 e0       	ldi	r25, 0x00	; 0
    53e0:	80 74       	andi	r24, 0x40	; 64
    53e2:	90 70       	andi	r25, 0x00	; 0
    53e4:	08 2e       	mov	r0, r24
    53e6:	89 2f       	mov	r24, r25
    53e8:	00 0c       	add	r0, r0
    53ea:	88 1f       	adc	r24, r24
    53ec:	99 0b       	sbc	r25, r25
    53ee:	00 0c       	add	r0, r0
    53f0:	88 1f       	adc	r24, r24
    53f2:	99 1f       	adc	r25, r25
    53f4:	48 2b       	or	r20, r24
    53f6:	59 2b       	or	r21, r25
    53f8:	86 2f       	mov	r24, r22
    53fa:	90 e0       	ldi	r25, 0x00	; 0
    53fc:	80 72       	andi	r24, 0x20	; 32
    53fe:	90 70       	andi	r25, 0x00	; 0
    5400:	95 95       	asr	r25
    5402:	87 95       	ror	r24
    5404:	95 95       	asr	r25
    5406:	87 95       	ror	r24
    5408:	95 95       	asr	r25
    540a:	87 95       	ror	r24
    540c:	95 95       	asr	r25
    540e:	87 95       	ror	r24
    5410:	95 95       	asr	r25
    5412:	87 95       	ror	r24
    5414:	88 0f       	add	r24, r24
    5416:	99 1f       	adc	r25, r25
    5418:	88 0f       	add	r24, r24
    541a:	99 1f       	adc	r25, r25
    541c:	88 0f       	add	r24, r24
    541e:	99 1f       	adc	r25, r25
    5420:	84 2b       	or	r24, r20
    5422:	95 2b       	or	r25, r21
    5424:	fc 01       	movw	r30, r24
    5426:	ee 0f       	add	r30, r30
    5428:	ff 1f       	adc	r31, r31
    542a:	e8 0f       	add	r30, r24
    542c:	f9 1f       	adc	r31, r25
    542e:	ee 0f       	add	r30, r30
    5430:	ff 1f       	adc	r31, r31
    5432:	ee 0f       	add	r30, r30
    5434:	ff 1f       	adc	r31, r31
    5436:	ee 0f       	add	r30, r30
    5438:	ff 1f       	adc	r31, r31
    543a:	e8 1b       	sub	r30, r24
    543c:	f9 0b       	sbc	r31, r25
    543e:	9f 01       	movw	r18, r30
    5440:	20 0f       	add	r18, r16
    5442:	31 1f       	adc	r19, r17
    5444:	f4 01       	movw	r30, r8
    5446:	80 81       	ld	r24, Z
    5448:	f9 01       	movw	r30, r18
    544a:	85 83       	std	Z+5, r24	; 0x05
    544c:	16 82       	std	Z+6, r1	; 0x06
			   Robot_D[RobotID].M1b  = Buf_Rx_L[4];
    544e:	3c 91       	ld	r19, X
    5450:	8c 91       	ld	r24, X
    5452:	2c 91       	ld	r18, X
    5454:	6c 91       	ld	r22, X
    5456:	90 e0       	ldi	r25, 0x00	; 0
    5458:	80 71       	andi	r24, 0x10	; 16
    545a:	90 70       	andi	r25, 0x00	; 0
    545c:	95 95       	asr	r25
    545e:	87 95       	ror	r24
    5460:	95 95       	asr	r25
    5462:	87 95       	ror	r24
    5464:	95 95       	asr	r25
    5466:	87 95       	ror	r24
    5468:	95 95       	asr	r25
    546a:	87 95       	ror	r24
    546c:	ac 01       	movw	r20, r24
    546e:	44 0f       	add	r20, r20
    5470:	55 1f       	adc	r21, r21
    5472:	82 2f       	mov	r24, r18
    5474:	88 1f       	adc	r24, r24
    5476:	88 27       	eor	r24, r24
    5478:	88 1f       	adc	r24, r24
    547a:	90 e0       	ldi	r25, 0x00	; 0
    547c:	88 0f       	add	r24, r24
    547e:	99 1f       	adc	r25, r25
    5480:	88 0f       	add	r24, r24
    5482:	99 1f       	adc	r25, r25
    5484:	48 2b       	or	r20, r24
    5486:	59 2b       	or	r21, r25
    5488:	83 2f       	mov	r24, r19
    548a:	90 e0       	ldi	r25, 0x00	; 0
    548c:	80 74       	andi	r24, 0x40	; 64
    548e:	90 70       	andi	r25, 0x00	; 0
    5490:	08 2e       	mov	r0, r24
    5492:	89 2f       	mov	r24, r25
    5494:	00 0c       	add	r0, r0
    5496:	88 1f       	adc	r24, r24
    5498:	99 0b       	sbc	r25, r25
    549a:	00 0c       	add	r0, r0
    549c:	88 1f       	adc	r24, r24
    549e:	99 1f       	adc	r25, r25
    54a0:	48 2b       	or	r20, r24
    54a2:	59 2b       	or	r21, r25
    54a4:	86 2f       	mov	r24, r22
    54a6:	90 e0       	ldi	r25, 0x00	; 0
    54a8:	80 72       	andi	r24, 0x20	; 32
    54aa:	90 70       	andi	r25, 0x00	; 0
    54ac:	95 95       	asr	r25
    54ae:	87 95       	ror	r24
    54b0:	95 95       	asr	r25
    54b2:	87 95       	ror	r24
    54b4:	95 95       	asr	r25
    54b6:	87 95       	ror	r24
    54b8:	95 95       	asr	r25
    54ba:	87 95       	ror	r24
    54bc:	95 95       	asr	r25
    54be:	87 95       	ror	r24
    54c0:	88 0f       	add	r24, r24
    54c2:	99 1f       	adc	r25, r25
    54c4:	88 0f       	add	r24, r24
    54c6:	99 1f       	adc	r25, r25
    54c8:	88 0f       	add	r24, r24
    54ca:	99 1f       	adc	r25, r25
    54cc:	84 2b       	or	r24, r20
    54ce:	95 2b       	or	r25, r21
    54d0:	fc 01       	movw	r30, r24
    54d2:	ee 0f       	add	r30, r30
    54d4:	ff 1f       	adc	r31, r31
    54d6:	e8 0f       	add	r30, r24
    54d8:	f9 1f       	adc	r31, r25
    54da:	ee 0f       	add	r30, r30
    54dc:	ff 1f       	adc	r31, r31
    54de:	ee 0f       	add	r30, r30
    54e0:	ff 1f       	adc	r31, r31
    54e2:	ee 0f       	add	r30, r30
    54e4:	ff 1f       	adc	r31, r31
    54e6:	e8 1b       	sub	r30, r24
    54e8:	f9 0b       	sbc	r31, r25
    54ea:	9f 01       	movw	r18, r30
    54ec:	20 0f       	add	r18, r16
    54ee:	31 1f       	adc	r19, r17
    54f0:	f3 01       	movw	r30, r6
    54f2:	80 81       	ld	r24, Z
    54f4:	f9 01       	movw	r30, r18
    54f6:	87 83       	std	Z+7, r24	; 0x07
    54f8:	10 86       	std	Z+8, r1	; 0x08
			   Robot_D[RobotID].M2a  = Buf_Rx_L[5];
    54fa:	3c 91       	ld	r19, X
    54fc:	8c 91       	ld	r24, X
    54fe:	2c 91       	ld	r18, X
    5500:	6c 91       	ld	r22, X
    5502:	90 e0       	ldi	r25, 0x00	; 0
    5504:	80 71       	andi	r24, 0x10	; 16
    5506:	90 70       	andi	r25, 0x00	; 0
    5508:	95 95       	asr	r25
    550a:	87 95       	ror	r24
    550c:	95 95       	asr	r25
    550e:	87 95       	ror	r24
    5510:	95 95       	asr	r25
    5512:	87 95       	ror	r24
    5514:	95 95       	asr	r25
    5516:	87 95       	ror	r24
    5518:	ac 01       	movw	r20, r24
    551a:	44 0f       	add	r20, r20
    551c:	55 1f       	adc	r21, r21
    551e:	82 2f       	mov	r24, r18
    5520:	88 1f       	adc	r24, r24
    5522:	88 27       	eor	r24, r24
    5524:	88 1f       	adc	r24, r24
    5526:	90 e0       	ldi	r25, 0x00	; 0
    5528:	88 0f       	add	r24, r24
    552a:	99 1f       	adc	r25, r25
    552c:	88 0f       	add	r24, r24
    552e:	99 1f       	adc	r25, r25
    5530:	48 2b       	or	r20, r24
    5532:	59 2b       	or	r21, r25
    5534:	83 2f       	mov	r24, r19
    5536:	90 e0       	ldi	r25, 0x00	; 0
    5538:	80 74       	andi	r24, 0x40	; 64
    553a:	90 70       	andi	r25, 0x00	; 0
    553c:	08 2e       	mov	r0, r24
    553e:	89 2f       	mov	r24, r25
    5540:	00 0c       	add	r0, r0
    5542:	88 1f       	adc	r24, r24
    5544:	99 0b       	sbc	r25, r25
    5546:	00 0c       	add	r0, r0
    5548:	88 1f       	adc	r24, r24
    554a:	99 1f       	adc	r25, r25
    554c:	48 2b       	or	r20, r24
    554e:	59 2b       	or	r21, r25
    5550:	86 2f       	mov	r24, r22
    5552:	90 e0       	ldi	r25, 0x00	; 0
    5554:	80 72       	andi	r24, 0x20	; 32
    5556:	90 70       	andi	r25, 0x00	; 0
    5558:	95 95       	asr	r25
    555a:	87 95       	ror	r24
    555c:	95 95       	asr	r25
    555e:	87 95       	ror	r24
    5560:	95 95       	asr	r25
    5562:	87 95       	ror	r24
    5564:	95 95       	asr	r25
    5566:	87 95       	ror	r24
    5568:	95 95       	asr	r25
    556a:	87 95       	ror	r24
    556c:	88 0f       	add	r24, r24
    556e:	99 1f       	adc	r25, r25
    5570:	88 0f       	add	r24, r24
    5572:	99 1f       	adc	r25, r25
    5574:	88 0f       	add	r24, r24
    5576:	99 1f       	adc	r25, r25
    5578:	84 2b       	or	r24, r20
    557a:	95 2b       	or	r25, r21
    557c:	fc 01       	movw	r30, r24
    557e:	ee 0f       	add	r30, r30
    5580:	ff 1f       	adc	r31, r31
    5582:	e8 0f       	add	r30, r24
    5584:	f9 1f       	adc	r31, r25
    5586:	ee 0f       	add	r30, r30
    5588:	ff 1f       	adc	r31, r31
    558a:	ee 0f       	add	r30, r30
    558c:	ff 1f       	adc	r31, r31
    558e:	ee 0f       	add	r30, r30
    5590:	ff 1f       	adc	r31, r31
    5592:	e8 1b       	sub	r30, r24
    5594:	f9 0b       	sbc	r31, r25
    5596:	9f 01       	movw	r18, r30
    5598:	20 0f       	add	r18, r16
    559a:	31 1f       	adc	r19, r17
    559c:	f2 01       	movw	r30, r4
    559e:	80 81       	ld	r24, Z
    55a0:	f9 01       	movw	r30, r18
    55a2:	81 87       	std	Z+9, r24	; 0x09
    55a4:	12 86       	std	Z+10, r1	; 0x0a
			   Robot_D[RobotID].M2b  = Buf_Rx_L[6];
    55a6:	3c 91       	ld	r19, X
    55a8:	8c 91       	ld	r24, X
    55aa:	2c 91       	ld	r18, X
    55ac:	6c 91       	ld	r22, X
    55ae:	90 e0       	ldi	r25, 0x00	; 0
    55b0:	80 71       	andi	r24, 0x10	; 16
    55b2:	90 70       	andi	r25, 0x00	; 0
    55b4:	95 95       	asr	r25
    55b6:	87 95       	ror	r24
    55b8:	95 95       	asr	r25
    55ba:	87 95       	ror	r24
    55bc:	95 95       	asr	r25
    55be:	87 95       	ror	r24
    55c0:	95 95       	asr	r25
    55c2:	87 95       	ror	r24
    55c4:	ac 01       	movw	r20, r24
    55c6:	44 0f       	add	r20, r20
    55c8:	55 1f       	adc	r21, r21
    55ca:	82 2f       	mov	r24, r18
    55cc:	88 1f       	adc	r24, r24
    55ce:	88 27       	eor	r24, r24
    55d0:	88 1f       	adc	r24, r24
    55d2:	90 e0       	ldi	r25, 0x00	; 0
    55d4:	88 0f       	add	r24, r24
    55d6:	99 1f       	adc	r25, r25
    55d8:	88 0f       	add	r24, r24
    55da:	99 1f       	adc	r25, r25
    55dc:	48 2b       	or	r20, r24
    55de:	59 2b       	or	r21, r25
    55e0:	83 2f       	mov	r24, r19
    55e2:	90 e0       	ldi	r25, 0x00	; 0
    55e4:	80 74       	andi	r24, 0x40	; 64
    55e6:	90 70       	andi	r25, 0x00	; 0
    55e8:	08 2e       	mov	r0, r24
    55ea:	89 2f       	mov	r24, r25
    55ec:	00 0c       	add	r0, r0
    55ee:	88 1f       	adc	r24, r24
    55f0:	99 0b       	sbc	r25, r25
    55f2:	00 0c       	add	r0, r0
    55f4:	88 1f       	adc	r24, r24
    55f6:	99 1f       	adc	r25, r25
    55f8:	48 2b       	or	r20, r24
    55fa:	59 2b       	or	r21, r25
    55fc:	86 2f       	mov	r24, r22
    55fe:	90 e0       	ldi	r25, 0x00	; 0
    5600:	80 72       	andi	r24, 0x20	; 32
    5602:	90 70       	andi	r25, 0x00	; 0
    5604:	95 95       	asr	r25
    5606:	87 95       	ror	r24
    5608:	95 95       	asr	r25
    560a:	87 95       	ror	r24
    560c:	95 95       	asr	r25
    560e:	87 95       	ror	r24
    5610:	95 95       	asr	r25
    5612:	87 95       	ror	r24
    5614:	95 95       	asr	r25
    5616:	87 95       	ror	r24
    5618:	88 0f       	add	r24, r24
    561a:	99 1f       	adc	r25, r25
    561c:	88 0f       	add	r24, r24
    561e:	99 1f       	adc	r25, r25
    5620:	88 0f       	add	r24, r24
    5622:	99 1f       	adc	r25, r25
    5624:	84 2b       	or	r24, r20
    5626:	95 2b       	or	r25, r21
    5628:	fc 01       	movw	r30, r24
    562a:	ee 0f       	add	r30, r30
    562c:	ff 1f       	adc	r31, r31
    562e:	e8 0f       	add	r30, r24
    5630:	f9 1f       	adc	r31, r25
    5632:	ee 0f       	add	r30, r30
    5634:	ff 1f       	adc	r31, r31
    5636:	ee 0f       	add	r30, r30
    5638:	ff 1f       	adc	r31, r31
    563a:	ee 0f       	add	r30, r30
    563c:	ff 1f       	adc	r31, r31
    563e:	e8 1b       	sub	r30, r24
    5640:	f9 0b       	sbc	r31, r25
    5642:	9f 01       	movw	r18, r30
    5644:	20 0f       	add	r18, r16
    5646:	31 1f       	adc	r19, r17
    5648:	f1 01       	movw	r30, r2
    564a:	80 81       	ld	r24, Z
    564c:	f9 01       	movw	r30, r18
    564e:	83 87       	std	Z+11, r24	; 0x0b
    5650:	14 86       	std	Z+12, r1	; 0x0c
			   Robot_D[RobotID].M3a  = Buf_Rx_L[7];
    5652:	3c 91       	ld	r19, X
    5654:	8c 91       	ld	r24, X
    5656:	2c 91       	ld	r18, X
    5658:	6c 91       	ld	r22, X
    565a:	90 e0       	ldi	r25, 0x00	; 0
    565c:	80 71       	andi	r24, 0x10	; 16
    565e:	90 70       	andi	r25, 0x00	; 0
    5660:	95 95       	asr	r25
    5662:	87 95       	ror	r24
    5664:	95 95       	asr	r25
    5666:	87 95       	ror	r24
    5668:	95 95       	asr	r25
    566a:	87 95       	ror	r24
    566c:	95 95       	asr	r25
    566e:	87 95       	ror	r24
    5670:	ac 01       	movw	r20, r24
    5672:	44 0f       	add	r20, r20
    5674:	55 1f       	adc	r21, r21
    5676:	82 2f       	mov	r24, r18
    5678:	88 1f       	adc	r24, r24
    567a:	88 27       	eor	r24, r24
    567c:	88 1f       	adc	r24, r24
    567e:	90 e0       	ldi	r25, 0x00	; 0
    5680:	88 0f       	add	r24, r24
    5682:	99 1f       	adc	r25, r25
    5684:	88 0f       	add	r24, r24
    5686:	99 1f       	adc	r25, r25
    5688:	48 2b       	or	r20, r24
    568a:	59 2b       	or	r21, r25
    568c:	83 2f       	mov	r24, r19
    568e:	90 e0       	ldi	r25, 0x00	; 0
    5690:	80 74       	andi	r24, 0x40	; 64
    5692:	90 70       	andi	r25, 0x00	; 0
    5694:	08 2e       	mov	r0, r24
    5696:	89 2f       	mov	r24, r25
    5698:	00 0c       	add	r0, r0
    569a:	88 1f       	adc	r24, r24
    569c:	99 0b       	sbc	r25, r25
    569e:	00 0c       	add	r0, r0
    56a0:	88 1f       	adc	r24, r24
    56a2:	99 1f       	adc	r25, r25
    56a4:	48 2b       	or	r20, r24
    56a6:	59 2b       	or	r21, r25
    56a8:	86 2f       	mov	r24, r22
    56aa:	90 e0       	ldi	r25, 0x00	; 0
    56ac:	80 72       	andi	r24, 0x20	; 32
    56ae:	90 70       	andi	r25, 0x00	; 0
    56b0:	95 95       	asr	r25
    56b2:	87 95       	ror	r24
    56b4:	95 95       	asr	r25
    56b6:	87 95       	ror	r24
    56b8:	95 95       	asr	r25
    56ba:	87 95       	ror	r24
    56bc:	95 95       	asr	r25
    56be:	87 95       	ror	r24
    56c0:	95 95       	asr	r25
    56c2:	87 95       	ror	r24
    56c4:	88 0f       	add	r24, r24
    56c6:	99 1f       	adc	r25, r25
    56c8:	88 0f       	add	r24, r24
    56ca:	99 1f       	adc	r25, r25
    56cc:	88 0f       	add	r24, r24
    56ce:	99 1f       	adc	r25, r25
    56d0:	84 2b       	or	r24, r20
    56d2:	95 2b       	or	r25, r21
    56d4:	fc 01       	movw	r30, r24
    56d6:	ee 0f       	add	r30, r30
    56d8:	ff 1f       	adc	r31, r31
    56da:	e8 0f       	add	r30, r24
    56dc:	f9 1f       	adc	r31, r25
    56de:	ee 0f       	add	r30, r30
    56e0:	ff 1f       	adc	r31, r31
    56e2:	ee 0f       	add	r30, r30
    56e4:	ff 1f       	adc	r31, r31
    56e6:	ee 0f       	add	r30, r30
    56e8:	ff 1f       	adc	r31, r31
    56ea:	e8 1b       	sub	r30, r24
    56ec:	f9 0b       	sbc	r31, r25
    56ee:	9f 01       	movw	r18, r30
    56f0:	20 0f       	add	r18, r16
    56f2:	31 1f       	adc	r19, r17
    56f4:	e9 81       	ldd	r30, Y+1	; 0x01
    56f6:	fa 81       	ldd	r31, Y+2	; 0x02
    56f8:	80 81       	ld	r24, Z
    56fa:	f9 01       	movw	r30, r18
    56fc:	85 87       	std	Z+13, r24	; 0x0d
    56fe:	16 86       	std	Z+14, r1	; 0x0e
			   Robot_D[RobotID].M3b  = Buf_Rx_L[8];
    5700:	3c 91       	ld	r19, X
    5702:	8c 91       	ld	r24, X
    5704:	2c 91       	ld	r18, X
    5706:	6c 91       	ld	r22, X
    5708:	90 e0       	ldi	r25, 0x00	; 0
    570a:	80 71       	andi	r24, 0x10	; 16
    570c:	90 70       	andi	r25, 0x00	; 0
    570e:	95 95       	asr	r25
    5710:	87 95       	ror	r24
    5712:	95 95       	asr	r25
    5714:	87 95       	ror	r24
    5716:	95 95       	asr	r25
    5718:	87 95       	ror	r24
    571a:	95 95       	asr	r25
    571c:	87 95       	ror	r24
    571e:	ac 01       	movw	r20, r24
    5720:	44 0f       	add	r20, r20
    5722:	55 1f       	adc	r21, r21
    5724:	82 2f       	mov	r24, r18
    5726:	88 1f       	adc	r24, r24
    5728:	88 27       	eor	r24, r24
    572a:	88 1f       	adc	r24, r24
    572c:	90 e0       	ldi	r25, 0x00	; 0
    572e:	88 0f       	add	r24, r24
    5730:	99 1f       	adc	r25, r25
    5732:	88 0f       	add	r24, r24
    5734:	99 1f       	adc	r25, r25
    5736:	48 2b       	or	r20, r24
    5738:	59 2b       	or	r21, r25
    573a:	83 2f       	mov	r24, r19
    573c:	90 e0       	ldi	r25, 0x00	; 0
    573e:	80 74       	andi	r24, 0x40	; 64
    5740:	90 70       	andi	r25, 0x00	; 0
    5742:	08 2e       	mov	r0, r24
    5744:	89 2f       	mov	r24, r25
    5746:	00 0c       	add	r0, r0
    5748:	88 1f       	adc	r24, r24
    574a:	99 0b       	sbc	r25, r25
    574c:	00 0c       	add	r0, r0
    574e:	88 1f       	adc	r24, r24
    5750:	99 1f       	adc	r25, r25
    5752:	48 2b       	or	r20, r24
    5754:	59 2b       	or	r21, r25
    5756:	86 2f       	mov	r24, r22
    5758:	90 e0       	ldi	r25, 0x00	; 0
    575a:	80 72       	andi	r24, 0x20	; 32
    575c:	90 70       	andi	r25, 0x00	; 0
    575e:	95 95       	asr	r25
    5760:	87 95       	ror	r24
    5762:	95 95       	asr	r25
    5764:	87 95       	ror	r24
    5766:	95 95       	asr	r25
    5768:	87 95       	ror	r24
    576a:	95 95       	asr	r25
    576c:	87 95       	ror	r24
    576e:	95 95       	asr	r25
    5770:	87 95       	ror	r24
    5772:	88 0f       	add	r24, r24
    5774:	99 1f       	adc	r25, r25
    5776:	88 0f       	add	r24, r24
    5778:	99 1f       	adc	r25, r25
    577a:	88 0f       	add	r24, r24
    577c:	99 1f       	adc	r25, r25
    577e:	84 2b       	or	r24, r20
    5780:	95 2b       	or	r25, r21
    5782:	fc 01       	movw	r30, r24
    5784:	ee 0f       	add	r30, r30
    5786:	ff 1f       	adc	r31, r31
    5788:	e8 0f       	add	r30, r24
    578a:	f9 1f       	adc	r31, r25
    578c:	ee 0f       	add	r30, r30
    578e:	ff 1f       	adc	r31, r31
    5790:	ee 0f       	add	r30, r30
    5792:	ff 1f       	adc	r31, r31
    5794:	ee 0f       	add	r30, r30
    5796:	ff 1f       	adc	r31, r31
    5798:	e8 1b       	sub	r30, r24
    579a:	f9 0b       	sbc	r31, r25
    579c:	9f 01       	movw	r18, r30
    579e:	20 0f       	add	r18, r16
    57a0:	31 1f       	adc	r19, r17
    57a2:	eb 81       	ldd	r30, Y+3	; 0x03
    57a4:	fc 81       	ldd	r31, Y+4	; 0x04
    57a6:	80 81       	ld	r24, Z
    57a8:	f9 01       	movw	r30, r18
    57aa:	87 87       	std	Z+15, r24	; 0x0f
    57ac:	10 8a       	std	Z+16, r1	; 0x10
			   Robot_D[RobotID].KCK = Buf_Rx_L[9];
    57ae:	3c 91       	ld	r19, X
    57b0:	8c 91       	ld	r24, X
    57b2:	2c 91       	ld	r18, X
    57b4:	6c 91       	ld	r22, X
    57b6:	90 e0       	ldi	r25, 0x00	; 0
    57b8:	80 71       	andi	r24, 0x10	; 16
    57ba:	90 70       	andi	r25, 0x00	; 0
    57bc:	95 95       	asr	r25
    57be:	87 95       	ror	r24
    57c0:	95 95       	asr	r25
    57c2:	87 95       	ror	r24
    57c4:	95 95       	asr	r25
    57c6:	87 95       	ror	r24
    57c8:	95 95       	asr	r25
    57ca:	87 95       	ror	r24
    57cc:	ac 01       	movw	r20, r24
    57ce:	44 0f       	add	r20, r20
    57d0:	55 1f       	adc	r21, r21
    57d2:	82 2f       	mov	r24, r18
    57d4:	88 1f       	adc	r24, r24
    57d6:	88 27       	eor	r24, r24
    57d8:	88 1f       	adc	r24, r24
    57da:	90 e0       	ldi	r25, 0x00	; 0
    57dc:	88 0f       	add	r24, r24
    57de:	99 1f       	adc	r25, r25
    57e0:	88 0f       	add	r24, r24
    57e2:	99 1f       	adc	r25, r25
    57e4:	48 2b       	or	r20, r24
    57e6:	59 2b       	or	r21, r25
    57e8:	83 2f       	mov	r24, r19
    57ea:	90 e0       	ldi	r25, 0x00	; 0
    57ec:	80 74       	andi	r24, 0x40	; 64
    57ee:	90 70       	andi	r25, 0x00	; 0
    57f0:	08 2e       	mov	r0, r24
    57f2:	89 2f       	mov	r24, r25
    57f4:	00 0c       	add	r0, r0
    57f6:	88 1f       	adc	r24, r24
    57f8:	99 0b       	sbc	r25, r25
    57fa:	00 0c       	add	r0, r0
    57fc:	88 1f       	adc	r24, r24
    57fe:	99 1f       	adc	r25, r25
    5800:	48 2b       	or	r20, r24
    5802:	59 2b       	or	r21, r25
    5804:	86 2f       	mov	r24, r22
    5806:	90 e0       	ldi	r25, 0x00	; 0
    5808:	80 72       	andi	r24, 0x20	; 32
    580a:	90 70       	andi	r25, 0x00	; 0
    580c:	95 95       	asr	r25
    580e:	87 95       	ror	r24
    5810:	95 95       	asr	r25
    5812:	87 95       	ror	r24
    5814:	95 95       	asr	r25
    5816:	87 95       	ror	r24
    5818:	95 95       	asr	r25
    581a:	87 95       	ror	r24
    581c:	95 95       	asr	r25
    581e:	87 95       	ror	r24
    5820:	88 0f       	add	r24, r24
    5822:	99 1f       	adc	r25, r25
    5824:	88 0f       	add	r24, r24
    5826:	99 1f       	adc	r25, r25
    5828:	88 0f       	add	r24, r24
    582a:	99 1f       	adc	r25, r25
    582c:	9a 01       	movw	r18, r20
    582e:	28 2b       	or	r18, r24
    5830:	39 2b       	or	r19, r25
    5832:	c9 01       	movw	r24, r18
    5834:	88 0f       	add	r24, r24
    5836:	99 1f       	adc	r25, r25
    5838:	82 0f       	add	r24, r18
    583a:	93 1f       	adc	r25, r19
    583c:	88 0f       	add	r24, r24
    583e:	99 1f       	adc	r25, r25
    5840:	88 0f       	add	r24, r24
    5842:	99 1f       	adc	r25, r25
    5844:	88 0f       	add	r24, r24
    5846:	99 1f       	adc	r25, r25
    5848:	82 1b       	sub	r24, r18
    584a:	93 0b       	sbc	r25, r19
    584c:	80 0f       	add	r24, r16
    584e:	91 1f       	adc	r25, r17
    5850:	ed 81       	ldd	r30, Y+5	; 0x05
    5852:	fe 81       	ldd	r31, Y+6	; 0x06
    5854:	20 81       	ld	r18, Z
    5856:	fc 01       	movw	r30, r24
    5858:	21 8b       	std	Z+17, r18	; 0x11
			   Robot_D[RobotID].CHP = Buf_Rx_L[10];
    585a:	3c 91       	ld	r19, X
    585c:	8c 91       	ld	r24, X
    585e:	2c 91       	ld	r18, X
    5860:	6c 91       	ld	r22, X
    5862:	90 e0       	ldi	r25, 0x00	; 0
    5864:	80 71       	andi	r24, 0x10	; 16
    5866:	90 70       	andi	r25, 0x00	; 0
    5868:	95 95       	asr	r25
    586a:	87 95       	ror	r24
    586c:	95 95       	asr	r25
    586e:	87 95       	ror	r24
    5870:	95 95       	asr	r25
    5872:	87 95       	ror	r24
    5874:	95 95       	asr	r25
    5876:	87 95       	ror	r24
    5878:	ac 01       	movw	r20, r24
    587a:	44 0f       	add	r20, r20
    587c:	55 1f       	adc	r21, r21
    587e:	82 2f       	mov	r24, r18
    5880:	88 1f       	adc	r24, r24
    5882:	88 27       	eor	r24, r24
    5884:	88 1f       	adc	r24, r24
    5886:	90 e0       	ldi	r25, 0x00	; 0
    5888:	88 0f       	add	r24, r24
    588a:	99 1f       	adc	r25, r25
    588c:	88 0f       	add	r24, r24
    588e:	99 1f       	adc	r25, r25
    5890:	48 2b       	or	r20, r24
    5892:	59 2b       	or	r21, r25
    5894:	83 2f       	mov	r24, r19
    5896:	90 e0       	ldi	r25, 0x00	; 0
    5898:	80 74       	andi	r24, 0x40	; 64
    589a:	90 70       	andi	r25, 0x00	; 0
    589c:	08 2e       	mov	r0, r24
    589e:	89 2f       	mov	r24, r25
    58a0:	00 0c       	add	r0, r0
    58a2:	88 1f       	adc	r24, r24
    58a4:	99 0b       	sbc	r25, r25
    58a6:	00 0c       	add	r0, r0
    58a8:	88 1f       	adc	r24, r24
    58aa:	99 1f       	adc	r25, r25
    58ac:	48 2b       	or	r20, r24
    58ae:	59 2b       	or	r21, r25
    58b0:	86 2f       	mov	r24, r22
    58b2:	90 e0       	ldi	r25, 0x00	; 0
    58b4:	80 72       	andi	r24, 0x20	; 32
    58b6:	90 70       	andi	r25, 0x00	; 0
    58b8:	95 95       	asr	r25
    58ba:	87 95       	ror	r24
    58bc:	95 95       	asr	r25
    58be:	87 95       	ror	r24
    58c0:	95 95       	asr	r25
    58c2:	87 95       	ror	r24
    58c4:	95 95       	asr	r25
    58c6:	87 95       	ror	r24
    58c8:	95 95       	asr	r25
    58ca:	87 95       	ror	r24
    58cc:	88 0f       	add	r24, r24
    58ce:	99 1f       	adc	r25, r25
    58d0:	88 0f       	add	r24, r24
    58d2:	99 1f       	adc	r25, r25
    58d4:	88 0f       	add	r24, r24
    58d6:	99 1f       	adc	r25, r25
    58d8:	9a 01       	movw	r18, r20
    58da:	28 2b       	or	r18, r24
    58dc:	39 2b       	or	r19, r25
    58de:	c9 01       	movw	r24, r18
    58e0:	88 0f       	add	r24, r24
    58e2:	99 1f       	adc	r25, r25
    58e4:	82 0f       	add	r24, r18
    58e6:	93 1f       	adc	r25, r19
    58e8:	88 0f       	add	r24, r24
    58ea:	99 1f       	adc	r25, r25
    58ec:	88 0f       	add	r24, r24
    58ee:	99 1f       	adc	r25, r25
    58f0:	88 0f       	add	r24, r24
    58f2:	99 1f       	adc	r25, r25
    58f4:	82 1b       	sub	r24, r18
    58f6:	93 0b       	sbc	r25, r19
    58f8:	80 0f       	add	r24, r16
    58fa:	91 1f       	adc	r25, r17
    58fc:	ef 81       	ldd	r30, Y+7	; 0x07
    58fe:	f8 85       	ldd	r31, Y+8	; 0x08
    5900:	20 81       	ld	r18, Z
    5902:	fc 01       	movw	r30, r24
    5904:	22 8b       	std	Z+18, r18	; 0x12
			   Robot_D[RobotID].ASK = Buf_Rx_L[11];
    5906:	3c 91       	ld	r19, X
    5908:	8c 91       	ld	r24, X
    590a:	2c 91       	ld	r18, X
    590c:	6c 91       	ld	r22, X
    590e:	90 e0       	ldi	r25, 0x00	; 0
    5910:	80 71       	andi	r24, 0x10	; 16
    5912:	90 70       	andi	r25, 0x00	; 0
    5914:	95 95       	asr	r25
    5916:	87 95       	ror	r24
    5918:	95 95       	asr	r25
    591a:	87 95       	ror	r24
    591c:	95 95       	asr	r25
    591e:	87 95       	ror	r24
    5920:	95 95       	asr	r25
    5922:	87 95       	ror	r24
    5924:	ac 01       	movw	r20, r24
    5926:	44 0f       	add	r20, r20
    5928:	55 1f       	adc	r21, r21
    592a:	82 2f       	mov	r24, r18
    592c:	88 1f       	adc	r24, r24
    592e:	88 27       	eor	r24, r24
    5930:	88 1f       	adc	r24, r24
    5932:	90 e0       	ldi	r25, 0x00	; 0
    5934:	88 0f       	add	r24, r24
    5936:	99 1f       	adc	r25, r25
    5938:	88 0f       	add	r24, r24
    593a:	99 1f       	adc	r25, r25
    593c:	48 2b       	or	r20, r24
    593e:	59 2b       	or	r21, r25
    5940:	83 2f       	mov	r24, r19
    5942:	90 e0       	ldi	r25, 0x00	; 0
    5944:	80 74       	andi	r24, 0x40	; 64
    5946:	90 70       	andi	r25, 0x00	; 0
    5948:	08 2e       	mov	r0, r24
    594a:	89 2f       	mov	r24, r25
    594c:	00 0c       	add	r0, r0
    594e:	88 1f       	adc	r24, r24
    5950:	99 0b       	sbc	r25, r25
    5952:	00 0c       	add	r0, r0
    5954:	88 1f       	adc	r24, r24
    5956:	99 1f       	adc	r25, r25
    5958:	48 2b       	or	r20, r24
    595a:	59 2b       	or	r21, r25
    595c:	86 2f       	mov	r24, r22
    595e:	90 e0       	ldi	r25, 0x00	; 0
    5960:	80 72       	andi	r24, 0x20	; 32
    5962:	90 70       	andi	r25, 0x00	; 0
    5964:	95 95       	asr	r25
    5966:	87 95       	ror	r24
    5968:	95 95       	asr	r25
    596a:	87 95       	ror	r24
    596c:	95 95       	asr	r25
    596e:	87 95       	ror	r24
    5970:	95 95       	asr	r25
    5972:	87 95       	ror	r24
    5974:	95 95       	asr	r25
    5976:	87 95       	ror	r24
    5978:	88 0f       	add	r24, r24
    597a:	99 1f       	adc	r25, r25
    597c:	88 0f       	add	r24, r24
    597e:	99 1f       	adc	r25, r25
    5980:	88 0f       	add	r24, r24
    5982:	99 1f       	adc	r25, r25
    5984:	9a 01       	movw	r18, r20
    5986:	28 2b       	or	r18, r24
    5988:	39 2b       	or	r19, r25
    598a:	c9 01       	movw	r24, r18
    598c:	88 0f       	add	r24, r24
    598e:	99 1f       	adc	r25, r25
    5990:	82 0f       	add	r24, r18
    5992:	93 1f       	adc	r25, r19
    5994:	88 0f       	add	r24, r24
    5996:	99 1f       	adc	r25, r25
    5998:	88 0f       	add	r24, r24
    599a:	99 1f       	adc	r25, r25
    599c:	88 0f       	add	r24, r24
    599e:	99 1f       	adc	r25, r25
    59a0:	82 1b       	sub	r24, r18
    59a2:	93 0b       	sbc	r25, r19
    59a4:	80 0f       	add	r24, r16
    59a6:	91 1f       	adc	r25, r17
    59a8:	e9 85       	ldd	r30, Y+9	; 0x09
    59aa:	fa 85       	ldd	r31, Y+10	; 0x0a
    59ac:	20 81       	ld	r18, Z
    59ae:	fc 01       	movw	r30, r24
    59b0:	23 8b       	std	Z+19, r18	; 0x13
			   Robot_D[RobotID].P = Buf_Rx_L[12];
    59b2:	3c 91       	ld	r19, X
    59b4:	8c 91       	ld	r24, X
    59b6:	2c 91       	ld	r18, X
    59b8:	6c 91       	ld	r22, X
    59ba:	90 e0       	ldi	r25, 0x00	; 0
    59bc:	80 71       	andi	r24, 0x10	; 16
    59be:	90 70       	andi	r25, 0x00	; 0
    59c0:	95 95       	asr	r25
    59c2:	87 95       	ror	r24
    59c4:	95 95       	asr	r25
    59c6:	87 95       	ror	r24
    59c8:	95 95       	asr	r25
    59ca:	87 95       	ror	r24
    59cc:	95 95       	asr	r25
    59ce:	87 95       	ror	r24
    59d0:	ac 01       	movw	r20, r24
    59d2:	44 0f       	add	r20, r20
    59d4:	55 1f       	adc	r21, r21
    59d6:	82 2f       	mov	r24, r18
    59d8:	88 1f       	adc	r24, r24
    59da:	88 27       	eor	r24, r24
    59dc:	88 1f       	adc	r24, r24
    59de:	90 e0       	ldi	r25, 0x00	; 0
    59e0:	88 0f       	add	r24, r24
    59e2:	99 1f       	adc	r25, r25
    59e4:	88 0f       	add	r24, r24
    59e6:	99 1f       	adc	r25, r25
    59e8:	48 2b       	or	r20, r24
    59ea:	59 2b       	or	r21, r25
    59ec:	83 2f       	mov	r24, r19
    59ee:	90 e0       	ldi	r25, 0x00	; 0
    59f0:	80 74       	andi	r24, 0x40	; 64
    59f2:	90 70       	andi	r25, 0x00	; 0
    59f4:	08 2e       	mov	r0, r24
    59f6:	89 2f       	mov	r24, r25
    59f8:	00 0c       	add	r0, r0
    59fa:	88 1f       	adc	r24, r24
    59fc:	99 0b       	sbc	r25, r25
    59fe:	00 0c       	add	r0, r0
    5a00:	88 1f       	adc	r24, r24
    5a02:	99 1f       	adc	r25, r25
    5a04:	48 2b       	or	r20, r24
    5a06:	59 2b       	or	r21, r25
    5a08:	86 2f       	mov	r24, r22
    5a0a:	90 e0       	ldi	r25, 0x00	; 0
    5a0c:	80 72       	andi	r24, 0x20	; 32
    5a0e:	90 70       	andi	r25, 0x00	; 0
    5a10:	95 95       	asr	r25
    5a12:	87 95       	ror	r24
    5a14:	95 95       	asr	r25
    5a16:	87 95       	ror	r24
    5a18:	95 95       	asr	r25
    5a1a:	87 95       	ror	r24
    5a1c:	95 95       	asr	r25
    5a1e:	87 95       	ror	r24
    5a20:	95 95       	asr	r25
    5a22:	87 95       	ror	r24
    5a24:	88 0f       	add	r24, r24
    5a26:	99 1f       	adc	r25, r25
    5a28:	88 0f       	add	r24, r24
    5a2a:	99 1f       	adc	r25, r25
    5a2c:	88 0f       	add	r24, r24
    5a2e:	99 1f       	adc	r25, r25
    5a30:	9a 01       	movw	r18, r20
    5a32:	28 2b       	or	r18, r24
    5a34:	39 2b       	or	r19, r25
    5a36:	c9 01       	movw	r24, r18
    5a38:	88 0f       	add	r24, r24
    5a3a:	99 1f       	adc	r25, r25
    5a3c:	82 0f       	add	r24, r18
    5a3e:	93 1f       	adc	r25, r19
    5a40:	88 0f       	add	r24, r24
    5a42:	99 1f       	adc	r25, r25
    5a44:	88 0f       	add	r24, r24
    5a46:	99 1f       	adc	r25, r25
    5a48:	88 0f       	add	r24, r24
    5a4a:	99 1f       	adc	r25, r25
    5a4c:	82 1b       	sub	r24, r18
    5a4e:	93 0b       	sbc	r25, r19
    5a50:	80 0f       	add	r24, r16
    5a52:	91 1f       	adc	r25, r17
    5a54:	f7 01       	movw	r30, r14
    5a56:	23 85       	ldd	r18, Z+11	; 0x0b
    5a58:	fc 01       	movw	r30, r24
    5a5a:	24 8b       	std	Z+20, r18	; 0x14
			   Robot_D[RobotID].I = Buf_Rx_L[13];
    5a5c:	3c 91       	ld	r19, X
    5a5e:	8c 91       	ld	r24, X
    5a60:	2c 91       	ld	r18, X
    5a62:	6c 91       	ld	r22, X
    5a64:	90 e0       	ldi	r25, 0x00	; 0
    5a66:	80 71       	andi	r24, 0x10	; 16
    5a68:	90 70       	andi	r25, 0x00	; 0
    5a6a:	95 95       	asr	r25
    5a6c:	87 95       	ror	r24
    5a6e:	95 95       	asr	r25
    5a70:	87 95       	ror	r24
    5a72:	95 95       	asr	r25
    5a74:	87 95       	ror	r24
    5a76:	95 95       	asr	r25
    5a78:	87 95       	ror	r24
    5a7a:	ac 01       	movw	r20, r24
    5a7c:	44 0f       	add	r20, r20
    5a7e:	55 1f       	adc	r21, r21
    5a80:	82 2f       	mov	r24, r18
    5a82:	88 1f       	adc	r24, r24
    5a84:	88 27       	eor	r24, r24
    5a86:	88 1f       	adc	r24, r24
    5a88:	90 e0       	ldi	r25, 0x00	; 0
    5a8a:	88 0f       	add	r24, r24
    5a8c:	99 1f       	adc	r25, r25
    5a8e:	88 0f       	add	r24, r24
    5a90:	99 1f       	adc	r25, r25
    5a92:	48 2b       	or	r20, r24
    5a94:	59 2b       	or	r21, r25
    5a96:	83 2f       	mov	r24, r19
    5a98:	90 e0       	ldi	r25, 0x00	; 0
    5a9a:	80 74       	andi	r24, 0x40	; 64
    5a9c:	90 70       	andi	r25, 0x00	; 0
    5a9e:	08 2e       	mov	r0, r24
    5aa0:	89 2f       	mov	r24, r25
    5aa2:	00 0c       	add	r0, r0
    5aa4:	88 1f       	adc	r24, r24
    5aa6:	99 0b       	sbc	r25, r25
    5aa8:	00 0c       	add	r0, r0
    5aaa:	88 1f       	adc	r24, r24
    5aac:	99 1f       	adc	r25, r25
    5aae:	48 2b       	or	r20, r24
    5ab0:	59 2b       	or	r21, r25
    5ab2:	86 2f       	mov	r24, r22
    5ab4:	90 e0       	ldi	r25, 0x00	; 0
    5ab6:	80 72       	andi	r24, 0x20	; 32
    5ab8:	90 70       	andi	r25, 0x00	; 0
    5aba:	95 95       	asr	r25
    5abc:	87 95       	ror	r24
    5abe:	95 95       	asr	r25
    5ac0:	87 95       	ror	r24
    5ac2:	95 95       	asr	r25
    5ac4:	87 95       	ror	r24
    5ac6:	95 95       	asr	r25
    5ac8:	87 95       	ror	r24
    5aca:	95 95       	asr	r25
    5acc:	87 95       	ror	r24
    5ace:	88 0f       	add	r24, r24
    5ad0:	99 1f       	adc	r25, r25
    5ad2:	88 0f       	add	r24, r24
    5ad4:	99 1f       	adc	r25, r25
    5ad6:	88 0f       	add	r24, r24
    5ad8:	99 1f       	adc	r25, r25
    5ada:	9a 01       	movw	r18, r20
    5adc:	28 2b       	or	r18, r24
    5ade:	39 2b       	or	r19, r25
    5ae0:	c9 01       	movw	r24, r18
    5ae2:	88 0f       	add	r24, r24
    5ae4:	99 1f       	adc	r25, r25
    5ae6:	82 0f       	add	r24, r18
    5ae8:	93 1f       	adc	r25, r19
    5aea:	88 0f       	add	r24, r24
    5aec:	99 1f       	adc	r25, r25
    5aee:	88 0f       	add	r24, r24
    5af0:	99 1f       	adc	r25, r25
    5af2:	88 0f       	add	r24, r24
    5af4:	99 1f       	adc	r25, r25
    5af6:	82 1b       	sub	r24, r18
    5af8:	93 0b       	sbc	r25, r19
    5afa:	80 0f       	add	r24, r16
    5afc:	91 1f       	adc	r25, r17
    5afe:	f7 01       	movw	r30, r14
    5b00:	24 85       	ldd	r18, Z+12	; 0x0c
    5b02:	fc 01       	movw	r30, r24
    5b04:	25 8b       	std	Z+21, r18	; 0x15
			   Robot_D[RobotID].D = Buf_Rx_L[14];
    5b06:	3c 91       	ld	r19, X
    5b08:	8c 91       	ld	r24, X
    5b0a:	2c 91       	ld	r18, X
    5b0c:	6c 91       	ld	r22, X
    5b0e:	90 e0       	ldi	r25, 0x00	; 0
    5b10:	80 71       	andi	r24, 0x10	; 16
    5b12:	90 70       	andi	r25, 0x00	; 0
    5b14:	95 95       	asr	r25
    5b16:	87 95       	ror	r24
    5b18:	95 95       	asr	r25
    5b1a:	87 95       	ror	r24
    5b1c:	95 95       	asr	r25
    5b1e:	87 95       	ror	r24
    5b20:	95 95       	asr	r25
    5b22:	87 95       	ror	r24
    5b24:	ac 01       	movw	r20, r24
    5b26:	44 0f       	add	r20, r20
    5b28:	55 1f       	adc	r21, r21
    5b2a:	22 1f       	adc	r18, r18
    5b2c:	22 27       	eor	r18, r18
    5b2e:	22 1f       	adc	r18, r18
    5b30:	82 2f       	mov	r24, r18
    5b32:	90 e0       	ldi	r25, 0x00	; 0
    5b34:	88 0f       	add	r24, r24
    5b36:	99 1f       	adc	r25, r25
    5b38:	88 0f       	add	r24, r24
    5b3a:	99 1f       	adc	r25, r25
    5b3c:	48 2b       	or	r20, r24
    5b3e:	59 2b       	or	r21, r25
    5b40:	83 2f       	mov	r24, r19
    5b42:	90 e0       	ldi	r25, 0x00	; 0
    5b44:	80 74       	andi	r24, 0x40	; 64
    5b46:	90 70       	andi	r25, 0x00	; 0
    5b48:	08 2e       	mov	r0, r24
    5b4a:	89 2f       	mov	r24, r25
    5b4c:	00 0c       	add	r0, r0
    5b4e:	88 1f       	adc	r24, r24
    5b50:	99 0b       	sbc	r25, r25
    5b52:	00 0c       	add	r0, r0
    5b54:	88 1f       	adc	r24, r24
    5b56:	99 1f       	adc	r25, r25
    5b58:	48 2b       	or	r20, r24
    5b5a:	59 2b       	or	r21, r25
    5b5c:	86 2f       	mov	r24, r22
    5b5e:	90 e0       	ldi	r25, 0x00	; 0
    5b60:	80 72       	andi	r24, 0x20	; 32
    5b62:	90 70       	andi	r25, 0x00	; 0
    5b64:	95 95       	asr	r25
    5b66:	87 95       	ror	r24
    5b68:	95 95       	asr	r25
    5b6a:	87 95       	ror	r24
    5b6c:	95 95       	asr	r25
    5b6e:	87 95       	ror	r24
    5b70:	95 95       	asr	r25
    5b72:	87 95       	ror	r24
    5b74:	95 95       	asr	r25
    5b76:	87 95       	ror	r24
    5b78:	88 0f       	add	r24, r24
    5b7a:	99 1f       	adc	r25, r25
    5b7c:	88 0f       	add	r24, r24
    5b7e:	99 1f       	adc	r25, r25
    5b80:	88 0f       	add	r24, r24
    5b82:	99 1f       	adc	r25, r25
    5b84:	9a 01       	movw	r18, r20
    5b86:	28 2b       	or	r18, r24
    5b88:	39 2b       	or	r19, r25
    5b8a:	c9 01       	movw	r24, r18
    5b8c:	88 0f       	add	r24, r24
    5b8e:	99 1f       	adc	r25, r25
    5b90:	82 0f       	add	r24, r18
    5b92:	93 1f       	adc	r25, r19
    5b94:	88 0f       	add	r24, r24
    5b96:	99 1f       	adc	r25, r25
    5b98:	88 0f       	add	r24, r24
    5b9a:	99 1f       	adc	r25, r25
    5b9c:	88 0f       	add	r24, r24
    5b9e:	99 1f       	adc	r25, r25
    5ba0:	82 1b       	sub	r24, r18
    5ba2:	93 0b       	sbc	r25, r19
    5ba4:	80 0f       	add	r24, r16
    5ba6:	91 1f       	adc	r25, r17
    5ba8:	f7 01       	movw	r30, r14
    5baa:	25 85       	ldd	r18, Z+13	; 0x0d
    5bac:	fc 01       	movw	r30, r24
    5bae:	26 8b       	std	Z+22, r18	; 0x16
		   }
		   //2) clear RX_DR IRQ,
		   status_L=NRF24L01_L_WriteReg(W_REGISTER | STATUSe, _RX_DR );
    5bb0:	87 e2       	ldi	r24, 0x27	; 39
    5bb2:	60 e4       	ldi	r22, 0x40	; 64
    5bb4:	91 d3       	rcall	.+1826   	; 0x62d8 <NRF24L01_L_WriteReg>
    5bb6:	8b 87       	std	Y+11, r24	; 0x0b
    5bb8:	87 e1       	ldi	r24, 0x17	; 23
		   //3) read FIFO_STATUS to check if there are more payloads available in RX FIFO,
		   //4) if there are more data in RX FIFO, repeat from step 1).
	   } while((NRF24L01_L_ReadReg(FIFO_STATUS)&RX_EMPTY) == 0x00);
    5bba:	b8 d3       	rcall	.+1904   	; 0x632c <NRF24L01_L_ReadReg>
    5bbc:	80 ff       	sbrs	r24, 0
    5bbe:	9b ca       	rjmp	.-2762   	; 0x50f6 <__vector_43+0xf4>
    5bc0:	0b 85       	ldd	r16, Y+11	; 0x0b
    5bc2:	04 ff       	sbrs	r16, 4
    5bc4:	01 c0       	rjmp	.+2      	; 0x5bc8 <__vector_43+0xbc6>

	if((status_L&_TX_DS) == _TX_DS)
	{
		//LED_Green_L_PORT.OUTTGL = LED_Green_L_PIN_bm;
	}
	if ((status_L&_MAX_RT) == _MAX_RT)
    5bc6:	17 d3       	rcall	.+1582   	; 0x61f6 <NRF24L01_L_Flush_TX>
    5bc8:	2b 96       	adiw	r28, 0x0b	; 11
	{
		NRF24L01_L_Flush_TX();
    5bca:	cd bf       	out	0x3d, r28	; 61
    5bcc:	de bf       	out	0x3e, r29	; 62
	}

}
    5bce:	df 91       	pop	r29
    5bd0:	cf 91       	pop	r28
    5bd2:	ff 91       	pop	r31
    5bd4:	ef 91       	pop	r30
    5bd6:	bf 91       	pop	r27
    5bd8:	af 91       	pop	r26
    5bda:	9f 91       	pop	r25
    5bdc:	8f 91       	pop	r24
    5bde:	7f 91       	pop	r23
    5be0:	6f 91       	pop	r22
    5be2:	5f 91       	pop	r21
    5be4:	4f 91       	pop	r20
    5be6:	3f 91       	pop	r19
    5be8:	2f 91       	pop	r18
    5bea:	1f 91       	pop	r17
    5bec:	0f 91       	pop	r16
    5bee:	ff 90       	pop	r15
    5bf0:	ef 90       	pop	r14
    5bf2:	df 90       	pop	r13
    5bf4:	cf 90       	pop	r12
    5bf6:	bf 90       	pop	r11
    5bf8:	af 90       	pop	r10
    5bfa:	9f 90       	pop	r9
    5bfc:	8f 90       	pop	r8
    5bfe:	7f 90       	pop	r7
    5c00:	6f 90       	pop	r6
    5c02:	5f 90       	pop	r5
    5c04:	4f 90       	pop	r4
    5c06:	3f 90       	pop	r3
    5c08:	2f 90       	pop	r2
    5c0a:	0f 90       	pop	r0
    5c0c:	0b be       	out	0x3b, r0	; 59
    5c0e:	0f 90       	pop	r0
    5c10:	09 be       	out	0x39, r0	; 57
    5c12:	0f 90       	pop	r0
    5c14:	08 be       	out	0x38, r0	; 56
    5c16:	0f 90       	pop	r0
    5c18:	0f be       	out	0x3f, r0	; 63
    5c1a:	0f 90       	pop	r0
    5c1c:	1f 90       	pop	r1
    5c1e:	18 95       	reti

00005c20 <__vector_77>:
    5c20:	1f 92       	push	r1
    5c22:	0f 92       	push	r0
    5c24:	0f b6       	in	r0, 0x3f	; 63

char timectrl;
ISR(TCD0_OVF_vect)
{
    5c26:	0f 92       	push	r0
    5c28:	08 b6       	in	r0, 0x38	; 56
    5c2a:	0f 92       	push	r0
    5c2c:	09 b6       	in	r0, 0x39	; 57
    5c2e:	0f 92       	push	r0
    5c30:	0a b6       	in	r0, 0x3a	; 58
    5c32:	0f 92       	push	r0
    5c34:	0b b6       	in	r0, 0x3b	; 59
    5c36:	0f 92       	push	r0
    5c38:	11 24       	eor	r1, r1
    5c3a:	2f 93       	push	r18
    5c3c:	3f 93       	push	r19
    5c3e:	4f 93       	push	r20
    5c40:	5f 93       	push	r21
    5c42:	6f 93       	push	r22
    5c44:	7f 93       	push	r23
    5c46:	8f 93       	push	r24
    5c48:	9f 93       	push	r25
    5c4a:	af 93       	push	r26
    5c4c:	bf 93       	push	r27
    5c4e:	cf 93       	push	r28
    5c50:	df 93       	push	r29
    5c52:	ef 93       	push	r30
    5c54:	ff 93       	push	r31
    wdt_reset();
    5c56:	a8 95       	wdr
    timectrl++;
    5c58:	80 91 6d 24 	lds	r24, 0x246D
    5c5c:	8f 5f       	subi	r24, 0xFF	; 255
    5c5e:	80 93 6d 24 	sts	0x246D, r24
    if (timectrl>=20)
    5c62:	84 31       	cpi	r24, 0x14	; 20
    5c64:	2c f0       	brlt	.+10     	; 0x5c70 <__vector_77+0x50>
    {
        //LED_Green_PORT.OUTTGL = LED_Green_PIN_bm;
        ctrlflg=1;
    5c66:	81 e0       	ldi	r24, 0x01	; 1
    5c68:	80 93 a2 21 	sts	0x21A2, r24
		timectrl=0;
    5c6c:	10 92 6d 24 	sts	0x246D, r1
    }

    //timer for 1ms
    time_ms++;
    5c70:	80 91 a3 21 	lds	r24, 0x21A3
    5c74:	90 91 a4 21 	lds	r25, 0x21A4
    5c78:	a0 91 a5 21 	lds	r26, 0x21A5
    5c7c:	b0 91 a6 21 	lds	r27, 0x21A6
    5c80:	01 96       	adiw	r24, 0x01	; 1
    5c82:	a1 1d       	adc	r26, r1
    5c84:	b1 1d       	adc	r27, r1
    5c86:	80 93 a3 21 	sts	0x21A3, r24
    5c8a:	90 93 a4 21 	sts	0x21A4, r25
    5c8e:	a0 93 a5 21 	sts	0x21A5, r26
    5c92:	b0 93 a6 21 	sts	0x21A6, r27
    if(speed)
    5c96:	20 91 a9 21 	lds	r18, 0x21A9
    5c9a:	30 91 aa 21 	lds	r19, 0x21AA
    5c9e:	21 15       	cp	r18, r1
    5ca0:	31 05       	cpc	r19, r1
    5ca2:	09 f4       	brne	.+2      	; 0x5ca6 <__vector_77+0x86>
    5ca4:	51 c0       	rjmp	.+162    	; 0x5d48 <__vector_77+0x128>
    {
	    kck_time++;
    5ca6:	80 91 d0 22 	lds	r24, 0x22D0
    5caa:	90 91 d1 22 	lds	r25, 0x22D1
    5cae:	a0 91 d2 22 	lds	r26, 0x22D2
    5cb2:	b0 91 d3 22 	lds	r27, 0x22D3
    5cb6:	01 96       	adiw	r24, 0x01	; 1
    5cb8:	a1 1d       	adc	r26, r1
    5cba:	b1 1d       	adc	r27, r1
    5cbc:	80 93 d0 22 	sts	0x22D0, r24
    5cc0:	90 93 d1 22 	sts	0x22D1, r25
    5cc4:	a0 93 d2 22 	sts	0x22D2, r26
    5cc8:	b0 93 d3 22 	sts	0x22D3, r27
	    if(kck_time<100)
    5ccc:	84 36       	cpi	r24, 0x64	; 100
    5cce:	91 05       	cpc	r25, r1
    5cd0:	a1 05       	cpc	r26, r1
    5cd2:	b1 05       	cpc	r27, r1
    5cd4:	a8 f4       	brcc	.+42     	; 0x5d00 <__vector_77+0xe0>
	    {
		    KCK_Charge(KCK_CHARGE_OFF); KCK_Speed_DIR(speed);
    5cd6:	e0 e2       	ldi	r30, 0x20	; 32
    5cd8:	f6 e0       	ldi	r31, 0x06	; 6
    5cda:	84 81       	ldd	r24, Z+4	; 0x04
    5cdc:	80 64       	ori	r24, 0x40	; 64
    5cde:	84 83       	std	Z+4, r24	; 0x04
    5ce0:	20 93 2a 08 	sts	0x082A, r18
    5ce4:	30 93 2b 08 	sts	0x082B, r19
			KCK_Charge(KCK_CHARGE_OFF); KCK_Speed_CHIP(speed);
    5ce8:	84 81       	ldd	r24, Z+4	; 0x04
    5cea:	80 64       	ori	r24, 0x40	; 64
    5cec:	84 83       	std	Z+4, r24	; 0x04
    5cee:	80 91 a9 21 	lds	r24, 0x21A9
    5cf2:	90 91 aa 21 	lds	r25, 0x21AA
    5cf6:	80 93 28 08 	sts	0x0828, r24
    5cfa:	90 93 29 08 	sts	0x0829, r25
    5cfe:	24 c0       	rjmp	.+72     	; 0x5d48 <__vector_77+0x128>
	    }
	    else
	    {
		if(kck_time>3000){kck_time=0; speed=0;}
    5d00:	89 3b       	cpi	r24, 0xB9	; 185
    5d02:	2b e0       	ldi	r18, 0x0B	; 11
    5d04:	92 07       	cpc	r25, r18
    5d06:	20 e0       	ldi	r18, 0x00	; 0
    5d08:	a2 07       	cpc	r26, r18
    5d0a:	20 e0       	ldi	r18, 0x00	; 0
    5d0c:	b2 07       	cpc	r27, r18
    5d0e:	60 f0       	brcs	.+24     	; 0x5d28 <__vector_77+0x108>
    5d10:	10 92 d0 22 	sts	0x22D0, r1
    5d14:	10 92 d1 22 	sts	0x22D1, r1
    5d18:	10 92 d2 22 	sts	0x22D2, r1
    5d1c:	10 92 d3 22 	sts	0x22D3, r1
    5d20:	10 92 a9 21 	sts	0x21A9, r1
    5d24:	10 92 aa 21 	sts	0x21AA, r1
		KCK_Speed_DIR(KCK_SPEED_OFF);KCK_Charge(KCK_CHARGE_ON);
    5d28:	10 92 2a 08 	sts	0x082A, r1
    5d2c:	10 92 2b 08 	sts	0x082B, r1
    5d30:	e0 e2       	ldi	r30, 0x20	; 32
    5d32:	f6 e0       	ldi	r31, 0x06	; 6
    5d34:	84 81       	ldd	r24, Z+4	; 0x04
    5d36:	8f 7b       	andi	r24, 0xBF	; 191
    5d38:	84 83       	std	Z+4, r24	; 0x04
		KCK_Speed_CHIP(KCK_SPEED_OFF);KCK_Charge(KCK_CHARGE_ON);
    5d3a:	10 92 28 08 	sts	0x0828, r1
    5d3e:	10 92 29 08 	sts	0x0829, r1
    5d42:	84 81       	ldd	r24, Z+4	; 0x04
    5d44:	8f 7b       	andi	r24, 0xBF	; 191
    5d46:	84 83       	std	Z+4, r24	; 0x04
		}
    }



    cnt++;
    5d48:	80 91 ab 21 	lds	r24, 0x21AB
    5d4c:	90 91 ac 21 	lds	r25, 0x21AC
    5d50:	01 96       	adiw	r24, 0x01	; 1
    5d52:	80 93 ab 21 	sts	0x21AB, r24
    5d56:	90 93 ac 21 	sts	0x21AC, r25
        //tx2[0]=0;
        //tx3[0]=0;
        //tx4[0]=0;
    }

    if(menu_time == 1)
    5d5a:	80 91 4c 21 	lds	r24, 0x214C
    5d5e:	90 91 4d 21 	lds	r25, 0x214D
    5d62:	81 30       	cpi	r24, 0x01	; 1
    5d64:	91 05       	cpc	r25, r1
    5d66:	81 f4       	brne	.+32     	; 0x5d88 <__vector_77+0x168>
    {
        Menu_Disp(Menu_Disp_OFF);
    5d68:	10 92 ad 21 	sts	0x21AD, r1
        Menu_Display();
    5d6c:	0e 94 82 09 	call	0x1304	; 0x1304 <Menu_Display>
        Menu_Reset();
    5d70:	0e 94 da 0a 	call	0x15b4	; 0x15b4 <Menu_Reset>
        menu_time--;
    5d74:	80 91 4c 21 	lds	r24, 0x214C
    5d78:	90 91 4d 21 	lds	r25, 0x214D
    5d7c:	01 97       	sbiw	r24, 0x01	; 1
    5d7e:	80 93 4c 21 	sts	0x214C, r24
    5d82:	90 93 4d 21 	sts	0x214D, r25
    5d86:	b4 c0       	rjmp	.+360    	; 0x5ef0 <__vector_77+0x2d0>
    }
    else if (menu_time>1)
    5d88:	82 30       	cpi	r24, 0x02	; 2
    5d8a:	91 05       	cpc	r25, r1
    5d8c:	08 f1       	brcs	.+66     	; 0x5dd0 <__vector_77+0x1b0>
    {
        menu_time--;
    5d8e:	01 97       	sbiw	r24, 0x01	; 1
    5d90:	80 93 4c 21 	sts	0x214C, r24
    5d94:	90 93 4d 21 	sts	0x214D, r25
        menu_check_status();
    5d98:	0e 94 b2 09 	call	0x1364	; 0x1364 <menu_check_status>

        if(menu_time<3000)
    5d9c:	80 91 4c 21 	lds	r24, 0x214C
    5da0:	90 91 4d 21 	lds	r25, 0x214D
    5da4:	2b e0       	ldi	r18, 0x0B	; 11
    5da6:	88 3b       	cpi	r24, 0xB8	; 184
    5da8:	92 07       	cpc	r25, r18
    5daa:	08 f0       	brcs	.+2      	; 0x5dae <__vector_77+0x18e>
    5dac:	a1 c0       	rjmp	.+322    	; 0x5ef0 <__vector_77+0x2d0>
        {
            Buzzer_Time=menu_time;
    5dae:	a0 e0       	ldi	r26, 0x00	; 0
    5db0:	b0 e0       	ldi	r27, 0x00	; 0
    5db2:	80 93 3b 21 	sts	0x213B, r24
    5db6:	90 93 3c 21 	sts	0x213C, r25
    5dba:	a0 93 3d 21 	sts	0x213D, r26
    5dbe:	b0 93 3e 21 	sts	0x213E, r27
            Buzzer_Speed=200;
    5dc2:	88 ec       	ldi	r24, 0xC8	; 200
    5dc4:	90 e0       	ldi	r25, 0x00	; 0
    5dc6:	80 93 31 23 	sts	0x2331, r24
    5dca:	90 93 32 23 	sts	0x2332, r25
    5dce:	90 c0       	rjmp	.+288    	; 0x5ef0 <__vector_77+0x2d0>
        }
    }
    else
    {
        Disp_R_PORT.OUT = Seg[RobotID];
    5dd0:	e8 e0       	ldi	r30, 0x08	; 8
    5dd2:	f6 e0       	ldi	r31, 0x06	; 6
    5dd4:	20 81       	ld	r18, Z
    5dd6:	40 81       	ld	r20, Z
    5dd8:	80 81       	ld	r24, Z
    5dda:	60 81       	ld	r22, Z
    5ddc:	50 e0       	ldi	r21, 0x00	; 0
    5dde:	40 71       	andi	r20, 0x10	; 16
    5de0:	50 70       	andi	r21, 0x00	; 0
    5de2:	55 95       	asr	r21
    5de4:	47 95       	ror	r20
    5de6:	55 95       	asr	r21
    5de8:	47 95       	ror	r20
    5dea:	55 95       	asr	r21
    5dec:	47 95       	ror	r20
    5dee:	55 95       	asr	r21
    5df0:	47 95       	ror	r20
    5df2:	44 0f       	add	r20, r20
    5df4:	55 1f       	adc	r21, r21
    5df6:	88 1f       	adc	r24, r24
    5df8:	88 27       	eor	r24, r24
    5dfa:	88 1f       	adc	r24, r24
    5dfc:	90 e0       	ldi	r25, 0x00	; 0
    5dfe:	88 0f       	add	r24, r24
    5e00:	99 1f       	adc	r25, r25
    5e02:	88 0f       	add	r24, r24
    5e04:	99 1f       	adc	r25, r25
    5e06:	84 2b       	or	r24, r20
    5e08:	95 2b       	or	r25, r21
    5e0a:	30 e0       	ldi	r19, 0x00	; 0
    5e0c:	20 74       	andi	r18, 0x40	; 64
    5e0e:	30 70       	andi	r19, 0x00	; 0
    5e10:	02 2e       	mov	r0, r18
    5e12:	23 2f       	mov	r18, r19
    5e14:	00 0c       	add	r0, r0
    5e16:	22 1f       	adc	r18, r18
    5e18:	33 0b       	sbc	r19, r19
    5e1a:	00 0c       	add	r0, r0
    5e1c:	22 1f       	adc	r18, r18
    5e1e:	33 1f       	adc	r19, r19
    5e20:	82 2b       	or	r24, r18
    5e22:	93 2b       	or	r25, r19
    5e24:	70 e0       	ldi	r23, 0x00	; 0
    5e26:	60 72       	andi	r22, 0x20	; 32
    5e28:	70 70       	andi	r23, 0x00	; 0
    5e2a:	eb 01       	movw	r28, r22
    5e2c:	d5 95       	asr	r29
    5e2e:	c7 95       	ror	r28
    5e30:	d5 95       	asr	r29
    5e32:	c7 95       	ror	r28
    5e34:	d5 95       	asr	r29
    5e36:	c7 95       	ror	r28
    5e38:	d5 95       	asr	r29
    5e3a:	c7 95       	ror	r28
    5e3c:	d5 95       	asr	r29
    5e3e:	c7 95       	ror	r28
    5e40:	cc 0f       	add	r28, r28
    5e42:	dd 1f       	adc	r29, r29
    5e44:	cc 0f       	add	r28, r28
    5e46:	dd 1f       	adc	r29, r29
    5e48:	cc 0f       	add	r28, r28
    5e4a:	dd 1f       	adc	r29, r29
    5e4c:	8c 2b       	or	r24, r28
    5e4e:	9d 2b       	or	r25, r29
    5e50:	a7 e1       	ldi	r26, 0x17	; 23
    5e52:	b1 e2       	ldi	r27, 0x21	; 33
    5e54:	ec 01       	movw	r28, r24
    5e56:	cc 0f       	add	r28, r28
    5e58:	dd 1f       	adc	r29, r29
    5e5a:	ca 0f       	add	r28, r26
    5e5c:	db 1f       	adc	r29, r27
    5e5e:	88 81       	ld	r24, Y
    5e60:	c0 e2       	ldi	r28, 0x20	; 32
    5e62:	d7 e0       	ldi	r29, 0x07	; 7
    5e64:	8c 83       	std	Y+4, r24	; 0x04
        Disp_L_PORT.OUT = Seg[RobotID];
    5e66:	80 81       	ld	r24, Z
    5e68:	60 81       	ld	r22, Z
    5e6a:	20 81       	ld	r18, Z
    5e6c:	40 81       	ld	r20, Z
    5e6e:	70 e0       	ldi	r23, 0x00	; 0
    5e70:	60 71       	andi	r22, 0x10	; 16
    5e72:	70 70       	andi	r23, 0x00	; 0
    5e74:	75 95       	asr	r23
    5e76:	67 95       	ror	r22
    5e78:	75 95       	asr	r23
    5e7a:	67 95       	ror	r22
    5e7c:	75 95       	asr	r23
    5e7e:	67 95       	ror	r22
    5e80:	75 95       	asr	r23
    5e82:	67 95       	ror	r22
    5e84:	66 0f       	add	r22, r22
    5e86:	77 1f       	adc	r23, r23
    5e88:	22 1f       	adc	r18, r18
    5e8a:	22 27       	eor	r18, r18
    5e8c:	22 1f       	adc	r18, r18
    5e8e:	30 e0       	ldi	r19, 0x00	; 0
    5e90:	22 0f       	add	r18, r18
    5e92:	33 1f       	adc	r19, r19
    5e94:	22 0f       	add	r18, r18
    5e96:	33 1f       	adc	r19, r19
    5e98:	26 2b       	or	r18, r22
    5e9a:	37 2b       	or	r19, r23
    5e9c:	90 e0       	ldi	r25, 0x00	; 0
    5e9e:	80 74       	andi	r24, 0x40	; 64
    5ea0:	90 70       	andi	r25, 0x00	; 0
    5ea2:	08 2e       	mov	r0, r24
    5ea4:	89 2f       	mov	r24, r25
    5ea6:	00 0c       	add	r0, r0
    5ea8:	88 1f       	adc	r24, r24
    5eaa:	99 0b       	sbc	r25, r25
    5eac:	00 0c       	add	r0, r0
    5eae:	88 1f       	adc	r24, r24
    5eb0:	99 1f       	adc	r25, r25
    5eb2:	82 2b       	or	r24, r18
    5eb4:	93 2b       	or	r25, r19
    5eb6:	50 e0       	ldi	r21, 0x00	; 0
    5eb8:	40 72       	andi	r20, 0x20	; 32
    5eba:	50 70       	andi	r21, 0x00	; 0
    5ebc:	55 95       	asr	r21
    5ebe:	47 95       	ror	r20
    5ec0:	55 95       	asr	r21
    5ec2:	47 95       	ror	r20
    5ec4:	55 95       	asr	r21
    5ec6:	47 95       	ror	r20
    5ec8:	55 95       	asr	r21
    5eca:	47 95       	ror	r20
    5ecc:	55 95       	asr	r21
    5ece:	47 95       	ror	r20
    5ed0:	44 0f       	add	r20, r20
    5ed2:	55 1f       	adc	r21, r21
    5ed4:	44 0f       	add	r20, r20
    5ed6:	55 1f       	adc	r21, r21
    5ed8:	44 0f       	add	r20, r20
    5eda:	55 1f       	adc	r21, r21
    5edc:	84 2b       	or	r24, r20
    5ede:	95 2b       	or	r25, r21
    5ee0:	88 0f       	add	r24, r24
    5ee2:	99 1f       	adc	r25, r25
    5ee4:	a8 0f       	add	r26, r24
    5ee6:	b9 1f       	adc	r27, r25
    5ee8:	8c 91       	ld	r24, X
    5eea:	e0 e0       	ldi	r30, 0x00	; 0
    5eec:	f7 e0       	ldi	r31, 0x07	; 7
    5eee:	84 83       	std	Z+4, r24	; 0x04
        //PORTJ_OUTSET=0xFF;
        //PORTH_OUTSET=0xFF;
		//LED_White_PORT.OUTTGL = LED_White_PIN_bm;
    }
};
    5ef0:	ff 91       	pop	r31
    5ef2:	ef 91       	pop	r30
    5ef4:	df 91       	pop	r29
    5ef6:	cf 91       	pop	r28
    5ef8:	bf 91       	pop	r27
    5efa:	af 91       	pop	r26
    5efc:	9f 91       	pop	r25
    5efe:	8f 91       	pop	r24
    5f00:	7f 91       	pop	r23
    5f02:	6f 91       	pop	r22
    5f04:	5f 91       	pop	r21
    5f06:	4f 91       	pop	r20
    5f08:	3f 91       	pop	r19
    5f0a:	2f 91       	pop	r18
    5f0c:	0f 90       	pop	r0
    5f0e:	0b be       	out	0x3b, r0	; 59
    5f10:	0f 90       	pop	r0
    5f12:	0a be       	out	0x3a, r0	; 58
    5f14:	0f 90       	pop	r0
    5f16:	09 be       	out	0x39, r0	; 57
    5f18:	0f 90       	pop	r0
    5f1a:	08 be       	out	0x38, r0	; 56
    5f1c:	0f 90       	pop	r0
    5f1e:	0f be       	out	0x3f, r0	; 63
    5f20:	0f 90       	pop	r0
    5f22:	1f 90       	pop	r1
    5f24:	18 95       	reti

00005f26 <__vector_104>:

ISR(PORTF_INT0_vect)
{
    5f26:	1f 92       	push	r1
    5f28:	0f 92       	push	r0
    5f2a:	0f b6       	in	r0, 0x3f	; 63
    5f2c:	0f 92       	push	r0
    5f2e:	08 b6       	in	r0, 0x38	; 56
    5f30:	0f 92       	push	r0
    5f32:	11 24       	eor	r1, r1
//}
//menu_time = 30000;
//
//Menu_Disp(Menu_Disp_ON);
//Menu_Display();
}
    5f34:	0f 90       	pop	r0
    5f36:	08 be       	out	0x38, r0	; 56
    5f38:	0f 90       	pop	r0
    5f3a:	0f be       	out	0x3f, r0	; 63
    5f3c:	0f 90       	pop	r0
    5f3e:	1f 90       	pop	r1
    5f40:	18 95       	reti

00005f42 <__vector_94>:

ISR(PORTQ_INT0_vect)
{
    5f42:	1f 92       	push	r1
    5f44:	0f 92       	push	r0
    5f46:	0f b6       	in	r0, 0x3f	; 63
    5f48:	0f 92       	push	r0
    5f4a:	08 b6       	in	r0, 0x38	; 56
    5f4c:	0f 92       	push	r0
    5f4e:	11 24       	eor	r1, r1
    5f50:	2f 93       	push	r18
    5f52:	3f 93       	push	r19
    5f54:	8f 93       	push	r24
    5f56:	9f 93       	push	r25
	M1.Encoder +=(PORTQ_IN&PIN1_bm)?-1:1;
    5f58:	80 91 07 25 	lds	r24, 0x2507
    5f5c:	90 91 08 25 	lds	r25, 0x2508
    5f60:	20 91 c8 07 	lds	r18, 0x07C8
    5f64:	21 ff       	sbrs	r18, 1
    5f66:	03 c0       	rjmp	.+6      	; 0x5f6e <__vector_94+0x2c>
    5f68:	2f ef       	ldi	r18, 0xFF	; 255
    5f6a:	3f ef       	ldi	r19, 0xFF	; 255
    5f6c:	02 c0       	rjmp	.+4      	; 0x5f72 <__vector_94+0x30>
    5f6e:	21 e0       	ldi	r18, 0x01	; 1
    5f70:	30 e0       	ldi	r19, 0x00	; 0
    5f72:	82 0f       	add	r24, r18
    5f74:	93 1f       	adc	r25, r19
    5f76:	80 93 07 25 	sts	0x2507, r24
    5f7a:	90 93 08 25 	sts	0x2508, r25
}
    5f7e:	9f 91       	pop	r25
    5f80:	8f 91       	pop	r24
    5f82:	3f 91       	pop	r19
    5f84:	2f 91       	pop	r18
    5f86:	0f 90       	pop	r0
    5f88:	08 be       	out	0x38, r0	; 56
    5f8a:	0f 90       	pop	r0
    5f8c:	0f be       	out	0x3f, r0	; 63
    5f8e:	0f 90       	pop	r0
    5f90:	1f 90       	pop	r1
    5f92:	18 95       	reti

00005f94 <__vector_96>:

ISR(PORTH_INT0_vect)
{
    5f94:	1f 92       	push	r1
    5f96:	0f 92       	push	r0
    5f98:	0f b6       	in	r0, 0x3f	; 63
    5f9a:	0f 92       	push	r0
    5f9c:	08 b6       	in	r0, 0x38	; 56
    5f9e:	0f 92       	push	r0
    5fa0:	11 24       	eor	r1, r1
    5fa2:	2f 93       	push	r18
    5fa4:	3f 93       	push	r19
    5fa6:	8f 93       	push	r24
    5fa8:	9f 93       	push	r25
	M0.Encoder +=(PORTH_IN&PIN4_bm)?-1:1;
    5faa:	80 91 79 24 	lds	r24, 0x2479
    5fae:	90 91 7a 24 	lds	r25, 0x247A
    5fb2:	20 91 e8 06 	lds	r18, 0x06E8
    5fb6:	24 ff       	sbrs	r18, 4
    5fb8:	03 c0       	rjmp	.+6      	; 0x5fc0 <__vector_96+0x2c>
    5fba:	2f ef       	ldi	r18, 0xFF	; 255
    5fbc:	3f ef       	ldi	r19, 0xFF	; 255
    5fbe:	02 c0       	rjmp	.+4      	; 0x5fc4 <__vector_96+0x30>
    5fc0:	21 e0       	ldi	r18, 0x01	; 1
    5fc2:	30 e0       	ldi	r19, 0x00	; 0
    5fc4:	82 0f       	add	r24, r18
    5fc6:	93 1f       	adc	r25, r19
    5fc8:	80 93 79 24 	sts	0x2479, r24
    5fcc:	90 93 7a 24 	sts	0x247A, r25
}
    5fd0:	9f 91       	pop	r25
    5fd2:	8f 91       	pop	r24
    5fd4:	3f 91       	pop	r19
    5fd6:	2f 91       	pop	r18
    5fd8:	0f 90       	pop	r0
    5fda:	08 be       	out	0x38, r0	; 56
    5fdc:	0f 90       	pop	r0
    5fde:	0f be       	out	0x3f, r0	; 63
    5fe0:	0f 90       	pop	r0
    5fe2:	1f 90       	pop	r1
    5fe4:	18 95       	reti

00005fe6 <__vector_2>:

ISR(PORTC_INT0_vect)
{
    5fe6:	1f 92       	push	r1
    5fe8:	0f 92       	push	r0
    5fea:	0f b6       	in	r0, 0x3f	; 63
    5fec:	0f 92       	push	r0
    5fee:	08 b6       	in	r0, 0x38	; 56
    5ff0:	0f 92       	push	r0
    5ff2:	11 24       	eor	r1, r1
    5ff4:	2f 93       	push	r18
    5ff6:	3f 93       	push	r19
    5ff8:	8f 93       	push	r24
    5ffa:	9f 93       	push	r25
	M3.Encoder +=(PORTC_IN&PIN4_bm)?-1:1;
    5ffc:	80 91 ad 24 	lds	r24, 0x24AD
    6000:	90 91 ae 24 	lds	r25, 0x24AE
    6004:	20 91 48 06 	lds	r18, 0x0648
    6008:	24 ff       	sbrs	r18, 4
    600a:	03 c0       	rjmp	.+6      	; 0x6012 <__vector_2+0x2c>
    600c:	2f ef       	ldi	r18, 0xFF	; 255
    600e:	3f ef       	ldi	r19, 0xFF	; 255
    6010:	02 c0       	rjmp	.+4      	; 0x6016 <__vector_2+0x30>
    6012:	21 e0       	ldi	r18, 0x01	; 1
    6014:	30 e0       	ldi	r19, 0x00	; 0
    6016:	82 0f       	add	r24, r18
    6018:	93 1f       	adc	r25, r19
    601a:	80 93 ad 24 	sts	0x24AD, r24
    601e:	90 93 ae 24 	sts	0x24AE, r25
}
    6022:	9f 91       	pop	r25
    6024:	8f 91       	pop	r24
    6026:	3f 91       	pop	r19
    6028:	2f 91       	pop	r18
    602a:	0f 90       	pop	r0
    602c:	08 be       	out	0x38, r0	; 56
    602e:	0f 90       	pop	r0
    6030:	0f be       	out	0x3f, r0	; 63
    6032:	0f 90       	pop	r0
    6034:	1f 90       	pop	r1
    6036:	18 95       	reti

00006038 <__vector_95>:

ISR(PORTQ_INT1_vect)
{
    6038:	1f 92       	push	r1
    603a:	0f 92       	push	r0
    603c:	0f b6       	in	r0, 0x3f	; 63
    603e:	0f 92       	push	r0
    6040:	08 b6       	in	r0, 0x38	; 56
    6042:	0f 92       	push	r0
    6044:	11 24       	eor	r1, r1
    6046:	2f 93       	push	r18
    6048:	3f 93       	push	r19
    604a:	8f 93       	push	r24
    604c:	9f 93       	push	r25
    M2.Encoder +=(PORTQ_IN&PIN2_bm)?-1:1;
    604e:	80 91 1d 25 	lds	r24, 0x251D
    6052:	90 91 1e 25 	lds	r25, 0x251E
    6056:	20 91 c8 07 	lds	r18, 0x07C8
    605a:	22 ff       	sbrs	r18, 2
    605c:	03 c0       	rjmp	.+6      	; 0x6064 <__vector_95+0x2c>
    605e:	2f ef       	ldi	r18, 0xFF	; 255
    6060:	3f ef       	ldi	r19, 0xFF	; 255
    6062:	02 c0       	rjmp	.+4      	; 0x6068 <__vector_95+0x30>
    6064:	21 e0       	ldi	r18, 0x01	; 1
    6066:	30 e0       	ldi	r19, 0x00	; 0
    6068:	82 0f       	add	r24, r18
    606a:	93 1f       	adc	r25, r19
    606c:	80 93 1d 25 	sts	0x251D, r24
    6070:	90 93 1e 25 	sts	0x251E, r25
}
    6074:	9f 91       	pop	r25
    6076:	8f 91       	pop	r24
    6078:	3f 91       	pop	r19
    607a:	2f 91       	pop	r18
    607c:	0f 90       	pop	r0
    607e:	08 be       	out	0x38, r0	; 56
    6080:	0f 90       	pop	r0
    6082:	0f be       	out	0x3f, r0	; 63
    6084:	0f 90       	pop	r0
    6086:	1f 90       	pop	r1
    6088:	18 95       	reti

0000608a <__vector_97>:

ISR(PORTH_INT1_vect)
{
    608a:	1f 92       	push	r1
    608c:	0f 92       	push	r0
    608e:	0f b6       	in	r0, 0x3f	; 63
    6090:	0f 92       	push	r0
    6092:	08 b6       	in	r0, 0x38	; 56
    6094:	0f 92       	push	r0
    6096:	0b b6       	in	r0, 0x3b	; 59
    6098:	0f 92       	push	r0
    609a:	11 24       	eor	r1, r1
    609c:	8f 93       	push	r24
    609e:	ef 93       	push	r30
    60a0:	ff 93       	push	r31
	//}
	//menu_time = 30000;
//
	//Menu_Disp(Menu_Disp_ON);
	//Menu_Display();
	LED_Green_PORT.OUTTGL=LED_Green_PIN_bm;
    60a2:	84 e0       	ldi	r24, 0x04	; 4
    60a4:	e0 e6       	ldi	r30, 0x60	; 96
    60a6:	f6 e0       	ldi	r31, 0x06	; 6
    60a8:	87 83       	std	Z+7, r24	; 0x07
	//if(KCK_Sens2)
	//{ // LED_Green_PORT.OUTTGL=LED_Green_PIN_bm;
		//speed=255;
		//
	//}
}
    60aa:	ff 91       	pop	r31
    60ac:	ef 91       	pop	r30
    60ae:	8f 91       	pop	r24
    60b0:	0f 90       	pop	r0
    60b2:	0b be       	out	0x3b, r0	; 59
    60b4:	0f 90       	pop	r0
    60b6:	08 be       	out	0x38, r0	; 56
    60b8:	0f 90       	pop	r0
    60ba:	0f be       	out	0x3f, r0	; 63
    60bc:	0f 90       	pop	r0
    60be:	1f 90       	pop	r1
    60c0:	18 95       	reti

000060c2 <__vector_100>:

ISR(PORTK_INT0_vect)
{
    60c2:	1f 92       	push	r1
    60c4:	0f 92       	push	r0
    60c6:	0f b6       	in	r0, 0x3f	; 63
    60c8:	0f 92       	push	r0
    60ca:	08 b6       	in	r0, 0x38	; 56
    60cc:	0f 92       	push	r0
    60ce:	11 24       	eor	r1, r1
   
}
    60d0:	0f 90       	pop	r0
    60d2:	08 be       	out	0x38, r0	; 56
    60d4:	0f 90       	pop	r0
    60d6:	0f be       	out	0x3f, r0	; 63
    60d8:	0f 90       	pop	r0
    60da:	1f 90       	pop	r1
    60dc:	18 95       	reti

000060de <__vector_119>:
int buff_i_temp;
int buff_d_temp;
int buff_u_temp;
unsigned char reply2_tmp;
ISR(USARTF0_RXC_vect)
{
    60de:	1f 92       	push	r1
    60e0:	0f 92       	push	r0
    60e2:	0f b6       	in	r0, 0x3f	; 63
    60e4:	0f 92       	push	r0
    60e6:	08 b6       	in	r0, 0x38	; 56
    60e8:	0f 92       	push	r0
    60ea:	11 24       	eor	r1, r1
    60ec:	2f 93       	push	r18
    60ee:	3f 93       	push	r19
    60f0:	8f 93       	push	r24
    60f2:	9f 93       	push	r25
    //LED_Green_PORT.OUTSET = LED_Green_PIN_bm;
    //char buff_reply [16];
    unsigned char data;
    data=USARTF0_DATA;
    60f4:	20 91 a0 0b 	lds	r18, 0x0BA0

    //LED_Red_PORT.OUTTGL = LED_Red_PIN_bm;

    switch(ask_cnt)
    60f8:	80 91 a0 21 	lds	r24, 0x21A0
    60fc:	90 91 a1 21 	lds	r25, 0x21A1
    6100:	82 30       	cpi	r24, 0x02	; 2
    6102:	91 05       	cpc	r25, r1
    6104:	39 f1       	breq	.+78     	; 0x6154 <__vector_119+0x76>
    6106:	83 30       	cpi	r24, 0x03	; 3
    6108:	91 05       	cpc	r25, r1
    610a:	3c f4       	brge	.+14     	; 0x611a <__vector_119+0x3c>
    610c:	00 97       	sbiw	r24, 0x00	; 0
    610e:	69 f0       	breq	.+26     	; 0x612a <__vector_119+0x4c>
    6110:	81 30       	cpi	r24, 0x01	; 1
    6112:	91 05       	cpc	r25, r1
    6114:	09 f0       	breq	.+2      	; 0x6118 <__vector_119+0x3a>
    6116:	4c c0       	rjmp	.+152    	; 0x61b0 <__vector_119+0xd2>
    6118:	12 c0       	rjmp	.+36     	; 0x613e <__vector_119+0x60>
    611a:	83 30       	cpi	r24, 0x03	; 3
    611c:	91 05       	cpc	r25, r1
    611e:	69 f1       	breq	.+90     	; 0x617a <__vector_119+0x9c>
    6120:	84 30       	cpi	r24, 0x04	; 4
    6122:	91 05       	cpc	r25, r1
    6124:	09 f0       	breq	.+2      	; 0x6128 <__vector_119+0x4a>
    6126:	44 c0       	rjmp	.+136    	; 0x61b0 <__vector_119+0xd2>
    6128:	31 c0       	rjmp	.+98     	; 0x618c <__vector_119+0xae>
    {
    case 0:
        if (data== '*')
    612a:	2a 32       	cpi	r18, 0x2A	; 42
    612c:	09 f0       	breq	.+2      	; 0x6130 <__vector_119+0x52>
    612e:	40 c0       	rjmp	.+128    	; 0x61b0 <__vector_119+0xd2>
        {
            ask_cnt++;}
    6130:	81 e0       	ldi	r24, 0x01	; 1
    6132:	90 e0       	ldi	r25, 0x00	; 0
    6134:	80 93 a0 21 	sts	0x21A0, r24
    6138:	90 93 a1 21 	sts	0x21A1, r25
    613c:	39 c0       	rjmp	.+114    	; 0x61b0 <__vector_119+0xd2>
        break;

    case 1:
        buff_reply_tmp=data&0x0ff;
    613e:	20 93 c3 24 	sts	0x24C3, r18
    6142:	10 92 c4 24 	sts	0x24C4, r1
        ask_cnt++;
    6146:	82 e0       	ldi	r24, 0x02	; 2
    6148:	90 e0       	ldi	r25, 0x00	; 0
    614a:	80 93 a0 21 	sts	0x21A0, r24
    614e:	90 93 a1 21 	sts	0x21A1, r25
        break;
    6152:	2e c0       	rjmp	.+92     	; 0x61b0 <__vector_119+0xd2>

    case 2:
        buff_reply_tmp|=(data<<8)&0x0ff00;
    6154:	92 2f       	mov	r25, r18
    6156:	80 e0       	ldi	r24, 0x00	; 0
    6158:	20 91 c3 24 	lds	r18, 0x24C3
    615c:	30 91 c4 24 	lds	r19, 0x24C4
    6160:	82 2b       	or	r24, r18
    6162:	93 2b       	or	r25, r19
    6164:	80 93 c3 24 	sts	0x24C3, r24
    6168:	90 93 c4 24 	sts	0x24C4, r25
        ask_cnt++;
    616c:	83 e0       	ldi	r24, 0x03	; 3
    616e:	90 e0       	ldi	r25, 0x00	; 0
    6170:	80 93 a0 21 	sts	0x21A0, r24
    6174:	90 93 a1 21 	sts	0x21A1, r25
        break;
    6178:	1b c0       	rjmp	.+54     	; 0x61b0 <__vector_119+0xd2>

    case 3:
        reply2_tmp = data;
    617a:	20 93 d3 24 	sts	0x24D3, r18
        ask_cnt++;
    617e:	84 e0       	ldi	r24, 0x04	; 4
    6180:	90 e0       	ldi	r25, 0x00	; 0
    6182:	80 93 a0 21 	sts	0x21A0, r24
    6186:	90 93 a1 21 	sts	0x21A1, r25
        break;
    618a:	12 c0       	rjmp	.+36     	; 0x61b0 <__vector_119+0xd2>
        //ask_cnt++;
        //break;


    case 4:
        if (data=='#')
    618c:	23 32       	cpi	r18, 0x23	; 35
    618e:	61 f4       	brne	.+24     	; 0x61a8 <__vector_119+0xca>
        {
            //LED_Green_PORT.OUTTGL = LED_Green_PIN_bm;
            buff_reply = buff_reply_tmp;
    6190:	80 91 c3 24 	lds	r24, 0x24C3
    6194:	90 91 c4 24 	lds	r25, 0x24C4
    6198:	80 93 71 24 	sts	0x2471, r24
    619c:	90 93 72 24 	sts	0x2472, r25
            reply2 = reply2_tmp;
    61a0:	80 91 d3 24 	lds	r24, 0x24D3
    61a4:	80 93 d7 22 	sts	0x22D7, r24


            //flg_reply=0;
            ask_cnt=0;
        }
        ask_cnt=0;
    61a8:	10 92 a0 21 	sts	0x21A0, r1
    61ac:	10 92 a1 21 	sts	0x21A1, r1
        break;
    }
}
    61b0:	9f 91       	pop	r25
    61b2:	8f 91       	pop	r24
    61b4:	3f 91       	pop	r19
    61b6:	2f 91       	pop	r18
    61b8:	0f 90       	pop	r0
    61ba:	08 be       	out	0x38, r0	; 56
    61bc:	0f 90       	pop	r0
    61be:	0f be       	out	0x3f, r0	; 63
    61c0:	0f 90       	pop	r0
    61c2:	1f 90       	pop	r1
    61c4:	18 95       	reti

000061c6 <SPI_L>:
    61c6:	e0 ec       	ldi	r30, 0xC0	; 192
    61c8:	fa e0       	ldi	r31, 0x0A	; 10
    61ca:	83 83       	std	Z+3, r24	; 0x03
    61cc:	82 81       	ldd	r24, Z+2	; 0x02
    61ce:	88 23       	and	r24, r24
    61d0:	ec f7       	brge	.-6      	; 0x61cc <SPI_L+0x6>
    61d2:	e0 ec       	ldi	r30, 0xC0	; 192
    61d4:	fa e0       	ldi	r31, 0x0A	; 10
    61d6:	83 81       	ldd	r24, Z+3	; 0x03
    61d8:	08 95       	ret

000061da <NRF24L01_L_Flush_RX>:
    61da:	1f 93       	push	r17
    61dc:	cf 93       	push	r28
    61de:	df 93       	push	r29
    61e0:	c0 e8       	ldi	r28, 0x80	; 128
    61e2:	d6 e0       	ldi	r29, 0x06	; 6
    61e4:	10 e1       	ldi	r17, 0x10	; 16
    61e6:	1e 83       	std	Y+6, r17	; 0x06
    61e8:	82 ee       	ldi	r24, 0xE2	; 226
    61ea:	ed df       	rcall	.-38     	; 0x61c6 <SPI_L>
    61ec:	1d 83       	std	Y+5, r17	; 0x05
    61ee:	df 91       	pop	r29
    61f0:	cf 91       	pop	r28
    61f2:	1f 91       	pop	r17
    61f4:	08 95       	ret

000061f6 <NRF24L01_L_Flush_TX>:
    61f6:	1f 93       	push	r17
    61f8:	cf 93       	push	r28
    61fa:	df 93       	push	r29
    61fc:	c0 e8       	ldi	r28, 0x80	; 128
    61fe:	d6 e0       	ldi	r29, 0x06	; 6
    6200:	10 e1       	ldi	r17, 0x10	; 16
    6202:	1e 83       	std	Y+6, r17	; 0x06
    6204:	81 ee       	ldi	r24, 0xE1	; 225
    6206:	df df       	rcall	.-66     	; 0x61c6 <SPI_L>
    6208:	1d 83       	std	Y+5, r17	; 0x05
    620a:	df 91       	pop	r29
    620c:	cf 91       	pop	r28
    620e:	1f 91       	pop	r17
    6210:	08 95       	ret

00006212 <NRF24L01_L_WriteRegBuf>:
    6212:	df 92       	push	r13
    6214:	ef 92       	push	r14
    6216:	ff 92       	push	r15
    6218:	0f 93       	push	r16
    621a:	1f 93       	push	r17
    621c:	cf 93       	push	r28
    621e:	df 93       	push	r29
    6220:	c6 2f       	mov	r28, r22
    6222:	d7 2f       	mov	r29, r23
    6224:	7a 01       	movw	r14, r20
    6226:	90 e1       	ldi	r25, 0x10	; 16
    6228:	e0 e8       	ldi	r30, 0x80	; 128
    622a:	f6 e0       	ldi	r31, 0x06	; 6
    622c:	96 83       	std	Z+6, r25	; 0x06
    622e:	cb df       	rcall	.-106    	; 0x61c6 <SPI_L>
    6230:	d8 2e       	mov	r13, r24
    6232:	1e 14       	cp	r1, r14
    6234:	1f 04       	cpc	r1, r15
    6236:	64 f4       	brge	.+24     	; 0x6250 <NRF24L01_L_WriteRegBuf+0x3e>
    6238:	0c 2f       	mov	r16, r28
    623a:	1d 2f       	mov	r17, r29
    623c:	c0 e0       	ldi	r28, 0x00	; 0
    623e:	d0 e0       	ldi	r29, 0x00	; 0
    6240:	f8 01       	movw	r30, r16
    6242:	81 91       	ld	r24, Z+
    6244:	8f 01       	movw	r16, r30
    6246:	bf df       	rcall	.-130    	; 0x61c6 <SPI_L>
    6248:	21 96       	adiw	r28, 0x01	; 1
    624a:	ce 15       	cp	r28, r14
    624c:	df 05       	cpc	r29, r15
    624e:	c1 f7       	brne	.-16     	; 0x6240 <NRF24L01_L_WriteRegBuf+0x2e>
    6250:	80 e1       	ldi	r24, 0x10	; 16
    6252:	e0 e8       	ldi	r30, 0x80	; 128
    6254:	f6 e0       	ldi	r31, 0x06	; 6
    6256:	85 83       	std	Z+5, r24	; 0x05
    6258:	8d 2d       	mov	r24, r13
    625a:	df 91       	pop	r29
    625c:	cf 91       	pop	r28
    625e:	1f 91       	pop	r17
    6260:	0f 91       	pop	r16
    6262:	ff 90       	pop	r15
    6264:	ef 90       	pop	r14
    6266:	df 90       	pop	r13
    6268:	08 95       	ret

0000626a <NRF24L01_L_Set_TX_Address>:
    626a:	9c 01       	movw	r18, r24
    626c:	ab 01       	movw	r20, r22
    626e:	80 e3       	ldi	r24, 0x30	; 48
    6270:	b9 01       	movw	r22, r18
    6272:	cf cf       	rjmp	.-98     	; 0x6212 <NRF24L01_L_WriteRegBuf>

00006274 <NRF24L01_L_ReadRegBuf>:
    6274:	df 92       	push	r13
    6276:	ef 92       	push	r14
    6278:	ff 92       	push	r15
    627a:	0f 93       	push	r16
    627c:	1f 93       	push	r17
    627e:	cf 93       	push	r28
    6280:	df 93       	push	r29
    6282:	c6 2f       	mov	r28, r22
    6284:	d7 2f       	mov	r29, r23
    6286:	7a 01       	movw	r14, r20
    6288:	90 e1       	ldi	r25, 0x10	; 16
    628a:	e0 e8       	ldi	r30, 0x80	; 128
    628c:	f6 e0       	ldi	r31, 0x06	; 6
    628e:	96 83       	std	Z+6, r25	; 0x06
    6290:	9a df       	rcall	.-204    	; 0x61c6 <SPI_L>
    6292:	d8 2e       	mov	r13, r24
    6294:	1e 14       	cp	r1, r14
    6296:	1f 04       	cpc	r1, r15
    6298:	6c f4       	brge	.+26     	; 0x62b4 <NRF24L01_L_ReadRegBuf+0x40>
    629a:	0c 2f       	mov	r16, r28
    629c:	1d 2f       	mov	r17, r29
    629e:	c0 e0       	ldi	r28, 0x00	; 0
    62a0:	d0 e0       	ldi	r29, 0x00	; 0
    62a2:	8f ef       	ldi	r24, 0xFF	; 255
    62a4:	90 df       	rcall	.-224    	; 0x61c6 <SPI_L>
    62a6:	f8 01       	movw	r30, r16
    62a8:	81 93       	st	Z+, r24
    62aa:	8f 01       	movw	r16, r30
    62ac:	21 96       	adiw	r28, 0x01	; 1
    62ae:	ce 15       	cp	r28, r14
    62b0:	df 05       	cpc	r29, r15
    62b2:	b9 f7       	brne	.-18     	; 0x62a2 <NRF24L01_L_ReadRegBuf+0x2e>
    62b4:	80 e1       	ldi	r24, 0x10	; 16
    62b6:	e0 e8       	ldi	r30, 0x80	; 128
    62b8:	f6 e0       	ldi	r31, 0x06	; 6
    62ba:	85 83       	std	Z+5, r24	; 0x05
    62bc:	8d 2d       	mov	r24, r13
    62be:	df 91       	pop	r29
    62c0:	cf 91       	pop	r28
    62c2:	1f 91       	pop	r17
    62c4:	0f 91       	pop	r16
    62c6:	ff 90       	pop	r15
    62c8:	ef 90       	pop	r14
    62ca:	df 90       	pop	r13
    62cc:	08 95       	ret

000062ce <NRF24L01_L_Read_RX_Buf>:
    62ce:	9c 01       	movw	r18, r24
    62d0:	ab 01       	movw	r20, r22
    62d2:	81 e6       	ldi	r24, 0x61	; 97
    62d4:	b9 01       	movw	r22, r18
    62d6:	ce cf       	rjmp	.-100    	; 0x6274 <NRF24L01_L_ReadRegBuf>

000062d8 <NRF24L01_L_WriteReg>:
    62d8:	ff 92       	push	r15
    62da:	0f 93       	push	r16
    62dc:	1f 93       	push	r17
    62de:	cf 93       	push	r28
    62e0:	df 93       	push	r29
    62e2:	f6 2e       	mov	r15, r22
    62e4:	c0 e8       	ldi	r28, 0x80	; 128
    62e6:	d6 e0       	ldi	r29, 0x06	; 6
    62e8:	10 e1       	ldi	r17, 0x10	; 16
    62ea:	1e 83       	std	Y+6, r17	; 0x06
    62ec:	6c df       	rcall	.-296    	; 0x61c6 <SPI_L>
    62ee:	08 2f       	mov	r16, r24
    62f0:	8f 2d       	mov	r24, r15
    62f2:	69 df       	rcall	.-302    	; 0x61c6 <SPI_L>
    62f4:	1d 83       	std	Y+5, r17	; 0x05
    62f6:	80 2f       	mov	r24, r16
    62f8:	df 91       	pop	r29
    62fa:	cf 91       	pop	r28
    62fc:	1f 91       	pop	r17
    62fe:	0f 91       	pop	r16
    6300:	ff 90       	pop	r15
    6302:	08 95       	ret

00006304 <NRF24L01_L_Clear_Interrupts>:
    6304:	87 e2       	ldi	r24, 0x27	; 39
    6306:	60 e7       	ldi	r22, 0x70	; 112
    6308:	e7 cf       	rjmp	.-50     	; 0x62d8 <NRF24L01_L_WriteReg>

0000630a <NRF24L01_L_Set_Address_Width>:
    630a:	83 e2       	ldi	r24, 0x23	; 35
    630c:	63 e0       	ldi	r22, 0x03	; 3
    630e:	e4 cf       	rjmp	.-56     	; 0x62d8 <NRF24L01_L_WriteReg>

00006310 <NRF24L01_L_Set_ShockBurst>:
    6310:	cf 93       	push	r28
    6312:	c8 2f       	mov	r28, r24
    6314:	84 e2       	ldi	r24, 0x24	; 36
    6316:	6c 2f       	mov	r22, r28
    6318:	df df       	rcall	.-66     	; 0x62d8 <NRF24L01_L_WriteReg>
    631a:	81 e2       	ldi	r24, 0x21	; 33
    631c:	6c 2f       	mov	r22, r28
    631e:	dc df       	rcall	.-72     	; 0x62d8 <NRF24L01_L_WriteReg>
    6320:	cf 91       	pop	r28
    6322:	08 95       	ret

00006324 <NRF24L01_L_Set_CH>:
    6324:	68 2f       	mov	r22, r24
    6326:	6f 77       	andi	r22, 0x7F	; 127
    6328:	85 e2       	ldi	r24, 0x25	; 37
    632a:	d6 cf       	rjmp	.-84     	; 0x62d8 <NRF24L01_L_WriteReg>

0000632c <NRF24L01_L_ReadReg>:
    632c:	1f 93       	push	r17
    632e:	cf 93       	push	r28
    6330:	df 93       	push	r29
    6332:	c0 e8       	ldi	r28, 0x80	; 128
    6334:	d6 e0       	ldi	r29, 0x06	; 6
    6336:	10 e1       	ldi	r17, 0x10	; 16
    6338:	1e 83       	std	Y+6, r17	; 0x06
    633a:	45 df       	rcall	.-374    	; 0x61c6 <SPI_L>
    633c:	8f ef       	ldi	r24, 0xFF	; 255
    633e:	43 df       	rcall	.-378    	; 0x61c6 <SPI_L>
    6340:	1d 83       	std	Y+5, r17	; 0x05
    6342:	df 91       	pop	r29
    6344:	cf 91       	pop	r28
    6346:	1f 91       	pop	r17
    6348:	08 95       	ret

0000634a <NRF24L01_L_Set_RX_Pipe>:
    634a:	ef 92       	push	r14
    634c:	ff 92       	push	r15
    634e:	0f 93       	push	r16
    6350:	1f 93       	push	r17
    6352:	cf 93       	push	r28
    6354:	df 93       	push	r29
    6356:	c8 2f       	mov	r28, r24
    6358:	8b 01       	movw	r16, r22
    635a:	7a 01       	movw	r14, r20
    635c:	d2 2f       	mov	r29, r18
    635e:	82 e0       	ldi	r24, 0x02	; 2
    6360:	e5 df       	rcall	.-54     	; 0x632c <NRF24L01_L_ReadReg>
    6362:	61 e0       	ldi	r22, 0x01	; 1
    6364:	70 e0       	ldi	r23, 0x00	; 0
    6366:	0c 2e       	mov	r0, r28
    6368:	02 c0       	rjmp	.+4      	; 0x636e <NRF24L01_L_Set_RX_Pipe+0x24>
    636a:	66 0f       	add	r22, r22
    636c:	77 1f       	adc	r23, r23
    636e:	0a 94       	dec	r0
    6370:	e2 f7       	brpl	.-8      	; 0x636a <NRF24L01_L_Set_RX_Pipe+0x20>
    6372:	68 2b       	or	r22, r24
    6374:	82 e2       	ldi	r24, 0x22	; 34
    6376:	b0 df       	rcall	.-160    	; 0x62d8 <NRF24L01_L_WriteReg>
    6378:	8c 2f       	mov	r24, r28
    637a:	8f 5e       	subi	r24, 0xEF	; 239
    637c:	80 62       	ori	r24, 0x20	; 32
    637e:	6d 2f       	mov	r22, r29
    6380:	ab df       	rcall	.-170    	; 0x62d8 <NRF24L01_L_WriteReg>
    6382:	8c 2f       	mov	r24, r28
    6384:	86 5f       	subi	r24, 0xF6	; 246
    6386:	80 62       	ori	r24, 0x20	; 32
    6388:	b8 01       	movw	r22, r16
    638a:	a7 01       	movw	r20, r14
    638c:	42 df       	rcall	.-380    	; 0x6212 <NRF24L01_L_WriteRegBuf>
    638e:	df 91       	pop	r29
    6390:	cf 91       	pop	r28
    6392:	1f 91       	pop	r17
    6394:	0f 91       	pop	r16
    6396:	ff 90       	pop	r15
    6398:	ef 90       	pop	r14
    639a:	08 95       	ret

0000639c <NRF24L01_L_Init>:
    639c:	af 92       	push	r10
    639e:	bf 92       	push	r11
    63a0:	cf 92       	push	r12
    63a2:	ef 92       	push	r14
    63a4:	ff 92       	push	r15
    63a6:	0f 93       	push	r16
    63a8:	1f 93       	push	r17
    63aa:	cf 93       	push	r28
    63ac:	df 93       	push	r29
    63ae:	f8 2e       	mov	r15, r24
    63b0:	16 2f       	mov	r17, r22
    63b2:	c4 2f       	mov	r28, r20
    63b4:	59 01       	movw	r10, r18
    63b6:	80 e0       	ldi	r24, 0x00	; 0
    63b8:	ab df       	rcall	.-170    	; 0x6310 <NRF24L01_L_Set_ShockBurst>
    63ba:	c1 60       	ori	r28, 0x01	; 1
    63bc:	6c 2f       	mov	r22, r28
    63be:	6c 29       	or	r22, r12
    63c0:	86 e2       	ldi	r24, 0x26	; 38
    63c2:	8a df       	rcall	.-236    	; 0x62d8 <NRF24L01_L_WriteReg>
    63c4:	80 2f       	mov	r24, r16
    63c6:	a1 df       	rcall	.-190    	; 0x630a <NRF24L01_L_Set_Address_Width>
    63c8:	c0 2f       	mov	r28, r16
    63ca:	dd 27       	eor	r29, r29
    63cc:	c7 fd       	sbrc	r28, 7
    63ce:	d0 95       	com	r29
    63d0:	80 e0       	ldi	r24, 0x00	; 0
    63d2:	b5 01       	movw	r22, r10
    63d4:	ae 01       	movw	r20, r28
    63d6:	2e 2d       	mov	r18, r14
    63d8:	b8 df       	rcall	.-144    	; 0x634a <NRF24L01_L_Set_RX_Pipe>
    63da:	81 2f       	mov	r24, r17
    63dc:	a3 df       	rcall	.-186    	; 0x6324 <NRF24L01_L_Set_CH>
    63de:	c5 01       	movw	r24, r10
    63e0:	be 01       	movw	r22, r28
    63e2:	43 df       	rcall	.-378    	; 0x626a <NRF24L01_L_Set_TX_Address>
    63e4:	6f 2d       	mov	r22, r15
    63e6:	6a 60       	ori	r22, 0x0A	; 10
    63e8:	80 e2       	ldi	r24, 0x20	; 32
    63ea:	76 df       	rcall	.-276    	; 0x62d8 <NRF24L01_L_WriteReg>
    63ec:	8f ed       	ldi	r24, 0xDF	; 223
    63ee:	9e e2       	ldi	r25, 0x2E	; 46
    63f0:	01 97       	sbiw	r24, 0x01	; 1
    63f2:	f1 f7       	brne	.-4      	; 0x63f0 <NRF24L01_L_Init+0x54>
    63f4:	00 c0       	rjmp	.+0      	; 0x63f6 <NRF24L01_L_Init+0x5a>
    63f6:	00 00       	nop
    63f8:	df 91       	pop	r29
    63fa:	cf 91       	pop	r28
    63fc:	1f 91       	pop	r17
    63fe:	0f 91       	pop	r16
    6400:	ff 90       	pop	r15
    6402:	ef 90       	pop	r14
    6404:	cf 90       	pop	r12
    6406:	bf 90       	pop	r11
    6408:	af 90       	pop	r10
    640a:	08 95       	ret

0000640c <__udivmodsi4>:
    640c:	a1 e2       	ldi	r26, 0x21	; 33
    640e:	1a 2e       	mov	r1, r26
    6410:	aa 1b       	sub	r26, r26
    6412:	bb 1b       	sub	r27, r27
    6414:	fd 01       	movw	r30, r26
    6416:	0d c0       	rjmp	.+26     	; 0x6432 <__udivmodsi4_ep>

00006418 <__udivmodsi4_loop>:
    6418:	aa 1f       	adc	r26, r26
    641a:	bb 1f       	adc	r27, r27
    641c:	ee 1f       	adc	r30, r30
    641e:	ff 1f       	adc	r31, r31
    6420:	a2 17       	cp	r26, r18
    6422:	b3 07       	cpc	r27, r19
    6424:	e4 07       	cpc	r30, r20
    6426:	f5 07       	cpc	r31, r21
    6428:	20 f0       	brcs	.+8      	; 0x6432 <__udivmodsi4_ep>
    642a:	a2 1b       	sub	r26, r18
    642c:	b3 0b       	sbc	r27, r19
    642e:	e4 0b       	sbc	r30, r20
    6430:	f5 0b       	sbc	r31, r21

00006432 <__udivmodsi4_ep>:
    6432:	66 1f       	adc	r22, r22
    6434:	77 1f       	adc	r23, r23
    6436:	88 1f       	adc	r24, r24
    6438:	99 1f       	adc	r25, r25
    643a:	1a 94       	dec	r1
    643c:	69 f7       	brne	.-38     	; 0x6418 <__udivmodsi4_loop>
    643e:	60 95       	com	r22
    6440:	70 95       	com	r23
    6442:	80 95       	com	r24
    6444:	90 95       	com	r25
    6446:	9b 01       	movw	r18, r22
    6448:	ac 01       	movw	r20, r24
    644a:	bd 01       	movw	r22, r26
    644c:	cf 01       	movw	r24, r30
    644e:	08 95       	ret

00006450 <__prologue_saves__>:
    6450:	2f 92       	push	r2
    6452:	3f 92       	push	r3
    6454:	4f 92       	push	r4
    6456:	5f 92       	push	r5
    6458:	6f 92       	push	r6
    645a:	7f 92       	push	r7
    645c:	8f 92       	push	r8
    645e:	9f 92       	push	r9
    6460:	af 92       	push	r10
    6462:	bf 92       	push	r11
    6464:	cf 92       	push	r12
    6466:	df 92       	push	r13
    6468:	ef 92       	push	r14
    646a:	ff 92       	push	r15
    646c:	0f 93       	push	r16
    646e:	1f 93       	push	r17
    6470:	cf 93       	push	r28
    6472:	df 93       	push	r29
    6474:	cd b7       	in	r28, 0x3d	; 61
    6476:	de b7       	in	r29, 0x3e	; 62
    6478:	ca 1b       	sub	r28, r26
    647a:	db 0b       	sbc	r29, r27
    647c:	cd bf       	out	0x3d, r28	; 61
    647e:	de bf       	out	0x3e, r29	; 62
    6480:	19 94       	eijmp

00006482 <__epilogue_restores__>:
    6482:	2a 88       	ldd	r2, Y+18	; 0x12
    6484:	39 88       	ldd	r3, Y+17	; 0x11
    6486:	48 88       	ldd	r4, Y+16	; 0x10
    6488:	5f 84       	ldd	r5, Y+15	; 0x0f
    648a:	6e 84       	ldd	r6, Y+14	; 0x0e
    648c:	7d 84       	ldd	r7, Y+13	; 0x0d
    648e:	8c 84       	ldd	r8, Y+12	; 0x0c
    6490:	9b 84       	ldd	r9, Y+11	; 0x0b
    6492:	aa 84       	ldd	r10, Y+10	; 0x0a
    6494:	b9 84       	ldd	r11, Y+9	; 0x09
    6496:	c8 84       	ldd	r12, Y+8	; 0x08
    6498:	df 80       	ldd	r13, Y+7	; 0x07
    649a:	ee 80       	ldd	r14, Y+6	; 0x06
    649c:	fd 80       	ldd	r15, Y+5	; 0x05
    649e:	0c 81       	ldd	r16, Y+4	; 0x04
    64a0:	1b 81       	ldd	r17, Y+3	; 0x03
    64a2:	aa 81       	ldd	r26, Y+2	; 0x02
    64a4:	b9 81       	ldd	r27, Y+1	; 0x01
    64a6:	ce 0f       	add	r28, r30
    64a8:	d1 1d       	adc	r29, r1
    64aa:	cd bf       	out	0x3d, r28	; 61
    64ac:	de bf       	out	0x3e, r29	; 62
    64ae:	ed 01       	movw	r28, r26
    64b0:	08 95       	ret

000064b2 <sprintf>:
    64b2:	0f 93       	push	r16
    64b4:	1f 93       	push	r17
    64b6:	cf 93       	push	r28
    64b8:	df 93       	push	r29
    64ba:	cd b7       	in	r28, 0x3d	; 61
    64bc:	de b7       	in	r29, 0x3e	; 62
    64be:	2e 97       	sbiw	r28, 0x0e	; 14
    64c0:	cd bf       	out	0x3d, r28	; 61
    64c2:	de bf       	out	0x3e, r29	; 62
    64c4:	0e 89       	ldd	r16, Y+22	; 0x16
    64c6:	1f 89       	ldd	r17, Y+23	; 0x17
    64c8:	86 e0       	ldi	r24, 0x06	; 6
    64ca:	8c 83       	std	Y+4, r24	; 0x04
    64cc:	09 83       	std	Y+1, r16	; 0x01
    64ce:	1a 83       	std	Y+2, r17	; 0x02
    64d0:	8f ef       	ldi	r24, 0xFF	; 255
    64d2:	9f e7       	ldi	r25, 0x7F	; 127
    64d4:	8d 83       	std	Y+5, r24	; 0x05
    64d6:	9e 83       	std	Y+6, r25	; 0x06
    64d8:	ae 01       	movw	r20, r28
    64da:	46 5e       	subi	r20, 0xE6	; 230
    64dc:	5f 4f       	sbci	r21, 0xFF	; 255
    64de:	ce 01       	movw	r24, r28
    64e0:	01 96       	adiw	r24, 0x01	; 1
    64e2:	68 8d       	ldd	r22, Y+24	; 0x18
    64e4:	79 8d       	ldd	r23, Y+25	; 0x19
    64e6:	0d d0       	rcall	.+26     	; 0x6502 <vfprintf>
    64e8:	ef 81       	ldd	r30, Y+7	; 0x07
    64ea:	f8 85       	ldd	r31, Y+8	; 0x08
    64ec:	e0 0f       	add	r30, r16
    64ee:	f1 1f       	adc	r31, r17
    64f0:	10 82       	st	Z, r1
    64f2:	2e 96       	adiw	r28, 0x0e	; 14
    64f4:	cd bf       	out	0x3d, r28	; 61
    64f6:	de bf       	out	0x3e, r29	; 62
    64f8:	df 91       	pop	r29
    64fa:	cf 91       	pop	r28
    64fc:	1f 91       	pop	r17
    64fe:	0f 91       	pop	r16
    6500:	08 95       	ret

00006502 <vfprintf>:
    6502:	2f 92       	push	r2
    6504:	3f 92       	push	r3
    6506:	4f 92       	push	r4
    6508:	5f 92       	push	r5
    650a:	6f 92       	push	r6
    650c:	7f 92       	push	r7
    650e:	8f 92       	push	r8
    6510:	9f 92       	push	r9
    6512:	af 92       	push	r10
    6514:	bf 92       	push	r11
    6516:	cf 92       	push	r12
    6518:	df 92       	push	r13
    651a:	ef 92       	push	r14
    651c:	ff 92       	push	r15
    651e:	0f 93       	push	r16
    6520:	1f 93       	push	r17
    6522:	cf 93       	push	r28
    6524:	df 93       	push	r29
    6526:	cd b7       	in	r28, 0x3d	; 61
    6528:	de b7       	in	r29, 0x3e	; 62
    652a:	2d 97       	sbiw	r28, 0x0d	; 13
    652c:	cd bf       	out	0x3d, r28	; 61
    652e:	de bf       	out	0x3e, r29	; 62
    6530:	3c 01       	movw	r6, r24
    6532:	6c 87       	std	Y+12, r22	; 0x0c
    6534:	7d 87       	std	Y+13, r23	; 0x0d
    6536:	5a 01       	movw	r10, r20
    6538:	fc 01       	movw	r30, r24
    653a:	16 82       	std	Z+6, r1	; 0x06
    653c:	17 82       	std	Z+7, r1	; 0x07
    653e:	83 81       	ldd	r24, Z+3	; 0x03
    6540:	81 ff       	sbrs	r24, 1
    6542:	bb c1       	rjmp	.+886    	; 0x68ba <vfprintf+0x3b8>
    6544:	2e 01       	movw	r4, r28
    6546:	08 94       	sec
    6548:	41 1c       	adc	r4, r1
    654a:	51 1c       	adc	r5, r1
    654c:	f3 01       	movw	r30, r6
    654e:	93 81       	ldd	r25, Z+3	; 0x03
    6550:	ec 85       	ldd	r30, Y+12	; 0x0c
    6552:	fd 85       	ldd	r31, Y+13	; 0x0d
    6554:	93 fd       	sbrc	r25, 3
    6556:	85 91       	lpm	r24, Z+
    6558:	93 ff       	sbrs	r25, 3
    655a:	81 91       	ld	r24, Z+
    655c:	ec 87       	std	Y+12, r30	; 0x0c
    655e:	fd 87       	std	Y+13, r31	; 0x0d
    6560:	88 23       	and	r24, r24
    6562:	09 f4       	brne	.+2      	; 0x6566 <vfprintf+0x64>
    6564:	a6 c1       	rjmp	.+844    	; 0x68b2 <vfprintf+0x3b0>
    6566:	85 32       	cpi	r24, 0x25	; 37
    6568:	41 f4       	brne	.+16     	; 0x657a <vfprintf+0x78>
    656a:	93 fd       	sbrc	r25, 3
    656c:	85 91       	lpm	r24, Z+
    656e:	93 ff       	sbrs	r25, 3
    6570:	81 91       	ld	r24, Z+
    6572:	ec 87       	std	Y+12, r30	; 0x0c
    6574:	fd 87       	std	Y+13, r31	; 0x0d
    6576:	85 32       	cpi	r24, 0x25	; 37
    6578:	21 f4       	brne	.+8      	; 0x6582 <vfprintf+0x80>
    657a:	90 e0       	ldi	r25, 0x00	; 0
    657c:	b3 01       	movw	r22, r6
    657e:	cb d1       	rcall	.+918    	; 0x6916 <fputc>
    6580:	e5 cf       	rjmp	.-54     	; 0x654c <vfprintf+0x4a>
    6582:	ff 24       	eor	r15, r15
    6584:	ee 24       	eor	r14, r14
    6586:	10 e0       	ldi	r17, 0x00	; 0
    6588:	10 32       	cpi	r17, 0x20	; 32
    658a:	b0 f4       	brcc	.+44     	; 0x65b8 <vfprintf+0xb6>
    658c:	8b 32       	cpi	r24, 0x2B	; 43
    658e:	69 f0       	breq	.+26     	; 0x65aa <vfprintf+0xa8>
    6590:	8c 32       	cpi	r24, 0x2C	; 44
    6592:	28 f4       	brcc	.+10     	; 0x659e <vfprintf+0x9c>
    6594:	80 32       	cpi	r24, 0x20	; 32
    6596:	51 f0       	breq	.+20     	; 0x65ac <vfprintf+0xaa>
    6598:	83 32       	cpi	r24, 0x23	; 35
    659a:	71 f4       	brne	.+28     	; 0x65b8 <vfprintf+0xb6>
    659c:	0b c0       	rjmp	.+22     	; 0x65b4 <vfprintf+0xb2>
    659e:	8d 32       	cpi	r24, 0x2D	; 45
    65a0:	39 f0       	breq	.+14     	; 0x65b0 <vfprintf+0xae>
    65a2:	80 33       	cpi	r24, 0x30	; 48
    65a4:	49 f4       	brne	.+18     	; 0x65b8 <vfprintf+0xb6>
    65a6:	11 60       	ori	r17, 0x01	; 1
    65a8:	2c c0       	rjmp	.+88     	; 0x6602 <vfprintf+0x100>
    65aa:	12 60       	ori	r17, 0x02	; 2
    65ac:	14 60       	ori	r17, 0x04	; 4
    65ae:	29 c0       	rjmp	.+82     	; 0x6602 <vfprintf+0x100>
    65b0:	18 60       	ori	r17, 0x08	; 8
    65b2:	27 c0       	rjmp	.+78     	; 0x6602 <vfprintf+0x100>
    65b4:	10 61       	ori	r17, 0x10	; 16
    65b6:	25 c0       	rjmp	.+74     	; 0x6602 <vfprintf+0x100>
    65b8:	17 fd       	sbrc	r17, 7
    65ba:	2e c0       	rjmp	.+92     	; 0x6618 <vfprintf+0x116>
    65bc:	28 2f       	mov	r18, r24
    65be:	20 53       	subi	r18, 0x30	; 48
    65c0:	2a 30       	cpi	r18, 0x0A	; 10
    65c2:	98 f4       	brcc	.+38     	; 0x65ea <vfprintf+0xe8>
    65c4:	16 ff       	sbrs	r17, 6
    65c6:	08 c0       	rjmp	.+16     	; 0x65d8 <vfprintf+0xd6>
    65c8:	8f 2d       	mov	r24, r15
    65ca:	88 0f       	add	r24, r24
    65cc:	f8 2e       	mov	r15, r24
    65ce:	ff 0c       	add	r15, r15
    65d0:	ff 0c       	add	r15, r15
    65d2:	f8 0e       	add	r15, r24
    65d4:	f2 0e       	add	r15, r18
    65d6:	15 c0       	rjmp	.+42     	; 0x6602 <vfprintf+0x100>
    65d8:	8e 2d       	mov	r24, r14
    65da:	88 0f       	add	r24, r24
    65dc:	e8 2e       	mov	r14, r24
    65de:	ee 0c       	add	r14, r14
    65e0:	ee 0c       	add	r14, r14
    65e2:	e8 0e       	add	r14, r24
    65e4:	e2 0e       	add	r14, r18
    65e6:	10 62       	ori	r17, 0x20	; 32
    65e8:	0c c0       	rjmp	.+24     	; 0x6602 <vfprintf+0x100>
    65ea:	8e 32       	cpi	r24, 0x2E	; 46
    65ec:	21 f4       	brne	.+8      	; 0x65f6 <vfprintf+0xf4>
    65ee:	16 fd       	sbrc	r17, 6
    65f0:	60 c1       	rjmp	.+704    	; 0x68b2 <vfprintf+0x3b0>
    65f2:	10 64       	ori	r17, 0x40	; 64
    65f4:	06 c0       	rjmp	.+12     	; 0x6602 <vfprintf+0x100>
    65f6:	8c 36       	cpi	r24, 0x6C	; 108
    65f8:	11 f4       	brne	.+4      	; 0x65fe <vfprintf+0xfc>
    65fa:	10 68       	ori	r17, 0x80	; 128
    65fc:	02 c0       	rjmp	.+4      	; 0x6602 <vfprintf+0x100>
    65fe:	88 36       	cpi	r24, 0x68	; 104
    6600:	59 f4       	brne	.+22     	; 0x6618 <vfprintf+0x116>
    6602:	ec 85       	ldd	r30, Y+12	; 0x0c
    6604:	fd 85       	ldd	r31, Y+13	; 0x0d
    6606:	93 fd       	sbrc	r25, 3
    6608:	85 91       	lpm	r24, Z+
    660a:	93 ff       	sbrs	r25, 3
    660c:	81 91       	ld	r24, Z+
    660e:	ec 87       	std	Y+12, r30	; 0x0c
    6610:	fd 87       	std	Y+13, r31	; 0x0d
    6612:	88 23       	and	r24, r24
    6614:	09 f0       	breq	.+2      	; 0x6618 <vfprintf+0x116>
    6616:	b8 cf       	rjmp	.-144    	; 0x6588 <vfprintf+0x86>
    6618:	98 2f       	mov	r25, r24
    661a:	95 54       	subi	r25, 0x45	; 69
    661c:	93 30       	cpi	r25, 0x03	; 3
    661e:	18 f0       	brcs	.+6      	; 0x6626 <vfprintf+0x124>
    6620:	90 52       	subi	r25, 0x20	; 32
    6622:	93 30       	cpi	r25, 0x03	; 3
    6624:	38 f4       	brcc	.+14     	; 0x6634 <vfprintf+0x132>
    6626:	24 e0       	ldi	r18, 0x04	; 4
    6628:	30 e0       	ldi	r19, 0x00	; 0
    662a:	a2 0e       	add	r10, r18
    662c:	b3 1e       	adc	r11, r19
    662e:	3f e3       	ldi	r19, 0x3F	; 63
    6630:	39 83       	std	Y+1, r19	; 0x01
    6632:	0f c0       	rjmp	.+30     	; 0x6652 <vfprintf+0x150>
    6634:	83 36       	cpi	r24, 0x63	; 99
    6636:	31 f0       	breq	.+12     	; 0x6644 <vfprintf+0x142>
    6638:	83 37       	cpi	r24, 0x73	; 115
    663a:	81 f0       	breq	.+32     	; 0x665c <vfprintf+0x15a>
    663c:	83 35       	cpi	r24, 0x53	; 83
    663e:	09 f0       	breq	.+2      	; 0x6642 <vfprintf+0x140>
    6640:	56 c0       	rjmp	.+172    	; 0x66ee <vfprintf+0x1ec>
    6642:	21 c0       	rjmp	.+66     	; 0x6686 <vfprintf+0x184>
    6644:	f5 01       	movw	r30, r10
    6646:	80 81       	ld	r24, Z
    6648:	89 83       	std	Y+1, r24	; 0x01
    664a:	22 e0       	ldi	r18, 0x02	; 2
    664c:	30 e0       	ldi	r19, 0x00	; 0
    664e:	a2 0e       	add	r10, r18
    6650:	b3 1e       	adc	r11, r19
    6652:	21 e0       	ldi	r18, 0x01	; 1
    6654:	c2 2e       	mov	r12, r18
    6656:	d1 2c       	mov	r13, r1
    6658:	42 01       	movw	r8, r4
    665a:	13 c0       	rjmp	.+38     	; 0x6682 <vfprintf+0x180>
    665c:	92 e0       	ldi	r25, 0x02	; 2
    665e:	29 2e       	mov	r2, r25
    6660:	31 2c       	mov	r3, r1
    6662:	2a 0c       	add	r2, r10
    6664:	3b 1c       	adc	r3, r11
    6666:	f5 01       	movw	r30, r10
    6668:	80 80       	ld	r8, Z
    666a:	91 80       	ldd	r9, Z+1	; 0x01
    666c:	16 ff       	sbrs	r17, 6
    666e:	03 c0       	rjmp	.+6      	; 0x6676 <vfprintf+0x174>
    6670:	6f 2d       	mov	r22, r15
    6672:	70 e0       	ldi	r23, 0x00	; 0
    6674:	02 c0       	rjmp	.+4      	; 0x667a <vfprintf+0x178>
    6676:	6f ef       	ldi	r22, 0xFF	; 255
    6678:	7f ef       	ldi	r23, 0xFF	; 255
    667a:	c4 01       	movw	r24, r8
    667c:	41 d1       	rcall	.+642    	; 0x6900 <strnlen>
    667e:	6c 01       	movw	r12, r24
    6680:	51 01       	movw	r10, r2
    6682:	1f 77       	andi	r17, 0x7F	; 127
    6684:	14 c0       	rjmp	.+40     	; 0x66ae <vfprintf+0x1ac>
    6686:	82 e0       	ldi	r24, 0x02	; 2
    6688:	28 2e       	mov	r2, r24
    668a:	31 2c       	mov	r3, r1
    668c:	2a 0c       	add	r2, r10
    668e:	3b 1c       	adc	r3, r11
    6690:	f5 01       	movw	r30, r10
    6692:	80 80       	ld	r8, Z
    6694:	91 80       	ldd	r9, Z+1	; 0x01
    6696:	16 ff       	sbrs	r17, 6
    6698:	03 c0       	rjmp	.+6      	; 0x66a0 <vfprintf+0x19e>
    669a:	6f 2d       	mov	r22, r15
    669c:	70 e0       	ldi	r23, 0x00	; 0
    669e:	02 c0       	rjmp	.+4      	; 0x66a4 <vfprintf+0x1a2>
    66a0:	6f ef       	ldi	r22, 0xFF	; 255
    66a2:	7f ef       	ldi	r23, 0xFF	; 255
    66a4:	c4 01       	movw	r24, r8
    66a6:	21 d1       	rcall	.+578    	; 0x68ea <strnlen_P>
    66a8:	6c 01       	movw	r12, r24
    66aa:	10 68       	ori	r17, 0x80	; 128
    66ac:	51 01       	movw	r10, r2
    66ae:	13 fd       	sbrc	r17, 3
    66b0:	1a c0       	rjmp	.+52     	; 0x66e6 <vfprintf+0x1e4>
    66b2:	05 c0       	rjmp	.+10     	; 0x66be <vfprintf+0x1bc>
    66b4:	80 e2       	ldi	r24, 0x20	; 32
    66b6:	90 e0       	ldi	r25, 0x00	; 0
    66b8:	b3 01       	movw	r22, r6
    66ba:	2d d1       	rcall	.+602    	; 0x6916 <fputc>
    66bc:	ea 94       	dec	r14
    66be:	8e 2d       	mov	r24, r14
    66c0:	90 e0       	ldi	r25, 0x00	; 0
    66c2:	c8 16       	cp	r12, r24
    66c4:	d9 06       	cpc	r13, r25
    66c6:	b0 f3       	brcs	.-20     	; 0x66b4 <vfprintf+0x1b2>
    66c8:	0e c0       	rjmp	.+28     	; 0x66e6 <vfprintf+0x1e4>
    66ca:	f4 01       	movw	r30, r8
    66cc:	17 fd       	sbrc	r17, 7
    66ce:	85 91       	lpm	r24, Z+
    66d0:	17 ff       	sbrs	r17, 7
    66d2:	81 91       	ld	r24, Z+
    66d4:	4f 01       	movw	r8, r30
    66d6:	90 e0       	ldi	r25, 0x00	; 0
    66d8:	b3 01       	movw	r22, r6
    66da:	1d d1       	rcall	.+570    	; 0x6916 <fputc>
    66dc:	e1 10       	cpse	r14, r1
    66de:	ea 94       	dec	r14
    66e0:	08 94       	sec
    66e2:	c1 08       	sbc	r12, r1
    66e4:	d1 08       	sbc	r13, r1
    66e6:	c1 14       	cp	r12, r1
    66e8:	d1 04       	cpc	r13, r1
    66ea:	79 f7       	brne	.-34     	; 0x66ca <vfprintf+0x1c8>
    66ec:	df c0       	rjmp	.+446    	; 0x68ac <vfprintf+0x3aa>
    66ee:	84 36       	cpi	r24, 0x64	; 100
    66f0:	11 f0       	breq	.+4      	; 0x66f6 <vfprintf+0x1f4>
    66f2:	89 36       	cpi	r24, 0x69	; 105
    66f4:	49 f5       	brne	.+82     	; 0x6748 <vfprintf+0x246>
    66f6:	f5 01       	movw	r30, r10
    66f8:	17 ff       	sbrs	r17, 7
    66fa:	07 c0       	rjmp	.+14     	; 0x670a <vfprintf+0x208>
    66fc:	80 81       	ld	r24, Z
    66fe:	91 81       	ldd	r25, Z+1	; 0x01
    6700:	a2 81       	ldd	r26, Z+2	; 0x02
    6702:	b3 81       	ldd	r27, Z+3	; 0x03
    6704:	24 e0       	ldi	r18, 0x04	; 4
    6706:	30 e0       	ldi	r19, 0x00	; 0
    6708:	08 c0       	rjmp	.+16     	; 0x671a <vfprintf+0x218>
    670a:	80 81       	ld	r24, Z
    670c:	91 81       	ldd	r25, Z+1	; 0x01
    670e:	aa 27       	eor	r26, r26
    6710:	97 fd       	sbrc	r25, 7
    6712:	a0 95       	com	r26
    6714:	ba 2f       	mov	r27, r26
    6716:	22 e0       	ldi	r18, 0x02	; 2
    6718:	30 e0       	ldi	r19, 0x00	; 0
    671a:	a2 0e       	add	r10, r18
    671c:	b3 1e       	adc	r11, r19
    671e:	01 2f       	mov	r16, r17
    6720:	0f 76       	andi	r16, 0x6F	; 111
    6722:	b7 ff       	sbrs	r27, 7
    6724:	08 c0       	rjmp	.+16     	; 0x6736 <vfprintf+0x234>
    6726:	b0 95       	com	r27
    6728:	a0 95       	com	r26
    672a:	90 95       	com	r25
    672c:	81 95       	neg	r24
    672e:	9f 4f       	sbci	r25, 0xFF	; 255
    6730:	af 4f       	sbci	r26, 0xFF	; 255
    6732:	bf 4f       	sbci	r27, 0xFF	; 255
    6734:	00 68       	ori	r16, 0x80	; 128
    6736:	bc 01       	movw	r22, r24
    6738:	cd 01       	movw	r24, r26
    673a:	a2 01       	movw	r20, r4
    673c:	2a e0       	ldi	r18, 0x0A	; 10
    673e:	30 e0       	ldi	r19, 0x00	; 0
    6740:	16 d1       	rcall	.+556    	; 0x696e <__ultoa_invert>
    6742:	d8 2e       	mov	r13, r24
    6744:	d4 18       	sub	r13, r4
    6746:	3e c0       	rjmp	.+124    	; 0x67c4 <vfprintf+0x2c2>
    6748:	85 37       	cpi	r24, 0x75	; 117
    674a:	21 f4       	brne	.+8      	; 0x6754 <vfprintf+0x252>
    674c:	1f 7e       	andi	r17, 0xEF	; 239
    674e:	2a e0       	ldi	r18, 0x0A	; 10
    6750:	30 e0       	ldi	r19, 0x00	; 0
    6752:	20 c0       	rjmp	.+64     	; 0x6794 <vfprintf+0x292>
    6754:	19 7f       	andi	r17, 0xF9	; 249
    6756:	8f 36       	cpi	r24, 0x6F	; 111
    6758:	a9 f0       	breq	.+42     	; 0x6784 <vfprintf+0x282>
    675a:	80 37       	cpi	r24, 0x70	; 112
    675c:	20 f4       	brcc	.+8      	; 0x6766 <vfprintf+0x264>
    675e:	88 35       	cpi	r24, 0x58	; 88
    6760:	09 f0       	breq	.+2      	; 0x6764 <vfprintf+0x262>
    6762:	a7 c0       	rjmp	.+334    	; 0x68b2 <vfprintf+0x3b0>
    6764:	0b c0       	rjmp	.+22     	; 0x677c <vfprintf+0x27a>
    6766:	80 37       	cpi	r24, 0x70	; 112
    6768:	21 f0       	breq	.+8      	; 0x6772 <vfprintf+0x270>
    676a:	88 37       	cpi	r24, 0x78	; 120
    676c:	09 f0       	breq	.+2      	; 0x6770 <vfprintf+0x26e>
    676e:	a1 c0       	rjmp	.+322    	; 0x68b2 <vfprintf+0x3b0>
    6770:	01 c0       	rjmp	.+2      	; 0x6774 <vfprintf+0x272>
    6772:	10 61       	ori	r17, 0x10	; 16
    6774:	14 ff       	sbrs	r17, 4
    6776:	09 c0       	rjmp	.+18     	; 0x678a <vfprintf+0x288>
    6778:	14 60       	ori	r17, 0x04	; 4
    677a:	07 c0       	rjmp	.+14     	; 0x678a <vfprintf+0x288>
    677c:	14 ff       	sbrs	r17, 4
    677e:	08 c0       	rjmp	.+16     	; 0x6790 <vfprintf+0x28e>
    6780:	16 60       	ori	r17, 0x06	; 6
    6782:	06 c0       	rjmp	.+12     	; 0x6790 <vfprintf+0x28e>
    6784:	28 e0       	ldi	r18, 0x08	; 8
    6786:	30 e0       	ldi	r19, 0x00	; 0
    6788:	05 c0       	rjmp	.+10     	; 0x6794 <vfprintf+0x292>
    678a:	20 e1       	ldi	r18, 0x10	; 16
    678c:	30 e0       	ldi	r19, 0x00	; 0
    678e:	02 c0       	rjmp	.+4      	; 0x6794 <vfprintf+0x292>
    6790:	20 e1       	ldi	r18, 0x10	; 16
    6792:	32 e0       	ldi	r19, 0x02	; 2
    6794:	f5 01       	movw	r30, r10
    6796:	17 ff       	sbrs	r17, 7
    6798:	07 c0       	rjmp	.+14     	; 0x67a8 <vfprintf+0x2a6>
    679a:	60 81       	ld	r22, Z
    679c:	71 81       	ldd	r23, Z+1	; 0x01
    679e:	82 81       	ldd	r24, Z+2	; 0x02
    67a0:	93 81       	ldd	r25, Z+3	; 0x03
    67a2:	44 e0       	ldi	r20, 0x04	; 4
    67a4:	50 e0       	ldi	r21, 0x00	; 0
    67a6:	06 c0       	rjmp	.+12     	; 0x67b4 <vfprintf+0x2b2>
    67a8:	60 81       	ld	r22, Z
    67aa:	71 81       	ldd	r23, Z+1	; 0x01
    67ac:	80 e0       	ldi	r24, 0x00	; 0
    67ae:	90 e0       	ldi	r25, 0x00	; 0
    67b0:	42 e0       	ldi	r20, 0x02	; 2
    67b2:	50 e0       	ldi	r21, 0x00	; 0
    67b4:	a4 0e       	add	r10, r20
    67b6:	b5 1e       	adc	r11, r21
    67b8:	a2 01       	movw	r20, r4
    67ba:	d9 d0       	rcall	.+434    	; 0x696e <__ultoa_invert>
    67bc:	d8 2e       	mov	r13, r24
    67be:	d4 18       	sub	r13, r4
    67c0:	01 2f       	mov	r16, r17
    67c2:	0f 77       	andi	r16, 0x7F	; 127
    67c4:	06 ff       	sbrs	r16, 6
    67c6:	09 c0       	rjmp	.+18     	; 0x67da <vfprintf+0x2d8>
    67c8:	0e 7f       	andi	r16, 0xFE	; 254
    67ca:	df 14       	cp	r13, r15
    67cc:	30 f4       	brcc	.+12     	; 0x67da <vfprintf+0x2d8>
    67ce:	04 ff       	sbrs	r16, 4
    67d0:	06 c0       	rjmp	.+12     	; 0x67de <vfprintf+0x2dc>
    67d2:	02 fd       	sbrc	r16, 2
    67d4:	04 c0       	rjmp	.+8      	; 0x67de <vfprintf+0x2dc>
    67d6:	0f 7e       	andi	r16, 0xEF	; 239
    67d8:	02 c0       	rjmp	.+4      	; 0x67de <vfprintf+0x2dc>
    67da:	1d 2d       	mov	r17, r13
    67dc:	01 c0       	rjmp	.+2      	; 0x67e0 <vfprintf+0x2de>
    67de:	1f 2d       	mov	r17, r15
    67e0:	80 2f       	mov	r24, r16
    67e2:	90 e0       	ldi	r25, 0x00	; 0
    67e4:	04 ff       	sbrs	r16, 4
    67e6:	0c c0       	rjmp	.+24     	; 0x6800 <vfprintf+0x2fe>
    67e8:	fe 01       	movw	r30, r28
    67ea:	ed 0d       	add	r30, r13
    67ec:	f1 1d       	adc	r31, r1
    67ee:	20 81       	ld	r18, Z
    67f0:	20 33       	cpi	r18, 0x30	; 48
    67f2:	11 f4       	brne	.+4      	; 0x67f8 <vfprintf+0x2f6>
    67f4:	09 7e       	andi	r16, 0xE9	; 233
    67f6:	09 c0       	rjmp	.+18     	; 0x680a <vfprintf+0x308>
    67f8:	02 ff       	sbrs	r16, 2
    67fa:	06 c0       	rjmp	.+12     	; 0x6808 <vfprintf+0x306>
    67fc:	1e 5f       	subi	r17, 0xFE	; 254
    67fe:	05 c0       	rjmp	.+10     	; 0x680a <vfprintf+0x308>
    6800:	86 78       	andi	r24, 0x86	; 134
    6802:	90 70       	andi	r25, 0x00	; 0
    6804:	00 97       	sbiw	r24, 0x00	; 0
    6806:	09 f0       	breq	.+2      	; 0x680a <vfprintf+0x308>
    6808:	1f 5f       	subi	r17, 0xFF	; 255
    680a:	80 2e       	mov	r8, r16
    680c:	99 24       	eor	r9, r9
    680e:	03 fd       	sbrc	r16, 3
    6810:	11 c0       	rjmp	.+34     	; 0x6834 <vfprintf+0x332>
    6812:	00 ff       	sbrs	r16, 0
    6814:	0c c0       	rjmp	.+24     	; 0x682e <vfprintf+0x32c>
    6816:	fd 2c       	mov	r15, r13
    6818:	1e 15       	cp	r17, r14
    681a:	48 f4       	brcc	.+18     	; 0x682e <vfprintf+0x32c>
    681c:	fe 0c       	add	r15, r14
    681e:	f1 1a       	sub	r15, r17
    6820:	1e 2d       	mov	r17, r14
    6822:	05 c0       	rjmp	.+10     	; 0x682e <vfprintf+0x32c>
    6824:	80 e2       	ldi	r24, 0x20	; 32
    6826:	90 e0       	ldi	r25, 0x00	; 0
    6828:	b3 01       	movw	r22, r6
    682a:	75 d0       	rcall	.+234    	; 0x6916 <fputc>
    682c:	1f 5f       	subi	r17, 0xFF	; 255
    682e:	1e 15       	cp	r17, r14
    6830:	c8 f3       	brcs	.-14     	; 0x6824 <vfprintf+0x322>
    6832:	04 c0       	rjmp	.+8      	; 0x683c <vfprintf+0x33a>
    6834:	1e 15       	cp	r17, r14
    6836:	10 f4       	brcc	.+4      	; 0x683c <vfprintf+0x33a>
    6838:	e1 1a       	sub	r14, r17
    683a:	01 c0       	rjmp	.+2      	; 0x683e <vfprintf+0x33c>
    683c:	ee 24       	eor	r14, r14
    683e:	84 fe       	sbrs	r8, 4
    6840:	0e c0       	rjmp	.+28     	; 0x685e <vfprintf+0x35c>
    6842:	80 e3       	ldi	r24, 0x30	; 48
    6844:	90 e0       	ldi	r25, 0x00	; 0
    6846:	b3 01       	movw	r22, r6
    6848:	66 d0       	rcall	.+204    	; 0x6916 <fputc>
    684a:	82 fe       	sbrs	r8, 2
    684c:	1d c0       	rjmp	.+58     	; 0x6888 <vfprintf+0x386>
    684e:	81 fe       	sbrs	r8, 1
    6850:	03 c0       	rjmp	.+6      	; 0x6858 <vfprintf+0x356>
    6852:	88 e5       	ldi	r24, 0x58	; 88
    6854:	90 e0       	ldi	r25, 0x00	; 0
    6856:	10 c0       	rjmp	.+32     	; 0x6878 <vfprintf+0x376>
    6858:	88 e7       	ldi	r24, 0x78	; 120
    685a:	90 e0       	ldi	r25, 0x00	; 0
    685c:	0d c0       	rjmp	.+26     	; 0x6878 <vfprintf+0x376>
    685e:	c4 01       	movw	r24, r8
    6860:	86 78       	andi	r24, 0x86	; 134
    6862:	90 70       	andi	r25, 0x00	; 0
    6864:	00 97       	sbiw	r24, 0x00	; 0
    6866:	81 f0       	breq	.+32     	; 0x6888 <vfprintf+0x386>
    6868:	81 fc       	sbrc	r8, 1
    686a:	02 c0       	rjmp	.+4      	; 0x6870 <vfprintf+0x36e>
    686c:	80 e2       	ldi	r24, 0x20	; 32
    686e:	01 c0       	rjmp	.+2      	; 0x6872 <vfprintf+0x370>
    6870:	8b e2       	ldi	r24, 0x2B	; 43
    6872:	07 fd       	sbrc	r16, 7
    6874:	8d e2       	ldi	r24, 0x2D	; 45
    6876:	90 e0       	ldi	r25, 0x00	; 0
    6878:	b3 01       	movw	r22, r6
    687a:	4d d0       	rcall	.+154    	; 0x6916 <fputc>
    687c:	05 c0       	rjmp	.+10     	; 0x6888 <vfprintf+0x386>
    687e:	80 e3       	ldi	r24, 0x30	; 48
    6880:	90 e0       	ldi	r25, 0x00	; 0
    6882:	b3 01       	movw	r22, r6
    6884:	48 d0       	rcall	.+144    	; 0x6916 <fputc>
    6886:	fa 94       	dec	r15
    6888:	df 14       	cp	r13, r15
    688a:	c8 f3       	brcs	.-14     	; 0x687e <vfprintf+0x37c>
    688c:	da 94       	dec	r13
    688e:	f2 01       	movw	r30, r4
    6890:	ed 0d       	add	r30, r13
    6892:	f1 1d       	adc	r31, r1
    6894:	80 81       	ld	r24, Z
    6896:	90 e0       	ldi	r25, 0x00	; 0
    6898:	b3 01       	movw	r22, r6
    689a:	3d d0       	rcall	.+122    	; 0x6916 <fputc>
    689c:	dd 20       	and	r13, r13
    689e:	b1 f7       	brne	.-20     	; 0x688c <vfprintf+0x38a>
    68a0:	05 c0       	rjmp	.+10     	; 0x68ac <vfprintf+0x3aa>
    68a2:	80 e2       	ldi	r24, 0x20	; 32
    68a4:	90 e0       	ldi	r25, 0x00	; 0
    68a6:	b3 01       	movw	r22, r6
    68a8:	36 d0       	rcall	.+108    	; 0x6916 <fputc>
    68aa:	ea 94       	dec	r14
    68ac:	ee 20       	and	r14, r14
    68ae:	c9 f7       	brne	.-14     	; 0x68a2 <vfprintf+0x3a0>
    68b0:	4d ce       	rjmp	.-870    	; 0x654c <vfprintf+0x4a>
    68b2:	f3 01       	movw	r30, r6
    68b4:	86 81       	ldd	r24, Z+6	; 0x06
    68b6:	97 81       	ldd	r25, Z+7	; 0x07
    68b8:	02 c0       	rjmp	.+4      	; 0x68be <vfprintf+0x3bc>
    68ba:	8f ef       	ldi	r24, 0xFF	; 255
    68bc:	9f ef       	ldi	r25, 0xFF	; 255
    68be:	2d 96       	adiw	r28, 0x0d	; 13
    68c0:	cd bf       	out	0x3d, r28	; 61
    68c2:	de bf       	out	0x3e, r29	; 62
    68c4:	df 91       	pop	r29
    68c6:	cf 91       	pop	r28
    68c8:	1f 91       	pop	r17
    68ca:	0f 91       	pop	r16
    68cc:	ff 90       	pop	r15
    68ce:	ef 90       	pop	r14
    68d0:	df 90       	pop	r13
    68d2:	cf 90       	pop	r12
    68d4:	bf 90       	pop	r11
    68d6:	af 90       	pop	r10
    68d8:	9f 90       	pop	r9
    68da:	8f 90       	pop	r8
    68dc:	7f 90       	pop	r7
    68de:	6f 90       	pop	r6
    68e0:	5f 90       	pop	r5
    68e2:	4f 90       	pop	r4
    68e4:	3f 90       	pop	r3
    68e6:	2f 90       	pop	r2
    68e8:	08 95       	ret

000068ea <strnlen_P>:
    68ea:	fc 01       	movw	r30, r24
    68ec:	05 90       	lpm	r0, Z+
    68ee:	61 50       	subi	r22, 0x01	; 1
    68f0:	70 40       	sbci	r23, 0x00	; 0
    68f2:	01 10       	cpse	r0, r1
    68f4:	d8 f7       	brcc	.-10     	; 0x68ec <strnlen_P+0x2>
    68f6:	80 95       	com	r24
    68f8:	90 95       	com	r25
    68fa:	8e 0f       	add	r24, r30
    68fc:	9f 1f       	adc	r25, r31
    68fe:	08 95       	ret

00006900 <strnlen>:
    6900:	fc 01       	movw	r30, r24
    6902:	61 50       	subi	r22, 0x01	; 1
    6904:	70 40       	sbci	r23, 0x00	; 0
    6906:	01 90       	ld	r0, Z+
    6908:	01 10       	cpse	r0, r1
    690a:	d8 f7       	brcc	.-10     	; 0x6902 <strnlen+0x2>
    690c:	80 95       	com	r24
    690e:	90 95       	com	r25
    6910:	8e 0f       	add	r24, r30
    6912:	9f 1f       	adc	r25, r31
    6914:	08 95       	ret

00006916 <fputc>:
    6916:	0f 93       	push	r16
    6918:	1f 93       	push	r17
    691a:	cf 93       	push	r28
    691c:	df 93       	push	r29
    691e:	8c 01       	movw	r16, r24
    6920:	eb 01       	movw	r28, r22
    6922:	8b 81       	ldd	r24, Y+3	; 0x03
    6924:	81 ff       	sbrs	r24, 1
    6926:	1b c0       	rjmp	.+54     	; 0x695e <fputc+0x48>
    6928:	82 ff       	sbrs	r24, 2
    692a:	0d c0       	rjmp	.+26     	; 0x6946 <fputc+0x30>
    692c:	2e 81       	ldd	r18, Y+6	; 0x06
    692e:	3f 81       	ldd	r19, Y+7	; 0x07
    6930:	8c 81       	ldd	r24, Y+4	; 0x04
    6932:	9d 81       	ldd	r25, Y+5	; 0x05
    6934:	28 17       	cp	r18, r24
    6936:	39 07       	cpc	r19, r25
    6938:	64 f4       	brge	.+24     	; 0x6952 <fputc+0x3c>
    693a:	e8 81       	ld	r30, Y
    693c:	f9 81       	ldd	r31, Y+1	; 0x01
    693e:	01 93       	st	Z+, r16
    6940:	e8 83       	st	Y, r30
    6942:	f9 83       	std	Y+1, r31	; 0x01
    6944:	06 c0       	rjmp	.+12     	; 0x6952 <fputc+0x3c>
    6946:	e8 85       	ldd	r30, Y+8	; 0x08
    6948:	f9 85       	ldd	r31, Y+9	; 0x09
    694a:	80 2f       	mov	r24, r16
    694c:	19 95       	eicall
    694e:	00 97       	sbiw	r24, 0x00	; 0
    6950:	31 f4       	brne	.+12     	; 0x695e <fputc+0x48>
    6952:	8e 81       	ldd	r24, Y+6	; 0x06
    6954:	9f 81       	ldd	r25, Y+7	; 0x07
    6956:	01 96       	adiw	r24, 0x01	; 1
    6958:	8e 83       	std	Y+6, r24	; 0x06
    695a:	9f 83       	std	Y+7, r25	; 0x07
    695c:	02 c0       	rjmp	.+4      	; 0x6962 <fputc+0x4c>
    695e:	0f ef       	ldi	r16, 0xFF	; 255
    6960:	1f ef       	ldi	r17, 0xFF	; 255
    6962:	c8 01       	movw	r24, r16
    6964:	df 91       	pop	r29
    6966:	cf 91       	pop	r28
    6968:	1f 91       	pop	r17
    696a:	0f 91       	pop	r16
    696c:	08 95       	ret

0000696e <__ultoa_invert>:
    696e:	fa 01       	movw	r30, r20
    6970:	aa 27       	eor	r26, r26
    6972:	28 30       	cpi	r18, 0x08	; 8
    6974:	51 f1       	breq	.+84     	; 0x69ca <__ultoa_invert+0x5c>
    6976:	20 31       	cpi	r18, 0x10	; 16
    6978:	81 f1       	breq	.+96     	; 0x69da <__ultoa_invert+0x6c>
    697a:	e8 94       	clt
    697c:	6f 93       	push	r22
    697e:	6e 7f       	andi	r22, 0xFE	; 254
    6980:	6e 5f       	subi	r22, 0xFE	; 254
    6982:	7f 4f       	sbci	r23, 0xFF	; 255
    6984:	8f 4f       	sbci	r24, 0xFF	; 255
    6986:	9f 4f       	sbci	r25, 0xFF	; 255
    6988:	af 4f       	sbci	r26, 0xFF	; 255
    698a:	b1 e0       	ldi	r27, 0x01	; 1
    698c:	3e d0       	rcall	.+124    	; 0x6a0a <__ultoa_invert+0x9c>
    698e:	b4 e0       	ldi	r27, 0x04	; 4
    6990:	3c d0       	rcall	.+120    	; 0x6a0a <__ultoa_invert+0x9c>
    6992:	67 0f       	add	r22, r23
    6994:	78 1f       	adc	r23, r24
    6996:	89 1f       	adc	r24, r25
    6998:	9a 1f       	adc	r25, r26
    699a:	a1 1d       	adc	r26, r1
    699c:	68 0f       	add	r22, r24
    699e:	79 1f       	adc	r23, r25
    69a0:	8a 1f       	adc	r24, r26
    69a2:	91 1d       	adc	r25, r1
    69a4:	a1 1d       	adc	r26, r1
    69a6:	6a 0f       	add	r22, r26
    69a8:	71 1d       	adc	r23, r1
    69aa:	81 1d       	adc	r24, r1
    69ac:	91 1d       	adc	r25, r1
    69ae:	a1 1d       	adc	r26, r1
    69b0:	20 d0       	rcall	.+64     	; 0x69f2 <__ultoa_invert+0x84>
    69b2:	09 f4       	brne	.+2      	; 0x69b6 <__ultoa_invert+0x48>
    69b4:	68 94       	set
    69b6:	3f 91       	pop	r19
    69b8:	2a e0       	ldi	r18, 0x0A	; 10
    69ba:	26 9f       	mul	r18, r22
    69bc:	11 24       	eor	r1, r1
    69be:	30 19       	sub	r19, r0
    69c0:	30 5d       	subi	r19, 0xD0	; 208
    69c2:	31 93       	st	Z+, r19
    69c4:	de f6       	brtc	.-74     	; 0x697c <__ultoa_invert+0xe>
    69c6:	cf 01       	movw	r24, r30
    69c8:	08 95       	ret
    69ca:	46 2f       	mov	r20, r22
    69cc:	47 70       	andi	r20, 0x07	; 7
    69ce:	40 5d       	subi	r20, 0xD0	; 208
    69d0:	41 93       	st	Z+, r20
    69d2:	b3 e0       	ldi	r27, 0x03	; 3
    69d4:	0f d0       	rcall	.+30     	; 0x69f4 <__ultoa_invert+0x86>
    69d6:	c9 f7       	brne	.-14     	; 0x69ca <__ultoa_invert+0x5c>
    69d8:	f6 cf       	rjmp	.-20     	; 0x69c6 <__ultoa_invert+0x58>
    69da:	46 2f       	mov	r20, r22
    69dc:	4f 70       	andi	r20, 0x0F	; 15
    69de:	40 5d       	subi	r20, 0xD0	; 208
    69e0:	4a 33       	cpi	r20, 0x3A	; 58
    69e2:	18 f0       	brcs	.+6      	; 0x69ea <__ultoa_invert+0x7c>
    69e4:	49 5d       	subi	r20, 0xD9	; 217
    69e6:	31 fd       	sbrc	r19, 1
    69e8:	40 52       	subi	r20, 0x20	; 32
    69ea:	41 93       	st	Z+, r20
    69ec:	02 d0       	rcall	.+4      	; 0x69f2 <__ultoa_invert+0x84>
    69ee:	a9 f7       	brne	.-22     	; 0x69da <__ultoa_invert+0x6c>
    69f0:	ea cf       	rjmp	.-44     	; 0x69c6 <__ultoa_invert+0x58>
    69f2:	b4 e0       	ldi	r27, 0x04	; 4
    69f4:	a6 95       	lsr	r26
    69f6:	97 95       	ror	r25
    69f8:	87 95       	ror	r24
    69fa:	77 95       	ror	r23
    69fc:	67 95       	ror	r22
    69fe:	ba 95       	dec	r27
    6a00:	c9 f7       	brne	.-14     	; 0x69f4 <__ultoa_invert+0x86>
    6a02:	00 97       	sbiw	r24, 0x00	; 0
    6a04:	61 05       	cpc	r22, r1
    6a06:	71 05       	cpc	r23, r1
    6a08:	08 95       	ret
    6a0a:	9b 01       	movw	r18, r22
    6a0c:	ac 01       	movw	r20, r24
    6a0e:	0a 2e       	mov	r0, r26
    6a10:	06 94       	lsr	r0
    6a12:	57 95       	ror	r21
    6a14:	47 95       	ror	r20
    6a16:	37 95       	ror	r19
    6a18:	27 95       	ror	r18
    6a1a:	ba 95       	dec	r27
    6a1c:	c9 f7       	brne	.-14     	; 0x6a10 <__ultoa_invert+0xa2>
    6a1e:	62 0f       	add	r22, r18
    6a20:	73 1f       	adc	r23, r19
    6a22:	84 1f       	adc	r24, r20
    6a24:	95 1f       	adc	r25, r21
    6a26:	a0 1d       	adc	r26, r0
    6a28:	08 95       	ret

00006a2a <_exit>:
    6a2a:	f8 94       	cli

00006a2c <__stop_program>:
    6a2c:	ff cf       	rjmp	.-2      	; 0x6a2c <__stop_program>
