
base1.elf:     file format elf32-avr

Sections:
Idx Name          Size      VMA       LMA       File off  Algn
  0 .text         0000511a  00000000  00000000  00000094  2**1
                  CONTENTS, ALLOC, LOAD, READONLY, CODE
  1 .data         00000060  00802000  0000511a  000051ae  2**0
                  CONTENTS, ALLOC, LOAD, DATA
  2 .bss          00000423  00802060  00802060  0000520e  2**0
                  ALLOC
  3 .comment      0000005c  00000000  00000000  0000520e  2**0
                  CONTENTS, READONLY
  4 .debug_aranges 000007d0  00000000  00000000  00005270  2**3
                  CONTENTS, READONLY, DEBUGGING
  5 .debug_info   0000c3ed  00000000  00000000  00005a40  2**0
                  CONTENTS, READONLY, DEBUGGING
  6 .debug_abbrev 000020a8  00000000  00000000  00011e2d  2**0
                  CONTENTS, READONLY, DEBUGGING
  7 .debug_line   000083d5  00000000  00000000  00013ed5  2**0
                  CONTENTS, READONLY, DEBUGGING
  8 .debug_frame  00002100  00000000  00000000  0001c2ac  2**2
                  CONTENTS, READONLY, DEBUGGING
  9 .debug_str    000265f7  00000000  00000000  0001e3ac  2**0
                  CONTENTS, READONLY, DEBUGGING
 10 .debug_loc    00006de1  00000000  00000000  000449a3  2**0
                  CONTENTS, READONLY, DEBUGGING
 11 .debug_ranges 000006c8  00000000  00000000  0004b788  2**3
                  CONTENTS, READONLY, DEBUGGING
 12 .debug_macro  0000ad99  00000000  00000000  0004be50  2**0
                  CONTENTS, READONLY, DEBUGGING

Disassembly of section .text:

00000000 <__vectors>:
       0:	f9 c0       	rjmp	.+498    	; 0x1f4 <__ctors_end>
       2:	00 00       	nop
       4:	1d c1       	rjmp	.+570    	; 0x240 <__bad_interrupt>
       6:	00 00       	nop
       8:	0c 94 4f 17 	jmp	0x2e9e	; 0x2e9e <__vector_2>
       c:	19 c1       	rjmp	.+562    	; 0x240 <__bad_interrupt>
       e:	00 00       	nop
      10:	17 c1       	rjmp	.+558    	; 0x240 <__bad_interrupt>
      12:	00 00       	nop
      14:	15 c1       	rjmp	.+554    	; 0x240 <__bad_interrupt>
      16:	00 00       	nop
      18:	13 c1       	rjmp	.+550    	; 0x240 <__bad_interrupt>
      1a:	00 00       	nop
      1c:	11 c1       	rjmp	.+546    	; 0x240 <__bad_interrupt>
      1e:	00 00       	nop
      20:	0f c1       	rjmp	.+542    	; 0x240 <__bad_interrupt>
      22:	00 00       	nop
      24:	0d c1       	rjmp	.+538    	; 0x240 <__bad_interrupt>
      26:	00 00       	nop
      28:	0b c1       	rjmp	.+534    	; 0x240 <__bad_interrupt>
      2a:	00 00       	nop
      2c:	09 c1       	rjmp	.+530    	; 0x240 <__bad_interrupt>
      2e:	00 00       	nop
      30:	07 c1       	rjmp	.+526    	; 0x240 <__bad_interrupt>
      32:	00 00       	nop
      34:	05 c1       	rjmp	.+522    	; 0x240 <__bad_interrupt>
      36:	00 00       	nop
      38:	49 c5       	rjmp	.+2706   	; 0xacc <__vector_14>
      3a:	00 00       	nop
      3c:	7f c5       	rjmp	.+2814   	; 0xb3c <__vector_15>
      3e:	00 00       	nop
      40:	b5 c5       	rjmp	.+2922   	; 0xbac <__vector_16>
      42:	00 00       	nop
      44:	eb c5       	rjmp	.+3030   	; 0xc1c <__vector_17>
      46:	00 00       	nop
      48:	21 c6       	rjmp	.+3138   	; 0xc8c <__vector_18>
      4a:	00 00       	nop
      4c:	57 c6       	rjmp	.+3246   	; 0xcfc <__vector_19>
      4e:	00 00       	nop
      50:	8d c6       	rjmp	.+3354   	; 0xd6c <__vector_20>
      52:	00 00       	nop
      54:	c3 c6       	rjmp	.+3462   	; 0xddc <__vector_21>
      56:	00 00       	nop
      58:	f9 c6       	rjmp	.+3570   	; 0xe4c <__vector_22>
      5a:	00 00       	nop
      5c:	2f c7       	rjmp	.+3678   	; 0xebc <__vector_23>
      5e:	00 00       	nop
      60:	ef c0       	rjmp	.+478    	; 0x240 <__bad_interrupt>
      62:	00 00       	nop
      64:	ed c0       	rjmp	.+474    	; 0x240 <__bad_interrupt>
      66:	00 00       	nop
      68:	eb c0       	rjmp	.+470    	; 0x240 <__bad_interrupt>
      6a:	00 00       	nop
      6c:	e9 c0       	rjmp	.+466    	; 0x240 <__bad_interrupt>
      6e:	00 00       	nop
      70:	e7 c0       	rjmp	.+462    	; 0x240 <__bad_interrupt>
      72:	00 00       	nop
      74:	e5 c0       	rjmp	.+458    	; 0x240 <__bad_interrupt>
      76:	00 00       	nop
      78:	e3 c0       	rjmp	.+454    	; 0x240 <__bad_interrupt>
      7a:	00 00       	nop
      7c:	e1 c0       	rjmp	.+450    	; 0x240 <__bad_interrupt>
      7e:	00 00       	nop
      80:	df c0       	rjmp	.+446    	; 0x240 <__bad_interrupt>
      82:	00 00       	nop
      84:	dd c0       	rjmp	.+442    	; 0x240 <__bad_interrupt>
      86:	00 00       	nop
      88:	db c0       	rjmp	.+438    	; 0x240 <__bad_interrupt>
      8a:	00 00       	nop
      8c:	d9 c0       	rjmp	.+434    	; 0x240 <__bad_interrupt>
      8e:	00 00       	nop
      90:	d7 c0       	rjmp	.+430    	; 0x240 <__bad_interrupt>
      92:	00 00       	nop
      94:	d5 c0       	rjmp	.+426    	; 0x240 <__bad_interrupt>
      96:	00 00       	nop
      98:	d3 c0       	rjmp	.+422    	; 0x240 <__bad_interrupt>
      9a:	00 00       	nop
      9c:	d1 c0       	rjmp	.+418    	; 0x240 <__bad_interrupt>
      9e:	00 00       	nop
      a0:	cf c0       	rjmp	.+414    	; 0x240 <__bad_interrupt>
      a2:	00 00       	nop
      a4:	cd c0       	rjmp	.+410    	; 0x240 <__bad_interrupt>
      a6:	00 00       	nop
      a8:	cb c0       	rjmp	.+406    	; 0x240 <__bad_interrupt>
      aa:	00 00       	nop
      ac:	0c 94 eb 10 	jmp	0x21d6	; 0x21d6 <__vector_43>
      b0:	c7 c0       	rjmp	.+398    	; 0x240 <__bad_interrupt>
      b2:	00 00       	nop
      b4:	c5 c0       	rjmp	.+394    	; 0x240 <__bad_interrupt>
      b6:	00 00       	nop
      b8:	c3 c0       	rjmp	.+390    	; 0x240 <__bad_interrupt>
      ba:	00 00       	nop
      bc:	0c 94 8e 09 	jmp	0x131c	; 0x131c <__vector_47>
      c0:	0c 94 c6 09 	jmp	0x138c	; 0x138c <__vector_48>
      c4:	0c 94 fe 09 	jmp	0x13fc	; 0x13fc <__vector_49>
      c8:	0c 94 36 0a 	jmp	0x146c	; 0x146c <__vector_50>
      cc:	0c 94 6e 0a 	jmp	0x14dc	; 0x14dc <__vector_51>
      d0:	0c 94 a6 0a 	jmp	0x154c	; 0x154c <__vector_52>
      d4:	0c 94 de 0a 	jmp	0x15bc	; 0x15bc <__vector_53>
      d8:	0c 94 16 0b 	jmp	0x162c	; 0x162c <__vector_54>
      dc:	0c 94 4e 0b 	jmp	0x169c	; 0x169c <__vector_55>
      e0:	0c 94 86 0b 	jmp	0x170c	; 0x170c <__vector_56>
      e4:	ad c0       	rjmp	.+346    	; 0x240 <__bad_interrupt>
      e6:	00 00       	nop
      e8:	0c 94 dd 22 	jmp	0x45ba	; 0x45ba <__vector_58>
      ec:	a9 c0       	rjmp	.+338    	; 0x240 <__bad_interrupt>
      ee:	00 00       	nop
      f0:	a7 c0       	rjmp	.+334    	; 0x240 <__bad_interrupt>
      f2:	00 00       	nop
      f4:	a5 c0       	rjmp	.+330    	; 0x240 <__bad_interrupt>
      f6:	00 00       	nop
      f8:	a3 c0       	rjmp	.+326    	; 0x240 <__bad_interrupt>
      fa:	00 00       	nop
      fc:	a1 c0       	rjmp	.+322    	; 0x240 <__bad_interrupt>
      fe:	00 00       	nop
     100:	9f c0       	rjmp	.+318    	; 0x240 <__bad_interrupt>
     102:	00 00       	nop
     104:	9d c0       	rjmp	.+314    	; 0x240 <__bad_interrupt>
     106:	00 00       	nop
     108:	9b c0       	rjmp	.+310    	; 0x240 <__bad_interrupt>
     10a:	00 00       	nop
     10c:	99 c0       	rjmp	.+306    	; 0x240 <__bad_interrupt>
     10e:	00 00       	nop
     110:	97 c0       	rjmp	.+302    	; 0x240 <__bad_interrupt>
     112:	00 00       	nop
     114:	95 c0       	rjmp	.+298    	; 0x240 <__bad_interrupt>
     116:	00 00       	nop
     118:	93 c0       	rjmp	.+294    	; 0x240 <__bad_interrupt>
     11a:	00 00       	nop
     11c:	91 c0       	rjmp	.+290    	; 0x240 <__bad_interrupt>
     11e:	00 00       	nop
     120:	8f c0       	rjmp	.+286    	; 0x240 <__bad_interrupt>
     122:	00 00       	nop
     124:	8d c0       	rjmp	.+282    	; 0x240 <__bad_interrupt>
     126:	00 00       	nop
     128:	8b c0       	rjmp	.+278    	; 0x240 <__bad_interrupt>
     12a:	00 00       	nop
     12c:	89 c0       	rjmp	.+274    	; 0x240 <__bad_interrupt>
     12e:	00 00       	nop
     130:	87 c0       	rjmp	.+270    	; 0x240 <__bad_interrupt>
     132:	00 00       	nop
     134:	0c 94 3f 15 	jmp	0x2a7e	; 0x2a7e <__vector_77>
     138:	f9 c6       	rjmp	.+3570   	; 0xf2c <__vector_78>
     13a:	00 00       	nop
     13c:	2f c7       	rjmp	.+3678   	; 0xf9c <__vector_79>
     13e:	00 00       	nop
     140:	65 c7       	rjmp	.+3786   	; 0x100c <__vector_80>
     142:	00 00       	nop
     144:	9b c7       	rjmp	.+3894   	; 0x107c <__vector_81>
     146:	00 00       	nop
     148:	d1 c7       	rjmp	.+4002   	; 0x10ec <__vector_82>
     14a:	00 00       	nop
     14c:	0c 94 ae 08 	jmp	0x115c	; 0x115c <__vector_83>
     150:	0c 94 e6 08 	jmp	0x11cc	; 0x11cc <__vector_84>
     154:	0c 94 1e 09 	jmp	0x123c	; 0x123c <__vector_85>
     158:	0c 94 56 09 	jmp	0x12ac	; 0x12ac <__vector_86>
     15c:	71 c0       	rjmp	.+226    	; 0x240 <__bad_interrupt>
     15e:	00 00       	nop
     160:	6f c0       	rjmp	.+222    	; 0x240 <__bad_interrupt>
     162:	00 00       	nop
     164:	6d c0       	rjmp	.+218    	; 0x240 <__bad_interrupt>
     166:	00 00       	nop
     168:	6b c0       	rjmp	.+214    	; 0x240 <__bad_interrupt>
     16a:	00 00       	nop
     16c:	69 c0       	rjmp	.+210    	; 0x240 <__bad_interrupt>
     16e:	00 00       	nop
     170:	67 c0       	rjmp	.+206    	; 0x240 <__bad_interrupt>
     172:	00 00       	nop
     174:	65 c0       	rjmp	.+202    	; 0x240 <__bad_interrupt>
     176:	00 00       	nop
     178:	0c 94 fb 16 	jmp	0x2df6	; 0x2df6 <__vector_94>
     17c:	0c 94 79 17 	jmp	0x2ef2	; 0x2ef2 <__vector_95>
     180:	0c 94 25 17 	jmp	0x2e4a	; 0x2e4a <__vector_96>
     184:	0c 94 a3 17 	jmp	0x2f46	; 0x2f46 <__vector_97>
     188:	5b c0       	rjmp	.+182    	; 0x240 <__bad_interrupt>
     18a:	00 00       	nop
     18c:	59 c0       	rjmp	.+178    	; 0x240 <__bad_interrupt>
     18e:	00 00       	nop
     190:	0c 94 f6 17 	jmp	0x2fec	; 0x2fec <__vector_100>
     194:	55 c0       	rjmp	.+170    	; 0x240 <__bad_interrupt>
     196:	00 00       	nop
     198:	53 c0       	rjmp	.+166    	; 0x240 <__bad_interrupt>
     19a:	00 00       	nop
     19c:	51 c0       	rjmp	.+162    	; 0x240 <__bad_interrupt>
     19e:	00 00       	nop
     1a0:	0c 94 ec 16 	jmp	0x2dd8	; 0x2dd8 <__vector_104>
     1a4:	4d c0       	rjmp	.+154    	; 0x240 <__bad_interrupt>
     1a6:	00 00       	nop
     1a8:	4b c0       	rjmp	.+150    	; 0x240 <__bad_interrupt>
     1aa:	00 00       	nop
     1ac:	49 c0       	rjmp	.+146    	; 0x240 <__bad_interrupt>
     1ae:	00 00       	nop
     1b0:	0c 94 be 0b 	jmp	0x177c	; 0x177c <__vector_108>
     1b4:	0c 94 f6 0b 	jmp	0x17ec	; 0x17ec <__vector_109>
     1b8:	0c 94 2e 0c 	jmp	0x185c	; 0x185c <__vector_110>
     1bc:	0c 94 66 0c 	jmp	0x18cc	; 0x18cc <__vector_111>
     1c0:	0c 94 9e 0c 	jmp	0x193c	; 0x193c <__vector_112>
     1c4:	0c 94 d6 0c 	jmp	0x19ac	; 0x19ac <__vector_113>
     1c8:	0c 94 0e 0d 	jmp	0x1a1c	; 0x1a1c <__vector_114>
     1cc:	0c 94 46 0d 	jmp	0x1a8c	; 0x1a8c <__vector_115>
     1d0:	0c 94 7e 0d 	jmp	0x1afc	; 0x1afc <__vector_116>
     1d4:	0c 94 b6 0d 	jmp	0x1b6c	; 0x1b6c <__vector_117>
     1d8:	33 c0       	rjmp	.+102    	; 0x240 <__bad_interrupt>
     1da:	00 00       	nop
     1dc:	0c 94 f2 21 	jmp	0x43e4	; 0x43e4 <__vector_119>
     1e0:	2f c0       	rjmp	.+94     	; 0x240 <__bad_interrupt>
     1e2:	00 00       	nop
     1e4:	2d c0       	rjmp	.+90     	; 0x240 <__bad_interrupt>
     1e6:	00 00       	nop
     1e8:	0c 94 4e 22 	jmp	0x449c	; 0x449c <__vector_122>
     1ec:	29 c0       	rjmp	.+82     	; 0x240 <__bad_interrupt>
     1ee:	00 00       	nop
     1f0:	27 c0       	rjmp	.+78     	; 0x240 <__bad_interrupt>
	...

000001f4 <__ctors_end>:
     1f4:	11 24       	eor	r1, r1
     1f6:	1f be       	out	0x3f, r1	; 63
     1f8:	cf ef       	ldi	r28, 0xFF	; 255
     1fa:	cd bf       	out	0x3d, r28	; 61
     1fc:	df e3       	ldi	r29, 0x3F	; 63
     1fe:	de bf       	out	0x3e, r29	; 62
     200:	00 e0       	ldi	r16, 0x00	; 0
     202:	0c bf       	out	0x3c, r16	; 60
     204:	18 be       	out	0x38, r1	; 56
     206:	19 be       	out	0x39, r1	; 57
     208:	1a be       	out	0x3a, r1	; 58
     20a:	1b be       	out	0x3b, r1	; 59

0000020c <__do_copy_data>:
     20c:	10 e2       	ldi	r17, 0x20	; 32
     20e:	a0 e0       	ldi	r26, 0x00	; 0
     210:	b0 e2       	ldi	r27, 0x20	; 32
     212:	ea e1       	ldi	r30, 0x1A	; 26
     214:	f1 e5       	ldi	r31, 0x51	; 81
     216:	00 e0       	ldi	r16, 0x00	; 0
     218:	0b bf       	out	0x3b, r16	; 59
     21a:	02 c0       	rjmp	.+4      	; 0x220 <__do_copy_data+0x14>
     21c:	07 90       	elpm	r0, Z+
     21e:	0d 92       	st	X+, r0
     220:	a0 36       	cpi	r26, 0x60	; 96
     222:	b1 07       	cpc	r27, r17
     224:	d9 f7       	brne	.-10     	; 0x21c <__do_copy_data+0x10>
     226:	1b be       	out	0x3b, r1	; 59

00000228 <__do_clear_bss>:
     228:	24 e2       	ldi	r18, 0x24	; 36
     22a:	a0 e6       	ldi	r26, 0x60	; 96
     22c:	b0 e2       	ldi	r27, 0x20	; 32
     22e:	01 c0       	rjmp	.+2      	; 0x232 <.do_clear_bss_start>

00000230 <.do_clear_bss_loop>:
     230:	1d 92       	st	X+, r1

00000232 <.do_clear_bss_start>:
     232:	a3 38       	cpi	r26, 0x83	; 131
     234:	b2 07       	cpc	r27, r18
     236:	e1 f7       	brne	.-8      	; 0x230 <.do_clear_bss_loop>
     238:	0e 94 91 18 	call	0x3122	; 0x3122 <main>
     23c:	0c 94 8b 28 	jmp	0x5116	; 0x5116 <_exit>

00000240 <__bad_interrupt>:
     240:	df ce       	rjmp	.-578    	; 0x0 <__vectors>

00000242 <LCDDataLines>:
     242:	e4 e2       	ldi	r30, 0x24	; 36
     244:	f6 e0       	ldi	r31, 0x06	; 6
     246:	90 81       	ld	r25, Z
     248:	a8 2f       	mov	r26, r24
     24a:	a1 70       	andi	r26, 0x01	; 1
     24c:	b0 e0       	ldi	r27, 0x00	; 0
     24e:	aa 0f       	add	r26, r26
     250:	bb 1f       	adc	r27, r27
     252:	aa 0f       	add	r26, r26
     254:	bb 1f       	adc	r27, r27
     256:	9b 7f       	andi	r25, 0xFB	; 251
     258:	a9 2b       	or	r26, r25
     25a:	a0 83       	st	Z, r26
     25c:	90 81       	ld	r25, Z
     25e:	81 fb       	bst	r24, 1
     260:	66 27       	eor	r22, r22
     262:	60 f9       	bld	r22, 0
     264:	70 e0       	ldi	r23, 0x00	; 0
     266:	66 0f       	add	r22, r22
     268:	77 1f       	adc	r23, r23
     26a:	62 95       	swap	r22
     26c:	72 95       	swap	r23
     26e:	70 7f       	andi	r23, 0xF0	; 240
     270:	76 27       	eor	r23, r22
     272:	60 7f       	andi	r22, 0xF0	; 240
     274:	76 27       	eor	r23, r22
     276:	9f 7d       	andi	r25, 0xDF	; 223
     278:	69 2b       	or	r22, r25
     27a:	60 83       	st	Z, r22
     27c:	90 81       	ld	r25, Z
     27e:	82 fb       	bst	r24, 2
     280:	44 27       	eor	r20, r20
     282:	40 f9       	bld	r20, 0
     284:	50 e0       	ldi	r21, 0x00	; 0
     286:	42 95       	swap	r20
     288:	52 95       	swap	r21
     28a:	50 7f       	andi	r21, 0xF0	; 240
     28c:	54 27       	eor	r21, r20
     28e:	40 7f       	andi	r20, 0xF0	; 240
     290:	54 27       	eor	r21, r20
     292:	9f 7e       	andi	r25, 0xEF	; 239
     294:	49 2b       	or	r20, r25
     296:	40 83       	st	Z, r20
     298:	e4 e4       	ldi	r30, 0x44	; 68
     29a:	f6 e0       	ldi	r31, 0x06	; 6
     29c:	90 81       	ld	r25, Z
     29e:	83 fb       	bst	r24, 3
     2a0:	22 27       	eor	r18, r18
     2a2:	20 f9       	bld	r18, 0
     2a4:	30 e0       	ldi	r19, 0x00	; 0
     2a6:	22 0f       	add	r18, r18
     2a8:	33 1f       	adc	r19, r19
     2aa:	22 95       	swap	r18
     2ac:	32 95       	swap	r19
     2ae:	30 7f       	andi	r19, 0xF0	; 240
     2b0:	32 27       	eor	r19, r18
     2b2:	20 7f       	andi	r18, 0xF0	; 240
     2b4:	32 27       	eor	r19, r18
     2b6:	89 2f       	mov	r24, r25
     2b8:	8f 7d       	andi	r24, 0xDF	; 223
     2ba:	28 2b       	or	r18, r24
     2bc:	20 83       	st	Z, r18
     2be:	08 95       	ret

000002c0 <LCDDirOut>:
     2c0:	e0 e2       	ldi	r30, 0x20	; 32
     2c2:	f6 e0       	ldi	r31, 0x06	; 6
     2c4:	80 81       	ld	r24, Z
     2c6:	84 60       	ori	r24, 0x04	; 4
     2c8:	80 83       	st	Z, r24
     2ca:	80 81       	ld	r24, Z
     2cc:	80 62       	ori	r24, 0x20	; 32
     2ce:	80 83       	st	Z, r24
     2d0:	80 81       	ld	r24, Z
     2d2:	80 61       	ori	r24, 0x10	; 16
     2d4:	80 83       	st	Z, r24
     2d6:	e0 e4       	ldi	r30, 0x40	; 64
     2d8:	f6 e0       	ldi	r31, 0x06	; 6
     2da:	80 81       	ld	r24, Z
     2dc:	80 62       	ori	r24, 0x20	; 32
     2de:	80 83       	st	Z, r24
     2e0:	08 95       	ret

000002e2 <LCDDirIn>:
     2e2:	e0 e2       	ldi	r30, 0x20	; 32
     2e4:	f6 e0       	ldi	r31, 0x06	; 6
     2e6:	80 81       	ld	r24, Z
     2e8:	8b 7f       	andi	r24, 0xFB	; 251
     2ea:	80 83       	st	Z, r24
     2ec:	80 81       	ld	r24, Z
     2ee:	8f 7d       	andi	r24, 0xDF	; 223
     2f0:	80 83       	st	Z, r24
     2f2:	80 81       	ld	r24, Z
     2f4:	8f 7e       	andi	r24, 0xEF	; 239
     2f6:	80 83       	st	Z, r24
     2f8:	e0 e4       	ldi	r30, 0x40	; 64
     2fa:	f6 e0       	ldi	r31, 0x06	; 6
     2fc:	80 81       	ld	r24, Z
     2fe:	8f 7d       	andi	r24, 0xDF	; 223
     300:	80 83       	st	Z, r24
     302:	08 95       	ret

00000304 <LCDSendData>:
     304:	cf 93       	push	r28
     306:	c8 2f       	mov	r28, r24
     308:	8f e1       	ldi	r24, 0x1F	; 31
     30a:	93 e0       	ldi	r25, 0x03	; 3
     30c:	01 97       	sbiw	r24, 0x01	; 1
     30e:	f1 f7       	brne	.-4      	; 0x30c <LCDSendData+0x8>
     310:	00 c0       	rjmp	.+0      	; 0x312 <LCDSendData+0xe>
     312:	00 00       	nop
     314:	8c 2f       	mov	r24, r28
     316:	82 95       	swap	r24
     318:	8f 70       	andi	r24, 0x0F	; 15
     31a:	93 df       	rcall	.-218    	; 0x242 <LCDDataLines>
     31c:	e4 e2       	ldi	r30, 0x24	; 36
     31e:	f6 e0       	ldi	r31, 0x06	; 6
     320:	80 81       	ld	r24, Z
     322:	82 60       	ori	r24, 0x02	; 2
     324:	80 83       	st	Z, r24
     326:	80 81       	ld	r24, Z
     328:	88 60       	ori	r24, 0x08	; 8
     32a:	80 83       	st	Z, r24
     32c:	95 ed       	ldi	r25, 0xD5	; 213
     32e:	9a 95       	dec	r25
     330:	f1 f7       	brne	.-4      	; 0x32e <LCDSendData+0x2a>
     332:	00 00       	nop
     334:	80 81       	ld	r24, Z
     336:	87 7f       	andi	r24, 0xF7	; 247
     338:	80 83       	st	Z, r24
     33a:	85 ed       	ldi	r24, 0xD5	; 213
     33c:	8a 95       	dec	r24
     33e:	f1 f7       	brne	.-4      	; 0x33c <LCDSendData+0x38>
     340:	00 00       	nop
     342:	8c 2f       	mov	r24, r28
     344:	7e df       	rcall	.-260    	; 0x242 <LCDDataLines>
     346:	e4 e2       	ldi	r30, 0x24	; 36
     348:	f6 e0       	ldi	r31, 0x06	; 6
     34a:	80 81       	ld	r24, Z
     34c:	88 60       	ori	r24, 0x08	; 8
     34e:	80 83       	st	Z, r24
     350:	95 ed       	ldi	r25, 0xD5	; 213
     352:	9a 95       	dec	r25
     354:	f1 f7       	brne	.-4      	; 0x352 <LCDSendData+0x4e>
     356:	00 00       	nop
     358:	80 81       	ld	r24, Z
     35a:	87 7f       	andi	r24, 0xF7	; 247
     35c:	80 83       	st	Z, r24
     35e:	cf 91       	pop	r28
     360:	08 95       	ret

00000362 <LCDSendCommand>:
     362:	cf 93       	push	r28
     364:	c8 2f       	mov	r28, r24
     366:	8f ef       	ldi	r24, 0xFF	; 255
     368:	8c 0f       	add	r24, r28
     36a:	82 30       	cpi	r24, 0x02	; 2
     36c:	38 f4       	brcc	.+14     	; 0x37c <LCDSendCommand+0x1a>
     36e:	8f e3       	ldi	r24, 0x3F	; 63
     370:	9c e9       	ldi	r25, 0x9C	; 156
     372:	01 97       	sbiw	r24, 0x01	; 1
     374:	f1 f7       	brne	.-4      	; 0x372 <LCDSendCommand+0x10>
     376:	00 c0       	rjmp	.+0      	; 0x378 <LCDSendCommand+0x16>
     378:	00 00       	nop
     37a:	06 c0       	rjmp	.+12     	; 0x388 <LCDSendCommand+0x26>
     37c:	8f e3       	ldi	r24, 0x3F	; 63
     37e:	9f e1       	ldi	r25, 0x1F	; 31
     380:	01 97       	sbiw	r24, 0x01	; 1
     382:	f1 f7       	brne	.-4      	; 0x380 <LCDSendCommand+0x1e>
     384:	00 c0       	rjmp	.+0      	; 0x386 <LCDSendCommand+0x24>
     386:	00 00       	nop
     388:	8c 2f       	mov	r24, r28
     38a:	82 95       	swap	r24
     38c:	8f 70       	andi	r24, 0x0F	; 15
     38e:	59 df       	rcall	.-334    	; 0x242 <LCDDataLines>
     390:	e4 e2       	ldi	r30, 0x24	; 36
     392:	f6 e0       	ldi	r31, 0x06	; 6
     394:	80 81       	ld	r24, Z
     396:	8d 7f       	andi	r24, 0xFD	; 253
     398:	80 83       	st	Z, r24
     39a:	80 81       	ld	r24, Z
     39c:	88 60       	ori	r24, 0x08	; 8
     39e:	80 83       	st	Z, r24
     3a0:	95 ed       	ldi	r25, 0xD5	; 213
     3a2:	9a 95       	dec	r25
     3a4:	f1 f7       	brne	.-4      	; 0x3a2 <LCDSendCommand+0x40>
     3a6:	00 00       	nop
     3a8:	80 81       	ld	r24, Z
     3aa:	87 7f       	andi	r24, 0xF7	; 247
     3ac:	80 83       	st	Z, r24
     3ae:	85 ed       	ldi	r24, 0xD5	; 213
     3b0:	8a 95       	dec	r24
     3b2:	f1 f7       	brne	.-4      	; 0x3b0 <LCDSendCommand+0x4e>
     3b4:	00 00       	nop
     3b6:	8c 2f       	mov	r24, r28
     3b8:	44 df       	rcall	.-376    	; 0x242 <LCDDataLines>
     3ba:	e4 e2       	ldi	r30, 0x24	; 36
     3bc:	f6 e0       	ldi	r31, 0x06	; 6
     3be:	80 81       	ld	r24, Z
     3c0:	88 60       	ori	r24, 0x08	; 8
     3c2:	80 83       	st	Z, r24
     3c4:	95 ed       	ldi	r25, 0xD5	; 213
     3c6:	9a 95       	dec	r25
     3c8:	f1 f7       	brne	.-4      	; 0x3c6 <LCDSendCommand+0x64>
     3ca:	00 00       	nop
     3cc:	80 81       	ld	r24, Z
     3ce:	87 7f       	andi	r24, 0xF7	; 247
     3d0:	80 83       	st	Z, r24
     3d2:	cf 91       	pop	r28
     3d4:	08 95       	ret

000003d6 <LCDInit>:
     3d6:	e4 e2       	ldi	r30, 0x24	; 36
     3d8:	f6 e0       	ldi	r31, 0x06	; 6
     3da:	80 81       	ld	r24, Z
     3dc:	87 7f       	andi	r24, 0xF7	; 247
     3de:	80 83       	st	Z, r24
     3e0:	80 df       	rcall	.-256    	; 0x2e2 <LCDDirIn>
     3e2:	2f ef       	ldi	r18, 0xFF	; 255
     3e4:	87 ee       	ldi	r24, 0xE7	; 231
     3e6:	93 e0       	ldi	r25, 0x03	; 3
     3e8:	21 50       	subi	r18, 0x01	; 1
     3ea:	80 40       	sbci	r24, 0x00	; 0
     3ec:	90 40       	sbci	r25, 0x00	; 0
     3ee:	e1 f7       	brne	.-8      	; 0x3e8 <LCDInit+0x12>
     3f0:	00 c0       	rjmp	.+0      	; 0x3f2 <LCDInit+0x1c>
     3f2:	00 00       	nop
     3f4:	65 df       	rcall	.-310    	; 0x2c0 <LCDDirOut>
     3f6:	83 e0       	ldi	r24, 0x03	; 3
     3f8:	24 df       	rcall	.-440    	; 0x242 <LCDDataLines>
     3fa:	e0 e2       	ldi	r30, 0x20	; 32
     3fc:	f6 e0       	ldi	r31, 0x06	; 6
     3fe:	80 81       	ld	r24, Z
     400:	82 60       	ori	r24, 0x02	; 2
     402:	80 83       	st	Z, r24
     404:	80 81       	ld	r24, Z
     406:	81 60       	ori	r24, 0x01	; 1
     408:	80 83       	st	Z, r24
     40a:	a4 e2       	ldi	r26, 0x24	; 36
     40c:	b6 e0       	ldi	r27, 0x06	; 6
     40e:	8c 91       	ld	r24, X
     410:	8d 7f       	andi	r24, 0xFD	; 253
     412:	8c 93       	st	X, r24
     414:	8c 91       	ld	r24, X
     416:	8e 7f       	andi	r24, 0xFE	; 254
     418:	8c 93       	st	X, r24
     41a:	80 81       	ld	r24, Z
     41c:	88 60       	ori	r24, 0x08	; 8
     41e:	80 83       	st	Z, r24
     420:	25 ed       	ldi	r18, 0xD5	; 213
     422:	2a 95       	dec	r18
     424:	f1 f7       	brne	.-4      	; 0x422 <LCDInit+0x4c>
     426:	00 00       	nop
     428:	e4 e2       	ldi	r30, 0x24	; 36
     42a:	f6 e0       	ldi	r31, 0x06	; 6
     42c:	80 81       	ld	r24, Z
     42e:	88 60       	ori	r24, 0x08	; 8
     430:	80 83       	st	Z, r24
     432:	85 ed       	ldi	r24, 0xD5	; 213
     434:	8a 95       	dec	r24
     436:	f1 f7       	brne	.-4      	; 0x434 <LCDInit+0x5e>
     438:	00 00       	nop
     43a:	80 81       	ld	r24, Z
     43c:	87 7f       	andi	r24, 0xF7	; 247
     43e:	80 83       	st	Z, r24
     440:	9f ef       	ldi	r25, 0xFF	; 255
     442:	23 ef       	ldi	r18, 0xF3	; 243
     444:	81 e0       	ldi	r24, 0x01	; 1
     446:	91 50       	subi	r25, 0x01	; 1
     448:	20 40       	sbci	r18, 0x00	; 0
     44a:	80 40       	sbci	r24, 0x00	; 0
     44c:	e1 f7       	brne	.-8      	; 0x446 <LCDInit+0x70>
     44e:	00 c0       	rjmp	.+0      	; 0x450 <LCDInit+0x7a>
     450:	00 00       	nop
     452:	80 81       	ld	r24, Z
     454:	88 60       	ori	r24, 0x08	; 8
     456:	80 83       	st	Z, r24
     458:	95 ed       	ldi	r25, 0xD5	; 213
     45a:	9a 95       	dec	r25
     45c:	f1 f7       	brne	.-4      	; 0x45a <LCDInit+0x84>
     45e:	00 00       	nop
     460:	80 81       	ld	r24, Z
     462:	87 7f       	andi	r24, 0xF7	; 247
     464:	80 83       	st	Z, r24
     466:	8f e1       	ldi	r24, 0x1F	; 31
     468:	93 e0       	ldi	r25, 0x03	; 3
     46a:	01 97       	sbiw	r24, 0x01	; 1
     46c:	f1 f7       	brne	.-4      	; 0x46a <LCDInit+0x94>
     46e:	00 c0       	rjmp	.+0      	; 0x470 <LCDInit+0x9a>
     470:	00 00       	nop
     472:	80 81       	ld	r24, Z
     474:	88 60       	ori	r24, 0x08	; 8
     476:	80 83       	st	Z, r24
     478:	95 ed       	ldi	r25, 0xD5	; 213
     47a:	9a 95       	dec	r25
     47c:	f1 f7       	brne	.-4      	; 0x47a <LCDInit+0xa4>
     47e:	00 00       	nop
     480:	80 81       	ld	r24, Z
     482:	87 7f       	andi	r24, 0xF7	; 247
     484:	80 83       	st	Z, r24
     486:	8f e1       	ldi	r24, 0x1F	; 31
     488:	93 e0       	ldi	r25, 0x03	; 3
     48a:	01 97       	sbiw	r24, 0x01	; 1
     48c:	f1 f7       	brne	.-4      	; 0x48a <LCDInit+0xb4>
     48e:	00 c0       	rjmp	.+0      	; 0x490 <LCDInit+0xba>
     490:	00 00       	nop
     492:	82 e0       	ldi	r24, 0x02	; 2
     494:	d6 de       	rcall	.-596    	; 0x242 <LCDDataLines>
     496:	95 ed       	ldi	r25, 0xD5	; 213
     498:	9a 95       	dec	r25
     49a:	f1 f7       	brne	.-4      	; 0x498 <LCDInit+0xc2>
     49c:	00 00       	nop
     49e:	e4 e2       	ldi	r30, 0x24	; 36
     4a0:	f6 e0       	ldi	r31, 0x06	; 6
     4a2:	80 81       	ld	r24, Z
     4a4:	88 60       	ori	r24, 0x08	; 8
     4a6:	80 83       	st	Z, r24
     4a8:	25 ed       	ldi	r18, 0xD5	; 213
     4aa:	2a 95       	dec	r18
     4ac:	f1 f7       	brne	.-4      	; 0x4aa <LCDInit+0xd4>
     4ae:	00 00       	nop
     4b0:	80 81       	ld	r24, Z
     4b2:	87 7f       	andi	r24, 0xF7	; 247
     4b4:	80 83       	st	Z, r24
     4b6:	8f e1       	ldi	r24, 0x1F	; 31
     4b8:	93 e0       	ldi	r25, 0x03	; 3
     4ba:	01 97       	sbiw	r24, 0x01	; 1
     4bc:	f1 f7       	brne	.-4      	; 0x4ba <LCDInit+0xe4>
     4be:	00 c0       	rjmp	.+0      	; 0x4c0 <LCDInit+0xea>
     4c0:	00 00       	nop
     4c2:	88 e2       	ldi	r24, 0x28	; 40
     4c4:	4e df       	rcall	.-356    	; 0x362 <LCDSendCommand>
     4c6:	88 e0       	ldi	r24, 0x08	; 8
     4c8:	4c df       	rcall	.-360    	; 0x362 <LCDSendCommand>
     4ca:	81 e0       	ldi	r24, 0x01	; 1
     4cc:	4a df       	rcall	.-364    	; 0x362 <LCDSendCommand>
     4ce:	86 e0       	ldi	r24, 0x06	; 6
     4d0:	48 df       	rcall	.-368    	; 0x362 <LCDSendCommand>
     4d2:	8c e0       	ldi	r24, 0x0C	; 12
     4d4:	46 cf       	rjmp	.-372    	; 0x362 <LCDSendCommand>
     4d6:	08 95       	ret

000004d8 <LCDStringRam>:
     4d8:	cf 93       	push	r28
     4da:	df 93       	push	r29
     4dc:	ec 01       	movw	r28, r24
     4de:	21 96       	adiw	r28, 0x01	; 1
     4e0:	fc 01       	movw	r30, r24
     4e2:	80 81       	ld	r24, Z
     4e4:	88 23       	and	r24, r24
     4e6:	21 f0       	breq	.+8      	; 0x4f0 <LCDStringRam+0x18>
     4e8:	0d df       	rcall	.-486    	; 0x304 <LCDSendData>
     4ea:	89 91       	ld	r24, Y+
     4ec:	81 11       	cpse	r24, r1
     4ee:	fc cf       	rjmp	.-8      	; 0x4e8 <LCDStringRam+0x10>
     4f0:	df 91       	pop	r29
     4f2:	cf 91       	pop	r28
     4f4:	08 95       	ret

000004f6 <LCDGotoXY>:
     4f6:	62 30       	cpi	r22, 0x02	; 2
     4f8:	31 f0       	breq	.+12     	; 0x506 <LCDGotoXY+0x10>
     4fa:	63 30       	cpi	r22, 0x03	; 3
     4fc:	31 f0       	breq	.+12     	; 0x50a <LCDGotoXY+0x14>
     4fe:	61 30       	cpi	r22, 0x01	; 1
     500:	29 f4       	brne	.+10     	; 0x50c <LCDGotoXY+0x16>
     502:	80 5c       	subi	r24, 0xC0	; 192
     504:	03 c0       	rjmp	.+6      	; 0x50c <LCDGotoXY+0x16>
     506:	8c 5e       	subi	r24, 0xEC	; 236
     508:	01 c0       	rjmp	.+2      	; 0x50c <LCDGotoXY+0x16>
     50a:	8c 5a       	subi	r24, 0xAC	; 172
     50c:	80 68       	ori	r24, 0x80	; 128
     50e:	29 cf       	rjmp	.-430    	; 0x362 <LCDSendCommand>
     510:	08 95       	ret

00000512 <menu_check_sw>:
     512:	88 23       	and	r24, r24
     514:	39 f0       	breq	.+14     	; 0x524 <menu_check_sw+0x12>
     516:	fb 01       	movw	r30, r22
     518:	80 81       	ld	r24, Z
     51a:	81 11       	cpse	r24, r1
     51c:	07 c0       	rjmp	.+14     	; 0x52c <menu_check_sw+0x1a>
     51e:	81 e0       	ldi	r24, 0x01	; 1
     520:	80 83       	st	Z, r24
     522:	08 95       	ret
     524:	fb 01       	movw	r30, r22
     526:	10 82       	st	Z, r1
     528:	80 e0       	ldi	r24, 0x00	; 0
     52a:	08 95       	ret
     52c:	80 e0       	ldi	r24, 0x00	; 0
     52e:	08 95       	ret

00000530 <Menu_Display>:
     530:	e0 e2       	ldi	r30, 0x20	; 32
     532:	f7 e0       	ldi	r31, 0x07	; 7
     534:	94 81       	ldd	r25, Z+4	; 0x04
     536:	80 91 c5 20 	lds	r24, 0x20C5
     53a:	a0 91 00 20 	lds	r26, 0x2000
     53e:	b0 e0       	ldi	r27, 0x00	; 0
     540:	aa 0f       	add	r26, r26
     542:	bb 1f       	adc	r27, r27
     544:	a8 5f       	subi	r26, 0xF8	; 248
     546:	bf 4d       	sbci	r27, 0xDF	; 223
     548:	90 78       	andi	r25, 0x80	; 128
     54a:	2c 91       	ld	r18, X
     54c:	92 2b       	or	r25, r18
     54e:	98 23       	and	r25, r24
     550:	94 83       	std	Z+4, r25	; 0x04
     552:	e0 e0       	ldi	r30, 0x00	; 0
     554:	f7 e0       	ldi	r31, 0x07	; 7
     556:	94 81       	ldd	r25, Z+4	; 0x04
     558:	a0 91 01 20 	lds	r26, 0x2001
     55c:	b0 e0       	ldi	r27, 0x00	; 0
     55e:	aa 0f       	add	r26, r26
     560:	bb 1f       	adc	r27, r27
     562:	a8 5f       	subi	r26, 0xF8	; 248
     564:	bf 4d       	sbci	r27, 0xDF	; 223
     566:	90 78       	andi	r25, 0x80	; 128
     568:	2c 91       	ld	r18, X
     56a:	92 2b       	or	r25, r18
     56c:	89 23       	and	r24, r25
     56e:	84 83       	std	Z+4, r24	; 0x04
     570:	08 95       	ret

00000572 <menu_table>:
     572:	80 91 01 20 	lds	r24, 0x2001
     576:	8e 30       	cpi	r24, 0x0E	; 14
     578:	31 f4       	brne	.+12     	; 0x586 <menu_table+0x14>
     57a:	80 91 00 20 	lds	r24, 0x2000
     57e:	8f 30       	cpi	r24, 0x0F	; 15
     580:	11 f4       	brne	.+4      	; 0x586 <menu_table+0x14>
     582:	0c 94 89 0f 	jmp	0x1f12	; 0x1f12 <wdt_reset_mcu>
     586:	08 95       	ret

00000588 <Menu_Reset>:
     588:	ef 92       	push	r14
     58a:	ff 92       	push	r15
     58c:	0f 93       	push	r16
     58e:	1f 93       	push	r17
     590:	cf 93       	push	r28
     592:	df 93       	push	r29
     594:	f1 2c       	mov	r15, r1
     596:	01 e0       	ldi	r16, 0x01	; 1
     598:	10 e2       	ldi	r17, 0x20	; 32
     59a:	c0 e0       	ldi	r28, 0x00	; 0
     59c:	d0 e2       	ldi	r29, 0x20	; 32
     59e:	0f 2e       	mov	r0, r31
     5a0:	f1 e1       	ldi	r31, 0x11	; 17
     5a2:	ef 2e       	mov	r14, r31
     5a4:	f0 2d       	mov	r31, r0
     5a6:	f8 01       	movw	r30, r16
     5a8:	f0 82       	st	Z, r15
     5aa:	e8 82       	st	Y, r14
     5ac:	e2 df       	rcall	.-60     	; 0x572 <menu_table>
     5ae:	f3 94       	inc	r15
     5b0:	f0 e1       	ldi	r31, 0x10	; 16
     5b2:	ff 12       	cpse	r15, r31
     5b4:	f8 cf       	rjmp	.-16     	; 0x5a6 <Menu_Reset+0x1e>
     5b6:	80 e1       	ldi	r24, 0x10	; 16
     5b8:	80 93 00 20 	sts	0x2000, r24
     5bc:	80 93 01 20 	sts	0x2001, r24
     5c0:	10 92 02 20 	sts	0x2002, r1
     5c4:	df 91       	pop	r29
     5c6:	cf 91       	pop	r28
     5c8:	1f 91       	pop	r17
     5ca:	0f 91       	pop	r16
     5cc:	ff 90       	pop	r15
     5ce:	ef 90       	pop	r14
     5d0:	08 95       	ret

000005d2 <menu_check_status>:
     5d2:	8f 92       	push	r8
     5d4:	9f 92       	push	r9
     5d6:	af 92       	push	r10
     5d8:	bf 92       	push	r11
     5da:	cf 92       	push	r12
     5dc:	df 92       	push	r13
     5de:	ef 92       	push	r14
     5e0:	ff 92       	push	r15
     5e2:	0f 93       	push	r16
     5e4:	1f 93       	push	r17
     5e6:	cf 93       	push	r28
     5e8:	df 93       	push	r29
     5ea:	80 91 02 20 	lds	r24, 0x2002
     5ee:	81 30       	cpi	r24, 0x01	; 1
     5f0:	09 f4       	brne	.+2      	; 0x5f4 <menu_check_status+0x22>
     5f2:	67 c0       	rjmp	.+206    	; 0x6c2 <menu_check_status+0xf0>
     5f4:	20 f0       	brcs	.+8      	; 0x5fe <menu_check_status+0x2c>
     5f6:	82 30       	cpi	r24, 0x02	; 2
     5f8:	09 f4       	brne	.+2      	; 0x5fc <menu_check_status+0x2a>
     5fa:	c7 c0       	rjmp	.+398    	; 0x78a <menu_check_status+0x1b8>
     5fc:	e4 c0       	rjmp	.+456    	; 0x7c6 <menu_check_status+0x1f4>
     5fe:	c0 e0       	ldi	r28, 0x00	; 0
     600:	d7 e0       	ldi	r29, 0x07	; 7
     602:	1c 81       	ldd	r17, Y+4	; 0x04
     604:	60 91 b9 20 	lds	r22, 0x20B9
     608:	70 91 ba 20 	lds	r23, 0x20BA
     60c:	80 91 bb 20 	lds	r24, 0x20BB
     610:	90 91 bc 20 	lds	r25, 0x20BC
     614:	24 e6       	ldi	r18, 0x64	; 100
     616:	30 e0       	ldi	r19, 0x00	; 0
     618:	40 e0       	ldi	r20, 0x00	; 0
     61a:	50 e0       	ldi	r21, 0x00	; 0
     61c:	0e 94 2c 24 	call	0x4858	; 0x4858 <__udivmodsi4>
     620:	20 fb       	bst	r18, 0
     622:	17 f9       	bld	r17, 7
     624:	1c 83       	std	Y+4, r17	; 0x04
     626:	80 e8       	ldi	r24, 0x80	; 128
     628:	e0 e2       	ldi	r30, 0x20	; 32
     62a:	f7 e0       	ldi	r31, 0x07	; 7
     62c:	86 83       	std	Z+6, r24	; 0x06
     62e:	e0 ee       	ldi	r30, 0xE0	; 224
     630:	f6 e0       	ldi	r31, 0x06	; 6
     632:	90 85       	ldd	r25, Z+8	; 0x08
     634:	20 85       	ldd	r18, Z+8	; 0x08
     636:	80 85       	ldd	r24, Z+8	; 0x08
     638:	30 85       	ldd	r19, Z+8	; 0x08
     63a:	30 fb       	bst	r19, 0
     63c:	88 24       	eor	r8, r8
     63e:	80 f8       	bld	r8, 0
     640:	91 2c       	mov	r9, r1
     642:	88 0c       	add	r8, r8
     644:	99 1c       	adc	r9, r9
     646:	22 fb       	bst	r18, 2
     648:	22 27       	eor	r18, r18
     64a:	20 f9       	bld	r18, 0
     64c:	82 2a       	or	r8, r18
     64e:	93 fb       	bst	r25, 3
     650:	aa 24       	eor	r10, r10
     652:	a0 f8       	bld	r10, 0
     654:	b1 2c       	mov	r11, r1
     656:	aa 0c       	add	r10, r10
     658:	bb 1c       	adc	r11, r11
     65a:	aa 0c       	add	r10, r10
     65c:	bb 1c       	adc	r11, r11
     65e:	a8 28       	or	r10, r8
     660:	81 fb       	bst	r24, 1
     662:	cc 24       	eor	r12, r12
     664:	c0 f8       	bld	r12, 0
     666:	d1 2c       	mov	r13, r1
     668:	cc 0c       	add	r12, r12
     66a:	dd 1c       	adc	r13, r13
     66c:	cc 0c       	add	r12, r12
     66e:	dd 1c       	adc	r13, r13
     670:	cc 0c       	add	r12, r12
     672:	dd 1c       	adc	r13, r13
     674:	ca 28       	or	r12, r10
     676:	c0 92 01 20 	sts	0x2001, r12
     67a:	80 e1       	ldi	r24, 0x10	; 16
     67c:	80 93 00 20 	sts	0x2000, r24
     680:	57 df       	rcall	.-338    	; 0x530 <Menu_Display>
     682:	80 91 e8 06 	lds	r24, 0x06E8
     686:	63 e6       	ldi	r22, 0x63	; 99
     688:	70 e2       	ldi	r23, 0x20	; 32
     68a:	88 1f       	adc	r24, r24
     68c:	88 27       	eor	r24, r24
     68e:	88 1f       	adc	r24, r24
     690:	40 df       	rcall	.-384    	; 0x512 <menu_check_sw>
     692:	88 23       	and	r24, r24
     694:	29 f0       	breq	.+10     	; 0x6a0 <menu_check_status+0xce>
     696:	e2 e0       	ldi	r30, 0x02	; 2
     698:	f0 e2       	ldi	r31, 0x20	; 32
     69a:	80 81       	ld	r24, Z
     69c:	8f 5f       	subi	r24, 0xFF	; 255
     69e:	80 83       	st	Z, r24
     6a0:	80 91 a8 06 	lds	r24, 0x06A8
     6a4:	62 e6       	ldi	r22, 0x62	; 98
     6a6:	70 e2       	ldi	r23, 0x20	; 32
     6a8:	82 95       	swap	r24
     6aa:	81 70       	andi	r24, 0x01	; 1
     6ac:	32 df       	rcall	.-412    	; 0x512 <menu_check_sw>
     6ae:	88 23       	and	r24, r24
     6b0:	09 f4       	brne	.+2      	; 0x6b4 <menu_check_status+0xe2>
     6b2:	89 c0       	rjmp	.+274    	; 0x7c6 <menu_check_status+0x1f4>
     6b4:	84 e6       	ldi	r24, 0x64	; 100
     6b6:	90 e0       	ldi	r25, 0x00	; 0
     6b8:	80 93 60 20 	sts	0x2060, r24
     6bc:	90 93 61 20 	sts	0x2061, r25
     6c0:	82 c0       	rjmp	.+260    	; 0x7c6 <menu_check_status+0x1f4>
     6c2:	0f 2e       	mov	r0, r31
     6c4:	f0 e2       	ldi	r31, 0x20	; 32
     6c6:	cf 2e       	mov	r12, r31
     6c8:	f7 e0       	ldi	r31, 0x07	; 7
     6ca:	df 2e       	mov	r13, r31
     6cc:	f0 2d       	mov	r31, r0
     6ce:	f6 01       	movw	r30, r12
     6d0:	b4 80       	ldd	r11, Z+4	; 0x04
     6d2:	60 91 b9 20 	lds	r22, 0x20B9
     6d6:	70 91 ba 20 	lds	r23, 0x20BA
     6da:	80 91 bb 20 	lds	r24, 0x20BB
     6de:	90 91 bc 20 	lds	r25, 0x20BC
     6e2:	24 e6       	ldi	r18, 0x64	; 100
     6e4:	30 e0       	ldi	r19, 0x00	; 0
     6e6:	40 e0       	ldi	r20, 0x00	; 0
     6e8:	50 e0       	ldi	r21, 0x00	; 0
     6ea:	0e 94 2c 24 	call	0x4858	; 0x4858 <__udivmodsi4>
     6ee:	20 fb       	bst	r18, 0
     6f0:	b7 f8       	bld	r11, 7
     6f2:	f6 01       	movw	r30, r12
     6f4:	b4 82       	std	Z+4, r11	; 0x04
     6f6:	80 e8       	ldi	r24, 0x80	; 128
     6f8:	e0 e0       	ldi	r30, 0x00	; 0
     6fa:	f7 e0       	ldi	r31, 0x07	; 7
     6fc:	85 83       	std	Z+5, r24	; 0x05
     6fe:	e0 ee       	ldi	r30, 0xE0	; 224
     700:	f6 e0       	ldi	r31, 0x06	; 6
     702:	90 85       	ldd	r25, Z+8	; 0x08
     704:	20 85       	ldd	r18, Z+8	; 0x08
     706:	80 85       	ldd	r24, Z+8	; 0x08
     708:	30 85       	ldd	r19, Z+8	; 0x08
     70a:	30 fb       	bst	r19, 0
     70c:	ee 24       	eor	r14, r14
     70e:	e0 f8       	bld	r14, 0
     710:	f1 2c       	mov	r15, r1
     712:	ee 0c       	add	r14, r14
     714:	ff 1c       	adc	r15, r15
     716:	22 fb       	bst	r18, 2
     718:	22 27       	eor	r18, r18
     71a:	20 f9       	bld	r18, 0
     71c:	e2 2a       	or	r14, r18
     71e:	93 fb       	bst	r25, 3
     720:	00 27       	eor	r16, r16
     722:	00 f9       	bld	r16, 0
     724:	10 e0       	ldi	r17, 0x00	; 0
     726:	00 0f       	add	r16, r16
     728:	11 1f       	adc	r17, r17
     72a:	00 0f       	add	r16, r16
     72c:	11 1f       	adc	r17, r17
     72e:	0e 29       	or	r16, r14
     730:	86 95       	lsr	r24
     732:	81 70       	andi	r24, 0x01	; 1
     734:	c8 2f       	mov	r28, r24
     736:	f0 e0       	ldi	r31, 0x00	; 0
     738:	df 2f       	mov	r29, r31
     73a:	cc 0f       	add	r28, r28
     73c:	dd 1f       	adc	r29, r29
     73e:	cc 0f       	add	r28, r28
     740:	dd 1f       	adc	r29, r29
     742:	cc 0f       	add	r28, r28
     744:	dd 1f       	adc	r29, r29
     746:	c0 2b       	or	r28, r16
     748:	c0 93 00 20 	sts	0x2000, r28
     74c:	f1 de       	rcall	.-542    	; 0x530 <Menu_Display>
     74e:	80 91 e8 06 	lds	r24, 0x06E8
     752:	63 e6       	ldi	r22, 0x63	; 99
     754:	70 e2       	ldi	r23, 0x20	; 32
     756:	88 1f       	adc	r24, r24
     758:	88 27       	eor	r24, r24
     75a:	88 1f       	adc	r24, r24
     75c:	da de       	rcall	.-588    	; 0x512 <menu_check_sw>
     75e:	88 23       	and	r24, r24
     760:	29 f0       	breq	.+10     	; 0x76c <menu_check_status+0x19a>
     762:	e2 e0       	ldi	r30, 0x02	; 2
     764:	f0 e2       	ldi	r31, 0x20	; 32
     766:	80 81       	ld	r24, Z
     768:	8f 5f       	subi	r24, 0xFF	; 255
     76a:	80 83       	st	Z, r24
     76c:	80 91 a8 06 	lds	r24, 0x06A8
     770:	62 e6       	ldi	r22, 0x62	; 98
     772:	70 e2       	ldi	r23, 0x20	; 32
     774:	82 95       	swap	r24
     776:	81 70       	andi	r24, 0x01	; 1
     778:	cc de       	rcall	.-616    	; 0x512 <menu_check_sw>
     77a:	88 23       	and	r24, r24
     77c:	21 f1       	breq	.+72     	; 0x7c6 <menu_check_status+0x1f4>
     77e:	e2 e0       	ldi	r30, 0x02	; 2
     780:	f0 e2       	ldi	r31, 0x20	; 32
     782:	80 81       	ld	r24, Z
     784:	81 50       	subi	r24, 0x01	; 1
     786:	80 83       	st	Z, r24
     788:	1e c0       	rjmp	.+60     	; 0x7c6 <menu_check_status+0x1f4>
     78a:	80 e8       	ldi	r24, 0x80	; 128
     78c:	e0 e2       	ldi	r30, 0x20	; 32
     78e:	f7 e0       	ldi	r31, 0x07	; 7
     790:	85 83       	std	Z+5, r24	; 0x05
     792:	e0 e0       	ldi	r30, 0x00	; 0
     794:	f7 e0       	ldi	r31, 0x07	; 7
     796:	85 83       	std	Z+5, r24	; 0x05
     798:	ec de       	rcall	.-552    	; 0x572 <menu_table>
     79a:	80 91 a8 06 	lds	r24, 0x06A8
     79e:	62 e6       	ldi	r22, 0x62	; 98
     7a0:	70 e2       	ldi	r23, 0x20	; 32
     7a2:	82 95       	swap	r24
     7a4:	81 70       	andi	r24, 0x01	; 1
     7a6:	b5 de       	rcall	.-662    	; 0x512 <menu_check_sw>
     7a8:	88 23       	and	r24, r24
     7aa:	69 f0       	breq	.+26     	; 0x7c6 <menu_check_status+0x1f4>
     7ac:	e2 e0       	ldi	r30, 0x02	; 2
     7ae:	f0 e2       	ldi	r31, 0x20	; 32
     7b0:	80 81       	ld	r24, Z
     7b2:	81 50       	subi	r24, 0x01	; 1
     7b4:	80 83       	st	Z, r24
     7b6:	c0 e0       	ldi	r28, 0x00	; 0
     7b8:	d0 e2       	ldi	r29, 0x20	; 32
     7ba:	81 e1       	ldi	r24, 0x11	; 17
     7bc:	88 83       	st	Y, r24
     7be:	d9 de       	rcall	.-590    	; 0x572 <menu_table>
     7c0:	80 e1       	ldi	r24, 0x10	; 16
     7c2:	88 83       	st	Y, r24
     7c4:	b5 de       	rcall	.-662    	; 0x530 <Menu_Display>
     7c6:	df 91       	pop	r29
     7c8:	cf 91       	pop	r28
     7ca:	1f 91       	pop	r17
     7cc:	0f 91       	pop	r16
     7ce:	ff 90       	pop	r15
     7d0:	ef 90       	pop	r14
     7d2:	df 90       	pop	r13
     7d4:	cf 90       	pop	r12
     7d6:	bf 90       	pop	r11
     7d8:	af 90       	pop	r10
     7da:	9f 90       	pop	r9
     7dc:	8f 90       	pop	r8
     7de:	08 95       	ret

000007e0 <sysclk_enable_module>:
     7e0:	2f b7       	in	r18, 0x3f	; 63
     7e2:	f8 94       	cli
     7e4:	fc 01       	movw	r30, r24
     7e6:	e0 59       	subi	r30, 0x90	; 144
     7e8:	ff 4f       	sbci	r31, 0xFF	; 255
     7ea:	60 95       	com	r22
     7ec:	80 81       	ld	r24, Z
     7ee:	68 23       	and	r22, r24
     7f0:	60 83       	st	Z, r22
     7f2:	2f bf       	out	0x3f, r18	; 63
     7f4:	08 95       	ret

000007f6 <sysclk_disable_module>:
     7f6:	2f b7       	in	r18, 0x3f	; 63
     7f8:	f8 94       	cli
     7fa:	fc 01       	movw	r30, r24
     7fc:	e0 59       	subi	r30, 0x90	; 144
     7fe:	ff 4f       	sbci	r31, 0xFF	; 255
     800:	80 81       	ld	r24, Z
     802:	68 2b       	or	r22, r24
     804:	60 83       	st	Z, r22
     806:	2f bf       	out	0x3f, r18	; 63
     808:	08 95       	ret

0000080a <adc_enable_clock>:
     80a:	81 15       	cp	r24, r1
     80c:	22 e0       	ldi	r18, 0x02	; 2
     80e:	92 07       	cpc	r25, r18
     810:	69 f4       	brne	.+26     	; 0x82c <adc_enable_clock+0x22>
     812:	80 91 65 20 	lds	r24, 0x2065
     816:	91 e0       	ldi	r25, 0x01	; 1
     818:	98 0f       	add	r25, r24
     81a:	90 93 65 20 	sts	0x2065, r25
     81e:	81 11       	cpse	r24, r1
     820:	14 c0       	rjmp	.+40     	; 0x84a <adc_enable_clock+0x40>
     822:	62 e0       	ldi	r22, 0x02	; 2
     824:	81 e0       	ldi	r24, 0x01	; 1
     826:	90 e0       	ldi	r25, 0x00	; 0
     828:	db cf       	rjmp	.-74     	; 0x7e0 <sysclk_enable_module>
     82a:	08 95       	ret
     82c:	80 34       	cpi	r24, 0x40	; 64
     82e:	92 40       	sbci	r25, 0x02	; 2
     830:	61 f4       	brne	.+24     	; 0x84a <adc_enable_clock+0x40>
     832:	80 91 64 20 	lds	r24, 0x2064
     836:	91 e0       	ldi	r25, 0x01	; 1
     838:	98 0f       	add	r25, r24
     83a:	90 93 64 20 	sts	0x2064, r25
     83e:	81 11       	cpse	r24, r1
     840:	04 c0       	rjmp	.+8      	; 0x84a <adc_enable_clock+0x40>
     842:	62 e0       	ldi	r22, 0x02	; 2
     844:	82 e0       	ldi	r24, 0x02	; 2
     846:	90 e0       	ldi	r25, 0x00	; 0
     848:	cb cf       	rjmp	.-106    	; 0x7e0 <sysclk_enable_module>
     84a:	08 95       	ret

0000084c <adc_disable_clock>:
     84c:	81 15       	cp	r24, r1
     84e:	22 e0       	ldi	r18, 0x02	; 2
     850:	92 07       	cpc	r25, r18
     852:	61 f4       	brne	.+24     	; 0x86c <adc_disable_clock+0x20>
     854:	80 91 65 20 	lds	r24, 0x2065
     858:	81 50       	subi	r24, 0x01	; 1
     85a:	80 93 65 20 	sts	0x2065, r24
     85e:	81 11       	cpse	r24, r1
     860:	13 c0       	rjmp	.+38     	; 0x888 <adc_disable_clock+0x3c>
     862:	62 e0       	ldi	r22, 0x02	; 2
     864:	81 e0       	ldi	r24, 0x01	; 1
     866:	90 e0       	ldi	r25, 0x00	; 0
     868:	c6 cf       	rjmp	.-116    	; 0x7f6 <sysclk_disable_module>
     86a:	08 95       	ret
     86c:	80 34       	cpi	r24, 0x40	; 64
     86e:	92 40       	sbci	r25, 0x02	; 2
     870:	59 f4       	brne	.+22     	; 0x888 <adc_disable_clock+0x3c>
     872:	80 91 64 20 	lds	r24, 0x2064
     876:	81 50       	subi	r24, 0x01	; 1
     878:	80 93 64 20 	sts	0x2064, r24
     87c:	81 11       	cpse	r24, r1
     87e:	04 c0       	rjmp	.+8      	; 0x888 <adc_disable_clock+0x3c>
     880:	62 e0       	ldi	r22, 0x02	; 2
     882:	82 e0       	ldi	r24, 0x02	; 2
     884:	90 e0       	ldi	r25, 0x00	; 0
     886:	b7 cf       	rjmp	.-146    	; 0x7f6 <sysclk_disable_module>
     888:	08 95       	ret

0000088a <adc_enable>:
     88a:	1f 93       	push	r17
     88c:	cf 93       	push	r28
     88e:	df 93       	push	r29
     890:	ec 01       	movw	r28, r24
     892:	1f b7       	in	r17, 0x3f	; 63
     894:	f8 94       	cli
     896:	b9 df       	rcall	.-142    	; 0x80a <adc_enable_clock>
     898:	88 81       	ld	r24, Y
     89a:	81 60       	ori	r24, 0x01	; 1
     89c:	88 83       	st	Y, r24
     89e:	1f bf       	out	0x3f, r17	; 63
     8a0:	8f b7       	in	r24, 0x3f	; 63
     8a2:	f8 94       	cli
     8a4:	e7 ec       	ldi	r30, 0xC7	; 199
     8a6:	f0 e2       	ldi	r31, 0x20	; 32
     8a8:	90 81       	ld	r25, Z
     8aa:	9f 5f       	subi	r25, 0xFF	; 255
     8ac:	90 83       	st	Z, r25
     8ae:	8f bf       	out	0x3f, r24	; 63
     8b0:	df 91       	pop	r29
     8b2:	cf 91       	pop	r28
     8b4:	1f 91       	pop	r17
     8b6:	08 95       	ret

000008b8 <adc_write_configuration>:
     8b8:	df 92       	push	r13
     8ba:	ef 92       	push	r14
     8bc:	ff 92       	push	r15
     8be:	0f 93       	push	r16
     8c0:	1f 93       	push	r17
     8c2:	cf 93       	push	r28
     8c4:	df 93       	push	r29
     8c6:	ec 01       	movw	r28, r24
     8c8:	8b 01       	movw	r16, r22
     8ca:	c1 15       	cp	r28, r1
     8cc:	22 e0       	ldi	r18, 0x02	; 2
     8ce:	d2 07       	cpc	r29, r18
     8d0:	71 f4       	brne	.+28     	; 0x8ee <adc_write_configuration+0x36>
     8d2:	61 e2       	ldi	r22, 0x21	; 33
     8d4:	70 e0       	ldi	r23, 0x00	; 0
     8d6:	82 e0       	ldi	r24, 0x02	; 2
     8d8:	a7 d0       	rcall	.+334    	; 0xa28 <nvm_read_byte>
     8da:	e8 2e       	mov	r14, r24
     8dc:	f1 2c       	mov	r15, r1
     8de:	60 e2       	ldi	r22, 0x20	; 32
     8e0:	70 e0       	ldi	r23, 0x00	; 0
     8e2:	82 e0       	ldi	r24, 0x02	; 2
     8e4:	a1 d0       	rcall	.+322    	; 0xa28 <nvm_read_byte>
     8e6:	fe 2c       	mov	r15, r14
     8e8:	ee 24       	eor	r14, r14
     8ea:	e8 2a       	or	r14, r24
     8ec:	10 c0       	rjmp	.+32     	; 0x90e <adc_write_configuration+0x56>
     8ee:	80 34       	cpi	r24, 0x40	; 64
     8f0:	92 40       	sbci	r25, 0x02	; 2
     8f2:	59 f5       	brne	.+86     	; 0x94a <adc_write_configuration+0x92>
     8f4:	65 e2       	ldi	r22, 0x25	; 37
     8f6:	70 e0       	ldi	r23, 0x00	; 0
     8f8:	82 e0       	ldi	r24, 0x02	; 2
     8fa:	96 d0       	rcall	.+300    	; 0xa28 <nvm_read_byte>
     8fc:	e8 2e       	mov	r14, r24
     8fe:	f1 2c       	mov	r15, r1
     900:	64 e2       	ldi	r22, 0x24	; 36
     902:	70 e0       	ldi	r23, 0x00	; 0
     904:	82 e0       	ldi	r24, 0x02	; 2
     906:	90 d0       	rcall	.+288    	; 0xa28 <nvm_read_byte>
     908:	fe 2c       	mov	r15, r14
     90a:	ee 24       	eor	r14, r14
     90c:	e8 2a       	or	r14, r24
     90e:	df b6       	in	r13, 0x3f	; 63
     910:	f8 94       	cli
     912:	ce 01       	movw	r24, r28
     914:	7a df       	rcall	.-268    	; 0x80a <adc_enable_clock>
     916:	28 81       	ld	r18, Y
     918:	82 e0       	ldi	r24, 0x02	; 2
     91a:	88 83       	st	Y, r24
     91c:	ec 86       	std	Y+12, r14	; 0x0c
     91e:	fd 86       	std	Y+13, r15	; 0x0d
     920:	f8 01       	movw	r30, r16
     922:	85 81       	ldd	r24, Z+5	; 0x05
     924:	96 81       	ldd	r25, Z+6	; 0x06
     926:	88 8f       	std	Y+24, r24	; 0x18
     928:	99 8f       	std	Y+25, r25	; 0x19
     92a:	82 81       	ldd	r24, Z+2	; 0x02
     92c:	8a 83       	std	Y+2, r24	; 0x02
     92e:	84 81       	ldd	r24, Z+4	; 0x04
     930:	8c 83       	std	Y+4, r24	; 0x04
     932:	83 81       	ldd	r24, Z+3	; 0x03
     934:	8b 83       	std	Y+3, r24	; 0x03
     936:	81 81       	ldd	r24, Z+1	; 0x01
     938:	89 83       	std	Y+1, r24	; 0x01
     93a:	82 2f       	mov	r24, r18
     93c:	81 70       	andi	r24, 0x01	; 1
     93e:	90 81       	ld	r25, Z
     940:	89 2b       	or	r24, r25
     942:	88 83       	st	Y, r24
     944:	ce 01       	movw	r24, r28
     946:	82 df       	rcall	.-252    	; 0x84c <adc_disable_clock>
     948:	df be       	out	0x3f, r13	; 63
     94a:	df 91       	pop	r29
     94c:	cf 91       	pop	r28
     94e:	1f 91       	pop	r17
     950:	0f 91       	pop	r16
     952:	ff 90       	pop	r15
     954:	ef 90       	pop	r14
     956:	df 90       	pop	r13
     958:	08 95       	ret

0000095a <adcch_write_configuration>:
     95a:	df 92       	push	r13
     95c:	ef 92       	push	r14
     95e:	ff 92       	push	r15
     960:	0f 93       	push	r16
     962:	1f 93       	push	r17
     964:	cf 93       	push	r28
     966:	df 93       	push	r29
     968:	7c 01       	movw	r14, r24
     96a:	8a 01       	movw	r16, r20
     96c:	86 2f       	mov	r24, r22
     96e:	83 70       	andi	r24, 0x03	; 3
     970:	21 f4       	brne	.+8      	; 0x97a <adcch_write_configuration+0x20>
     972:	66 95       	lsr	r22
     974:	66 95       	lsr	r22
     976:	82 e0       	ldi	r24, 0x02	; 2
     978:	01 c0       	rjmp	.+2      	; 0x97c <adcch_write_configuration+0x22>
     97a:	80 e0       	ldi	r24, 0x00	; 0
     97c:	60 ff       	sbrs	r22, 0
     97e:	8f 5f       	subi	r24, 0xFF	; 255
     980:	e7 01       	movw	r28, r14
     982:	a0 96       	adiw	r28, 0x20	; 32
     984:	98 e0       	ldi	r25, 0x08	; 8
     986:	89 9f       	mul	r24, r25
     988:	c0 0d       	add	r28, r0
     98a:	d1 1d       	adc	r29, r1
     98c:	11 24       	eor	r1, r1
     98e:	df b6       	in	r13, 0x3f	; 63
     990:	f8 94       	cli
     992:	c7 01       	movw	r24, r14
     994:	3a df       	rcall	.-396    	; 0x80a <adc_enable_clock>
     996:	f8 01       	movw	r30, r16
     998:	80 81       	ld	r24, Z
     99a:	88 83       	st	Y, r24
     99c:	82 81       	ldd	r24, Z+2	; 0x02
     99e:	8a 83       	std	Y+2, r24	; 0x02
     9a0:	81 81       	ldd	r24, Z+1	; 0x01
     9a2:	89 83       	std	Y+1, r24	; 0x01
     9a4:	c7 01       	movw	r24, r14
     9a6:	52 df       	rcall	.-348    	; 0x84c <adc_disable_clock>
     9a8:	df be       	out	0x3f, r13	; 63
     9aa:	df 91       	pop	r29
     9ac:	cf 91       	pop	r28
     9ae:	1f 91       	pop	r17
     9b0:	0f 91       	pop	r16
     9b2:	ff 90       	pop	r15
     9b4:	ef 90       	pop	r14
     9b6:	df 90       	pop	r13
     9b8:	08 95       	ret

000009ba <adcch_read_configuration>:
     9ba:	df 92       	push	r13
     9bc:	ef 92       	push	r14
     9be:	ff 92       	push	r15
     9c0:	0f 93       	push	r16
     9c2:	1f 93       	push	r17
     9c4:	cf 93       	push	r28
     9c6:	df 93       	push	r29
     9c8:	7c 01       	movw	r14, r24
     9ca:	ea 01       	movw	r28, r20
     9cc:	86 2f       	mov	r24, r22
     9ce:	83 70       	andi	r24, 0x03	; 3
     9d0:	21 f4       	brne	.+8      	; 0x9da <adcch_read_configuration+0x20>
     9d2:	66 95       	lsr	r22
     9d4:	66 95       	lsr	r22
     9d6:	82 e0       	ldi	r24, 0x02	; 2
     9d8:	01 c0       	rjmp	.+2      	; 0x9dc <adcch_read_configuration+0x22>
     9da:	80 e0       	ldi	r24, 0x00	; 0
     9dc:	60 ff       	sbrs	r22, 0
     9de:	8f 5f       	subi	r24, 0xFF	; 255
     9e0:	87 01       	movw	r16, r14
     9e2:	00 5e       	subi	r16, 0xE0	; 224
     9e4:	1f 4f       	sbci	r17, 0xFF	; 255
     9e6:	98 e0       	ldi	r25, 0x08	; 8
     9e8:	89 9f       	mul	r24, r25
     9ea:	00 0d       	add	r16, r0
     9ec:	11 1d       	adc	r17, r1
     9ee:	11 24       	eor	r1, r1
     9f0:	df b6       	in	r13, 0x3f	; 63
     9f2:	f8 94       	cli
     9f4:	c7 01       	movw	r24, r14
     9f6:	09 df       	rcall	.-494    	; 0x80a <adc_enable_clock>
     9f8:	f8 01       	movw	r30, r16
     9fa:	80 81       	ld	r24, Z
     9fc:	88 83       	st	Y, r24
     9fe:	82 81       	ldd	r24, Z+2	; 0x02
     a00:	8a 83       	std	Y+2, r24	; 0x02
     a02:	81 81       	ldd	r24, Z+1	; 0x01
     a04:	89 83       	std	Y+1, r24	; 0x01
     a06:	c7 01       	movw	r24, r14
     a08:	21 df       	rcall	.-446    	; 0x84c <adc_disable_clock>
     a0a:	df be       	out	0x3f, r13	; 63
     a0c:	df 91       	pop	r29
     a0e:	cf 91       	pop	r28
     a10:	1f 91       	pop	r17
     a12:	0f 91       	pop	r16
     a14:	ff 90       	pop	r15
     a16:	ef 90       	pop	r14
     a18:	df 90       	pop	r13
     a1a:	08 95       	ret

00000a1c <ccp_write_io>:
     a1c:	1b be       	out	0x3b, r1	; 59
     a1e:	fc 01       	movw	r30, r24
     a20:	28 ed       	ldi	r18, 0xD8	; 216
     a22:	24 bf       	out	0x34, r18	; 52
     a24:	60 83       	st	Z, r22
     a26:	08 95       	ret

00000a28 <nvm_read_byte>:
     a28:	40 91 ca 01 	lds	r20, 0x01CA
     a2c:	e6 2f       	mov	r30, r22
     a2e:	f7 2f       	mov	r31, r23
     a30:	80 93 ca 01 	sts	0x01CA, r24
     a34:	84 91       	lpm	r24, Z
     a36:	40 93 ca 01 	sts	0x01CA, r20
     a3a:	08 95       	ret

00000a3c <spi_xmega_set_baud_div>:
     a3c:	cf 92       	push	r12
     a3e:	df 92       	push	r13
     a40:	ef 92       	push	r14
     a42:	ff 92       	push	r15
     a44:	0f 93       	push	r16
     a46:	1f 93       	push	r17
     a48:	cf 93       	push	r28
     a4a:	df 93       	push	r29
     a4c:	ec 01       	movw	r28, r24
     a4e:	6a 01       	movw	r12, r20
     a50:	7b 01       	movw	r14, r22
     a52:	db 01       	movw	r26, r22
     a54:	ca 01       	movw	r24, r20
     a56:	01 97       	sbiw	r24, 0x01	; 1
     a58:	a1 09       	sbc	r26, r1
     a5a:	b1 09       	sbc	r27, r1
     a5c:	bc 01       	movw	r22, r24
     a5e:	cd 01       	movw	r24, r26
     a60:	60 0f       	add	r22, r16
     a62:	71 1f       	adc	r23, r17
     a64:	82 1f       	adc	r24, r18
     a66:	93 1f       	adc	r25, r19
     a68:	a7 01       	movw	r20, r14
     a6a:	96 01       	movw	r18, r12
     a6c:	0e 94 2c 24 	call	0x4858	; 0x4858 <__udivmodsi4>
     a70:	21 38       	cpi	r18, 0x81	; 129
     a72:	31 05       	cpc	r19, r1
     a74:	41 05       	cpc	r20, r1
     a76:	51 05       	cpc	r21, r1
     a78:	f8 f4       	brcc	.+62     	; 0xab8 <spi_xmega_set_baud_div+0x7c>
     a7a:	21 34       	cpi	r18, 0x41	; 65
     a7c:	60 f4       	brcc	.+24     	; 0xa96 <spi_xmega_set_baud_div+0x5a>
     a7e:	21 32       	cpi	r18, 0x21	; 33
     a80:	60 f4       	brcc	.+24     	; 0xa9a <spi_xmega_set_baud_div+0x5e>
     a82:	21 31       	cpi	r18, 0x11	; 17
     a84:	60 f4       	brcc	.+24     	; 0xa9e <spi_xmega_set_baud_div+0x62>
     a86:	29 30       	cpi	r18, 0x09	; 9
     a88:	60 f4       	brcc	.+24     	; 0xaa2 <spi_xmega_set_baud_div+0x66>
     a8a:	25 30       	cpi	r18, 0x05	; 5
     a8c:	60 f4       	brcc	.+24     	; 0xaa6 <spi_xmega_set_baud_div+0x6a>
     a8e:	23 30       	cpi	r18, 0x03	; 3
     a90:	60 f0       	brcs	.+24     	; 0xaaa <spi_xmega_set_baud_div+0x6e>
     a92:	90 e0       	ldi	r25, 0x00	; 0
     a94:	0b c0       	rjmp	.+22     	; 0xaac <spi_xmega_set_baud_div+0x70>
     a96:	93 e0       	ldi	r25, 0x03	; 3
     a98:	09 c0       	rjmp	.+18     	; 0xaac <spi_xmega_set_baud_div+0x70>
     a9a:	92 e0       	ldi	r25, 0x02	; 2
     a9c:	07 c0       	rjmp	.+14     	; 0xaac <spi_xmega_set_baud_div+0x70>
     a9e:	92 e8       	ldi	r25, 0x82	; 130
     aa0:	05 c0       	rjmp	.+10     	; 0xaac <spi_xmega_set_baud_div+0x70>
     aa2:	91 e0       	ldi	r25, 0x01	; 1
     aa4:	03 c0       	rjmp	.+6      	; 0xaac <spi_xmega_set_baud_div+0x70>
     aa6:	91 e8       	ldi	r25, 0x81	; 129
     aa8:	01 c0       	rjmp	.+2      	; 0xaac <spi_xmega_set_baud_div+0x70>
     aaa:	90 e8       	ldi	r25, 0x80	; 128
     aac:	88 81       	ld	r24, Y
     aae:	8c 77       	andi	r24, 0x7C	; 124
     ab0:	89 2b       	or	r24, r25
     ab2:	88 83       	st	Y, r24
     ab4:	81 e0       	ldi	r24, 0x01	; 1
     ab6:	01 c0       	rjmp	.+2      	; 0xaba <spi_xmega_set_baud_div+0x7e>
     ab8:	8f ef       	ldi	r24, 0xFF	; 255
     aba:	df 91       	pop	r29
     abc:	cf 91       	pop	r28
     abe:	1f 91       	pop	r17
     ac0:	0f 91       	pop	r16
     ac2:	ff 90       	pop	r15
     ac4:	ef 90       	pop	r14
     ac6:	df 90       	pop	r13
     ac8:	cf 90       	pop	r12
     aca:	08 95       	ret

00000acc <__vector_14>:
     acc:	1f 92       	push	r1
     ace:	0f 92       	push	r0
     ad0:	0f b6       	in	r0, 0x3f	; 63
     ad2:	0f 92       	push	r0
     ad4:	11 24       	eor	r1, r1
     ad6:	08 b6       	in	r0, 0x38	; 56
     ad8:	0f 92       	push	r0
     ada:	18 be       	out	0x38, r1	; 56
     adc:	09 b6       	in	r0, 0x39	; 57
     ade:	0f 92       	push	r0
     ae0:	19 be       	out	0x39, r1	; 57
     ae2:	0b b6       	in	r0, 0x3b	; 59
     ae4:	0f 92       	push	r0
     ae6:	1b be       	out	0x3b, r1	; 59
     ae8:	2f 93       	push	r18
     aea:	3f 93       	push	r19
     aec:	4f 93       	push	r20
     aee:	5f 93       	push	r21
     af0:	6f 93       	push	r22
     af2:	7f 93       	push	r23
     af4:	8f 93       	push	r24
     af6:	9f 93       	push	r25
     af8:	af 93       	push	r26
     afa:	bf 93       	push	r27
     afc:	ef 93       	push	r30
     afe:	ff 93       	push	r31
     b00:	e0 91 b2 20 	lds	r30, 0x20B2
     b04:	f0 91 b3 20 	lds	r31, 0x20B3
     b08:	30 97       	sbiw	r30, 0x00	; 0
     b0a:	09 f0       	breq	.+2      	; 0xb0e <__vector_14+0x42>
     b0c:	19 95       	eicall
     b0e:	ff 91       	pop	r31
     b10:	ef 91       	pop	r30
     b12:	bf 91       	pop	r27
     b14:	af 91       	pop	r26
     b16:	9f 91       	pop	r25
     b18:	8f 91       	pop	r24
     b1a:	7f 91       	pop	r23
     b1c:	6f 91       	pop	r22
     b1e:	5f 91       	pop	r21
     b20:	4f 91       	pop	r20
     b22:	3f 91       	pop	r19
     b24:	2f 91       	pop	r18
     b26:	0f 90       	pop	r0
     b28:	0b be       	out	0x3b, r0	; 59
     b2a:	0f 90       	pop	r0
     b2c:	09 be       	out	0x39, r0	; 57
     b2e:	0f 90       	pop	r0
     b30:	08 be       	out	0x38, r0	; 56
     b32:	0f 90       	pop	r0
     b34:	0f be       	out	0x3f, r0	; 63
     b36:	0f 90       	pop	r0
     b38:	1f 90       	pop	r1
     b3a:	18 95       	reti

00000b3c <__vector_15>:
     b3c:	1f 92       	push	r1
     b3e:	0f 92       	push	r0
     b40:	0f b6       	in	r0, 0x3f	; 63
     b42:	0f 92       	push	r0
     b44:	11 24       	eor	r1, r1
     b46:	08 b6       	in	r0, 0x38	; 56
     b48:	0f 92       	push	r0
     b4a:	18 be       	out	0x38, r1	; 56
     b4c:	09 b6       	in	r0, 0x39	; 57
     b4e:	0f 92       	push	r0
     b50:	19 be       	out	0x39, r1	; 57
     b52:	0b b6       	in	r0, 0x3b	; 59
     b54:	0f 92       	push	r0
     b56:	1b be       	out	0x3b, r1	; 59
     b58:	2f 93       	push	r18
     b5a:	3f 93       	push	r19
     b5c:	4f 93       	push	r20
     b5e:	5f 93       	push	r21
     b60:	6f 93       	push	r22
     b62:	7f 93       	push	r23
     b64:	8f 93       	push	r24
     b66:	9f 93       	push	r25
     b68:	af 93       	push	r26
     b6a:	bf 93       	push	r27
     b6c:	ef 93       	push	r30
     b6e:	ff 93       	push	r31
     b70:	e0 91 b0 20 	lds	r30, 0x20B0
     b74:	f0 91 b1 20 	lds	r31, 0x20B1
     b78:	30 97       	sbiw	r30, 0x00	; 0
     b7a:	09 f0       	breq	.+2      	; 0xb7e <__vector_15+0x42>
     b7c:	19 95       	eicall
     b7e:	ff 91       	pop	r31
     b80:	ef 91       	pop	r30
     b82:	bf 91       	pop	r27
     b84:	af 91       	pop	r26
     b86:	9f 91       	pop	r25
     b88:	8f 91       	pop	r24
     b8a:	7f 91       	pop	r23
     b8c:	6f 91       	pop	r22
     b8e:	5f 91       	pop	r21
     b90:	4f 91       	pop	r20
     b92:	3f 91       	pop	r19
     b94:	2f 91       	pop	r18
     b96:	0f 90       	pop	r0
     b98:	0b be       	out	0x3b, r0	; 59
     b9a:	0f 90       	pop	r0
     b9c:	09 be       	out	0x39, r0	; 57
     b9e:	0f 90       	pop	r0
     ba0:	08 be       	out	0x38, r0	; 56
     ba2:	0f 90       	pop	r0
     ba4:	0f be       	out	0x3f, r0	; 63
     ba6:	0f 90       	pop	r0
     ba8:	1f 90       	pop	r1
     baa:	18 95       	reti

00000bac <__vector_16>:
     bac:	1f 92       	push	r1
     bae:	0f 92       	push	r0
     bb0:	0f b6       	in	r0, 0x3f	; 63
     bb2:	0f 92       	push	r0
     bb4:	11 24       	eor	r1, r1
     bb6:	08 b6       	in	r0, 0x38	; 56
     bb8:	0f 92       	push	r0
     bba:	18 be       	out	0x38, r1	; 56
     bbc:	09 b6       	in	r0, 0x39	; 57
     bbe:	0f 92       	push	r0
     bc0:	19 be       	out	0x39, r1	; 57
     bc2:	0b b6       	in	r0, 0x3b	; 59
     bc4:	0f 92       	push	r0
     bc6:	1b be       	out	0x3b, r1	; 59
     bc8:	2f 93       	push	r18
     bca:	3f 93       	push	r19
     bcc:	4f 93       	push	r20
     bce:	5f 93       	push	r21
     bd0:	6f 93       	push	r22
     bd2:	7f 93       	push	r23
     bd4:	8f 93       	push	r24
     bd6:	9f 93       	push	r25
     bd8:	af 93       	push	r26
     bda:	bf 93       	push	r27
     bdc:	ef 93       	push	r30
     bde:	ff 93       	push	r31
     be0:	e0 91 ae 20 	lds	r30, 0x20AE
     be4:	f0 91 af 20 	lds	r31, 0x20AF
     be8:	30 97       	sbiw	r30, 0x00	; 0
     bea:	09 f0       	breq	.+2      	; 0xbee <__vector_16+0x42>
     bec:	19 95       	eicall
     bee:	ff 91       	pop	r31
     bf0:	ef 91       	pop	r30
     bf2:	bf 91       	pop	r27
     bf4:	af 91       	pop	r26
     bf6:	9f 91       	pop	r25
     bf8:	8f 91       	pop	r24
     bfa:	7f 91       	pop	r23
     bfc:	6f 91       	pop	r22
     bfe:	5f 91       	pop	r21
     c00:	4f 91       	pop	r20
     c02:	3f 91       	pop	r19
     c04:	2f 91       	pop	r18
     c06:	0f 90       	pop	r0
     c08:	0b be       	out	0x3b, r0	; 59
     c0a:	0f 90       	pop	r0
     c0c:	09 be       	out	0x39, r0	; 57
     c0e:	0f 90       	pop	r0
     c10:	08 be       	out	0x38, r0	; 56
     c12:	0f 90       	pop	r0
     c14:	0f be       	out	0x3f, r0	; 63
     c16:	0f 90       	pop	r0
     c18:	1f 90       	pop	r1
     c1a:	18 95       	reti

00000c1c <__vector_17>:
     c1c:	1f 92       	push	r1
     c1e:	0f 92       	push	r0
     c20:	0f b6       	in	r0, 0x3f	; 63
     c22:	0f 92       	push	r0
     c24:	11 24       	eor	r1, r1
     c26:	08 b6       	in	r0, 0x38	; 56
     c28:	0f 92       	push	r0
     c2a:	18 be       	out	0x38, r1	; 56
     c2c:	09 b6       	in	r0, 0x39	; 57
     c2e:	0f 92       	push	r0
     c30:	19 be       	out	0x39, r1	; 57
     c32:	0b b6       	in	r0, 0x3b	; 59
     c34:	0f 92       	push	r0
     c36:	1b be       	out	0x3b, r1	; 59
     c38:	2f 93       	push	r18
     c3a:	3f 93       	push	r19
     c3c:	4f 93       	push	r20
     c3e:	5f 93       	push	r21
     c40:	6f 93       	push	r22
     c42:	7f 93       	push	r23
     c44:	8f 93       	push	r24
     c46:	9f 93       	push	r25
     c48:	af 93       	push	r26
     c4a:	bf 93       	push	r27
     c4c:	ef 93       	push	r30
     c4e:	ff 93       	push	r31
     c50:	e0 91 ac 20 	lds	r30, 0x20AC
     c54:	f0 91 ad 20 	lds	r31, 0x20AD
     c58:	30 97       	sbiw	r30, 0x00	; 0
     c5a:	09 f0       	breq	.+2      	; 0xc5e <__vector_17+0x42>
     c5c:	19 95       	eicall
     c5e:	ff 91       	pop	r31
     c60:	ef 91       	pop	r30
     c62:	bf 91       	pop	r27
     c64:	af 91       	pop	r26
     c66:	9f 91       	pop	r25
     c68:	8f 91       	pop	r24
     c6a:	7f 91       	pop	r23
     c6c:	6f 91       	pop	r22
     c6e:	5f 91       	pop	r21
     c70:	4f 91       	pop	r20
     c72:	3f 91       	pop	r19
     c74:	2f 91       	pop	r18
     c76:	0f 90       	pop	r0
     c78:	0b be       	out	0x3b, r0	; 59
     c7a:	0f 90       	pop	r0
     c7c:	09 be       	out	0x39, r0	; 57
     c7e:	0f 90       	pop	r0
     c80:	08 be       	out	0x38, r0	; 56
     c82:	0f 90       	pop	r0
     c84:	0f be       	out	0x3f, r0	; 63
     c86:	0f 90       	pop	r0
     c88:	1f 90       	pop	r1
     c8a:	18 95       	reti

00000c8c <__vector_18>:
     c8c:	1f 92       	push	r1
     c8e:	0f 92       	push	r0
     c90:	0f b6       	in	r0, 0x3f	; 63
     c92:	0f 92       	push	r0
     c94:	11 24       	eor	r1, r1
     c96:	08 b6       	in	r0, 0x38	; 56
     c98:	0f 92       	push	r0
     c9a:	18 be       	out	0x38, r1	; 56
     c9c:	09 b6       	in	r0, 0x39	; 57
     c9e:	0f 92       	push	r0
     ca0:	19 be       	out	0x39, r1	; 57
     ca2:	0b b6       	in	r0, 0x3b	; 59
     ca4:	0f 92       	push	r0
     ca6:	1b be       	out	0x3b, r1	; 59
     ca8:	2f 93       	push	r18
     caa:	3f 93       	push	r19
     cac:	4f 93       	push	r20
     cae:	5f 93       	push	r21
     cb0:	6f 93       	push	r22
     cb2:	7f 93       	push	r23
     cb4:	8f 93       	push	r24
     cb6:	9f 93       	push	r25
     cb8:	af 93       	push	r26
     cba:	bf 93       	push	r27
     cbc:	ef 93       	push	r30
     cbe:	ff 93       	push	r31
     cc0:	e0 91 aa 20 	lds	r30, 0x20AA
     cc4:	f0 91 ab 20 	lds	r31, 0x20AB
     cc8:	30 97       	sbiw	r30, 0x00	; 0
     cca:	09 f0       	breq	.+2      	; 0xcce <__vector_18+0x42>
     ccc:	19 95       	eicall
     cce:	ff 91       	pop	r31
     cd0:	ef 91       	pop	r30
     cd2:	bf 91       	pop	r27
     cd4:	af 91       	pop	r26
     cd6:	9f 91       	pop	r25
     cd8:	8f 91       	pop	r24
     cda:	7f 91       	pop	r23
     cdc:	6f 91       	pop	r22
     cde:	5f 91       	pop	r21
     ce0:	4f 91       	pop	r20
     ce2:	3f 91       	pop	r19
     ce4:	2f 91       	pop	r18
     ce6:	0f 90       	pop	r0
     ce8:	0b be       	out	0x3b, r0	; 59
     cea:	0f 90       	pop	r0
     cec:	09 be       	out	0x39, r0	; 57
     cee:	0f 90       	pop	r0
     cf0:	08 be       	out	0x38, r0	; 56
     cf2:	0f 90       	pop	r0
     cf4:	0f be       	out	0x3f, r0	; 63
     cf6:	0f 90       	pop	r0
     cf8:	1f 90       	pop	r1
     cfa:	18 95       	reti

00000cfc <__vector_19>:
     cfc:	1f 92       	push	r1
     cfe:	0f 92       	push	r0
     d00:	0f b6       	in	r0, 0x3f	; 63
     d02:	0f 92       	push	r0
     d04:	11 24       	eor	r1, r1
     d06:	08 b6       	in	r0, 0x38	; 56
     d08:	0f 92       	push	r0
     d0a:	18 be       	out	0x38, r1	; 56
     d0c:	09 b6       	in	r0, 0x39	; 57
     d0e:	0f 92       	push	r0
     d10:	19 be       	out	0x39, r1	; 57
     d12:	0b b6       	in	r0, 0x3b	; 59
     d14:	0f 92       	push	r0
     d16:	1b be       	out	0x3b, r1	; 59
     d18:	2f 93       	push	r18
     d1a:	3f 93       	push	r19
     d1c:	4f 93       	push	r20
     d1e:	5f 93       	push	r21
     d20:	6f 93       	push	r22
     d22:	7f 93       	push	r23
     d24:	8f 93       	push	r24
     d26:	9f 93       	push	r25
     d28:	af 93       	push	r26
     d2a:	bf 93       	push	r27
     d2c:	ef 93       	push	r30
     d2e:	ff 93       	push	r31
     d30:	e0 91 a8 20 	lds	r30, 0x20A8
     d34:	f0 91 a9 20 	lds	r31, 0x20A9
     d38:	30 97       	sbiw	r30, 0x00	; 0
     d3a:	09 f0       	breq	.+2      	; 0xd3e <__vector_19+0x42>
     d3c:	19 95       	eicall
     d3e:	ff 91       	pop	r31
     d40:	ef 91       	pop	r30
     d42:	bf 91       	pop	r27
     d44:	af 91       	pop	r26
     d46:	9f 91       	pop	r25
     d48:	8f 91       	pop	r24
     d4a:	7f 91       	pop	r23
     d4c:	6f 91       	pop	r22
     d4e:	5f 91       	pop	r21
     d50:	4f 91       	pop	r20
     d52:	3f 91       	pop	r19
     d54:	2f 91       	pop	r18
     d56:	0f 90       	pop	r0
     d58:	0b be       	out	0x3b, r0	; 59
     d5a:	0f 90       	pop	r0
     d5c:	09 be       	out	0x39, r0	; 57
     d5e:	0f 90       	pop	r0
     d60:	08 be       	out	0x38, r0	; 56
     d62:	0f 90       	pop	r0
     d64:	0f be       	out	0x3f, r0	; 63
     d66:	0f 90       	pop	r0
     d68:	1f 90       	pop	r1
     d6a:	18 95       	reti

00000d6c <__vector_20>:
     d6c:	1f 92       	push	r1
     d6e:	0f 92       	push	r0
     d70:	0f b6       	in	r0, 0x3f	; 63
     d72:	0f 92       	push	r0
     d74:	11 24       	eor	r1, r1
     d76:	08 b6       	in	r0, 0x38	; 56
     d78:	0f 92       	push	r0
     d7a:	18 be       	out	0x38, r1	; 56
     d7c:	09 b6       	in	r0, 0x39	; 57
     d7e:	0f 92       	push	r0
     d80:	19 be       	out	0x39, r1	; 57
     d82:	0b b6       	in	r0, 0x3b	; 59
     d84:	0f 92       	push	r0
     d86:	1b be       	out	0x3b, r1	; 59
     d88:	2f 93       	push	r18
     d8a:	3f 93       	push	r19
     d8c:	4f 93       	push	r20
     d8e:	5f 93       	push	r21
     d90:	6f 93       	push	r22
     d92:	7f 93       	push	r23
     d94:	8f 93       	push	r24
     d96:	9f 93       	push	r25
     d98:	af 93       	push	r26
     d9a:	bf 93       	push	r27
     d9c:	ef 93       	push	r30
     d9e:	ff 93       	push	r31
     da0:	e0 91 a6 20 	lds	r30, 0x20A6
     da4:	f0 91 a7 20 	lds	r31, 0x20A7
     da8:	30 97       	sbiw	r30, 0x00	; 0
     daa:	09 f0       	breq	.+2      	; 0xdae <__vector_20+0x42>
     dac:	19 95       	eicall
     dae:	ff 91       	pop	r31
     db0:	ef 91       	pop	r30
     db2:	bf 91       	pop	r27
     db4:	af 91       	pop	r26
     db6:	9f 91       	pop	r25
     db8:	8f 91       	pop	r24
     dba:	7f 91       	pop	r23
     dbc:	6f 91       	pop	r22
     dbe:	5f 91       	pop	r21
     dc0:	4f 91       	pop	r20
     dc2:	3f 91       	pop	r19
     dc4:	2f 91       	pop	r18
     dc6:	0f 90       	pop	r0
     dc8:	0b be       	out	0x3b, r0	; 59
     dca:	0f 90       	pop	r0
     dcc:	09 be       	out	0x39, r0	; 57
     dce:	0f 90       	pop	r0
     dd0:	08 be       	out	0x38, r0	; 56
     dd2:	0f 90       	pop	r0
     dd4:	0f be       	out	0x3f, r0	; 63
     dd6:	0f 90       	pop	r0
     dd8:	1f 90       	pop	r1
     dda:	18 95       	reti

00000ddc <__vector_21>:
     ddc:	1f 92       	push	r1
     dde:	0f 92       	push	r0
     de0:	0f b6       	in	r0, 0x3f	; 63
     de2:	0f 92       	push	r0
     de4:	11 24       	eor	r1, r1
     de6:	08 b6       	in	r0, 0x38	; 56
     de8:	0f 92       	push	r0
     dea:	18 be       	out	0x38, r1	; 56
     dec:	09 b6       	in	r0, 0x39	; 57
     dee:	0f 92       	push	r0
     df0:	19 be       	out	0x39, r1	; 57
     df2:	0b b6       	in	r0, 0x3b	; 59
     df4:	0f 92       	push	r0
     df6:	1b be       	out	0x3b, r1	; 59
     df8:	2f 93       	push	r18
     dfa:	3f 93       	push	r19
     dfc:	4f 93       	push	r20
     dfe:	5f 93       	push	r21
     e00:	6f 93       	push	r22
     e02:	7f 93       	push	r23
     e04:	8f 93       	push	r24
     e06:	9f 93       	push	r25
     e08:	af 93       	push	r26
     e0a:	bf 93       	push	r27
     e0c:	ef 93       	push	r30
     e0e:	ff 93       	push	r31
     e10:	e0 91 a4 20 	lds	r30, 0x20A4
     e14:	f0 91 a5 20 	lds	r31, 0x20A5
     e18:	30 97       	sbiw	r30, 0x00	; 0
     e1a:	09 f0       	breq	.+2      	; 0xe1e <__vector_21+0x42>
     e1c:	19 95       	eicall
     e1e:	ff 91       	pop	r31
     e20:	ef 91       	pop	r30
     e22:	bf 91       	pop	r27
     e24:	af 91       	pop	r26
     e26:	9f 91       	pop	r25
     e28:	8f 91       	pop	r24
     e2a:	7f 91       	pop	r23
     e2c:	6f 91       	pop	r22
     e2e:	5f 91       	pop	r21
     e30:	4f 91       	pop	r20
     e32:	3f 91       	pop	r19
     e34:	2f 91       	pop	r18
     e36:	0f 90       	pop	r0
     e38:	0b be       	out	0x3b, r0	; 59
     e3a:	0f 90       	pop	r0
     e3c:	09 be       	out	0x39, r0	; 57
     e3e:	0f 90       	pop	r0
     e40:	08 be       	out	0x38, r0	; 56
     e42:	0f 90       	pop	r0
     e44:	0f be       	out	0x3f, r0	; 63
     e46:	0f 90       	pop	r0
     e48:	1f 90       	pop	r1
     e4a:	18 95       	reti

00000e4c <__vector_22>:
     e4c:	1f 92       	push	r1
     e4e:	0f 92       	push	r0
     e50:	0f b6       	in	r0, 0x3f	; 63
     e52:	0f 92       	push	r0
     e54:	11 24       	eor	r1, r1
     e56:	08 b6       	in	r0, 0x38	; 56
     e58:	0f 92       	push	r0
     e5a:	18 be       	out	0x38, r1	; 56
     e5c:	09 b6       	in	r0, 0x39	; 57
     e5e:	0f 92       	push	r0
     e60:	19 be       	out	0x39, r1	; 57
     e62:	0b b6       	in	r0, 0x3b	; 59
     e64:	0f 92       	push	r0
     e66:	1b be       	out	0x3b, r1	; 59
     e68:	2f 93       	push	r18
     e6a:	3f 93       	push	r19
     e6c:	4f 93       	push	r20
     e6e:	5f 93       	push	r21
     e70:	6f 93       	push	r22
     e72:	7f 93       	push	r23
     e74:	8f 93       	push	r24
     e76:	9f 93       	push	r25
     e78:	af 93       	push	r26
     e7a:	bf 93       	push	r27
     e7c:	ef 93       	push	r30
     e7e:	ff 93       	push	r31
     e80:	e0 91 a2 20 	lds	r30, 0x20A2
     e84:	f0 91 a3 20 	lds	r31, 0x20A3
     e88:	30 97       	sbiw	r30, 0x00	; 0
     e8a:	09 f0       	breq	.+2      	; 0xe8e <__vector_22+0x42>
     e8c:	19 95       	eicall
     e8e:	ff 91       	pop	r31
     e90:	ef 91       	pop	r30
     e92:	bf 91       	pop	r27
     e94:	af 91       	pop	r26
     e96:	9f 91       	pop	r25
     e98:	8f 91       	pop	r24
     e9a:	7f 91       	pop	r23
     e9c:	6f 91       	pop	r22
     e9e:	5f 91       	pop	r21
     ea0:	4f 91       	pop	r20
     ea2:	3f 91       	pop	r19
     ea4:	2f 91       	pop	r18
     ea6:	0f 90       	pop	r0
     ea8:	0b be       	out	0x3b, r0	; 59
     eaa:	0f 90       	pop	r0
     eac:	09 be       	out	0x39, r0	; 57
     eae:	0f 90       	pop	r0
     eb0:	08 be       	out	0x38, r0	; 56
     eb2:	0f 90       	pop	r0
     eb4:	0f be       	out	0x3f, r0	; 63
     eb6:	0f 90       	pop	r0
     eb8:	1f 90       	pop	r1
     eba:	18 95       	reti

00000ebc <__vector_23>:
     ebc:	1f 92       	push	r1
     ebe:	0f 92       	push	r0
     ec0:	0f b6       	in	r0, 0x3f	; 63
     ec2:	0f 92       	push	r0
     ec4:	11 24       	eor	r1, r1
     ec6:	08 b6       	in	r0, 0x38	; 56
     ec8:	0f 92       	push	r0
     eca:	18 be       	out	0x38, r1	; 56
     ecc:	09 b6       	in	r0, 0x39	; 57
     ece:	0f 92       	push	r0
     ed0:	19 be       	out	0x39, r1	; 57
     ed2:	0b b6       	in	r0, 0x3b	; 59
     ed4:	0f 92       	push	r0
     ed6:	1b be       	out	0x3b, r1	; 59
     ed8:	2f 93       	push	r18
     eda:	3f 93       	push	r19
     edc:	4f 93       	push	r20
     ede:	5f 93       	push	r21
     ee0:	6f 93       	push	r22
     ee2:	7f 93       	push	r23
     ee4:	8f 93       	push	r24
     ee6:	9f 93       	push	r25
     ee8:	af 93       	push	r26
     eea:	bf 93       	push	r27
     eec:	ef 93       	push	r30
     eee:	ff 93       	push	r31
     ef0:	e0 91 a0 20 	lds	r30, 0x20A0
     ef4:	f0 91 a1 20 	lds	r31, 0x20A1
     ef8:	30 97       	sbiw	r30, 0x00	; 0
     efa:	09 f0       	breq	.+2      	; 0xefe <__vector_23+0x42>
     efc:	19 95       	eicall
     efe:	ff 91       	pop	r31
     f00:	ef 91       	pop	r30
     f02:	bf 91       	pop	r27
     f04:	af 91       	pop	r26
     f06:	9f 91       	pop	r25
     f08:	8f 91       	pop	r24
     f0a:	7f 91       	pop	r23
     f0c:	6f 91       	pop	r22
     f0e:	5f 91       	pop	r21
     f10:	4f 91       	pop	r20
     f12:	3f 91       	pop	r19
     f14:	2f 91       	pop	r18
     f16:	0f 90       	pop	r0
     f18:	0b be       	out	0x3b, r0	; 59
     f1a:	0f 90       	pop	r0
     f1c:	09 be       	out	0x39, r0	; 57
     f1e:	0f 90       	pop	r0
     f20:	08 be       	out	0x38, r0	; 56
     f22:	0f 90       	pop	r0
     f24:	0f be       	out	0x3f, r0	; 63
     f26:	0f 90       	pop	r0
     f28:	1f 90       	pop	r1
     f2a:	18 95       	reti

00000f2c <__vector_78>:
     f2c:	1f 92       	push	r1
     f2e:	0f 92       	push	r0
     f30:	0f b6       	in	r0, 0x3f	; 63
     f32:	0f 92       	push	r0
     f34:	11 24       	eor	r1, r1
     f36:	08 b6       	in	r0, 0x38	; 56
     f38:	0f 92       	push	r0
     f3a:	18 be       	out	0x38, r1	; 56
     f3c:	09 b6       	in	r0, 0x39	; 57
     f3e:	0f 92       	push	r0
     f40:	19 be       	out	0x39, r1	; 57
     f42:	0b b6       	in	r0, 0x3b	; 59
     f44:	0f 92       	push	r0
     f46:	1b be       	out	0x3b, r1	; 59
     f48:	2f 93       	push	r18
     f4a:	3f 93       	push	r19
     f4c:	4f 93       	push	r20
     f4e:	5f 93       	push	r21
     f50:	6f 93       	push	r22
     f52:	7f 93       	push	r23
     f54:	8f 93       	push	r24
     f56:	9f 93       	push	r25
     f58:	af 93       	push	r26
     f5a:	bf 93       	push	r27
     f5c:	ef 93       	push	r30
     f5e:	ff 93       	push	r31
     f60:	e0 91 9e 20 	lds	r30, 0x209E
     f64:	f0 91 9f 20 	lds	r31, 0x209F
     f68:	30 97       	sbiw	r30, 0x00	; 0
     f6a:	09 f0       	breq	.+2      	; 0xf6e <__vector_78+0x42>
     f6c:	19 95       	eicall
     f6e:	ff 91       	pop	r31
     f70:	ef 91       	pop	r30
     f72:	bf 91       	pop	r27
     f74:	af 91       	pop	r26
     f76:	9f 91       	pop	r25
     f78:	8f 91       	pop	r24
     f7a:	7f 91       	pop	r23
     f7c:	6f 91       	pop	r22
     f7e:	5f 91       	pop	r21
     f80:	4f 91       	pop	r20
     f82:	3f 91       	pop	r19
     f84:	2f 91       	pop	r18
     f86:	0f 90       	pop	r0
     f88:	0b be       	out	0x3b, r0	; 59
     f8a:	0f 90       	pop	r0
     f8c:	09 be       	out	0x39, r0	; 57
     f8e:	0f 90       	pop	r0
     f90:	08 be       	out	0x38, r0	; 56
     f92:	0f 90       	pop	r0
     f94:	0f be       	out	0x3f, r0	; 63
     f96:	0f 90       	pop	r0
     f98:	1f 90       	pop	r1
     f9a:	18 95       	reti

00000f9c <__vector_79>:
     f9c:	1f 92       	push	r1
     f9e:	0f 92       	push	r0
     fa0:	0f b6       	in	r0, 0x3f	; 63
     fa2:	0f 92       	push	r0
     fa4:	11 24       	eor	r1, r1
     fa6:	08 b6       	in	r0, 0x38	; 56
     fa8:	0f 92       	push	r0
     faa:	18 be       	out	0x38, r1	; 56
     fac:	09 b6       	in	r0, 0x39	; 57
     fae:	0f 92       	push	r0
     fb0:	19 be       	out	0x39, r1	; 57
     fb2:	0b b6       	in	r0, 0x3b	; 59
     fb4:	0f 92       	push	r0
     fb6:	1b be       	out	0x3b, r1	; 59
     fb8:	2f 93       	push	r18
     fba:	3f 93       	push	r19
     fbc:	4f 93       	push	r20
     fbe:	5f 93       	push	r21
     fc0:	6f 93       	push	r22
     fc2:	7f 93       	push	r23
     fc4:	8f 93       	push	r24
     fc6:	9f 93       	push	r25
     fc8:	af 93       	push	r26
     fca:	bf 93       	push	r27
     fcc:	ef 93       	push	r30
     fce:	ff 93       	push	r31
     fd0:	e0 91 9c 20 	lds	r30, 0x209C
     fd4:	f0 91 9d 20 	lds	r31, 0x209D
     fd8:	30 97       	sbiw	r30, 0x00	; 0
     fda:	09 f0       	breq	.+2      	; 0xfde <__vector_79+0x42>
     fdc:	19 95       	eicall
     fde:	ff 91       	pop	r31
     fe0:	ef 91       	pop	r30
     fe2:	bf 91       	pop	r27
     fe4:	af 91       	pop	r26
     fe6:	9f 91       	pop	r25
     fe8:	8f 91       	pop	r24
     fea:	7f 91       	pop	r23
     fec:	6f 91       	pop	r22
     fee:	5f 91       	pop	r21
     ff0:	4f 91       	pop	r20
     ff2:	3f 91       	pop	r19
     ff4:	2f 91       	pop	r18
     ff6:	0f 90       	pop	r0
     ff8:	0b be       	out	0x3b, r0	; 59
     ffa:	0f 90       	pop	r0
     ffc:	09 be       	out	0x39, r0	; 57
     ffe:	0f 90       	pop	r0
    1000:	08 be       	out	0x38, r0	; 56
    1002:	0f 90       	pop	r0
    1004:	0f be       	out	0x3f, r0	; 63
    1006:	0f 90       	pop	r0
    1008:	1f 90       	pop	r1
    100a:	18 95       	reti

0000100c <__vector_80>:
    100c:	1f 92       	push	r1
    100e:	0f 92       	push	r0
    1010:	0f b6       	in	r0, 0x3f	; 63
    1012:	0f 92       	push	r0
    1014:	11 24       	eor	r1, r1
    1016:	08 b6       	in	r0, 0x38	; 56
    1018:	0f 92       	push	r0
    101a:	18 be       	out	0x38, r1	; 56
    101c:	09 b6       	in	r0, 0x39	; 57
    101e:	0f 92       	push	r0
    1020:	19 be       	out	0x39, r1	; 57
    1022:	0b b6       	in	r0, 0x3b	; 59
    1024:	0f 92       	push	r0
    1026:	1b be       	out	0x3b, r1	; 59
    1028:	2f 93       	push	r18
    102a:	3f 93       	push	r19
    102c:	4f 93       	push	r20
    102e:	5f 93       	push	r21
    1030:	6f 93       	push	r22
    1032:	7f 93       	push	r23
    1034:	8f 93       	push	r24
    1036:	9f 93       	push	r25
    1038:	af 93       	push	r26
    103a:	bf 93       	push	r27
    103c:	ef 93       	push	r30
    103e:	ff 93       	push	r31
    1040:	e0 91 9a 20 	lds	r30, 0x209A
    1044:	f0 91 9b 20 	lds	r31, 0x209B
    1048:	30 97       	sbiw	r30, 0x00	; 0
    104a:	09 f0       	breq	.+2      	; 0x104e <__vector_80+0x42>
    104c:	19 95       	eicall
    104e:	ff 91       	pop	r31
    1050:	ef 91       	pop	r30
    1052:	bf 91       	pop	r27
    1054:	af 91       	pop	r26
    1056:	9f 91       	pop	r25
    1058:	8f 91       	pop	r24
    105a:	7f 91       	pop	r23
    105c:	6f 91       	pop	r22
    105e:	5f 91       	pop	r21
    1060:	4f 91       	pop	r20
    1062:	3f 91       	pop	r19
    1064:	2f 91       	pop	r18
    1066:	0f 90       	pop	r0
    1068:	0b be       	out	0x3b, r0	; 59
    106a:	0f 90       	pop	r0
    106c:	09 be       	out	0x39, r0	; 57
    106e:	0f 90       	pop	r0
    1070:	08 be       	out	0x38, r0	; 56
    1072:	0f 90       	pop	r0
    1074:	0f be       	out	0x3f, r0	; 63
    1076:	0f 90       	pop	r0
    1078:	1f 90       	pop	r1
    107a:	18 95       	reti

0000107c <__vector_81>:
    107c:	1f 92       	push	r1
    107e:	0f 92       	push	r0
    1080:	0f b6       	in	r0, 0x3f	; 63
    1082:	0f 92       	push	r0
    1084:	11 24       	eor	r1, r1
    1086:	08 b6       	in	r0, 0x38	; 56
    1088:	0f 92       	push	r0
    108a:	18 be       	out	0x38, r1	; 56
    108c:	09 b6       	in	r0, 0x39	; 57
    108e:	0f 92       	push	r0
    1090:	19 be       	out	0x39, r1	; 57
    1092:	0b b6       	in	r0, 0x3b	; 59
    1094:	0f 92       	push	r0
    1096:	1b be       	out	0x3b, r1	; 59
    1098:	2f 93       	push	r18
    109a:	3f 93       	push	r19
    109c:	4f 93       	push	r20
    109e:	5f 93       	push	r21
    10a0:	6f 93       	push	r22
    10a2:	7f 93       	push	r23
    10a4:	8f 93       	push	r24
    10a6:	9f 93       	push	r25
    10a8:	af 93       	push	r26
    10aa:	bf 93       	push	r27
    10ac:	ef 93       	push	r30
    10ae:	ff 93       	push	r31
    10b0:	e0 91 98 20 	lds	r30, 0x2098
    10b4:	f0 91 99 20 	lds	r31, 0x2099
    10b8:	30 97       	sbiw	r30, 0x00	; 0
    10ba:	09 f0       	breq	.+2      	; 0x10be <__vector_81+0x42>
    10bc:	19 95       	eicall
    10be:	ff 91       	pop	r31
    10c0:	ef 91       	pop	r30
    10c2:	bf 91       	pop	r27
    10c4:	af 91       	pop	r26
    10c6:	9f 91       	pop	r25
    10c8:	8f 91       	pop	r24
    10ca:	7f 91       	pop	r23
    10cc:	6f 91       	pop	r22
    10ce:	5f 91       	pop	r21
    10d0:	4f 91       	pop	r20
    10d2:	3f 91       	pop	r19
    10d4:	2f 91       	pop	r18
    10d6:	0f 90       	pop	r0
    10d8:	0b be       	out	0x3b, r0	; 59
    10da:	0f 90       	pop	r0
    10dc:	09 be       	out	0x39, r0	; 57
    10de:	0f 90       	pop	r0
    10e0:	08 be       	out	0x38, r0	; 56
    10e2:	0f 90       	pop	r0
    10e4:	0f be       	out	0x3f, r0	; 63
    10e6:	0f 90       	pop	r0
    10e8:	1f 90       	pop	r1
    10ea:	18 95       	reti

000010ec <__vector_82>:
    10ec:	1f 92       	push	r1
    10ee:	0f 92       	push	r0
    10f0:	0f b6       	in	r0, 0x3f	; 63
    10f2:	0f 92       	push	r0
    10f4:	11 24       	eor	r1, r1
    10f6:	08 b6       	in	r0, 0x38	; 56
    10f8:	0f 92       	push	r0
    10fa:	18 be       	out	0x38, r1	; 56
    10fc:	09 b6       	in	r0, 0x39	; 57
    10fe:	0f 92       	push	r0
    1100:	19 be       	out	0x39, r1	; 57
    1102:	0b b6       	in	r0, 0x3b	; 59
    1104:	0f 92       	push	r0
    1106:	1b be       	out	0x3b, r1	; 59
    1108:	2f 93       	push	r18
    110a:	3f 93       	push	r19
    110c:	4f 93       	push	r20
    110e:	5f 93       	push	r21
    1110:	6f 93       	push	r22
    1112:	7f 93       	push	r23
    1114:	8f 93       	push	r24
    1116:	9f 93       	push	r25
    1118:	af 93       	push	r26
    111a:	bf 93       	push	r27
    111c:	ef 93       	push	r30
    111e:	ff 93       	push	r31
    1120:	e0 91 96 20 	lds	r30, 0x2096
    1124:	f0 91 97 20 	lds	r31, 0x2097
    1128:	30 97       	sbiw	r30, 0x00	; 0
    112a:	09 f0       	breq	.+2      	; 0x112e <__vector_82+0x42>
    112c:	19 95       	eicall
    112e:	ff 91       	pop	r31
    1130:	ef 91       	pop	r30
    1132:	bf 91       	pop	r27
    1134:	af 91       	pop	r26
    1136:	9f 91       	pop	r25
    1138:	8f 91       	pop	r24
    113a:	7f 91       	pop	r23
    113c:	6f 91       	pop	r22
    113e:	5f 91       	pop	r21
    1140:	4f 91       	pop	r20
    1142:	3f 91       	pop	r19
    1144:	2f 91       	pop	r18
    1146:	0f 90       	pop	r0
    1148:	0b be       	out	0x3b, r0	; 59
    114a:	0f 90       	pop	r0
    114c:	09 be       	out	0x39, r0	; 57
    114e:	0f 90       	pop	r0
    1150:	08 be       	out	0x38, r0	; 56
    1152:	0f 90       	pop	r0
    1154:	0f be       	out	0x3f, r0	; 63
    1156:	0f 90       	pop	r0
    1158:	1f 90       	pop	r1
    115a:	18 95       	reti

0000115c <__vector_83>:
    115c:	1f 92       	push	r1
    115e:	0f 92       	push	r0
    1160:	0f b6       	in	r0, 0x3f	; 63
    1162:	0f 92       	push	r0
    1164:	11 24       	eor	r1, r1
    1166:	08 b6       	in	r0, 0x38	; 56
    1168:	0f 92       	push	r0
    116a:	18 be       	out	0x38, r1	; 56
    116c:	09 b6       	in	r0, 0x39	; 57
    116e:	0f 92       	push	r0
    1170:	19 be       	out	0x39, r1	; 57
    1172:	0b b6       	in	r0, 0x3b	; 59
    1174:	0f 92       	push	r0
    1176:	1b be       	out	0x3b, r1	; 59
    1178:	2f 93       	push	r18
    117a:	3f 93       	push	r19
    117c:	4f 93       	push	r20
    117e:	5f 93       	push	r21
    1180:	6f 93       	push	r22
    1182:	7f 93       	push	r23
    1184:	8f 93       	push	r24
    1186:	9f 93       	push	r25
    1188:	af 93       	push	r26
    118a:	bf 93       	push	r27
    118c:	ef 93       	push	r30
    118e:	ff 93       	push	r31
    1190:	e0 91 94 20 	lds	r30, 0x2094
    1194:	f0 91 95 20 	lds	r31, 0x2095
    1198:	30 97       	sbiw	r30, 0x00	; 0
    119a:	09 f0       	breq	.+2      	; 0x119e <__vector_83+0x42>
    119c:	19 95       	eicall
    119e:	ff 91       	pop	r31
    11a0:	ef 91       	pop	r30
    11a2:	bf 91       	pop	r27
    11a4:	af 91       	pop	r26
    11a6:	9f 91       	pop	r25
    11a8:	8f 91       	pop	r24
    11aa:	7f 91       	pop	r23
    11ac:	6f 91       	pop	r22
    11ae:	5f 91       	pop	r21
    11b0:	4f 91       	pop	r20
    11b2:	3f 91       	pop	r19
    11b4:	2f 91       	pop	r18
    11b6:	0f 90       	pop	r0
    11b8:	0b be       	out	0x3b, r0	; 59
    11ba:	0f 90       	pop	r0
    11bc:	09 be       	out	0x39, r0	; 57
    11be:	0f 90       	pop	r0
    11c0:	08 be       	out	0x38, r0	; 56
    11c2:	0f 90       	pop	r0
    11c4:	0f be       	out	0x3f, r0	; 63
    11c6:	0f 90       	pop	r0
    11c8:	1f 90       	pop	r1
    11ca:	18 95       	reti

000011cc <__vector_84>:
    11cc:	1f 92       	push	r1
    11ce:	0f 92       	push	r0
    11d0:	0f b6       	in	r0, 0x3f	; 63
    11d2:	0f 92       	push	r0
    11d4:	11 24       	eor	r1, r1
    11d6:	08 b6       	in	r0, 0x38	; 56
    11d8:	0f 92       	push	r0
    11da:	18 be       	out	0x38, r1	; 56
    11dc:	09 b6       	in	r0, 0x39	; 57
    11de:	0f 92       	push	r0
    11e0:	19 be       	out	0x39, r1	; 57
    11e2:	0b b6       	in	r0, 0x3b	; 59
    11e4:	0f 92       	push	r0
    11e6:	1b be       	out	0x3b, r1	; 59
    11e8:	2f 93       	push	r18
    11ea:	3f 93       	push	r19
    11ec:	4f 93       	push	r20
    11ee:	5f 93       	push	r21
    11f0:	6f 93       	push	r22
    11f2:	7f 93       	push	r23
    11f4:	8f 93       	push	r24
    11f6:	9f 93       	push	r25
    11f8:	af 93       	push	r26
    11fa:	bf 93       	push	r27
    11fc:	ef 93       	push	r30
    11fe:	ff 93       	push	r31
    1200:	e0 91 92 20 	lds	r30, 0x2092
    1204:	f0 91 93 20 	lds	r31, 0x2093
    1208:	30 97       	sbiw	r30, 0x00	; 0
    120a:	09 f0       	breq	.+2      	; 0x120e <__vector_84+0x42>
    120c:	19 95       	eicall
    120e:	ff 91       	pop	r31
    1210:	ef 91       	pop	r30
    1212:	bf 91       	pop	r27
    1214:	af 91       	pop	r26
    1216:	9f 91       	pop	r25
    1218:	8f 91       	pop	r24
    121a:	7f 91       	pop	r23
    121c:	6f 91       	pop	r22
    121e:	5f 91       	pop	r21
    1220:	4f 91       	pop	r20
    1222:	3f 91       	pop	r19
    1224:	2f 91       	pop	r18
    1226:	0f 90       	pop	r0
    1228:	0b be       	out	0x3b, r0	; 59
    122a:	0f 90       	pop	r0
    122c:	09 be       	out	0x39, r0	; 57
    122e:	0f 90       	pop	r0
    1230:	08 be       	out	0x38, r0	; 56
    1232:	0f 90       	pop	r0
    1234:	0f be       	out	0x3f, r0	; 63
    1236:	0f 90       	pop	r0
    1238:	1f 90       	pop	r1
    123a:	18 95       	reti

0000123c <__vector_85>:
    123c:	1f 92       	push	r1
    123e:	0f 92       	push	r0
    1240:	0f b6       	in	r0, 0x3f	; 63
    1242:	0f 92       	push	r0
    1244:	11 24       	eor	r1, r1
    1246:	08 b6       	in	r0, 0x38	; 56
    1248:	0f 92       	push	r0
    124a:	18 be       	out	0x38, r1	; 56
    124c:	09 b6       	in	r0, 0x39	; 57
    124e:	0f 92       	push	r0
    1250:	19 be       	out	0x39, r1	; 57
    1252:	0b b6       	in	r0, 0x3b	; 59
    1254:	0f 92       	push	r0
    1256:	1b be       	out	0x3b, r1	; 59
    1258:	2f 93       	push	r18
    125a:	3f 93       	push	r19
    125c:	4f 93       	push	r20
    125e:	5f 93       	push	r21
    1260:	6f 93       	push	r22
    1262:	7f 93       	push	r23
    1264:	8f 93       	push	r24
    1266:	9f 93       	push	r25
    1268:	af 93       	push	r26
    126a:	bf 93       	push	r27
    126c:	ef 93       	push	r30
    126e:	ff 93       	push	r31
    1270:	e0 91 90 20 	lds	r30, 0x2090
    1274:	f0 91 91 20 	lds	r31, 0x2091
    1278:	30 97       	sbiw	r30, 0x00	; 0
    127a:	09 f0       	breq	.+2      	; 0x127e <__vector_85+0x42>
    127c:	19 95       	eicall
    127e:	ff 91       	pop	r31
    1280:	ef 91       	pop	r30
    1282:	bf 91       	pop	r27
    1284:	af 91       	pop	r26
    1286:	9f 91       	pop	r25
    1288:	8f 91       	pop	r24
    128a:	7f 91       	pop	r23
    128c:	6f 91       	pop	r22
    128e:	5f 91       	pop	r21
    1290:	4f 91       	pop	r20
    1292:	3f 91       	pop	r19
    1294:	2f 91       	pop	r18
    1296:	0f 90       	pop	r0
    1298:	0b be       	out	0x3b, r0	; 59
    129a:	0f 90       	pop	r0
    129c:	09 be       	out	0x39, r0	; 57
    129e:	0f 90       	pop	r0
    12a0:	08 be       	out	0x38, r0	; 56
    12a2:	0f 90       	pop	r0
    12a4:	0f be       	out	0x3f, r0	; 63
    12a6:	0f 90       	pop	r0
    12a8:	1f 90       	pop	r1
    12aa:	18 95       	reti

000012ac <__vector_86>:
    12ac:	1f 92       	push	r1
    12ae:	0f 92       	push	r0
    12b0:	0f b6       	in	r0, 0x3f	; 63
    12b2:	0f 92       	push	r0
    12b4:	11 24       	eor	r1, r1
    12b6:	08 b6       	in	r0, 0x38	; 56
    12b8:	0f 92       	push	r0
    12ba:	18 be       	out	0x38, r1	; 56
    12bc:	09 b6       	in	r0, 0x39	; 57
    12be:	0f 92       	push	r0
    12c0:	19 be       	out	0x39, r1	; 57
    12c2:	0b b6       	in	r0, 0x3b	; 59
    12c4:	0f 92       	push	r0
    12c6:	1b be       	out	0x3b, r1	; 59
    12c8:	2f 93       	push	r18
    12ca:	3f 93       	push	r19
    12cc:	4f 93       	push	r20
    12ce:	5f 93       	push	r21
    12d0:	6f 93       	push	r22
    12d2:	7f 93       	push	r23
    12d4:	8f 93       	push	r24
    12d6:	9f 93       	push	r25
    12d8:	af 93       	push	r26
    12da:	bf 93       	push	r27
    12dc:	ef 93       	push	r30
    12de:	ff 93       	push	r31
    12e0:	e0 91 8e 20 	lds	r30, 0x208E
    12e4:	f0 91 8f 20 	lds	r31, 0x208F
    12e8:	30 97       	sbiw	r30, 0x00	; 0
    12ea:	09 f0       	breq	.+2      	; 0x12ee <__vector_86+0x42>
    12ec:	19 95       	eicall
    12ee:	ff 91       	pop	r31
    12f0:	ef 91       	pop	r30
    12f2:	bf 91       	pop	r27
    12f4:	af 91       	pop	r26
    12f6:	9f 91       	pop	r25
    12f8:	8f 91       	pop	r24
    12fa:	7f 91       	pop	r23
    12fc:	6f 91       	pop	r22
    12fe:	5f 91       	pop	r21
    1300:	4f 91       	pop	r20
    1302:	3f 91       	pop	r19
    1304:	2f 91       	pop	r18
    1306:	0f 90       	pop	r0
    1308:	0b be       	out	0x3b, r0	; 59
    130a:	0f 90       	pop	r0
    130c:	09 be       	out	0x39, r0	; 57
    130e:	0f 90       	pop	r0
    1310:	08 be       	out	0x38, r0	; 56
    1312:	0f 90       	pop	r0
    1314:	0f be       	out	0x3f, r0	; 63
    1316:	0f 90       	pop	r0
    1318:	1f 90       	pop	r1
    131a:	18 95       	reti

0000131c <__vector_47>:
    131c:	1f 92       	push	r1
    131e:	0f 92       	push	r0
    1320:	0f b6       	in	r0, 0x3f	; 63
    1322:	0f 92       	push	r0
    1324:	11 24       	eor	r1, r1
    1326:	08 b6       	in	r0, 0x38	; 56
    1328:	0f 92       	push	r0
    132a:	18 be       	out	0x38, r1	; 56
    132c:	09 b6       	in	r0, 0x39	; 57
    132e:	0f 92       	push	r0
    1330:	19 be       	out	0x39, r1	; 57
    1332:	0b b6       	in	r0, 0x3b	; 59
    1334:	0f 92       	push	r0
    1336:	1b be       	out	0x3b, r1	; 59
    1338:	2f 93       	push	r18
    133a:	3f 93       	push	r19
    133c:	4f 93       	push	r20
    133e:	5f 93       	push	r21
    1340:	6f 93       	push	r22
    1342:	7f 93       	push	r23
    1344:	8f 93       	push	r24
    1346:	9f 93       	push	r25
    1348:	af 93       	push	r26
    134a:	bf 93       	push	r27
    134c:	ef 93       	push	r30
    134e:	ff 93       	push	r31
    1350:	e0 91 8c 20 	lds	r30, 0x208C
    1354:	f0 91 8d 20 	lds	r31, 0x208D
    1358:	30 97       	sbiw	r30, 0x00	; 0
    135a:	09 f0       	breq	.+2      	; 0x135e <__vector_47+0x42>
    135c:	19 95       	eicall
    135e:	ff 91       	pop	r31
    1360:	ef 91       	pop	r30
    1362:	bf 91       	pop	r27
    1364:	af 91       	pop	r26
    1366:	9f 91       	pop	r25
    1368:	8f 91       	pop	r24
    136a:	7f 91       	pop	r23
    136c:	6f 91       	pop	r22
    136e:	5f 91       	pop	r21
    1370:	4f 91       	pop	r20
    1372:	3f 91       	pop	r19
    1374:	2f 91       	pop	r18
    1376:	0f 90       	pop	r0
    1378:	0b be       	out	0x3b, r0	; 59
    137a:	0f 90       	pop	r0
    137c:	09 be       	out	0x39, r0	; 57
    137e:	0f 90       	pop	r0
    1380:	08 be       	out	0x38, r0	; 56
    1382:	0f 90       	pop	r0
    1384:	0f be       	out	0x3f, r0	; 63
    1386:	0f 90       	pop	r0
    1388:	1f 90       	pop	r1
    138a:	18 95       	reti

0000138c <__vector_48>:
    138c:	1f 92       	push	r1
    138e:	0f 92       	push	r0
    1390:	0f b6       	in	r0, 0x3f	; 63
    1392:	0f 92       	push	r0
    1394:	11 24       	eor	r1, r1
    1396:	08 b6       	in	r0, 0x38	; 56
    1398:	0f 92       	push	r0
    139a:	18 be       	out	0x38, r1	; 56
    139c:	09 b6       	in	r0, 0x39	; 57
    139e:	0f 92       	push	r0
    13a0:	19 be       	out	0x39, r1	; 57
    13a2:	0b b6       	in	r0, 0x3b	; 59
    13a4:	0f 92       	push	r0
    13a6:	1b be       	out	0x3b, r1	; 59
    13a8:	2f 93       	push	r18
    13aa:	3f 93       	push	r19
    13ac:	4f 93       	push	r20
    13ae:	5f 93       	push	r21
    13b0:	6f 93       	push	r22
    13b2:	7f 93       	push	r23
    13b4:	8f 93       	push	r24
    13b6:	9f 93       	push	r25
    13b8:	af 93       	push	r26
    13ba:	bf 93       	push	r27
    13bc:	ef 93       	push	r30
    13be:	ff 93       	push	r31
    13c0:	e0 91 8a 20 	lds	r30, 0x208A
    13c4:	f0 91 8b 20 	lds	r31, 0x208B
    13c8:	30 97       	sbiw	r30, 0x00	; 0
    13ca:	09 f0       	breq	.+2      	; 0x13ce <__vector_48+0x42>
    13cc:	19 95       	eicall
    13ce:	ff 91       	pop	r31
    13d0:	ef 91       	pop	r30
    13d2:	bf 91       	pop	r27
    13d4:	af 91       	pop	r26
    13d6:	9f 91       	pop	r25
    13d8:	8f 91       	pop	r24
    13da:	7f 91       	pop	r23
    13dc:	6f 91       	pop	r22
    13de:	5f 91       	pop	r21
    13e0:	4f 91       	pop	r20
    13e2:	3f 91       	pop	r19
    13e4:	2f 91       	pop	r18
    13e6:	0f 90       	pop	r0
    13e8:	0b be       	out	0x3b, r0	; 59
    13ea:	0f 90       	pop	r0
    13ec:	09 be       	out	0x39, r0	; 57
    13ee:	0f 90       	pop	r0
    13f0:	08 be       	out	0x38, r0	; 56
    13f2:	0f 90       	pop	r0
    13f4:	0f be       	out	0x3f, r0	; 63
    13f6:	0f 90       	pop	r0
    13f8:	1f 90       	pop	r1
    13fa:	18 95       	reti

000013fc <__vector_49>:
    13fc:	1f 92       	push	r1
    13fe:	0f 92       	push	r0
    1400:	0f b6       	in	r0, 0x3f	; 63
    1402:	0f 92       	push	r0
    1404:	11 24       	eor	r1, r1
    1406:	08 b6       	in	r0, 0x38	; 56
    1408:	0f 92       	push	r0
    140a:	18 be       	out	0x38, r1	; 56
    140c:	09 b6       	in	r0, 0x39	; 57
    140e:	0f 92       	push	r0
    1410:	19 be       	out	0x39, r1	; 57
    1412:	0b b6       	in	r0, 0x3b	; 59
    1414:	0f 92       	push	r0
    1416:	1b be       	out	0x3b, r1	; 59
    1418:	2f 93       	push	r18
    141a:	3f 93       	push	r19
    141c:	4f 93       	push	r20
    141e:	5f 93       	push	r21
    1420:	6f 93       	push	r22
    1422:	7f 93       	push	r23
    1424:	8f 93       	push	r24
    1426:	9f 93       	push	r25
    1428:	af 93       	push	r26
    142a:	bf 93       	push	r27
    142c:	ef 93       	push	r30
    142e:	ff 93       	push	r31
    1430:	e0 91 88 20 	lds	r30, 0x2088
    1434:	f0 91 89 20 	lds	r31, 0x2089
    1438:	30 97       	sbiw	r30, 0x00	; 0
    143a:	09 f0       	breq	.+2      	; 0x143e <__vector_49+0x42>
    143c:	19 95       	eicall
    143e:	ff 91       	pop	r31
    1440:	ef 91       	pop	r30
    1442:	bf 91       	pop	r27
    1444:	af 91       	pop	r26
    1446:	9f 91       	pop	r25
    1448:	8f 91       	pop	r24
    144a:	7f 91       	pop	r23
    144c:	6f 91       	pop	r22
    144e:	5f 91       	pop	r21
    1450:	4f 91       	pop	r20
    1452:	3f 91       	pop	r19
    1454:	2f 91       	pop	r18
    1456:	0f 90       	pop	r0
    1458:	0b be       	out	0x3b, r0	; 59
    145a:	0f 90       	pop	r0
    145c:	09 be       	out	0x39, r0	; 57
    145e:	0f 90       	pop	r0
    1460:	08 be       	out	0x38, r0	; 56
    1462:	0f 90       	pop	r0
    1464:	0f be       	out	0x3f, r0	; 63
    1466:	0f 90       	pop	r0
    1468:	1f 90       	pop	r1
    146a:	18 95       	reti

0000146c <__vector_50>:
    146c:	1f 92       	push	r1
    146e:	0f 92       	push	r0
    1470:	0f b6       	in	r0, 0x3f	; 63
    1472:	0f 92       	push	r0
    1474:	11 24       	eor	r1, r1
    1476:	08 b6       	in	r0, 0x38	; 56
    1478:	0f 92       	push	r0
    147a:	18 be       	out	0x38, r1	; 56
    147c:	09 b6       	in	r0, 0x39	; 57
    147e:	0f 92       	push	r0
    1480:	19 be       	out	0x39, r1	; 57
    1482:	0b b6       	in	r0, 0x3b	; 59
    1484:	0f 92       	push	r0
    1486:	1b be       	out	0x3b, r1	; 59
    1488:	2f 93       	push	r18
    148a:	3f 93       	push	r19
    148c:	4f 93       	push	r20
    148e:	5f 93       	push	r21
    1490:	6f 93       	push	r22
    1492:	7f 93       	push	r23
    1494:	8f 93       	push	r24
    1496:	9f 93       	push	r25
    1498:	af 93       	push	r26
    149a:	bf 93       	push	r27
    149c:	ef 93       	push	r30
    149e:	ff 93       	push	r31
    14a0:	e0 91 86 20 	lds	r30, 0x2086
    14a4:	f0 91 87 20 	lds	r31, 0x2087
    14a8:	30 97       	sbiw	r30, 0x00	; 0
    14aa:	09 f0       	breq	.+2      	; 0x14ae <__vector_50+0x42>
    14ac:	19 95       	eicall
    14ae:	ff 91       	pop	r31
    14b0:	ef 91       	pop	r30
    14b2:	bf 91       	pop	r27
    14b4:	af 91       	pop	r26
    14b6:	9f 91       	pop	r25
    14b8:	8f 91       	pop	r24
    14ba:	7f 91       	pop	r23
    14bc:	6f 91       	pop	r22
    14be:	5f 91       	pop	r21
    14c0:	4f 91       	pop	r20
    14c2:	3f 91       	pop	r19
    14c4:	2f 91       	pop	r18
    14c6:	0f 90       	pop	r0
    14c8:	0b be       	out	0x3b, r0	; 59
    14ca:	0f 90       	pop	r0
    14cc:	09 be       	out	0x39, r0	; 57
    14ce:	0f 90       	pop	r0
    14d0:	08 be       	out	0x38, r0	; 56
    14d2:	0f 90       	pop	r0
    14d4:	0f be       	out	0x3f, r0	; 63
    14d6:	0f 90       	pop	r0
    14d8:	1f 90       	pop	r1
    14da:	18 95       	reti

000014dc <__vector_51>:
    14dc:	1f 92       	push	r1
    14de:	0f 92       	push	r0
    14e0:	0f b6       	in	r0, 0x3f	; 63
    14e2:	0f 92       	push	r0
    14e4:	11 24       	eor	r1, r1
    14e6:	08 b6       	in	r0, 0x38	; 56
    14e8:	0f 92       	push	r0
    14ea:	18 be       	out	0x38, r1	; 56
    14ec:	09 b6       	in	r0, 0x39	; 57
    14ee:	0f 92       	push	r0
    14f0:	19 be       	out	0x39, r1	; 57
    14f2:	0b b6       	in	r0, 0x3b	; 59
    14f4:	0f 92       	push	r0
    14f6:	1b be       	out	0x3b, r1	; 59
    14f8:	2f 93       	push	r18
    14fa:	3f 93       	push	r19
    14fc:	4f 93       	push	r20
    14fe:	5f 93       	push	r21
    1500:	6f 93       	push	r22
    1502:	7f 93       	push	r23
    1504:	8f 93       	push	r24
    1506:	9f 93       	push	r25
    1508:	af 93       	push	r26
    150a:	bf 93       	push	r27
    150c:	ef 93       	push	r30
    150e:	ff 93       	push	r31
    1510:	e0 91 84 20 	lds	r30, 0x2084
    1514:	f0 91 85 20 	lds	r31, 0x2085
    1518:	30 97       	sbiw	r30, 0x00	; 0
    151a:	09 f0       	breq	.+2      	; 0x151e <__vector_51+0x42>
    151c:	19 95       	eicall
    151e:	ff 91       	pop	r31
    1520:	ef 91       	pop	r30
    1522:	bf 91       	pop	r27
    1524:	af 91       	pop	r26
    1526:	9f 91       	pop	r25
    1528:	8f 91       	pop	r24
    152a:	7f 91       	pop	r23
    152c:	6f 91       	pop	r22
    152e:	5f 91       	pop	r21
    1530:	4f 91       	pop	r20
    1532:	3f 91       	pop	r19
    1534:	2f 91       	pop	r18
    1536:	0f 90       	pop	r0
    1538:	0b be       	out	0x3b, r0	; 59
    153a:	0f 90       	pop	r0
    153c:	09 be       	out	0x39, r0	; 57
    153e:	0f 90       	pop	r0
    1540:	08 be       	out	0x38, r0	; 56
    1542:	0f 90       	pop	r0
    1544:	0f be       	out	0x3f, r0	; 63
    1546:	0f 90       	pop	r0
    1548:	1f 90       	pop	r1
    154a:	18 95       	reti

0000154c <__vector_52>:
    154c:	1f 92       	push	r1
    154e:	0f 92       	push	r0
    1550:	0f b6       	in	r0, 0x3f	; 63
    1552:	0f 92       	push	r0
    1554:	11 24       	eor	r1, r1
    1556:	08 b6       	in	r0, 0x38	; 56
    1558:	0f 92       	push	r0
    155a:	18 be       	out	0x38, r1	; 56
    155c:	09 b6       	in	r0, 0x39	; 57
    155e:	0f 92       	push	r0
    1560:	19 be       	out	0x39, r1	; 57
    1562:	0b b6       	in	r0, 0x3b	; 59
    1564:	0f 92       	push	r0
    1566:	1b be       	out	0x3b, r1	; 59
    1568:	2f 93       	push	r18
    156a:	3f 93       	push	r19
    156c:	4f 93       	push	r20
    156e:	5f 93       	push	r21
    1570:	6f 93       	push	r22
    1572:	7f 93       	push	r23
    1574:	8f 93       	push	r24
    1576:	9f 93       	push	r25
    1578:	af 93       	push	r26
    157a:	bf 93       	push	r27
    157c:	ef 93       	push	r30
    157e:	ff 93       	push	r31
    1580:	e0 91 82 20 	lds	r30, 0x2082
    1584:	f0 91 83 20 	lds	r31, 0x2083
    1588:	30 97       	sbiw	r30, 0x00	; 0
    158a:	09 f0       	breq	.+2      	; 0x158e <__vector_52+0x42>
    158c:	19 95       	eicall
    158e:	ff 91       	pop	r31
    1590:	ef 91       	pop	r30
    1592:	bf 91       	pop	r27
    1594:	af 91       	pop	r26
    1596:	9f 91       	pop	r25
    1598:	8f 91       	pop	r24
    159a:	7f 91       	pop	r23
    159c:	6f 91       	pop	r22
    159e:	5f 91       	pop	r21
    15a0:	4f 91       	pop	r20
    15a2:	3f 91       	pop	r19
    15a4:	2f 91       	pop	r18
    15a6:	0f 90       	pop	r0
    15a8:	0b be       	out	0x3b, r0	; 59
    15aa:	0f 90       	pop	r0
    15ac:	09 be       	out	0x39, r0	; 57
    15ae:	0f 90       	pop	r0
    15b0:	08 be       	out	0x38, r0	; 56
    15b2:	0f 90       	pop	r0
    15b4:	0f be       	out	0x3f, r0	; 63
    15b6:	0f 90       	pop	r0
    15b8:	1f 90       	pop	r1
    15ba:	18 95       	reti

000015bc <__vector_53>:
    15bc:	1f 92       	push	r1
    15be:	0f 92       	push	r0
    15c0:	0f b6       	in	r0, 0x3f	; 63
    15c2:	0f 92       	push	r0
    15c4:	11 24       	eor	r1, r1
    15c6:	08 b6       	in	r0, 0x38	; 56
    15c8:	0f 92       	push	r0
    15ca:	18 be       	out	0x38, r1	; 56
    15cc:	09 b6       	in	r0, 0x39	; 57
    15ce:	0f 92       	push	r0
    15d0:	19 be       	out	0x39, r1	; 57
    15d2:	0b b6       	in	r0, 0x3b	; 59
    15d4:	0f 92       	push	r0
    15d6:	1b be       	out	0x3b, r1	; 59
    15d8:	2f 93       	push	r18
    15da:	3f 93       	push	r19
    15dc:	4f 93       	push	r20
    15de:	5f 93       	push	r21
    15e0:	6f 93       	push	r22
    15e2:	7f 93       	push	r23
    15e4:	8f 93       	push	r24
    15e6:	9f 93       	push	r25
    15e8:	af 93       	push	r26
    15ea:	bf 93       	push	r27
    15ec:	ef 93       	push	r30
    15ee:	ff 93       	push	r31
    15f0:	e0 91 80 20 	lds	r30, 0x2080
    15f4:	f0 91 81 20 	lds	r31, 0x2081
    15f8:	30 97       	sbiw	r30, 0x00	; 0
    15fa:	09 f0       	breq	.+2      	; 0x15fe <__vector_53+0x42>
    15fc:	19 95       	eicall
    15fe:	ff 91       	pop	r31
    1600:	ef 91       	pop	r30
    1602:	bf 91       	pop	r27
    1604:	af 91       	pop	r26
    1606:	9f 91       	pop	r25
    1608:	8f 91       	pop	r24
    160a:	7f 91       	pop	r23
    160c:	6f 91       	pop	r22
    160e:	5f 91       	pop	r21
    1610:	4f 91       	pop	r20
    1612:	3f 91       	pop	r19
    1614:	2f 91       	pop	r18
    1616:	0f 90       	pop	r0
    1618:	0b be       	out	0x3b, r0	; 59
    161a:	0f 90       	pop	r0
    161c:	09 be       	out	0x39, r0	; 57
    161e:	0f 90       	pop	r0
    1620:	08 be       	out	0x38, r0	; 56
    1622:	0f 90       	pop	r0
    1624:	0f be       	out	0x3f, r0	; 63
    1626:	0f 90       	pop	r0
    1628:	1f 90       	pop	r1
    162a:	18 95       	reti

0000162c <__vector_54>:
    162c:	1f 92       	push	r1
    162e:	0f 92       	push	r0
    1630:	0f b6       	in	r0, 0x3f	; 63
    1632:	0f 92       	push	r0
    1634:	11 24       	eor	r1, r1
    1636:	08 b6       	in	r0, 0x38	; 56
    1638:	0f 92       	push	r0
    163a:	18 be       	out	0x38, r1	; 56
    163c:	09 b6       	in	r0, 0x39	; 57
    163e:	0f 92       	push	r0
    1640:	19 be       	out	0x39, r1	; 57
    1642:	0b b6       	in	r0, 0x3b	; 59
    1644:	0f 92       	push	r0
    1646:	1b be       	out	0x3b, r1	; 59
    1648:	2f 93       	push	r18
    164a:	3f 93       	push	r19
    164c:	4f 93       	push	r20
    164e:	5f 93       	push	r21
    1650:	6f 93       	push	r22
    1652:	7f 93       	push	r23
    1654:	8f 93       	push	r24
    1656:	9f 93       	push	r25
    1658:	af 93       	push	r26
    165a:	bf 93       	push	r27
    165c:	ef 93       	push	r30
    165e:	ff 93       	push	r31
    1660:	e0 91 7e 20 	lds	r30, 0x207E
    1664:	f0 91 7f 20 	lds	r31, 0x207F
    1668:	30 97       	sbiw	r30, 0x00	; 0
    166a:	09 f0       	breq	.+2      	; 0x166e <__vector_54+0x42>
    166c:	19 95       	eicall
    166e:	ff 91       	pop	r31
    1670:	ef 91       	pop	r30
    1672:	bf 91       	pop	r27
    1674:	af 91       	pop	r26
    1676:	9f 91       	pop	r25
    1678:	8f 91       	pop	r24
    167a:	7f 91       	pop	r23
    167c:	6f 91       	pop	r22
    167e:	5f 91       	pop	r21
    1680:	4f 91       	pop	r20
    1682:	3f 91       	pop	r19
    1684:	2f 91       	pop	r18
    1686:	0f 90       	pop	r0
    1688:	0b be       	out	0x3b, r0	; 59
    168a:	0f 90       	pop	r0
    168c:	09 be       	out	0x39, r0	; 57
    168e:	0f 90       	pop	r0
    1690:	08 be       	out	0x38, r0	; 56
    1692:	0f 90       	pop	r0
    1694:	0f be       	out	0x3f, r0	; 63
    1696:	0f 90       	pop	r0
    1698:	1f 90       	pop	r1
    169a:	18 95       	reti

0000169c <__vector_55>:
    169c:	1f 92       	push	r1
    169e:	0f 92       	push	r0
    16a0:	0f b6       	in	r0, 0x3f	; 63
    16a2:	0f 92       	push	r0
    16a4:	11 24       	eor	r1, r1
    16a6:	08 b6       	in	r0, 0x38	; 56
    16a8:	0f 92       	push	r0
    16aa:	18 be       	out	0x38, r1	; 56
    16ac:	09 b6       	in	r0, 0x39	; 57
    16ae:	0f 92       	push	r0
    16b0:	19 be       	out	0x39, r1	; 57
    16b2:	0b b6       	in	r0, 0x3b	; 59
    16b4:	0f 92       	push	r0
    16b6:	1b be       	out	0x3b, r1	; 59
    16b8:	2f 93       	push	r18
    16ba:	3f 93       	push	r19
    16bc:	4f 93       	push	r20
    16be:	5f 93       	push	r21
    16c0:	6f 93       	push	r22
    16c2:	7f 93       	push	r23
    16c4:	8f 93       	push	r24
    16c6:	9f 93       	push	r25
    16c8:	af 93       	push	r26
    16ca:	bf 93       	push	r27
    16cc:	ef 93       	push	r30
    16ce:	ff 93       	push	r31
    16d0:	e0 91 7c 20 	lds	r30, 0x207C
    16d4:	f0 91 7d 20 	lds	r31, 0x207D
    16d8:	30 97       	sbiw	r30, 0x00	; 0
    16da:	09 f0       	breq	.+2      	; 0x16de <__vector_55+0x42>
    16dc:	19 95       	eicall
    16de:	ff 91       	pop	r31
    16e0:	ef 91       	pop	r30
    16e2:	bf 91       	pop	r27
    16e4:	af 91       	pop	r26
    16e6:	9f 91       	pop	r25
    16e8:	8f 91       	pop	r24
    16ea:	7f 91       	pop	r23
    16ec:	6f 91       	pop	r22
    16ee:	5f 91       	pop	r21
    16f0:	4f 91       	pop	r20
    16f2:	3f 91       	pop	r19
    16f4:	2f 91       	pop	r18
    16f6:	0f 90       	pop	r0
    16f8:	0b be       	out	0x3b, r0	; 59
    16fa:	0f 90       	pop	r0
    16fc:	09 be       	out	0x39, r0	; 57
    16fe:	0f 90       	pop	r0
    1700:	08 be       	out	0x38, r0	; 56
    1702:	0f 90       	pop	r0
    1704:	0f be       	out	0x3f, r0	; 63
    1706:	0f 90       	pop	r0
    1708:	1f 90       	pop	r1
    170a:	18 95       	reti

0000170c <__vector_56>:
    170c:	1f 92       	push	r1
    170e:	0f 92       	push	r0
    1710:	0f b6       	in	r0, 0x3f	; 63
    1712:	0f 92       	push	r0
    1714:	11 24       	eor	r1, r1
    1716:	08 b6       	in	r0, 0x38	; 56
    1718:	0f 92       	push	r0
    171a:	18 be       	out	0x38, r1	; 56
    171c:	09 b6       	in	r0, 0x39	; 57
    171e:	0f 92       	push	r0
    1720:	19 be       	out	0x39, r1	; 57
    1722:	0b b6       	in	r0, 0x3b	; 59
    1724:	0f 92       	push	r0
    1726:	1b be       	out	0x3b, r1	; 59
    1728:	2f 93       	push	r18
    172a:	3f 93       	push	r19
    172c:	4f 93       	push	r20
    172e:	5f 93       	push	r21
    1730:	6f 93       	push	r22
    1732:	7f 93       	push	r23
    1734:	8f 93       	push	r24
    1736:	9f 93       	push	r25
    1738:	af 93       	push	r26
    173a:	bf 93       	push	r27
    173c:	ef 93       	push	r30
    173e:	ff 93       	push	r31
    1740:	e0 91 7a 20 	lds	r30, 0x207A
    1744:	f0 91 7b 20 	lds	r31, 0x207B
    1748:	30 97       	sbiw	r30, 0x00	; 0
    174a:	09 f0       	breq	.+2      	; 0x174e <__vector_56+0x42>
    174c:	19 95       	eicall
    174e:	ff 91       	pop	r31
    1750:	ef 91       	pop	r30
    1752:	bf 91       	pop	r27
    1754:	af 91       	pop	r26
    1756:	9f 91       	pop	r25
    1758:	8f 91       	pop	r24
    175a:	7f 91       	pop	r23
    175c:	6f 91       	pop	r22
    175e:	5f 91       	pop	r21
    1760:	4f 91       	pop	r20
    1762:	3f 91       	pop	r19
    1764:	2f 91       	pop	r18
    1766:	0f 90       	pop	r0
    1768:	0b be       	out	0x3b, r0	; 59
    176a:	0f 90       	pop	r0
    176c:	09 be       	out	0x39, r0	; 57
    176e:	0f 90       	pop	r0
    1770:	08 be       	out	0x38, r0	; 56
    1772:	0f 90       	pop	r0
    1774:	0f be       	out	0x3f, r0	; 63
    1776:	0f 90       	pop	r0
    1778:	1f 90       	pop	r1
    177a:	18 95       	reti

0000177c <__vector_108>:
    177c:	1f 92       	push	r1
    177e:	0f 92       	push	r0
    1780:	0f b6       	in	r0, 0x3f	; 63
    1782:	0f 92       	push	r0
    1784:	11 24       	eor	r1, r1
    1786:	08 b6       	in	r0, 0x38	; 56
    1788:	0f 92       	push	r0
    178a:	18 be       	out	0x38, r1	; 56
    178c:	09 b6       	in	r0, 0x39	; 57
    178e:	0f 92       	push	r0
    1790:	19 be       	out	0x39, r1	; 57
    1792:	0b b6       	in	r0, 0x3b	; 59
    1794:	0f 92       	push	r0
    1796:	1b be       	out	0x3b, r1	; 59
    1798:	2f 93       	push	r18
    179a:	3f 93       	push	r19
    179c:	4f 93       	push	r20
    179e:	5f 93       	push	r21
    17a0:	6f 93       	push	r22
    17a2:	7f 93       	push	r23
    17a4:	8f 93       	push	r24
    17a6:	9f 93       	push	r25
    17a8:	af 93       	push	r26
    17aa:	bf 93       	push	r27
    17ac:	ef 93       	push	r30
    17ae:	ff 93       	push	r31
    17b0:	e0 91 78 20 	lds	r30, 0x2078
    17b4:	f0 91 79 20 	lds	r31, 0x2079
    17b8:	30 97       	sbiw	r30, 0x00	; 0
    17ba:	09 f0       	breq	.+2      	; 0x17be <__vector_108+0x42>
    17bc:	19 95       	eicall
    17be:	ff 91       	pop	r31
    17c0:	ef 91       	pop	r30
    17c2:	bf 91       	pop	r27
    17c4:	af 91       	pop	r26
    17c6:	9f 91       	pop	r25
    17c8:	8f 91       	pop	r24
    17ca:	7f 91       	pop	r23
    17cc:	6f 91       	pop	r22
    17ce:	5f 91       	pop	r21
    17d0:	4f 91       	pop	r20
    17d2:	3f 91       	pop	r19
    17d4:	2f 91       	pop	r18
    17d6:	0f 90       	pop	r0
    17d8:	0b be       	out	0x3b, r0	; 59
    17da:	0f 90       	pop	r0
    17dc:	09 be       	out	0x39, r0	; 57
    17de:	0f 90       	pop	r0
    17e0:	08 be       	out	0x38, r0	; 56
    17e2:	0f 90       	pop	r0
    17e4:	0f be       	out	0x3f, r0	; 63
    17e6:	0f 90       	pop	r0
    17e8:	1f 90       	pop	r1
    17ea:	18 95       	reti

000017ec <__vector_109>:
    17ec:	1f 92       	push	r1
    17ee:	0f 92       	push	r0
    17f0:	0f b6       	in	r0, 0x3f	; 63
    17f2:	0f 92       	push	r0
    17f4:	11 24       	eor	r1, r1
    17f6:	08 b6       	in	r0, 0x38	; 56
    17f8:	0f 92       	push	r0
    17fa:	18 be       	out	0x38, r1	; 56
    17fc:	09 b6       	in	r0, 0x39	; 57
    17fe:	0f 92       	push	r0
    1800:	19 be       	out	0x39, r1	; 57
    1802:	0b b6       	in	r0, 0x3b	; 59
    1804:	0f 92       	push	r0
    1806:	1b be       	out	0x3b, r1	; 59
    1808:	2f 93       	push	r18
    180a:	3f 93       	push	r19
    180c:	4f 93       	push	r20
    180e:	5f 93       	push	r21
    1810:	6f 93       	push	r22
    1812:	7f 93       	push	r23
    1814:	8f 93       	push	r24
    1816:	9f 93       	push	r25
    1818:	af 93       	push	r26
    181a:	bf 93       	push	r27
    181c:	ef 93       	push	r30
    181e:	ff 93       	push	r31
    1820:	e0 91 76 20 	lds	r30, 0x2076
    1824:	f0 91 77 20 	lds	r31, 0x2077
    1828:	30 97       	sbiw	r30, 0x00	; 0
    182a:	09 f0       	breq	.+2      	; 0x182e <__vector_109+0x42>
    182c:	19 95       	eicall
    182e:	ff 91       	pop	r31
    1830:	ef 91       	pop	r30
    1832:	bf 91       	pop	r27
    1834:	af 91       	pop	r26
    1836:	9f 91       	pop	r25
    1838:	8f 91       	pop	r24
    183a:	7f 91       	pop	r23
    183c:	6f 91       	pop	r22
    183e:	5f 91       	pop	r21
    1840:	4f 91       	pop	r20
    1842:	3f 91       	pop	r19
    1844:	2f 91       	pop	r18
    1846:	0f 90       	pop	r0
    1848:	0b be       	out	0x3b, r0	; 59
    184a:	0f 90       	pop	r0
    184c:	09 be       	out	0x39, r0	; 57
    184e:	0f 90       	pop	r0
    1850:	08 be       	out	0x38, r0	; 56
    1852:	0f 90       	pop	r0
    1854:	0f be       	out	0x3f, r0	; 63
    1856:	0f 90       	pop	r0
    1858:	1f 90       	pop	r1
    185a:	18 95       	reti

0000185c <__vector_110>:
    185c:	1f 92       	push	r1
    185e:	0f 92       	push	r0
    1860:	0f b6       	in	r0, 0x3f	; 63
    1862:	0f 92       	push	r0
    1864:	11 24       	eor	r1, r1
    1866:	08 b6       	in	r0, 0x38	; 56
    1868:	0f 92       	push	r0
    186a:	18 be       	out	0x38, r1	; 56
    186c:	09 b6       	in	r0, 0x39	; 57
    186e:	0f 92       	push	r0
    1870:	19 be       	out	0x39, r1	; 57
    1872:	0b b6       	in	r0, 0x3b	; 59
    1874:	0f 92       	push	r0
    1876:	1b be       	out	0x3b, r1	; 59
    1878:	2f 93       	push	r18
    187a:	3f 93       	push	r19
    187c:	4f 93       	push	r20
    187e:	5f 93       	push	r21
    1880:	6f 93       	push	r22
    1882:	7f 93       	push	r23
    1884:	8f 93       	push	r24
    1886:	9f 93       	push	r25
    1888:	af 93       	push	r26
    188a:	bf 93       	push	r27
    188c:	ef 93       	push	r30
    188e:	ff 93       	push	r31
    1890:	e0 91 74 20 	lds	r30, 0x2074
    1894:	f0 91 75 20 	lds	r31, 0x2075
    1898:	30 97       	sbiw	r30, 0x00	; 0
    189a:	09 f0       	breq	.+2      	; 0x189e <__vector_110+0x42>
    189c:	19 95       	eicall
    189e:	ff 91       	pop	r31
    18a0:	ef 91       	pop	r30
    18a2:	bf 91       	pop	r27
    18a4:	af 91       	pop	r26
    18a6:	9f 91       	pop	r25
    18a8:	8f 91       	pop	r24
    18aa:	7f 91       	pop	r23
    18ac:	6f 91       	pop	r22
    18ae:	5f 91       	pop	r21
    18b0:	4f 91       	pop	r20
    18b2:	3f 91       	pop	r19
    18b4:	2f 91       	pop	r18
    18b6:	0f 90       	pop	r0
    18b8:	0b be       	out	0x3b, r0	; 59
    18ba:	0f 90       	pop	r0
    18bc:	09 be       	out	0x39, r0	; 57
    18be:	0f 90       	pop	r0
    18c0:	08 be       	out	0x38, r0	; 56
    18c2:	0f 90       	pop	r0
    18c4:	0f be       	out	0x3f, r0	; 63
    18c6:	0f 90       	pop	r0
    18c8:	1f 90       	pop	r1
    18ca:	18 95       	reti

000018cc <__vector_111>:
    18cc:	1f 92       	push	r1
    18ce:	0f 92       	push	r0
    18d0:	0f b6       	in	r0, 0x3f	; 63
    18d2:	0f 92       	push	r0
    18d4:	11 24       	eor	r1, r1
    18d6:	08 b6       	in	r0, 0x38	; 56
    18d8:	0f 92       	push	r0
    18da:	18 be       	out	0x38, r1	; 56
    18dc:	09 b6       	in	r0, 0x39	; 57
    18de:	0f 92       	push	r0
    18e0:	19 be       	out	0x39, r1	; 57
    18e2:	0b b6       	in	r0, 0x3b	; 59
    18e4:	0f 92       	push	r0
    18e6:	1b be       	out	0x3b, r1	; 59
    18e8:	2f 93       	push	r18
    18ea:	3f 93       	push	r19
    18ec:	4f 93       	push	r20
    18ee:	5f 93       	push	r21
    18f0:	6f 93       	push	r22
    18f2:	7f 93       	push	r23
    18f4:	8f 93       	push	r24
    18f6:	9f 93       	push	r25
    18f8:	af 93       	push	r26
    18fa:	bf 93       	push	r27
    18fc:	ef 93       	push	r30
    18fe:	ff 93       	push	r31
    1900:	e0 91 72 20 	lds	r30, 0x2072
    1904:	f0 91 73 20 	lds	r31, 0x2073
    1908:	30 97       	sbiw	r30, 0x00	; 0
    190a:	09 f0       	breq	.+2      	; 0x190e <__vector_111+0x42>
    190c:	19 95       	eicall
    190e:	ff 91       	pop	r31
    1910:	ef 91       	pop	r30
    1912:	bf 91       	pop	r27
    1914:	af 91       	pop	r26
    1916:	9f 91       	pop	r25
    1918:	8f 91       	pop	r24
    191a:	7f 91       	pop	r23
    191c:	6f 91       	pop	r22
    191e:	5f 91       	pop	r21
    1920:	4f 91       	pop	r20
    1922:	3f 91       	pop	r19
    1924:	2f 91       	pop	r18
    1926:	0f 90       	pop	r0
    1928:	0b be       	out	0x3b, r0	; 59
    192a:	0f 90       	pop	r0
    192c:	09 be       	out	0x39, r0	; 57
    192e:	0f 90       	pop	r0
    1930:	08 be       	out	0x38, r0	; 56
    1932:	0f 90       	pop	r0
    1934:	0f be       	out	0x3f, r0	; 63
    1936:	0f 90       	pop	r0
    1938:	1f 90       	pop	r1
    193a:	18 95       	reti

0000193c <__vector_112>:
    193c:	1f 92       	push	r1
    193e:	0f 92       	push	r0
    1940:	0f b6       	in	r0, 0x3f	; 63
    1942:	0f 92       	push	r0
    1944:	11 24       	eor	r1, r1
    1946:	08 b6       	in	r0, 0x38	; 56
    1948:	0f 92       	push	r0
    194a:	18 be       	out	0x38, r1	; 56
    194c:	09 b6       	in	r0, 0x39	; 57
    194e:	0f 92       	push	r0
    1950:	19 be       	out	0x39, r1	; 57
    1952:	0b b6       	in	r0, 0x3b	; 59
    1954:	0f 92       	push	r0
    1956:	1b be       	out	0x3b, r1	; 59
    1958:	2f 93       	push	r18
    195a:	3f 93       	push	r19
    195c:	4f 93       	push	r20
    195e:	5f 93       	push	r21
    1960:	6f 93       	push	r22
    1962:	7f 93       	push	r23
    1964:	8f 93       	push	r24
    1966:	9f 93       	push	r25
    1968:	af 93       	push	r26
    196a:	bf 93       	push	r27
    196c:	ef 93       	push	r30
    196e:	ff 93       	push	r31
    1970:	e0 91 70 20 	lds	r30, 0x2070
    1974:	f0 91 71 20 	lds	r31, 0x2071
    1978:	30 97       	sbiw	r30, 0x00	; 0
    197a:	09 f0       	breq	.+2      	; 0x197e <__vector_112+0x42>
    197c:	19 95       	eicall
    197e:	ff 91       	pop	r31
    1980:	ef 91       	pop	r30
    1982:	bf 91       	pop	r27
    1984:	af 91       	pop	r26
    1986:	9f 91       	pop	r25
    1988:	8f 91       	pop	r24
    198a:	7f 91       	pop	r23
    198c:	6f 91       	pop	r22
    198e:	5f 91       	pop	r21
    1990:	4f 91       	pop	r20
    1992:	3f 91       	pop	r19
    1994:	2f 91       	pop	r18
    1996:	0f 90       	pop	r0
    1998:	0b be       	out	0x3b, r0	; 59
    199a:	0f 90       	pop	r0
    199c:	09 be       	out	0x39, r0	; 57
    199e:	0f 90       	pop	r0
    19a0:	08 be       	out	0x38, r0	; 56
    19a2:	0f 90       	pop	r0
    19a4:	0f be       	out	0x3f, r0	; 63
    19a6:	0f 90       	pop	r0
    19a8:	1f 90       	pop	r1
    19aa:	18 95       	reti

000019ac <__vector_113>:
    19ac:	1f 92       	push	r1
    19ae:	0f 92       	push	r0
    19b0:	0f b6       	in	r0, 0x3f	; 63
    19b2:	0f 92       	push	r0
    19b4:	11 24       	eor	r1, r1
    19b6:	08 b6       	in	r0, 0x38	; 56
    19b8:	0f 92       	push	r0
    19ba:	18 be       	out	0x38, r1	; 56
    19bc:	09 b6       	in	r0, 0x39	; 57
    19be:	0f 92       	push	r0
    19c0:	19 be       	out	0x39, r1	; 57
    19c2:	0b b6       	in	r0, 0x3b	; 59
    19c4:	0f 92       	push	r0
    19c6:	1b be       	out	0x3b, r1	; 59
    19c8:	2f 93       	push	r18
    19ca:	3f 93       	push	r19
    19cc:	4f 93       	push	r20
    19ce:	5f 93       	push	r21
    19d0:	6f 93       	push	r22
    19d2:	7f 93       	push	r23
    19d4:	8f 93       	push	r24
    19d6:	9f 93       	push	r25
    19d8:	af 93       	push	r26
    19da:	bf 93       	push	r27
    19dc:	ef 93       	push	r30
    19de:	ff 93       	push	r31
    19e0:	e0 91 6e 20 	lds	r30, 0x206E
    19e4:	f0 91 6f 20 	lds	r31, 0x206F
    19e8:	30 97       	sbiw	r30, 0x00	; 0
    19ea:	09 f0       	breq	.+2      	; 0x19ee <__vector_113+0x42>
    19ec:	19 95       	eicall
    19ee:	ff 91       	pop	r31
    19f0:	ef 91       	pop	r30
    19f2:	bf 91       	pop	r27
    19f4:	af 91       	pop	r26
    19f6:	9f 91       	pop	r25
    19f8:	8f 91       	pop	r24
    19fa:	7f 91       	pop	r23
    19fc:	6f 91       	pop	r22
    19fe:	5f 91       	pop	r21
    1a00:	4f 91       	pop	r20
    1a02:	3f 91       	pop	r19
    1a04:	2f 91       	pop	r18
    1a06:	0f 90       	pop	r0
    1a08:	0b be       	out	0x3b, r0	; 59
    1a0a:	0f 90       	pop	r0
    1a0c:	09 be       	out	0x39, r0	; 57
    1a0e:	0f 90       	pop	r0
    1a10:	08 be       	out	0x38, r0	; 56
    1a12:	0f 90       	pop	r0
    1a14:	0f be       	out	0x3f, r0	; 63
    1a16:	0f 90       	pop	r0
    1a18:	1f 90       	pop	r1
    1a1a:	18 95       	reti

00001a1c <__vector_114>:
    1a1c:	1f 92       	push	r1
    1a1e:	0f 92       	push	r0
    1a20:	0f b6       	in	r0, 0x3f	; 63
    1a22:	0f 92       	push	r0
    1a24:	11 24       	eor	r1, r1
    1a26:	08 b6       	in	r0, 0x38	; 56
    1a28:	0f 92       	push	r0
    1a2a:	18 be       	out	0x38, r1	; 56
    1a2c:	09 b6       	in	r0, 0x39	; 57
    1a2e:	0f 92       	push	r0
    1a30:	19 be       	out	0x39, r1	; 57
    1a32:	0b b6       	in	r0, 0x3b	; 59
    1a34:	0f 92       	push	r0
    1a36:	1b be       	out	0x3b, r1	; 59
    1a38:	2f 93       	push	r18
    1a3a:	3f 93       	push	r19
    1a3c:	4f 93       	push	r20
    1a3e:	5f 93       	push	r21
    1a40:	6f 93       	push	r22
    1a42:	7f 93       	push	r23
    1a44:	8f 93       	push	r24
    1a46:	9f 93       	push	r25
    1a48:	af 93       	push	r26
    1a4a:	bf 93       	push	r27
    1a4c:	ef 93       	push	r30
    1a4e:	ff 93       	push	r31
    1a50:	e0 91 6c 20 	lds	r30, 0x206C
    1a54:	f0 91 6d 20 	lds	r31, 0x206D
    1a58:	30 97       	sbiw	r30, 0x00	; 0
    1a5a:	09 f0       	breq	.+2      	; 0x1a5e <__vector_114+0x42>
    1a5c:	19 95       	eicall
    1a5e:	ff 91       	pop	r31
    1a60:	ef 91       	pop	r30
    1a62:	bf 91       	pop	r27
    1a64:	af 91       	pop	r26
    1a66:	9f 91       	pop	r25
    1a68:	8f 91       	pop	r24
    1a6a:	7f 91       	pop	r23
    1a6c:	6f 91       	pop	r22
    1a6e:	5f 91       	pop	r21
    1a70:	4f 91       	pop	r20
    1a72:	3f 91       	pop	r19
    1a74:	2f 91       	pop	r18
    1a76:	0f 90       	pop	r0
    1a78:	0b be       	out	0x3b, r0	; 59
    1a7a:	0f 90       	pop	r0
    1a7c:	09 be       	out	0x39, r0	; 57
    1a7e:	0f 90       	pop	r0
    1a80:	08 be       	out	0x38, r0	; 56
    1a82:	0f 90       	pop	r0
    1a84:	0f be       	out	0x3f, r0	; 63
    1a86:	0f 90       	pop	r0
    1a88:	1f 90       	pop	r1
    1a8a:	18 95       	reti

00001a8c <__vector_115>:
    1a8c:	1f 92       	push	r1
    1a8e:	0f 92       	push	r0
    1a90:	0f b6       	in	r0, 0x3f	; 63
    1a92:	0f 92       	push	r0
    1a94:	11 24       	eor	r1, r1
    1a96:	08 b6       	in	r0, 0x38	; 56
    1a98:	0f 92       	push	r0
    1a9a:	18 be       	out	0x38, r1	; 56
    1a9c:	09 b6       	in	r0, 0x39	; 57
    1a9e:	0f 92       	push	r0
    1aa0:	19 be       	out	0x39, r1	; 57
    1aa2:	0b b6       	in	r0, 0x3b	; 59
    1aa4:	0f 92       	push	r0
    1aa6:	1b be       	out	0x3b, r1	; 59
    1aa8:	2f 93       	push	r18
    1aaa:	3f 93       	push	r19
    1aac:	4f 93       	push	r20
    1aae:	5f 93       	push	r21
    1ab0:	6f 93       	push	r22
    1ab2:	7f 93       	push	r23
    1ab4:	8f 93       	push	r24
    1ab6:	9f 93       	push	r25
    1ab8:	af 93       	push	r26
    1aba:	bf 93       	push	r27
    1abc:	ef 93       	push	r30
    1abe:	ff 93       	push	r31
    1ac0:	e0 91 6a 20 	lds	r30, 0x206A
    1ac4:	f0 91 6b 20 	lds	r31, 0x206B
    1ac8:	30 97       	sbiw	r30, 0x00	; 0
    1aca:	09 f0       	breq	.+2      	; 0x1ace <__vector_115+0x42>
    1acc:	19 95       	eicall
    1ace:	ff 91       	pop	r31
    1ad0:	ef 91       	pop	r30
    1ad2:	bf 91       	pop	r27
    1ad4:	af 91       	pop	r26
    1ad6:	9f 91       	pop	r25
    1ad8:	8f 91       	pop	r24
    1ada:	7f 91       	pop	r23
    1adc:	6f 91       	pop	r22
    1ade:	5f 91       	pop	r21
    1ae0:	4f 91       	pop	r20
    1ae2:	3f 91       	pop	r19
    1ae4:	2f 91       	pop	r18
    1ae6:	0f 90       	pop	r0
    1ae8:	0b be       	out	0x3b, r0	; 59
    1aea:	0f 90       	pop	r0
    1aec:	09 be       	out	0x39, r0	; 57
    1aee:	0f 90       	pop	r0
    1af0:	08 be       	out	0x38, r0	; 56
    1af2:	0f 90       	pop	r0
    1af4:	0f be       	out	0x3f, r0	; 63
    1af6:	0f 90       	pop	r0
    1af8:	1f 90       	pop	r1
    1afa:	18 95       	reti

00001afc <__vector_116>:
    1afc:	1f 92       	push	r1
    1afe:	0f 92       	push	r0
    1b00:	0f b6       	in	r0, 0x3f	; 63
    1b02:	0f 92       	push	r0
    1b04:	11 24       	eor	r1, r1
    1b06:	08 b6       	in	r0, 0x38	; 56
    1b08:	0f 92       	push	r0
    1b0a:	18 be       	out	0x38, r1	; 56
    1b0c:	09 b6       	in	r0, 0x39	; 57
    1b0e:	0f 92       	push	r0
    1b10:	19 be       	out	0x39, r1	; 57
    1b12:	0b b6       	in	r0, 0x3b	; 59
    1b14:	0f 92       	push	r0
    1b16:	1b be       	out	0x3b, r1	; 59
    1b18:	2f 93       	push	r18
    1b1a:	3f 93       	push	r19
    1b1c:	4f 93       	push	r20
    1b1e:	5f 93       	push	r21
    1b20:	6f 93       	push	r22
    1b22:	7f 93       	push	r23
    1b24:	8f 93       	push	r24
    1b26:	9f 93       	push	r25
    1b28:	af 93       	push	r26
    1b2a:	bf 93       	push	r27
    1b2c:	ef 93       	push	r30
    1b2e:	ff 93       	push	r31
    1b30:	e0 91 68 20 	lds	r30, 0x2068
    1b34:	f0 91 69 20 	lds	r31, 0x2069
    1b38:	30 97       	sbiw	r30, 0x00	; 0
    1b3a:	09 f0       	breq	.+2      	; 0x1b3e <__vector_116+0x42>
    1b3c:	19 95       	eicall
    1b3e:	ff 91       	pop	r31
    1b40:	ef 91       	pop	r30
    1b42:	bf 91       	pop	r27
    1b44:	af 91       	pop	r26
    1b46:	9f 91       	pop	r25
    1b48:	8f 91       	pop	r24
    1b4a:	7f 91       	pop	r23
    1b4c:	6f 91       	pop	r22
    1b4e:	5f 91       	pop	r21
    1b50:	4f 91       	pop	r20
    1b52:	3f 91       	pop	r19
    1b54:	2f 91       	pop	r18
    1b56:	0f 90       	pop	r0
    1b58:	0b be       	out	0x3b, r0	; 59
    1b5a:	0f 90       	pop	r0
    1b5c:	09 be       	out	0x39, r0	; 57
    1b5e:	0f 90       	pop	r0
    1b60:	08 be       	out	0x38, r0	; 56
    1b62:	0f 90       	pop	r0
    1b64:	0f be       	out	0x3f, r0	; 63
    1b66:	0f 90       	pop	r0
    1b68:	1f 90       	pop	r1
    1b6a:	18 95       	reti

00001b6c <__vector_117>:
    1b6c:	1f 92       	push	r1
    1b6e:	0f 92       	push	r0
    1b70:	0f b6       	in	r0, 0x3f	; 63
    1b72:	0f 92       	push	r0
    1b74:	11 24       	eor	r1, r1
    1b76:	08 b6       	in	r0, 0x38	; 56
    1b78:	0f 92       	push	r0
    1b7a:	18 be       	out	0x38, r1	; 56
    1b7c:	09 b6       	in	r0, 0x39	; 57
    1b7e:	0f 92       	push	r0
    1b80:	19 be       	out	0x39, r1	; 57
    1b82:	0b b6       	in	r0, 0x3b	; 59
    1b84:	0f 92       	push	r0
    1b86:	1b be       	out	0x3b, r1	; 59
    1b88:	2f 93       	push	r18
    1b8a:	3f 93       	push	r19
    1b8c:	4f 93       	push	r20
    1b8e:	5f 93       	push	r21
    1b90:	6f 93       	push	r22
    1b92:	7f 93       	push	r23
    1b94:	8f 93       	push	r24
    1b96:	9f 93       	push	r25
    1b98:	af 93       	push	r26
    1b9a:	bf 93       	push	r27
    1b9c:	ef 93       	push	r30
    1b9e:	ff 93       	push	r31
    1ba0:	e0 91 66 20 	lds	r30, 0x2066
    1ba4:	f0 91 67 20 	lds	r31, 0x2067
    1ba8:	30 97       	sbiw	r30, 0x00	; 0
    1baa:	09 f0       	breq	.+2      	; 0x1bae <__vector_117+0x42>
    1bac:	19 95       	eicall
    1bae:	ff 91       	pop	r31
    1bb0:	ef 91       	pop	r30
    1bb2:	bf 91       	pop	r27
    1bb4:	af 91       	pop	r26
    1bb6:	9f 91       	pop	r25
    1bb8:	8f 91       	pop	r24
    1bba:	7f 91       	pop	r23
    1bbc:	6f 91       	pop	r22
    1bbe:	5f 91       	pop	r21
    1bc0:	4f 91       	pop	r20
    1bc2:	3f 91       	pop	r19
    1bc4:	2f 91       	pop	r18
    1bc6:	0f 90       	pop	r0
    1bc8:	0b be       	out	0x3b, r0	; 59
    1bca:	0f 90       	pop	r0
    1bcc:	09 be       	out	0x39, r0	; 57
    1bce:	0f 90       	pop	r0
    1bd0:	08 be       	out	0x38, r0	; 56
    1bd2:	0f 90       	pop	r0
    1bd4:	0f be       	out	0x3f, r0	; 63
    1bd6:	0f 90       	pop	r0
    1bd8:	1f 90       	pop	r1
    1bda:	18 95       	reti

00001bdc <tc_enable>:
    1bdc:	cf 93       	push	r28
    1bde:	cf b7       	in	r28, 0x3f	; 63
    1be0:	f8 94       	cli
    1be2:	28 2f       	mov	r18, r24
    1be4:	39 2f       	mov	r19, r25
    1be6:	21 15       	cp	r18, r1
    1be8:	88 e0       	ldi	r24, 0x08	; 8
    1bea:	38 07       	cpc	r19, r24
    1bec:	59 f4       	brne	.+22     	; 0x1c04 <tc_enable+0x28>
    1bee:	61 e0       	ldi	r22, 0x01	; 1
    1bf0:	83 e0       	ldi	r24, 0x03	; 3
    1bf2:	90 e0       	ldi	r25, 0x00	; 0
    1bf4:	0e 94 f0 03 	call	0x7e0	; 0x7e0 <sysclk_enable_module>
    1bf8:	64 e0       	ldi	r22, 0x04	; 4
    1bfa:	83 e0       	ldi	r24, 0x03	; 3
    1bfc:	90 e0       	ldi	r25, 0x00	; 0
    1bfe:	0e 94 f0 03 	call	0x7e0	; 0x7e0 <sysclk_enable_module>
    1c02:	6a c0       	rjmp	.+212    	; 0x1cd8 <tc_enable+0xfc>
    1c04:	20 34       	cpi	r18, 0x40	; 64
    1c06:	88 e0       	ldi	r24, 0x08	; 8
    1c08:	38 07       	cpc	r19, r24
    1c0a:	59 f4       	brne	.+22     	; 0x1c22 <tc_enable+0x46>
    1c0c:	62 e0       	ldi	r22, 0x02	; 2
    1c0e:	83 e0       	ldi	r24, 0x03	; 3
    1c10:	90 e0       	ldi	r25, 0x00	; 0
    1c12:	0e 94 f0 03 	call	0x7e0	; 0x7e0 <sysclk_enable_module>
    1c16:	64 e0       	ldi	r22, 0x04	; 4
    1c18:	83 e0       	ldi	r24, 0x03	; 3
    1c1a:	90 e0       	ldi	r25, 0x00	; 0
    1c1c:	0e 94 f0 03 	call	0x7e0	; 0x7e0 <sysclk_enable_module>
    1c20:	5b c0       	rjmp	.+182    	; 0x1cd8 <tc_enable+0xfc>
    1c22:	21 15       	cp	r18, r1
    1c24:	89 e0       	ldi	r24, 0x09	; 9
    1c26:	38 07       	cpc	r19, r24
    1c28:	59 f4       	brne	.+22     	; 0x1c40 <tc_enable+0x64>
    1c2a:	61 e0       	ldi	r22, 0x01	; 1
    1c2c:	84 e0       	ldi	r24, 0x04	; 4
    1c2e:	90 e0       	ldi	r25, 0x00	; 0
    1c30:	0e 94 f0 03 	call	0x7e0	; 0x7e0 <sysclk_enable_module>
    1c34:	64 e0       	ldi	r22, 0x04	; 4
    1c36:	84 e0       	ldi	r24, 0x04	; 4
    1c38:	90 e0       	ldi	r25, 0x00	; 0
    1c3a:	0e 94 f0 03 	call	0x7e0	; 0x7e0 <sysclk_enable_module>
    1c3e:	4c c0       	rjmp	.+152    	; 0x1cd8 <tc_enable+0xfc>
    1c40:	20 34       	cpi	r18, 0x40	; 64
    1c42:	89 e0       	ldi	r24, 0x09	; 9
    1c44:	38 07       	cpc	r19, r24
    1c46:	59 f4       	brne	.+22     	; 0x1c5e <tc_enable+0x82>
    1c48:	62 e0       	ldi	r22, 0x02	; 2
    1c4a:	84 e0       	ldi	r24, 0x04	; 4
    1c4c:	90 e0       	ldi	r25, 0x00	; 0
    1c4e:	0e 94 f0 03 	call	0x7e0	; 0x7e0 <sysclk_enable_module>
    1c52:	64 e0       	ldi	r22, 0x04	; 4
    1c54:	84 e0       	ldi	r24, 0x04	; 4
    1c56:	90 e0       	ldi	r25, 0x00	; 0
    1c58:	0e 94 f0 03 	call	0x7e0	; 0x7e0 <sysclk_enable_module>
    1c5c:	3d c0       	rjmp	.+122    	; 0x1cd8 <tc_enable+0xfc>
    1c5e:	21 15       	cp	r18, r1
    1c60:	8a e0       	ldi	r24, 0x0A	; 10
    1c62:	38 07       	cpc	r19, r24
    1c64:	59 f4       	brne	.+22     	; 0x1c7c <tc_enable+0xa0>
    1c66:	61 e0       	ldi	r22, 0x01	; 1
    1c68:	85 e0       	ldi	r24, 0x05	; 5
    1c6a:	90 e0       	ldi	r25, 0x00	; 0
    1c6c:	0e 94 f0 03 	call	0x7e0	; 0x7e0 <sysclk_enable_module>
    1c70:	64 e0       	ldi	r22, 0x04	; 4
    1c72:	85 e0       	ldi	r24, 0x05	; 5
    1c74:	90 e0       	ldi	r25, 0x00	; 0
    1c76:	0e 94 f0 03 	call	0x7e0	; 0x7e0 <sysclk_enable_module>
    1c7a:	2e c0       	rjmp	.+92     	; 0x1cd8 <tc_enable+0xfc>
    1c7c:	20 34       	cpi	r18, 0x40	; 64
    1c7e:	8a e0       	ldi	r24, 0x0A	; 10
    1c80:	38 07       	cpc	r19, r24
    1c82:	59 f4       	brne	.+22     	; 0x1c9a <tc_enable+0xbe>
    1c84:	62 e0       	ldi	r22, 0x02	; 2
    1c86:	85 e0       	ldi	r24, 0x05	; 5
    1c88:	90 e0       	ldi	r25, 0x00	; 0
    1c8a:	0e 94 f0 03 	call	0x7e0	; 0x7e0 <sysclk_enable_module>
    1c8e:	64 e0       	ldi	r22, 0x04	; 4
    1c90:	85 e0       	ldi	r24, 0x05	; 5
    1c92:	90 e0       	ldi	r25, 0x00	; 0
    1c94:	0e 94 f0 03 	call	0x7e0	; 0x7e0 <sysclk_enable_module>
    1c98:	1f c0       	rjmp	.+62     	; 0x1cd8 <tc_enable+0xfc>
    1c9a:	21 15       	cp	r18, r1
    1c9c:	8b e0       	ldi	r24, 0x0B	; 11
    1c9e:	38 07       	cpc	r19, r24
    1ca0:	59 f4       	brne	.+22     	; 0x1cb8 <tc_enable+0xdc>
    1ca2:	61 e0       	ldi	r22, 0x01	; 1
    1ca4:	86 e0       	ldi	r24, 0x06	; 6
    1ca6:	90 e0       	ldi	r25, 0x00	; 0
    1ca8:	0e 94 f0 03 	call	0x7e0	; 0x7e0 <sysclk_enable_module>
    1cac:	64 e0       	ldi	r22, 0x04	; 4
    1cae:	86 e0       	ldi	r24, 0x06	; 6
    1cb0:	90 e0       	ldi	r25, 0x00	; 0
    1cb2:	0e 94 f0 03 	call	0x7e0	; 0x7e0 <sysclk_enable_module>
    1cb6:	10 c0       	rjmp	.+32     	; 0x1cd8 <tc_enable+0xfc>
    1cb8:	20 34       	cpi	r18, 0x40	; 64
    1cba:	3b 40       	sbci	r19, 0x0B	; 11
    1cbc:	59 f4       	brne	.+22     	; 0x1cd4 <tc_enable+0xf8>
    1cbe:	62 e0       	ldi	r22, 0x02	; 2
    1cc0:	86 e0       	ldi	r24, 0x06	; 6
    1cc2:	90 e0       	ldi	r25, 0x00	; 0
    1cc4:	0e 94 f0 03 	call	0x7e0	; 0x7e0 <sysclk_enable_module>
    1cc8:	64 e0       	ldi	r22, 0x04	; 4
    1cca:	86 e0       	ldi	r24, 0x06	; 6
    1ccc:	90 e0       	ldi	r25, 0x00	; 0
    1cce:	0e 94 f0 03 	call	0x7e0	; 0x7e0 <sysclk_enable_module>
    1cd2:	02 c0       	rjmp	.+4      	; 0x1cd8 <tc_enable+0xfc>
    1cd4:	cf bf       	out	0x3f, r28	; 63
    1cd6:	09 c0       	rjmp	.+18     	; 0x1cea <tc_enable+0x10e>
    1cd8:	8f b7       	in	r24, 0x3f	; 63
    1cda:	f8 94       	cli
    1cdc:	e7 ec       	ldi	r30, 0xC7	; 199
    1cde:	f0 e2       	ldi	r31, 0x20	; 32
    1ce0:	90 81       	ld	r25, Z
    1ce2:	9f 5f       	subi	r25, 0xFF	; 255
    1ce4:	90 83       	st	Z, r25
    1ce6:	8f bf       	out	0x3f, r24	; 63
    1ce8:	cf bf       	out	0x3f, r28	; 63
    1cea:	cf 91       	pop	r28
    1cec:	08 95       	ret

00001cee <usart_putchar>:
    1cee:	fc 01       	movw	r30, r24
    1cf0:	81 81       	ldd	r24, Z+1	; 0x01
    1cf2:	85 ff       	sbrs	r24, 5
    1cf4:	fd cf       	rjmp	.-6      	; 0x1cf0 <usart_putchar+0x2>
    1cf6:	60 83       	st	Z, r22
    1cf8:	80 e0       	ldi	r24, 0x00	; 0
    1cfa:	90 e0       	ldi	r25, 0x00	; 0
    1cfc:	08 95       	ret

00001cfe <usart_set_baudrate>:
    1cfe:	4f 92       	push	r4
    1d00:	5f 92       	push	r5
    1d02:	6f 92       	push	r6
    1d04:	7f 92       	push	r7
    1d06:	8f 92       	push	r8
    1d08:	9f 92       	push	r9
    1d0a:	af 92       	push	r10
    1d0c:	bf 92       	push	r11
    1d0e:	cf 92       	push	r12
    1d10:	df 92       	push	r13
    1d12:	ef 92       	push	r14
    1d14:	ff 92       	push	r15
    1d16:	0f 93       	push	r16
    1d18:	1f 93       	push	r17
    1d1a:	cf 93       	push	r28
    1d1c:	df 93       	push	r29
    1d1e:	ec 01       	movw	r28, r24
    1d20:	4a 01       	movw	r8, r20
    1d22:	5b 01       	movw	r10, r22
    1d24:	28 01       	movw	r4, r16
    1d26:	39 01       	movw	r6, r18
    1d28:	d9 01       	movw	r26, r18
    1d2a:	c8 01       	movw	r24, r16
    1d2c:	68 94       	set
    1d2e:	12 f8       	bld	r1, 2
    1d30:	b6 95       	lsr	r27
    1d32:	a7 95       	ror	r26
    1d34:	97 95       	ror	r25
    1d36:	87 95       	ror	r24
    1d38:	16 94       	lsr	r1
    1d3a:	d1 f7       	brne	.-12     	; 0x1d30 <usart_set_baudrate+0x32>
    1d3c:	b9 01       	movw	r22, r18
    1d3e:	a8 01       	movw	r20, r16
    1d40:	03 2e       	mov	r0, r19
    1d42:	36 e1       	ldi	r19, 0x16	; 22
    1d44:	76 95       	lsr	r23
    1d46:	67 95       	ror	r22
    1d48:	57 95       	ror	r21
    1d4a:	47 95       	ror	r20
    1d4c:	3a 95       	dec	r19
    1d4e:	d1 f7       	brne	.-12     	; 0x1d44 <usart_set_baudrate+0x46>
    1d50:	30 2d       	mov	r19, r0
    1d52:	2c 81       	ldd	r18, Y+4	; 0x04
    1d54:	22 fd       	sbrc	r18, 2
    1d56:	08 c0       	rjmp	.+16     	; 0x1d68 <usart_set_baudrate+0x6a>
    1d58:	b6 95       	lsr	r27
    1d5a:	a7 95       	ror	r26
    1d5c:	97 95       	ror	r25
    1d5e:	87 95       	ror	r24
    1d60:	76 95       	lsr	r23
    1d62:	67 95       	ror	r22
    1d64:	57 95       	ror	r21
    1d66:	47 95       	ror	r20
    1d68:	88 15       	cp	r24, r8
    1d6a:	99 05       	cpc	r25, r9
    1d6c:	aa 05       	cpc	r26, r10
    1d6e:	bb 05       	cpc	r27, r11
    1d70:	08 f4       	brcc	.+2      	; 0x1d74 <usart_set_baudrate+0x76>
    1d72:	a6 c0       	rjmp	.+332    	; 0x1ec0 <usart_set_baudrate+0x1c2>
    1d74:	84 16       	cp	r8, r20
    1d76:	95 06       	cpc	r9, r21
    1d78:	a6 06       	cpc	r10, r22
    1d7a:	b7 06       	cpc	r11, r23
    1d7c:	08 f4       	brcc	.+2      	; 0x1d80 <usart_set_baudrate+0x82>
    1d7e:	a2 c0       	rjmp	.+324    	; 0x1ec4 <usart_set_baudrate+0x1c6>
    1d80:	8c 81       	ldd	r24, Y+4	; 0x04
    1d82:	82 fd       	sbrc	r24, 2
    1d84:	04 c0       	rjmp	.+8      	; 0x1d8e <usart_set_baudrate+0x90>
    1d86:	88 0c       	add	r8, r8
    1d88:	99 1c       	adc	r9, r9
    1d8a:	aa 1c       	adc	r10, r10
    1d8c:	bb 1c       	adc	r11, r11
    1d8e:	c3 01       	movw	r24, r6
    1d90:	b2 01       	movw	r22, r4
    1d92:	a5 01       	movw	r20, r10
    1d94:	94 01       	movw	r18, r8
    1d96:	0e 94 2c 24 	call	0x4858	; 0x4858 <__udivmodsi4>
    1d9a:	2f 3f       	cpi	r18, 0xFF	; 255
    1d9c:	31 05       	cpc	r19, r1
    1d9e:	41 05       	cpc	r20, r1
    1da0:	51 05       	cpc	r21, r1
    1da2:	08 f4       	brcc	.+2      	; 0x1da6 <usart_set_baudrate+0xa8>
    1da4:	91 c0       	rjmp	.+290    	; 0x1ec8 <usart_set_baudrate+0x1ca>
    1da6:	c1 2c       	mov	r12, r1
    1da8:	d1 2c       	mov	r13, r1
    1daa:	76 01       	movw	r14, r12
    1dac:	ca 94       	dec	r12
    1dae:	19 ef       	ldi	r17, 0xF9	; 249
    1db0:	05 c0       	rjmp	.+10     	; 0x1dbc <usart_set_baudrate+0xbe>
    1db2:	2c 15       	cp	r18, r12
    1db4:	3d 05       	cpc	r19, r13
    1db6:	4e 05       	cpc	r20, r14
    1db8:	5f 05       	cpc	r21, r15
    1dba:	68 f0       	brcs	.+26     	; 0x1dd6 <usart_set_baudrate+0xd8>
    1dbc:	cc 0c       	add	r12, r12
    1dbe:	dd 1c       	adc	r13, r13
    1dc0:	ee 1c       	adc	r14, r14
    1dc2:	ff 1c       	adc	r15, r15
    1dc4:	1d 3f       	cpi	r17, 0xFD	; 253
    1dc6:	14 f4       	brge	.+4      	; 0x1dcc <usart_set_baudrate+0xce>
    1dc8:	68 94       	set
    1dca:	c0 f8       	bld	r12, 0
    1dcc:	1f 5f       	subi	r17, 0xFF	; 255
    1dce:	17 30       	cpi	r17, 0x07	; 7
    1dd0:	81 f7       	brne	.-32     	; 0x1db2 <usart_set_baudrate+0xb4>
    1dd2:	21 2f       	mov	r18, r17
    1dd4:	50 c0       	rjmp	.+160    	; 0x1e76 <usart_set_baudrate+0x178>
    1dd6:	21 2f       	mov	r18, r17
    1dd8:	11 23       	and	r17, r17
    1dda:	0c f0       	brlt	.+2      	; 0x1dde <usart_set_baudrate+0xe0>
    1ddc:	4c c0       	rjmp	.+152    	; 0x1e76 <usart_set_baudrate+0x178>
    1dde:	d5 01       	movw	r26, r10
    1de0:	c4 01       	movw	r24, r8
    1de2:	88 0f       	add	r24, r24
    1de4:	99 1f       	adc	r25, r25
    1de6:	aa 1f       	adc	r26, r26
    1de8:	bb 1f       	adc	r27, r27
    1dea:	88 0f       	add	r24, r24
    1dec:	99 1f       	adc	r25, r25
    1dee:	aa 1f       	adc	r26, r26
    1df0:	bb 1f       	adc	r27, r27
    1df2:	88 0f       	add	r24, r24
    1df4:	99 1f       	adc	r25, r25
    1df6:	aa 1f       	adc	r26, r26
    1df8:	bb 1f       	adc	r27, r27
    1dfa:	48 1a       	sub	r4, r24
    1dfc:	59 0a       	sbc	r5, r25
    1dfe:	6a 0a       	sbc	r6, r26
    1e00:	7b 0a       	sbc	r7, r27
    1e02:	1e 3f       	cpi	r17, 0xFE	; 254
    1e04:	f4 f4       	brge	.+60     	; 0x1e42 <usart_set_baudrate+0x144>
    1e06:	6d ef       	ldi	r22, 0xFD	; 253
    1e08:	7f ef       	ldi	r23, 0xFF	; 255
    1e0a:	61 1b       	sub	r22, r17
    1e0c:	71 09       	sbc	r23, r1
    1e0e:	17 fd       	sbrc	r17, 7
    1e10:	73 95       	inc	r23
    1e12:	04 c0       	rjmp	.+8      	; 0x1e1c <usart_set_baudrate+0x11e>
    1e14:	44 0c       	add	r4, r4
    1e16:	55 1c       	adc	r5, r5
    1e18:	66 1c       	adc	r6, r6
    1e1a:	77 1c       	adc	r7, r7
    1e1c:	6a 95       	dec	r22
    1e1e:	d2 f7       	brpl	.-12     	; 0x1e14 <usart_set_baudrate+0x116>
    1e20:	d5 01       	movw	r26, r10
    1e22:	c4 01       	movw	r24, r8
    1e24:	b6 95       	lsr	r27
    1e26:	a7 95       	ror	r26
    1e28:	97 95       	ror	r25
    1e2a:	87 95       	ror	r24
    1e2c:	bc 01       	movw	r22, r24
    1e2e:	cd 01       	movw	r24, r26
    1e30:	64 0d       	add	r22, r4
    1e32:	75 1d       	adc	r23, r5
    1e34:	86 1d       	adc	r24, r6
    1e36:	97 1d       	adc	r25, r7
    1e38:	a5 01       	movw	r20, r10
    1e3a:	94 01       	movw	r18, r8
    1e3c:	0e 94 2c 24 	call	0x4858	; 0x4858 <__udivmodsi4>
    1e40:	36 c0       	rjmp	.+108    	; 0x1eae <usart_set_baudrate+0x1b0>
    1e42:	23 e0       	ldi	r18, 0x03	; 3
    1e44:	21 0f       	add	r18, r17
    1e46:	d5 01       	movw	r26, r10
    1e48:	c4 01       	movw	r24, r8
    1e4a:	04 c0       	rjmp	.+8      	; 0x1e54 <usart_set_baudrate+0x156>
    1e4c:	88 0f       	add	r24, r24
    1e4e:	99 1f       	adc	r25, r25
    1e50:	aa 1f       	adc	r26, r26
    1e52:	bb 1f       	adc	r27, r27
    1e54:	2a 95       	dec	r18
    1e56:	d2 f7       	brpl	.-12     	; 0x1e4c <usart_set_baudrate+0x14e>
    1e58:	9c 01       	movw	r18, r24
    1e5a:	ad 01       	movw	r20, r26
    1e5c:	b6 95       	lsr	r27
    1e5e:	a7 95       	ror	r26
    1e60:	97 95       	ror	r25
    1e62:	87 95       	ror	r24
    1e64:	bc 01       	movw	r22, r24
    1e66:	cd 01       	movw	r24, r26
    1e68:	64 0d       	add	r22, r4
    1e6a:	75 1d       	adc	r23, r5
    1e6c:	86 1d       	adc	r24, r6
    1e6e:	97 1d       	adc	r25, r7
    1e70:	0e 94 2c 24 	call	0x4858	; 0x4858 <__udivmodsi4>
    1e74:	1c c0       	rjmp	.+56     	; 0x1eae <usart_set_baudrate+0x1b0>
    1e76:	2d 5f       	subi	r18, 0xFD	; 253
    1e78:	d5 01       	movw	r26, r10
    1e7a:	c4 01       	movw	r24, r8
    1e7c:	04 c0       	rjmp	.+8      	; 0x1e86 <usart_set_baudrate+0x188>
    1e7e:	88 0f       	add	r24, r24
    1e80:	99 1f       	adc	r25, r25
    1e82:	aa 1f       	adc	r26, r26
    1e84:	bb 1f       	adc	r27, r27
    1e86:	2a 95       	dec	r18
    1e88:	d2 f7       	brpl	.-12     	; 0x1e7e <usart_set_baudrate+0x180>
    1e8a:	9c 01       	movw	r18, r24
    1e8c:	ad 01       	movw	r20, r26
    1e8e:	b6 95       	lsr	r27
    1e90:	a7 95       	ror	r26
    1e92:	97 95       	ror	r25
    1e94:	87 95       	ror	r24
    1e96:	bc 01       	movw	r22, r24
    1e98:	cd 01       	movw	r24, r26
    1e9a:	64 0d       	add	r22, r4
    1e9c:	75 1d       	adc	r23, r5
    1e9e:	86 1d       	adc	r24, r6
    1ea0:	97 1d       	adc	r25, r7
    1ea2:	0e 94 2c 24 	call	0x4858	; 0x4858 <__udivmodsi4>
    1ea6:	21 50       	subi	r18, 0x01	; 1
    1ea8:	31 09       	sbc	r19, r1
    1eaa:	41 09       	sbc	r20, r1
    1eac:	51 09       	sbc	r21, r1
    1eae:	83 2f       	mov	r24, r19
    1eb0:	8f 70       	andi	r24, 0x0F	; 15
    1eb2:	12 95       	swap	r17
    1eb4:	10 7f       	andi	r17, 0xF0	; 240
    1eb6:	18 2b       	or	r17, r24
    1eb8:	1f 83       	std	Y+7, r17	; 0x07
    1eba:	2e 83       	std	Y+6, r18	; 0x06
    1ebc:	81 e0       	ldi	r24, 0x01	; 1
    1ebe:	18 c0       	rjmp	.+48     	; 0x1ef0 <usart_set_baudrate+0x1f2>
    1ec0:	80 e0       	ldi	r24, 0x00	; 0
    1ec2:	16 c0       	rjmp	.+44     	; 0x1ef0 <usart_set_baudrate+0x1f2>
    1ec4:	80 e0       	ldi	r24, 0x00	; 0
    1ec6:	14 c0       	rjmp	.+40     	; 0x1ef0 <usart_set_baudrate+0x1f2>
    1ec8:	d5 01       	movw	r26, r10
    1eca:	c4 01       	movw	r24, r8
    1ecc:	88 0f       	add	r24, r24
    1ece:	99 1f       	adc	r25, r25
    1ed0:	aa 1f       	adc	r26, r26
    1ed2:	bb 1f       	adc	r27, r27
    1ed4:	88 0f       	add	r24, r24
    1ed6:	99 1f       	adc	r25, r25
    1ed8:	aa 1f       	adc	r26, r26
    1eda:	bb 1f       	adc	r27, r27
    1edc:	88 0f       	add	r24, r24
    1ede:	99 1f       	adc	r25, r25
    1ee0:	aa 1f       	adc	r26, r26
    1ee2:	bb 1f       	adc	r27, r27
    1ee4:	48 1a       	sub	r4, r24
    1ee6:	59 0a       	sbc	r5, r25
    1ee8:	6a 0a       	sbc	r6, r26
    1eea:	7b 0a       	sbc	r7, r27
    1eec:	19 ef       	ldi	r17, 0xF9	; 249
    1eee:	8b cf       	rjmp	.-234    	; 0x1e06 <usart_set_baudrate+0x108>
    1ef0:	df 91       	pop	r29
    1ef2:	cf 91       	pop	r28
    1ef4:	1f 91       	pop	r17
    1ef6:	0f 91       	pop	r16
    1ef8:	ff 90       	pop	r15
    1efa:	ef 90       	pop	r14
    1efc:	df 90       	pop	r13
    1efe:	cf 90       	pop	r12
    1f00:	bf 90       	pop	r11
    1f02:	af 90       	pop	r10
    1f04:	9f 90       	pop	r9
    1f06:	8f 90       	pop	r8
    1f08:	7f 90       	pop	r7
    1f0a:	6f 90       	pop	r6
    1f0c:	5f 90       	pop	r5
    1f0e:	4f 90       	pop	r4
    1f10:	08 95       	ret

00001f12 <wdt_reset_mcu>:
    1f12:	63 e0       	ldi	r22, 0x03	; 3
    1f14:	80 e8       	ldi	r24, 0x80	; 128
    1f16:	90 e0       	ldi	r25, 0x00	; 0
    1f18:	0e 94 0e 05 	call	0xa1c	; 0xa1c <ccp_write_io>
    1f1c:	e0 e8       	ldi	r30, 0x80	; 128
    1f1e:	f0 e0       	ldi	r31, 0x00	; 0
    1f20:	82 81       	ldd	r24, Z+2	; 0x02
    1f22:	80 fd       	sbrc	r24, 0
    1f24:	fd cf       	rjmp	.-6      	; 0x1f20 <wdt_reset_mcu+0xe>
    1f26:	6b e2       	ldi	r22, 0x2B	; 43
    1f28:	81 e8       	ldi	r24, 0x81	; 129
    1f2a:	90 e0       	ldi	r25, 0x00	; 0
    1f2c:	0e 94 0e 05 	call	0xa1c	; 0xa1c <ccp_write_io>
    1f30:	e0 e8       	ldi	r30, 0x80	; 128
    1f32:	f0 e0       	ldi	r31, 0x00	; 0
    1f34:	82 81       	ldd	r24, Z+2	; 0x02
    1f36:	80 fd       	sbrc	r24, 0
    1f38:	fd cf       	rjmp	.-6      	; 0x1f34 <wdt_reset_mcu+0x22>
    1f3a:	a8 95       	wdr
    1f3c:	ff cf       	rjmp	.-2      	; 0x1f3c <wdt_reset_mcu+0x2a>

00001f3e <En_RC32M>:
//Motor_Param M0,M1,M2,M3;

void En_RC32M(void)
{
    // Start RC32M OSC
    OSC_CTRL |= OSC_RC32MEN_bm;
    1f3e:	e0 e5       	ldi	r30, 0x50	; 80
    1f40:	f0 e0       	ldi	r31, 0x00	; 0
    1f42:	80 81       	ld	r24, Z
    1f44:	82 60       	ori	r24, 0x02	; 2
    1f46:	80 83       	st	Z, r24
    while(!(OSC_STATUS & OSC_RC32MRDY_bm));
    1f48:	e1 e5       	ldi	r30, 0x51	; 81
    1f4a:	f0 e0       	ldi	r31, 0x00	; 0
    1f4c:	80 81       	ld	r24, Z
    1f4e:	81 ff       	sbrs	r24, 1
    1f50:	fd cf       	rjmp	.-6      	; 0x1f4c <En_RC32M+0xe>

    // Select the system clock source: 32 MHz Internal RC Osc.
    CCP = CCP_IOREG_gc;
    1f52:	88 ed       	ldi	r24, 0xD8	; 216
    1f54:	84 bf       	out	0x34, r24	; 52
    CLK_CTRL = CLK_SCLKSEL_RC32M_gc;
    1f56:	81 e0       	ldi	r24, 0x01	; 1
    1f58:	80 93 40 00 	sts	0x0040, r24

    // Disable the unused oscillators: 2 MHz, internal 32 kHz, external clock/crystal oscillator, PLL
    OSC_CTRL &= ~(OSC_RC2MEN_bm | OSC_RC32KEN_bm | OSC_XOSCEN_bm | OSC_PLLEN_bm);
    1f5c:	e0 e5       	ldi	r30, 0x50	; 80
    1f5e:	f0 e0       	ldi	r31, 0x00	; 0
    1f60:	80 81       	ld	r24, Z
    1f62:	82 7e       	andi	r24, 0xE2	; 226
    1f64:	80 83       	st	Z, r24
    1f66:	08 95       	ret

00001f68 <PORT_init>:
};

void PORT_init(void)
{
	
	PORTB_DIRSET = KCK_Charge_PIN_bm;
    1f68:	80 e4       	ldi	r24, 0x40	; 64
    1f6a:	80 93 21 06 	sts	0x0621, r24
	PORTC_DIRSET = KCK_Chip_PIN_bm | KCK_DIR_PIN_bm | Buzzer_PIN_bm | PIN2_bm;
    1f6e:	87 e4       	ldi	r24, 0x47	; 71
    1f70:	80 93 41 06 	sts	0x0641, r24
	
	//PORTC_PIN3CTRL=PORT_ISC_BOTHEDGES_gc;			**encoder int deactivated**
	//PORTC_INTCTRL = PORT_INT0LVL_LO_gc;
	//PORTC_INT0MASK = PIN3_bm;
	
	PORTD_DIRSET = Gyro_SCL_PIN_bm | LED_White_PIN_bm | LED_Red_PIN_bm | LED_Green_PIN_bm;  //SDA TWI tuye pin ctrl tanzimat mikhad?!
    1f74:	8e e2       	ldi	r24, 0x2E	; 46
    1f76:	80 93 61 06 	sts	0x0661, r24
	//PORTD_PIN2CTRL = PORT_ISC_RISING_gc;  PORTD_PIN3CTRL= PORT_ISC_RISING_gc;  //KCK Sens1 , 2
	//PORTD_INTCTRL = PORT_INT0LVL_LO_gc;
	//PORTD_INT0MASK = KCK_Sens1_PIN_bm | KCK_Sens2_PIN_bm;
		
	
	PORTE_DIRSET = NRF24L01_L_CE_LINE | NRF24L01_L_CS_LINE | NRF24L01_L_MOSI_LINE | NRF24L01_L_SCK_LINE |PIN3_bm; // wireless module & programmer data
    1f7a:	8a eb       	ldi	r24, 0xBA	; 186
    1f7c:	80 93 81 06 	sts	0x0681, r24
	PORTE_PIN0CTRL |= PORT_ISC_FALLING_gc;
    1f80:	e0 e9       	ldi	r30, 0x90	; 144
    1f82:	f6 e0       	ldi	r31, 0x06	; 6
    1f84:	80 81       	ld	r24, Z
    1f86:	82 60       	ori	r24, 0x02	; 2
    1f88:	80 83       	st	Z, r24
	PORTE_INTCTRL |= PORT_INT0LVL_LO_gc;
    1f8a:	e9 e8       	ldi	r30, 0x89	; 137
    1f8c:	f6 e0       	ldi	r31, 0x06	; 6
    1f8e:	80 81       	ld	r24, Z
    1f90:	81 60       	ori	r24, 0x01	; 1
    1f92:	80 83       	st	Z, r24
	PORTE_INT0MASK |= PIN0_bm;
    1f94:	ea e8       	ldi	r30, 0x8A	; 138
    1f96:	f6 e0       	ldi	r31, 0x06	; 6
    1f98:	80 81       	ld	r24, Z
    1f9a:	81 60       	ori	r24, 0x01	; 1
    1f9c:	80 83       	st	Z, r24
	//PORTF_PIN4CTRL = PORT_ISC_BOTHEDGES_gc;
	//PORTF_PIN5CTRL = PORT_ISC_BOTHEDGES_gc;
	//PORTF_PIN6CTRL = PORT_ISC_BOTHEDGES_gc;
	//PORTF_INTCTRL |= PORT_INT0LVL_LO_gc;
	//PORTF_INT0MASK = Menu_Cancel_PIN_bm | Menu_PIN3_bm | Menu_PIN2_bm | Menu_PIN1_bm | Menu_PIN0_bm;
	PORTF_INT0MASK = Menu_Cancel_PIN_bm;
    1f9e:	80 e1       	ldi	r24, 0x10	; 16
    1fa0:	80 93 aa 06 	sts	0x06AA, r24
   
   PORTF_DIRSET = PIN3_bm|PIN7_bm ;
    1fa4:	88 e8       	ldi	r24, 0x88	; 136
    1fa6:	80 93 a1 06 	sts	0x06A1, r24
   PORTF_OUTSET = PIN3_bm|PIN7_bm;
    1faa:	80 93 a5 06 	sts	0x06A5, r24
   
   PORTK_DIR = 0xFF;//SegR
    1fae:	8f ef       	ldi	r24, 0xFF	; 255
    1fb0:	80 93 20 07 	sts	0x0720, r24
   PORTJ_DIR = 0xFF;//SegL
    1fb4:	80 93 00 07 	sts	0x0700, r24
   //PORTQ_PIN3CTRL = PORT_ISC_BOTHEDGES_gc;
   //PORTQ_INTCTRL  = PORT_INT0LVL_LO_gc|PORT_INT1LVL_LO_gc;
   //PORTQ_INT0MASK = PIN0_bm;
   //PORTQ_INT1MASK = PIN3_bm;
   
  PORTH_PIN5CTRL = PORT_ISC_BOTHEDGES_gc;
    1fb8:	10 92 f5 06 	sts	0x06F5, r1
  PORTH_PIN7CTRL = PORT_ISC_RISING_gc;
    1fbc:	81 e0       	ldi	r24, 0x01	; 1
    1fbe:	80 93 f7 06 	sts	0x06F7, r24
  PORTH_INTCTRL  = PORT_INT0LVL_LO_gc|PORT_INT1LVL_LO_gc;
    1fc2:	85 e0       	ldi	r24, 0x05	; 5
    1fc4:	80 93 e9 06 	sts	0x06E9, r24
  //PORTH_INT0MASK = PIN5_bm;											**encoder int deactivated**
  PORTH_INT1MASK = Menu_PIN3_bm | Menu_PIN2_bm | Menu_PIN1_bm | Menu_PIN0_bm | Menu_Set_PIN_bm ;
    1fc8:	8f e8       	ldi	r24, 0x8F	; 143
    1fca:	80 93 eb 06 	sts	0x06EB, r24
    1fce:	08 95       	ret

00001fd0 <TimerC0_init>:
 */
static inline void tc_write_clock_source(volatile void *tc,
		TC_CLKSEL_t TC_CLKSEL_enum)
{
	((TC0_t *)tc)->CTRLA =
			(((TC0_t *)tc)->CTRLA & ~TC0_CLKSEL_gm) |
    1fd0:	e0 e0       	ldi	r30, 0x00	; 0
    1fd2:	f8 e0       	ldi	r31, 0x08	; 8
    1fd4:	80 81       	ld	r24, Z
 * \note Configuring the clock starts alos the timer
 */
static inline void tc_write_clock_source(volatile void *tc,
		TC_CLKSEL_t TC_CLKSEL_enum)
{
	((TC0_t *)tc)->CTRLA =
    1fd6:	80 7f       	andi	r24, 0xF0	; 240
    1fd8:	86 60       	ori	r24, 0x06	; 6
    1fda:	80 83       	st	Z, r24
 * \param tc Pointer to TC module.
 * \param wgm : waveform generator
 */
static inline void tc_set_wgm(volatile void *tc, enum tc_wg_mode_t wgm)
{
	((TC0_t *)tc)->CTRLB = (((TC0_t *)tc)->CTRLB & ~TC0_WGMODE_gm) | wgm;
    1fdc:	81 81       	ldd	r24, Z+1	; 0x01
    1fde:	88 7f       	andi	r24, 0xF8	; 248
    1fe0:	83 60       	ori	r24, 0x03	; 3
    1fe2:	81 83       	std	Z+1, r24	; 0x01
 * \param tc Pointer to TC module.
 * \param per_value Period value : PER
 */
static inline void tc_write_period(volatile void *tc, uint16_t per_value)
{
	((TC0_t *)tc)->PER = per_value;
    1fe4:	8f ef       	ldi	r24, 0xFF	; 255
    1fe6:	90 e0       	ldi	r25, 0x00	; 0
    1fe8:	86 a3       	std	Z+38, r24	; 0x26
    1fea:	97 a3       	std	Z+39, r25	; 0x27
 * \param dir Timer direction :
 */
static inline void tc_set_direction(volatile void *tc, enum tc_dir_t dir)
{
	if (dir == TC_UP) {
		((TC0_t *)tc)->CTRLFCLR |= ~TC0_DIR_bm;
    1fec:	80 85       	ldd	r24, Z+8	; 0x08
    1fee:	8e 6f       	ori	r24, 0xFE	; 254
    1ff0:	80 87       	std	Z+8, r24	; 0x08
 */
static inline void tc_enable_cc_channels(volatile void *tc,
		enum tc_cc_channel_mask_enable_t enablemask)
{
	if (tc_is_tc0(void *tc)) {
		((TC0_t *)tc)->CTRLB |= enablemask;
    1ff2:	81 81       	ldd	r24, Z+1	; 0x01
    1ff4:	80 61       	ori	r24, 0x10	; 16
    1ff6:	81 83       	std	Z+1, r24	; 0x01
    1ff8:	81 81       	ldd	r24, Z+1	; 0x01
    1ffa:	80 62       	ori	r24, 0x20	; 32
    1ffc:	81 83       	std	Z+1, r24	; 0x01
	tc_set_wgm(&TCC0,TC_WG_SS);
	tc_write_period(&TCC0,0x00FF);
	tc_set_direction(&TCC0,TC_UP);
	tc_enable_cc_channels(&TCC0,TC_CCAEN);
	tc_enable_cc_channels(&TCC0,TC_CCBEN);
	tc_enable(&TCC0);
    1ffe:	80 e0       	ldi	r24, 0x00	; 0
    2000:	98 e0       	ldi	r25, 0x08	; 8
    2002:	ec cd       	rjmp	.-1064   	; 0x1bdc <tc_enable>
    2004:	08 95       	ret

00002006 <TimerD0_init>:
 */
static inline void tc_write_clock_source(volatile void *tc,
		TC_CLKSEL_t TC_CLKSEL_enum)
{
	((TC0_t *)tc)->CTRLA =
			(((TC0_t *)tc)->CTRLA & ~TC0_CLKSEL_gm) |
    2006:	e0 e0       	ldi	r30, 0x00	; 0
    2008:	f9 e0       	ldi	r31, 0x09	; 9
    200a:	80 81       	ld	r24, Z
 * \note Configuring the clock starts alos the timer
 */
static inline void tc_write_clock_source(volatile void *tc,
		TC_CLKSEL_t TC_CLKSEL_enum)
{
	((TC0_t *)tc)->CTRLA =
    200c:	80 7f       	andi	r24, 0xF0	; 240
    200e:	86 60       	ori	r24, 0x06	; 6
    2010:	80 83       	st	Z, r24
 * \param tc Pointer to TC module.
 * \param wgm : waveform generator
 */
static inline void tc_set_wgm(volatile void *tc, enum tc_wg_mode_t wgm)
{
	((TC0_t *)tc)->CTRLB = (((TC0_t *)tc)->CTRLB & ~TC0_WGMODE_gm) | wgm;
    2012:	81 81       	ldd	r24, Z+1	; 0x01
    2014:	88 7f       	andi	r24, 0xF8	; 248
    2016:	81 83       	std	Z+1, r24	; 0x01
 * \note  Configures OVFINTLVL in INTCTRLA
 */
static inline void tc_set_overflow_interrupt_level(volatile void *tc,
		enum TC_INT_LEVEL_t level)
{
	((TC0_t *)tc)->INTCTRLA = ((TC0_t *)tc)->INTCTRLA & ~TC0_OVFINTLVL_gm;
    2018:	86 81       	ldd	r24, Z+6	; 0x06
    201a:	8c 7f       	andi	r24, 0xFC	; 252
    201c:	86 83       	std	Z+6, r24	; 0x06
	((TC0_t *)tc)->INTCTRLA =
			((TC0_t *)tc)->INTCTRLA | (level << TC0_OVFINTLVL_gp);
    201e:	86 81       	ldd	r24, Z+6	; 0x06
 */
static inline void tc_set_overflow_interrupt_level(volatile void *tc,
		enum TC_INT_LEVEL_t level)
{
	((TC0_t *)tc)->INTCTRLA = ((TC0_t *)tc)->INTCTRLA & ~TC0_OVFINTLVL_gm;
	((TC0_t *)tc)->INTCTRLA =
    2020:	82 60       	ori	r24, 0x02	; 2
    2022:	86 83       	std	Z+6, r24	; 0x06
 * \param tc Pointer to TC module.
 * \param per_value Period value : PER
 */
static inline void tc_write_period(volatile void *tc, uint16_t per_value)
{
	((TC0_t *)tc)->PER = per_value;
    2024:	8d e7       	ldi	r24, 0x7D	; 125
    2026:	90 e0       	ldi	r25, 0x00	; 0
    2028:	86 a3       	std	Z+38, r24	; 0x26
    202a:	97 a3       	std	Z+39, r25	; 0x27
 * \param dir Timer direction :
 */
static inline void tc_set_direction(volatile void *tc, enum tc_dir_t dir)
{
	if (dir == TC_UP) {
		((TC0_t *)tc)->CTRLFCLR |= ~TC0_DIR_bm;
    202c:	80 85       	ldd	r24, Z+8	; 0x08
    202e:	8e 6f       	ori	r24, 0xFE	; 254
    2030:	80 87       	std	Z+8, r24	; 0x08
	tc_write_clock_source(&TCD0,TC_CLKSEL_DIV256_gc);
	tc_set_wgm(&TCD0,TC_WG_NORMAL);
	tc_set_overflow_interrupt_level(&TCD0,TC_INT_LVL_MED);
	tc_write_period(&TCD0,TIMERD0_PER);
	tc_set_direction(&TCD0,TC_UP);
	tc_enable(&TCD0);
    2032:	80 e0       	ldi	r24, 0x00	; 0
    2034:	99 e0       	ldi	r25, 0x09	; 9
    2036:	d2 cd       	rjmp	.-1116   	; 0x1bdc <tc_enable>
    2038:	08 95       	ret

0000203a <SPI_Init>:
};

void SPI_Init(void)
{
    203a:	0f 93       	push	r16
    203c:	1f 93       	push	r17
	 spi_xmega_set_baud_div(&NRF24L01_L_SPI,8000000UL,F_CPU);
    203e:	00 e0       	ldi	r16, 0x00	; 0
    2040:	18 e4       	ldi	r17, 0x48	; 72
    2042:	28 ee       	ldi	r18, 0xE8	; 232
    2044:	31 e0       	ldi	r19, 0x01	; 1
    2046:	40 e0       	ldi	r20, 0x00	; 0
    2048:	52 e1       	ldi	r21, 0x12	; 18
    204a:	6a e7       	ldi	r22, 0x7A	; 122
    204c:	70 e0       	ldi	r23, 0x00	; 0
    204e:	80 ec       	ldi	r24, 0xC0	; 192
    2050:	9a e0       	ldi	r25, 0x0A	; 10
    2052:	0e 94 1e 05 	call	0xa3c	; 0xa3c <spi_xmega_set_baud_div>
 *
 * \warning This may cause data loss if used on a slave SPI.
 */
static inline void spi_enable_master_mode(SPI_t *spi)
{
	spi->CTRL |= SPI_MASTER_bm;
    2056:	e0 ec       	ldi	r30, 0xC0	; 192
    2058:	fa e0       	ldi	r31, 0x0A	; 10
    205a:	80 81       	ld	r24, Z
    205c:	80 61       	ori	r24, 0x10	; 16
    205e:	80 83       	st	Z, r24
 *
 * \param spi Base address of the SPI instance.
 */
static inline void spi_enable(SPI_t *spi)
{
	spi->CTRL |= SPI_ENABLE_bm;
    2060:	80 81       	ld	r24, Z
    2062:	80 64       	ori	r24, 0x40	; 64
    2064:	80 83       	st	Z, r24
	 spi_enable_master_mode(&NRF24L01_L_SPI);
	 spi_enable(&NRF24L01_L_SPI);
}
    2066:	1f 91       	pop	r17
    2068:	0f 91       	pop	r16
    206a:	08 95       	ret

0000206c <USARTE0_init>:

#define USARTE0_conf USARTE0
#define USARTE0_BUADRATE 9600
void USARTE0_init(void)
{
    206c:	0f 93       	push	r16
    206e:	1f 93       	push	r17
    2070:	cf 93       	push	r28
    2072:	df 93       	push	r29
 * - 0x2        : IrDA mode.
 * - 0x3        : Master SPI mode.
 */
static inline void usart_set_mode(USART_t *usart, USART_CMODE_t usartmode)
{
	(usart)->CTRLC = ((usart)->CTRLC & (~USART_CMODE_gm)) | usartmode;
    2074:	c0 ea       	ldi	r28, 0xA0	; 160
    2076:	da e0       	ldi	r29, 0x0A	; 10
    2078:	8d 81       	ldd	r24, Y+5	; 0x05
    207a:	8f 73       	andi	r24, 0x3F	; 63
    207c:	8d 83       	std	Y+5, r24	; 0x05
 *  \param twoStopBits Enable two stop bit mode. Use bool type.
 */
static inline void usart_format_set(USART_t *usart, USART_CHSIZE_t charSize,
		USART_PMODE_t parityMode, bool twoStopBits)
{
	(usart)->CTRLC = (uint8_t)charSize | parityMode
    207e:	83 e0       	ldi	r24, 0x03	; 3
    2080:	8d 83       	std	Y+5, r24	; 0x05
 * \param level Interrupt level of the RXD interrupt.
 */
static inline void usart_set_rx_interrupt_level(USART_t *usart,
		enum usart_int_level_t level)
{
	(usart)->CTRLA = ((usart)->CTRLA & ~USART_RXCINTLVL_gm) |
    2082:	8b 81       	ldd	r24, Y+3	; 0x03
    2084:	8f 7c       	andi	r24, 0xCF	; 207
    2086:	80 62       	ori	r24, 0x20	; 32
    2088:	8b 83       	std	Y+3, r24	; 0x03
	usart_set_mode(&USARTE0_conf,USART_CMODE_ASYNCHRONOUS_gc);
	usart_format_set(&USARTE0_conf,USART_CHSIZE_8BIT_gc,USART_PMODE_DISABLED_gc,false);
	usart_set_rx_interrupt_level(&USARTE0_conf,USART_INT_LVL_MED);
	//usart_set_dre_interrupt_level(&USARTE0_conf,USART_INT_LVL_LO);
	usart_set_baudrate(&USARTE0_conf,USARTE0_BUADRATE,F_CPU);
    208a:	00 e0       	ldi	r16, 0x00	; 0
    208c:	18 e4       	ldi	r17, 0x48	; 72
    208e:	28 ee       	ldi	r18, 0xE8	; 232
    2090:	31 e0       	ldi	r19, 0x01	; 1
    2092:	40 e8       	ldi	r20, 0x80	; 128
    2094:	55 e2       	ldi	r21, 0x25	; 37
    2096:	60 e0       	ldi	r22, 0x00	; 0
    2098:	70 e0       	ldi	r23, 0x00	; 0
    209a:	80 ea       	ldi	r24, 0xA0	; 160
    209c:	9a e0       	ldi	r25, 0x0A	; 10
    209e:	2f de       	rcall	.-930    	; 0x1cfe <usart_set_baudrate>
 *
 * \param usart Pointer to the USART module.
 */
static inline void usart_tx_enable(USART_t *usart)
{
	(usart)->CTRLB |= USART_TXEN_bm;
    20a0:	8c 81       	ldd	r24, Y+4	; 0x04
    20a2:	88 60       	ori	r24, 0x08	; 8
    20a4:	8c 83       	std	Y+4, r24	; 0x04
	usart_tx_enable(&USARTE0_conf);
	//usart_rx_enable(&USARTE0_conf);
}
    20a6:	df 91       	pop	r29
    20a8:	cf 91       	pop	r28
    20aa:	1f 91       	pop	r17
    20ac:	0f 91       	pop	r16
    20ae:	08 95       	ret

000020b0 <USARTF0_init>:

#define USARTF0_conf USARTF0
#define USARTF0_BUADRATE 9600
void USARTF0_init(void)
{
    20b0:	0f 93       	push	r16
    20b2:	1f 93       	push	r17
    20b4:	cf 93       	push	r28
    20b6:	df 93       	push	r29
 * - 0x2        : IrDA mode.
 * - 0x3        : Master SPI mode.
 */
static inline void usart_set_mode(USART_t *usart, USART_CMODE_t usartmode)
{
	(usart)->CTRLC = ((usart)->CTRLC & (~USART_CMODE_gm)) | usartmode;
    20b8:	c0 ea       	ldi	r28, 0xA0	; 160
    20ba:	db e0       	ldi	r29, 0x0B	; 11
    20bc:	8d 81       	ldd	r24, Y+5	; 0x05
    20be:	8f 73       	andi	r24, 0x3F	; 63
    20c0:	8d 83       	std	Y+5, r24	; 0x05
 *  \param twoStopBits Enable two stop bit mode. Use bool type.
 */
static inline void usart_format_set(USART_t *usart, USART_CHSIZE_t charSize,
		USART_PMODE_t parityMode, bool twoStopBits)
{
	(usart)->CTRLC = (uint8_t)charSize | parityMode
    20c2:	83 e0       	ldi	r24, 0x03	; 3
    20c4:	8d 83       	std	Y+5, r24	; 0x05
 * \param level Interrupt level of the RXD interrupt.
 */
static inline void usart_set_rx_interrupt_level(USART_t *usart,
		enum usart_int_level_t level)
{
	(usart)->CTRLA = ((usart)->CTRLA & ~USART_RXCINTLVL_gm) |
    20c6:	8b 81       	ldd	r24, Y+3	; 0x03
    20c8:	8f 7c       	andi	r24, 0xCF	; 207
    20ca:	80 62       	ori	r24, 0x20	; 32
    20cc:	8b 83       	std	Y+3, r24	; 0x03
	usart_set_mode(&USARTF0_conf,USART_CMODE_ASYNCHRONOUS_gc);
	usart_format_set(&USARTF0_conf,USART_CHSIZE_8BIT_gc,USART_PMODE_DISABLED_gc,false);
	usart_set_rx_interrupt_level(&USARTF0_conf,USART_INT_LVL_MED);
	//usart_set_dre_interrupt_level(&USARTF0_conf,USART_INT_LVL_LO);
	usart_set_baudrate(&USARTF0_conf,USARTF0_BUADRATE,F_CPU);
    20ce:	00 e0       	ldi	r16, 0x00	; 0
    20d0:	18 e4       	ldi	r17, 0x48	; 72
    20d2:	28 ee       	ldi	r18, 0xE8	; 232
    20d4:	31 e0       	ldi	r19, 0x01	; 1
    20d6:	40 e8       	ldi	r20, 0x80	; 128
    20d8:	55 e2       	ldi	r21, 0x25	; 37
    20da:	60 e0       	ldi	r22, 0x00	; 0
    20dc:	70 e0       	ldi	r23, 0x00	; 0
    20de:	80 ea       	ldi	r24, 0xA0	; 160
    20e0:	9b e0       	ldi	r25, 0x0B	; 11
    20e2:	0d de       	rcall	.-998    	; 0x1cfe <usart_set_baudrate>
 *
 * \param usart Pointer to the USART module.
 */
static inline void usart_tx_enable(USART_t *usart)
{
	(usart)->CTRLB |= USART_TXEN_bm;
    20e4:	8c 81       	ldd	r24, Y+4	; 0x04
    20e6:	88 60       	ori	r24, 0x08	; 8
    20e8:	8c 83       	std	Y+4, r24	; 0x04
 *
 * \param usart Pointer to the USART module
 */
static inline void usart_rx_enable(USART_t *usart)
{
	(usart)->CTRLB |= USART_RXEN_bm;
    20ea:	8c 81       	ldd	r24, Y+4	; 0x04
    20ec:	80 61       	ori	r24, 0x10	; 16
    20ee:	8c 83       	std	Y+4, r24	; 0x04
	usart_tx_enable(&USARTF0_conf);
	usart_rx_enable(&USARTF0_conf);
}
    20f0:	df 91       	pop	r29
    20f2:	cf 91       	pop	r28
    20f4:	1f 91       	pop	r17
    20f6:	0f 91       	pop	r16
    20f8:	08 95       	ret

000020fa <USARTF1_init>:


#define USARTF1_conf USARTF1
#define USARTF1_BUADRATE 9600
void USARTF1_init(void)
{
    20fa:	0f 93       	push	r16
    20fc:	1f 93       	push	r17
    20fe:	cf 93       	push	r28
    2100:	df 93       	push	r29
 * - 0x2        : IrDA mode.
 * - 0x3        : Master SPI mode.
 */
static inline void usart_set_mode(USART_t *usart, USART_CMODE_t usartmode)
{
	(usart)->CTRLC = ((usart)->CTRLC & (~USART_CMODE_gm)) | usartmode;
    2102:	c0 eb       	ldi	r28, 0xB0	; 176
    2104:	db e0       	ldi	r29, 0x0B	; 11
    2106:	8d 81       	ldd	r24, Y+5	; 0x05
    2108:	8f 73       	andi	r24, 0x3F	; 63
    210a:	8d 83       	std	Y+5, r24	; 0x05
 *  \param twoStopBits Enable two stop bit mode. Use bool type.
 */
static inline void usart_format_set(USART_t *usart, USART_CHSIZE_t charSize,
		USART_PMODE_t parityMode, bool twoStopBits)
{
	(usart)->CTRLC = (uint8_t)charSize | parityMode
    210c:	83 e0       	ldi	r24, 0x03	; 3
    210e:	8d 83       	std	Y+5, r24	; 0x05
 * \param level Interrupt level of the RXD interrupt.
 */
static inline void usart_set_rx_interrupt_level(USART_t *usart,
		enum usart_int_level_t level)
{
	(usart)->CTRLA = ((usart)->CTRLA & ~USART_RXCINTLVL_gm) |
    2110:	8b 81       	ldd	r24, Y+3	; 0x03
    2112:	8f 7c       	andi	r24, 0xCF	; 207
    2114:	80 62       	ori	r24, 0x20	; 32
    2116:	8b 83       	std	Y+3, r24	; 0x03
	usart_set_mode(&USARTF1_conf,USART_CMODE_ASYNCHRONOUS_gc);
	usart_format_set(&USARTF1_conf,USART_CHSIZE_8BIT_gc,USART_PMODE_DISABLED_gc,false);
	usart_set_rx_interrupt_level(&USARTF1_conf,USART_INT_LVL_MED);
	//usart_set_dre_interrupt_level(&USARTF1_conf,USART_INT_LVL_LO);
	usart_set_baudrate(&USARTF1_conf,USARTF1_BUADRATE,F_CPU);
    2118:	00 e0       	ldi	r16, 0x00	; 0
    211a:	18 e4       	ldi	r17, 0x48	; 72
    211c:	28 ee       	ldi	r18, 0xE8	; 232
    211e:	31 e0       	ldi	r19, 0x01	; 1
    2120:	40 e8       	ldi	r20, 0x80	; 128
    2122:	55 e2       	ldi	r21, 0x25	; 37
    2124:	60 e0       	ldi	r22, 0x00	; 0
    2126:	70 e0       	ldi	r23, 0x00	; 0
    2128:	80 eb       	ldi	r24, 0xB0	; 176
    212a:	9b e0       	ldi	r25, 0x0B	; 11
    212c:	e8 dd       	rcall	.-1072   	; 0x1cfe <usart_set_baudrate>
 *
 * \param usart Pointer to the USART module.
 */
static inline void usart_tx_enable(USART_t *usart)
{
	(usart)->CTRLB |= USART_TXEN_bm;
    212e:	8c 81       	ldd	r24, Y+4	; 0x04
    2130:	88 60       	ori	r24, 0x08	; 8
    2132:	8c 83       	std	Y+4, r24	; 0x04
 *
 * \param usart Pointer to the USART module
 */
static inline void usart_rx_enable(USART_t *usart)
{
	(usart)->CTRLB |= USART_RXEN_bm;
    2134:	8c 81       	ldd	r24, Y+4	; 0x04
    2136:	80 61       	ori	r24, 0x10	; 16
    2138:	8c 83       	std	Y+4, r24	; 0x04
	usart_tx_enable(&USARTF1_conf);
	usart_rx_enable(&USARTF1_conf);
}
    213a:	df 91       	pop	r29
    213c:	cf 91       	pop	r28
    213e:	1f 91       	pop	r17
    2140:	0f 91       	pop	r16
    2142:	08 95       	ret

00002144 <ADCA_init>:

//KCK_CAP_VFB   -----> B7
#define CONFIG_ADC_INTLVL ADC_CH_INTLVL_LO_gc
void ADCA_init(void)
{
    2144:	cf 93       	push	r28
    2146:	df 93       	push	r29
    2148:	cd b7       	in	r28, 0x3d	; 61
    214a:	de b7       	in	r29, 0x3e	; 62
    214c:	2a 97       	sbiw	r28, 0x0a	; 10
    214e:	cd bf       	out	0x3d, r28	; 61
    2150:	de bf       	out	0x3e, r29	; 62
 *
 * \param address Byte offset into the signature row
 */
static inline uint8_t nvm_read_production_signature_row(uint8_t address)
{
	return nvm_read_byte(NVM_CMD_READ_CALIB_ROW_gc, address);
    2152:	61 e2       	ldi	r22, 0x21	; 33
    2154:	70 e0       	ldi	r23, 0x00	; 0
    2156:	82 e0       	ldi	r24, 0x02	; 2
    2158:	0e 94 14 05 	call	0xa28	; 0xa28 <nvm_read_byte>
    215c:	60 e2       	ldi	r22, 0x20	; 32
    215e:	70 e0       	ldi	r23, 0x00	; 0
    2160:	82 e0       	ldi	r24, 0x02	; 2
    2162:	0e 94 14 05 	call	0xa28	; 0xa28 <nvm_read_byte>
static inline void adc_set_conversion_parameters(struct adc_config *conf,
		enum adc_sign sign, enum adc_resolution res,
		enum adc_reference ref)
{
	// Preserve all but conversion and resolution config.
	conf->ctrlb &= ~(ADC_CONMODE_bm | ADC_RESOLUTION_gm);
    2166:	8a 81       	ldd	r24, Y+2	; 0x02
    2168:	89 7e       	andi	r24, 0xE9	; 233
	conf->ctrlb |= (uint8_t)res | (uint8_t)sign;

	conf->refctrl &= ~ADC_REFSEL_gm;
    216a:	9b 81       	ldd	r25, Y+3	; 0x03
    216c:	9f 7c       	andi	r25, 0xCF	; 207
	conf->refctrl |= ref;
    216e:	90 62       	ori	r25, 0x20	; 32
    2170:	9b 83       	std	Y+3, r25	; 0x03
		psc = ADC_PRESCALER_DIV256_gc;
	} else {
		psc = ADC_PRESCALER_DIV512_gc;
	}

	conf->prescaler = psc;
    2172:	92 e0       	ldi	r25, 0x02	; 2
    2174:	9d 83       	std	Y+5, r25	; 0x05
				(nr_of_ch << ADC_EVACT_gp);
		break;

#if XMEGA_A || XMEGA_AU
	case ADC_TRIG_FREERUN_SWEEP:
		conf->ctrlb |= ADC_FREERUN_bm;
    2176:	88 60       	ori	r24, 0x08	; 8
    2178:	8a 83       	std	Y+2, r24	; 0x02
		conf->evctrl = (nr_of_ch - 1) << ADC_SWEEP_gp;
    217a:	1c 82       	std	Y+4, r1	; 0x04
    adc_get_calibration_data(ADC_CAL_ADCA);
    adc_set_conversion_parameters(&adca_conf,ADC_SIGN_OFF,ADC_RES_12,ADC_REF_AREFA);
    adc_set_clock_rate(&adca_conf,125000UL);
    adc_set_conversion_trigger(&adca_conf,ADC_TRIG_FREERUN_SWEEP,1,0);
   // adc_set_config_compare_value(adcb_conf,KCK_MAX_CHARGE_AMP);
    adc_write_configuration(&ADCA,&adca_conf);
    217c:	be 01       	movw	r22, r28
    217e:	6f 5f       	subi	r22, 0xFF	; 255
    2180:	7f 4f       	sbci	r23, 0xFF	; 255
    2182:	80 e0       	ldi	r24, 0x00	; 0
    2184:	92 e0       	ldi	r25, 0x02	; 2
    2186:	0e 94 5c 04 	call	0x8b8	; 0x8b8 <adc_write_configuration>
    //
    ///* Configure ADC channel 0:
    //* - Input: ADCB4
    //* - interrupts disable
    //*/
    adcch_read_configuration(&ADCA,1, &adca_ch_conf);
    218a:	ae 01       	movw	r20, r28
    218c:	48 5f       	subi	r20, 0xF8	; 248
    218e:	5f 4f       	sbci	r21, 0xFF	; 255
    2190:	61 e0       	ldi	r22, 0x01	; 1
    2192:	80 e0       	ldi	r24, 0x00	; 0
    2194:	92 e0       	ldi	r25, 0x02	; 2
    2196:	0e 94 dd 04 	call	0x9ba	; 0x9ba <adcch_read_configuration>

	// Configure for single-ended measurement.
	if (neg == ADCCH_NEG_NONE) {
		Assert(gain == 1);

		ch_conf->ctrl = ADC_CH_INPUTMODE_SINGLEENDED_gc;
    219a:	81 e0       	ldi	r24, 0x01	; 1
    219c:	88 87       	std	Y+8, r24	; 0x08
		ch_conf->muxctrl = pos << ADC_CH_MUXPOS_gp;
    219e:	88 e1       	ldi	r24, 0x18	; 24
    21a0:	89 87       	std	Y+9, r24	; 0x09
    adcch_set_input(&adca_ch_conf,ADCCH_POS_PIN3,ADCCH_NEG_NONE,ADC_CH_GAIN_1X_gc);
    adcch_write_configuration(&ADCA,1,&adca_ch_conf);
    21a2:	ae 01       	movw	r20, r28
    21a4:	48 5f       	subi	r20, 0xF8	; 248
    21a6:	5f 4f       	sbci	r21, 0xFF	; 255
    21a8:	61 e0       	ldi	r22, 0x01	; 1
    21aa:	80 e0       	ldi	r24, 0x00	; 0
    21ac:	92 e0       	ldi	r25, 0x02	; 2
    21ae:	0e 94 ad 04 	call	0x95a	; 0x95a <adcch_write_configuration>
    //adcch_set_input(&adcb_ch_conf,ADCCH_POS_PIN7,ADCCH_NEG_NONE,ADC_CH_GAIN_1X_gc);
    //adcch_set_interrupt_mode(&adcb_ch_conf,ADCCH_MODE_ABOVE);
    //adcch_enable_interrupt(&adcb_ch_conf);
    //adcch_write_configuration(&ADCB,3,&adcb_ch_conf);
    //
    adc_enable(&ADCA);
    21b2:	80 e0       	ldi	r24, 0x00	; 0
    21b4:	92 e0       	ldi	r25, 0x02	; 2
    21b6:	0e 94 45 04 	call	0x88a	; 0x88a <adc_enable>

typedef uint8_t irqflags_t;

static inline irqflags_t cpu_irq_save(void)
{
	irqflags_t flags = SREG;
    21ba:	8f b7       	in	r24, 0x3f	; 63
	cpu_irq_disable();
    21bc:	f8 94       	cli
 * \note The ADC must be enabled for this function to have any effect.
 */
static inline void adc_start_conversion(ADC_t *adc, uint8_t ch_mask)
{
	irqflags_t flags = cpu_irq_save();
	adc->CTRLA |= ch_mask << ADC_CH0START_bp;
    21be:	e0 e0       	ldi	r30, 0x00	; 0
    21c0:	f2 e0       	ldi	r31, 0x02	; 2
    21c2:	90 81       	ld	r25, Z
    21c4:	94 60       	ori	r25, 0x04	; 4
    21c6:	90 83       	st	Z, r25
}

static inline void cpu_irq_restore(irqflags_t flags)
{
	barrier();
	SREG = flags;
    21c8:	8f bf       	out	0x3f, r24	; 63
    adc_start_conversion(&ADCA,ADC_CH0);
    //adc_start_conversion(&ADCB,ADC_CH1);
    //adc_start_conversion(&ADCB,ADC_CH2);
    ////adc_start_conversion(&ADCB,ADC_CH3);
}
    21ca:	2a 96       	adiw	r28, 0x0a	; 10
    21cc:	cd bf       	out	0x3d, r28	; 61
    21ce:	de bf       	out	0x3e, r29	; 62
    21d0:	df 91       	pop	r29
    21d2:	cf 91       	pop	r28
    21d4:	08 95       	ret

000021d6 <__vector_43>:
	};

}

void get_MS(char rx)
{
    21d6:	1f 92       	push	r1
    21d8:	0f 92       	push	r0
    21da:	0f b6       	in	r0, 0x3f	; 63
    21dc:	0f 92       	push	r0
    21de:	11 24       	eor	r1, r1
    21e0:	08 b6       	in	r0, 0x38	; 56
    21e2:	0f 92       	push	r0
    21e4:	18 be       	out	0x38, r1	; 56
    21e6:	09 b6       	in	r0, 0x39	; 57
    21e8:	0f 92       	push	r0
    21ea:	19 be       	out	0x39, r1	; 57
    21ec:	0a b6       	in	r0, 0x3a	; 58
    21ee:	0f 92       	push	r0
    21f0:	1a be       	out	0x3a, r1	; 58
    21f2:	0b b6       	in	r0, 0x3b	; 59
    21f4:	0f 92       	push	r0
    21f6:	1b be       	out	0x3b, r1	; 59
    21f8:	2f 92       	push	r2
    21fa:	3f 92       	push	r3
    21fc:	4f 92       	push	r4
    21fe:	5f 92       	push	r5
    2200:	6f 92       	push	r6
    2202:	7f 92       	push	r7
    2204:	8f 92       	push	r8
    2206:	9f 92       	push	r9
    2208:	af 92       	push	r10
    220a:	bf 92       	push	r11
    220c:	df 92       	push	r13
    220e:	ef 92       	push	r14
    2210:	ff 92       	push	r15
    2212:	0f 93       	push	r16
    2214:	1f 93       	push	r17
    2216:	2f 93       	push	r18
    2218:	3f 93       	push	r19
    221a:	4f 93       	push	r20
    221c:	5f 93       	push	r21
    221e:	6f 93       	push	r22
    2220:	7f 93       	push	r23
    2222:	8f 93       	push	r24
    2224:	9f 93       	push	r25
    2226:	af 93       	push	r26
    2228:	bf 93       	push	r27
    222a:	ef 93       	push	r30
    222c:	ff 93       	push	r31
    222e:	cf 93       	push	r28
    2230:	df 93       	push	r29
    2232:	cd b7       	in	r28, 0x3d	; 61
    2234:	de b7       	in	r29, 0x3e	; 62
    2236:	c2 55       	subi	r28, 0x52	; 82
    2238:	d1 09       	sbc	r29, r1
    223a:	cd bf       	out	0x3d, r28	; 61
    223c:	de bf       	out	0x3e, r29	; 62
    223e:	60 e7       	ldi	r22, 0x70	; 112
    2240:	87 e2       	ldi	r24, 0x27	; 39
    2242:	0e 94 20 23 	call	0x4640	; 0x4640 <NRF24L01_L_WriteReg>
    2246:	d8 2e       	mov	r13, r24
    2248:	86 ff       	sbrs	r24, 6
    224a:	dd c3       	rjmp	.+1978   	; 0x2a06 <__vector_43+0x830>
    224c:	88 e0       	ldi	r24, 0x08	; 8
    224e:	e0 e6       	ldi	r30, 0x60	; 96
    2250:	f6 e0       	ldi	r31, 0x06	; 6
    2252:	87 83       	std	Z+7, r24	; 0x07
    2254:	60 e2       	ldi	r22, 0x20	; 32
    2256:	70 e0       	ldi	r23, 0x00	; 0
    2258:	8a e7       	ldi	r24, 0x7A	; 122
    225a:	93 e2       	ldi	r25, 0x23	; 35
    225c:	0e 94 75 23 	call	0x46ea	; 0x46ea <NRF24L01_L_Read_RX_Buf>
    2260:	40 91 7a 23 	lds	r20, 0x237A
    2264:	e8 e0       	ldi	r30, 0x08	; 8
    2266:	f6 e0       	ldi	r31, 0x06	; 6
    2268:	70 81       	ld	r23, Z
    226a:	60 81       	ld	r22, Z
    226c:	20 81       	ld	r18, Z
    226e:	50 81       	ld	r21, Z
    2270:	84 2f       	mov	r24, r20
    2272:	90 e0       	ldi	r25, 0x00	; 0
    2274:	22 1f       	adc	r18, r18
    2276:	22 27       	eor	r18, r18
    2278:	22 1f       	adc	r18, r18
    227a:	30 e0       	ldi	r19, 0x00	; 0
    227c:	22 0f       	add	r18, r18
    227e:	33 1f       	adc	r19, r19
    2280:	22 0f       	add	r18, r18
    2282:	33 1f       	adc	r19, r19
    2284:	76 fb       	bst	r23, 6
    2286:	ee 24       	eor	r14, r14
    2288:	e0 f8       	bld	r14, 0
    228a:	f1 2c       	mov	r15, r1
    228c:	e2 2a       	or	r14, r18
    228e:	f3 2a       	or	r15, r19
    2290:	64 fb       	bst	r22, 4
    2292:	00 27       	eor	r16, r16
    2294:	00 f9       	bld	r16, 0
    2296:	10 e0       	ldi	r17, 0x00	; 0
    2298:	00 0f       	add	r16, r16
    229a:	11 1f       	adc	r17, r17
    229c:	e0 2a       	or	r14, r16
    229e:	f1 2a       	or	r15, r17
    22a0:	55 fb       	bst	r21, 5
    22a2:	55 27       	eor	r21, r21
    22a4:	50 f9       	bld	r21, 0
    22a6:	62 96       	adiw	r28, 0x12	; 18
    22a8:	5f af       	std	Y+63, r21	; 0x3f
    22aa:	62 97       	sbiw	r28, 0x12	; 18
    22ac:	63 96       	adiw	r28, 0x13	; 19
    22ae:	1f ae       	std	Y+63, r1	; 0x3f
    22b0:	63 97       	sbiw	r28, 0x13	; 19
    22b2:	63 96       	adiw	r28, 0x13	; 19
    22b4:	2e ad       	ldd	r18, Y+62	; 0x3e
    22b6:	3f ad       	ldd	r19, Y+63	; 0x3f
    22b8:	63 97       	sbiw	r28, 0x13	; 19
    22ba:	22 0f       	add	r18, r18
    22bc:	33 1f       	adc	r19, r19
    22be:	22 0f       	add	r18, r18
    22c0:	33 1f       	adc	r19, r19
    22c2:	22 0f       	add	r18, r18
    22c4:	33 1f       	adc	r19, r19
    22c6:	2e 29       	or	r18, r14
    22c8:	3f 29       	or	r19, r15
    22ca:	82 17       	cp	r24, r18
    22cc:	93 07       	cpc	r25, r19
    22ce:	09 f0       	breq	.+2      	; 0x22d2 <__vector_43+0xfc>
    22d0:	9a c3       	rjmp	.+1844   	; 0x2a06 <__vector_43+0x830>
    22d2:	10 92 c3 20 	sts	0x20C3, r1
    22d6:	10 92 c4 20 	sts	0x20C4, r1
    22da:	50 81       	ld	r21, Z
    22dc:	30 81       	ld	r19, Z
    22de:	80 81       	ld	r24, Z
    22e0:	20 81       	ld	r18, Z
    22e2:	88 1f       	adc	r24, r24
    22e4:	88 27       	eor	r24, r24
    22e6:	88 1f       	adc	r24, r24
    22e8:	90 e0       	ldi	r25, 0x00	; 0
    22ea:	88 0f       	add	r24, r24
    22ec:	99 1f       	adc	r25, r25
    22ee:	88 0f       	add	r24, r24
    22f0:	99 1f       	adc	r25, r25
    22f2:	56 fb       	bst	r21, 6
    22f4:	aa 24       	eor	r10, r10
    22f6:	a0 f8       	bld	r10, 0
    22f8:	b1 2c       	mov	r11, r1
    22fa:	a8 2a       	or	r10, r24
    22fc:	b9 2a       	or	r11, r25
    22fe:	32 95       	swap	r19
    2300:	31 70       	andi	r19, 0x01	; 1
    2302:	39 83       	std	Y+1, r19	; 0x01
    2304:	1a 82       	std	Y+2, r1	; 0x02
    2306:	89 81       	ldd	r24, Y+1	; 0x01
    2308:	9a 81       	ldd	r25, Y+2	; 0x02
    230a:	88 0f       	add	r24, r24
    230c:	99 1f       	adc	r25, r25
    230e:	a8 2a       	or	r10, r24
    2310:	b9 2a       	or	r11, r25
    2312:	25 fb       	bst	r18, 5
    2314:	88 24       	eor	r8, r8
    2316:	80 f8       	bld	r8, 0
    2318:	91 2c       	mov	r9, r1
    231a:	c4 01       	movw	r24, r8
    231c:	88 0f       	add	r24, r24
    231e:	99 1f       	adc	r25, r25
    2320:	88 0f       	add	r24, r24
    2322:	99 1f       	adc	r25, r25
    2324:	88 0f       	add	r24, r24
    2326:	99 1f       	adc	r25, r25
    2328:	45 01       	movw	r8, r10
    232a:	88 2a       	or	r8, r24
    232c:	99 2a       	or	r9, r25
    232e:	57 e1       	ldi	r21, 0x17	; 23
    2330:	58 9d       	mul	r21, r8
    2332:	d0 01       	movw	r26, r0
    2334:	59 9d       	mul	r21, r9
    2336:	b0 0d       	add	r27, r0
    2338:	11 24       	eor	r1, r1
    233a:	a0 53       	subi	r26, 0x30	; 48
    233c:	bf 4d       	sbci	r27, 0xDF	; 223
    233e:	4c 93       	st	X, r20
    2340:	40 81       	ld	r20, Z
    2342:	30 81       	ld	r19, Z
    2344:	80 81       	ld	r24, Z
    2346:	20 81       	ld	r18, Z
    2348:	88 1f       	adc	r24, r24
    234a:	88 27       	eor	r24, r24
    234c:	88 1f       	adc	r24, r24
    234e:	90 e0       	ldi	r25, 0x00	; 0
    2350:	88 0f       	add	r24, r24
    2352:	99 1f       	adc	r25, r25
    2354:	88 0f       	add	r24, r24
    2356:	99 1f       	adc	r25, r25
    2358:	46 fb       	bst	r20, 6
    235a:	66 24       	eor	r6, r6
    235c:	60 f8       	bld	r6, 0
    235e:	71 2c       	mov	r7, r1
    2360:	68 2a       	or	r6, r24
    2362:	79 2a       	or	r7, r25
    2364:	34 fb       	bst	r19, 4
    2366:	44 24       	eor	r4, r4
    2368:	40 f8       	bld	r4, 0
    236a:	51 2c       	mov	r5, r1
    236c:	44 0c       	add	r4, r4
    236e:	55 1c       	adc	r5, r5
    2370:	64 28       	or	r6, r4
    2372:	75 28       	or	r7, r5
    2374:	25 fb       	bst	r18, 5
    2376:	22 24       	eor	r2, r2
    2378:	20 f8       	bld	r2, 0
    237a:	31 2c       	mov	r3, r1
    237c:	c1 01       	movw	r24, r2
    237e:	88 0f       	add	r24, r24
    2380:	99 1f       	adc	r25, r25
    2382:	88 0f       	add	r24, r24
    2384:	99 1f       	adc	r25, r25
    2386:	88 0f       	add	r24, r24
    2388:	99 1f       	adc	r25, r25
    238a:	13 01       	movw	r2, r6
    238c:	28 2a       	or	r2, r24
    238e:	39 2a       	or	r3, r25
    2390:	52 9d       	mul	r21, r2
    2392:	d0 01       	movw	r26, r0
    2394:	53 9d       	mul	r21, r3
    2396:	b0 0d       	add	r27, r0
    2398:	11 24       	eor	r1, r1
    239a:	a0 53       	subi	r26, 0x30	; 48
    239c:	bf 4d       	sbci	r27, 0xDF	; 223
    239e:	80 91 7b 23 	lds	r24, 0x237B
    23a2:	90 e0       	ldi	r25, 0x00	; 0
    23a4:	11 96       	adiw	r26, 0x01	; 1
    23a6:	8d 93       	st	X+, r24
    23a8:	9c 93       	st	X, r25
    23aa:	12 97       	sbiw	r26, 0x02	; 2
    23ac:	30 81       	ld	r19, Z
    23ae:	20 81       	ld	r18, Z
    23b0:	80 81       	ld	r24, Z
    23b2:	40 81       	ld	r20, Z
    23b4:	88 1f       	adc	r24, r24
    23b6:	88 27       	eor	r24, r24
    23b8:	88 1f       	adc	r24, r24
    23ba:	90 e0       	ldi	r25, 0x00	; 0
    23bc:	88 0f       	add	r24, r24
    23be:	99 1f       	adc	r25, r25
    23c0:	88 0f       	add	r24, r24
    23c2:	99 1f       	adc	r25, r25
    23c4:	36 fb       	bst	r19, 6
    23c6:	33 27       	eor	r19, r19
    23c8:	30 f9       	bld	r19, 0
    23ca:	3b 83       	std	Y+3, r19	; 0x03
    23cc:	1c 82       	std	Y+4, r1	; 0x04
    23ce:	6b 81       	ldd	r22, Y+3	; 0x03
    23d0:	7c 81       	ldd	r23, Y+4	; 0x04
    23d2:	86 2b       	or	r24, r22
    23d4:	97 2b       	or	r25, r23
    23d6:	22 95       	swap	r18
    23d8:	21 70       	andi	r18, 0x01	; 1
    23da:	2d 83       	std	Y+5, r18	; 0x05
    23dc:	1e 82       	std	Y+6, r1	; 0x06
    23de:	2d 81       	ldd	r18, Y+5	; 0x05
    23e0:	3e 81       	ldd	r19, Y+6	; 0x06
    23e2:	22 0f       	add	r18, r18
    23e4:	33 1f       	adc	r19, r19
    23e6:	82 2b       	or	r24, r18
    23e8:	93 2b       	or	r25, r19
    23ea:	45 fb       	bst	r20, 5
    23ec:	44 27       	eor	r20, r20
    23ee:	40 f9       	bld	r20, 0
    23f0:	4f 83       	std	Y+7, r20	; 0x07
    23f2:	18 86       	std	Y+8, r1	; 0x08
    23f4:	2f 81       	ldd	r18, Y+7	; 0x07
    23f6:	38 85       	ldd	r19, Y+8	; 0x08
    23f8:	22 0f       	add	r18, r18
    23fa:	33 1f       	adc	r19, r19
    23fc:	22 0f       	add	r18, r18
    23fe:	33 1f       	adc	r19, r19
    2400:	22 0f       	add	r18, r18
    2402:	33 1f       	adc	r19, r19
    2404:	82 2b       	or	r24, r18
    2406:	93 2b       	or	r25, r19
    2408:	58 9f       	mul	r21, r24
    240a:	d0 01       	movw	r26, r0
    240c:	59 9f       	mul	r21, r25
    240e:	b0 0d       	add	r27, r0
    2410:	11 24       	eor	r1, r1
    2412:	a0 53       	subi	r26, 0x30	; 48
    2414:	bf 4d       	sbci	r27, 0xDF	; 223
    2416:	80 91 7c 23 	lds	r24, 0x237C
    241a:	90 e0       	ldi	r25, 0x00	; 0
    241c:	13 96       	adiw	r26, 0x03	; 3
    241e:	8d 93       	st	X+, r24
    2420:	9c 93       	st	X, r25
    2422:	14 97       	sbiw	r26, 0x04	; 4
    2424:	30 81       	ld	r19, Z
    2426:	20 81       	ld	r18, Z
    2428:	80 81       	ld	r24, Z
    242a:	40 81       	ld	r20, Z
    242c:	88 1f       	adc	r24, r24
    242e:	88 27       	eor	r24, r24
    2430:	88 1f       	adc	r24, r24
    2432:	90 e0       	ldi	r25, 0x00	; 0
    2434:	88 0f       	add	r24, r24
    2436:	99 1f       	adc	r25, r25
    2438:	88 0f       	add	r24, r24
    243a:	99 1f       	adc	r25, r25
    243c:	36 fb       	bst	r19, 6
    243e:	33 27       	eor	r19, r19
    2440:	30 f9       	bld	r19, 0
    2442:	39 87       	std	Y+9, r19	; 0x09
    2444:	1a 86       	std	Y+10, r1	; 0x0a
    2446:	a9 85       	ldd	r26, Y+9	; 0x09
    2448:	ba 85       	ldd	r27, Y+10	; 0x0a
    244a:	8a 2b       	or	r24, r26
    244c:	9b 2b       	or	r25, r27
    244e:	22 95       	swap	r18
    2450:	21 70       	andi	r18, 0x01	; 1
    2452:	2b 87       	std	Y+11, r18	; 0x0b
    2454:	1c 86       	std	Y+12, r1	; 0x0c
    2456:	2b 85       	ldd	r18, Y+11	; 0x0b
    2458:	3c 85       	ldd	r19, Y+12	; 0x0c
    245a:	22 0f       	add	r18, r18
    245c:	33 1f       	adc	r19, r19
    245e:	82 2b       	or	r24, r18
    2460:	93 2b       	or	r25, r19
    2462:	45 fb       	bst	r20, 5
    2464:	44 27       	eor	r20, r20
    2466:	40 f9       	bld	r20, 0
    2468:	4d 87       	std	Y+13, r20	; 0x0d
    246a:	1e 86       	std	Y+14, r1	; 0x0e
    246c:	2d 85       	ldd	r18, Y+13	; 0x0d
    246e:	3e 85       	ldd	r19, Y+14	; 0x0e
    2470:	22 0f       	add	r18, r18
    2472:	33 1f       	adc	r19, r19
    2474:	22 0f       	add	r18, r18
    2476:	33 1f       	adc	r19, r19
    2478:	22 0f       	add	r18, r18
    247a:	33 1f       	adc	r19, r19
    247c:	82 2b       	or	r24, r18
    247e:	93 2b       	or	r25, r19
    2480:	58 9f       	mul	r21, r24
    2482:	d0 01       	movw	r26, r0
    2484:	59 9f       	mul	r21, r25
    2486:	b0 0d       	add	r27, r0
    2488:	11 24       	eor	r1, r1
    248a:	a0 53       	subi	r26, 0x30	; 48
    248c:	bf 4d       	sbci	r27, 0xDF	; 223
    248e:	80 91 7d 23 	lds	r24, 0x237D
    2492:	90 e0       	ldi	r25, 0x00	; 0
    2494:	15 96       	adiw	r26, 0x05	; 5
    2496:	8d 93       	st	X+, r24
    2498:	9c 93       	st	X, r25
    249a:	16 97       	sbiw	r26, 0x06	; 6
    249c:	30 81       	ld	r19, Z
    249e:	20 81       	ld	r18, Z
    24a0:	80 81       	ld	r24, Z
    24a2:	40 81       	ld	r20, Z
    24a4:	88 1f       	adc	r24, r24
    24a6:	88 27       	eor	r24, r24
    24a8:	88 1f       	adc	r24, r24
    24aa:	90 e0       	ldi	r25, 0x00	; 0
    24ac:	88 0f       	add	r24, r24
    24ae:	99 1f       	adc	r25, r25
    24b0:	88 0f       	add	r24, r24
    24b2:	99 1f       	adc	r25, r25
    24b4:	36 fb       	bst	r19, 6
    24b6:	33 27       	eor	r19, r19
    24b8:	30 f9       	bld	r19, 0
    24ba:	3f 87       	std	Y+15, r19	; 0x0f
    24bc:	18 8a       	std	Y+16, r1	; 0x10
    24be:	6f 85       	ldd	r22, Y+15	; 0x0f
    24c0:	78 89       	ldd	r23, Y+16	; 0x10
    24c2:	86 2b       	or	r24, r22
    24c4:	97 2b       	or	r25, r23
    24c6:	22 95       	swap	r18
    24c8:	21 70       	andi	r18, 0x01	; 1
    24ca:	29 8b       	std	Y+17, r18	; 0x11
    24cc:	1a 8a       	std	Y+18, r1	; 0x12
    24ce:	29 89       	ldd	r18, Y+17	; 0x11
    24d0:	3a 89       	ldd	r19, Y+18	; 0x12
    24d2:	22 0f       	add	r18, r18
    24d4:	33 1f       	adc	r19, r19
    24d6:	82 2b       	or	r24, r18
    24d8:	93 2b       	or	r25, r19
    24da:	45 fb       	bst	r20, 5
    24dc:	44 27       	eor	r20, r20
    24de:	40 f9       	bld	r20, 0
    24e0:	4b 8b       	std	Y+19, r20	; 0x13
    24e2:	1c 8a       	std	Y+20, r1	; 0x14
    24e4:	2b 89       	ldd	r18, Y+19	; 0x13
    24e6:	3c 89       	ldd	r19, Y+20	; 0x14
    24e8:	22 0f       	add	r18, r18
    24ea:	33 1f       	adc	r19, r19
    24ec:	22 0f       	add	r18, r18
    24ee:	33 1f       	adc	r19, r19
    24f0:	22 0f       	add	r18, r18
    24f2:	33 1f       	adc	r19, r19
    24f4:	82 2b       	or	r24, r18
    24f6:	93 2b       	or	r25, r19
    24f8:	58 9f       	mul	r21, r24
    24fa:	d0 01       	movw	r26, r0
    24fc:	59 9f       	mul	r21, r25
    24fe:	b0 0d       	add	r27, r0
    2500:	11 24       	eor	r1, r1
    2502:	a0 53       	subi	r26, 0x30	; 48
    2504:	bf 4d       	sbci	r27, 0xDF	; 223
    2506:	80 91 7e 23 	lds	r24, 0x237E
    250a:	90 e0       	ldi	r25, 0x00	; 0
    250c:	17 96       	adiw	r26, 0x07	; 7
    250e:	8d 93       	st	X+, r24
    2510:	9c 93       	st	X, r25
    2512:	18 97       	sbiw	r26, 0x08	; 8
    2514:	30 81       	ld	r19, Z
    2516:	20 81       	ld	r18, Z
    2518:	80 81       	ld	r24, Z
    251a:	40 81       	ld	r20, Z
    251c:	88 1f       	adc	r24, r24
    251e:	88 27       	eor	r24, r24
    2520:	88 1f       	adc	r24, r24
    2522:	90 e0       	ldi	r25, 0x00	; 0
    2524:	88 0f       	add	r24, r24
    2526:	99 1f       	adc	r25, r25
    2528:	88 0f       	add	r24, r24
    252a:	99 1f       	adc	r25, r25
    252c:	36 fb       	bst	r19, 6
    252e:	33 27       	eor	r19, r19
    2530:	30 f9       	bld	r19, 0
    2532:	3d 8b       	std	Y+21, r19	; 0x15
    2534:	1e 8a       	std	Y+22, r1	; 0x16
    2536:	ad 89       	ldd	r26, Y+21	; 0x15
    2538:	be 89       	ldd	r27, Y+22	; 0x16
    253a:	8a 2b       	or	r24, r26
    253c:	9b 2b       	or	r25, r27
    253e:	22 95       	swap	r18
    2540:	21 70       	andi	r18, 0x01	; 1
    2542:	2f 8b       	std	Y+23, r18	; 0x17
    2544:	18 8e       	std	Y+24, r1	; 0x18
    2546:	2f 89       	ldd	r18, Y+23	; 0x17
    2548:	38 8d       	ldd	r19, Y+24	; 0x18
    254a:	22 0f       	add	r18, r18
    254c:	33 1f       	adc	r19, r19
    254e:	82 2b       	or	r24, r18
    2550:	93 2b       	or	r25, r19
    2552:	45 fb       	bst	r20, 5
    2554:	44 27       	eor	r20, r20
    2556:	40 f9       	bld	r20, 0
    2558:	49 8f       	std	Y+25, r20	; 0x19
    255a:	1a 8e       	std	Y+26, r1	; 0x1a
    255c:	29 8d       	ldd	r18, Y+25	; 0x19
    255e:	3a 8d       	ldd	r19, Y+26	; 0x1a
    2560:	22 0f       	add	r18, r18
    2562:	33 1f       	adc	r19, r19
    2564:	22 0f       	add	r18, r18
    2566:	33 1f       	adc	r19, r19
    2568:	22 0f       	add	r18, r18
    256a:	33 1f       	adc	r19, r19
    256c:	82 2b       	or	r24, r18
    256e:	93 2b       	or	r25, r19
    2570:	58 9f       	mul	r21, r24
    2572:	d0 01       	movw	r26, r0
    2574:	59 9f       	mul	r21, r25
    2576:	b0 0d       	add	r27, r0
    2578:	11 24       	eor	r1, r1
    257a:	a0 53       	subi	r26, 0x30	; 48
    257c:	bf 4d       	sbci	r27, 0xDF	; 223
    257e:	80 91 7f 23 	lds	r24, 0x237F
    2582:	90 e0       	ldi	r25, 0x00	; 0
    2584:	19 96       	adiw	r26, 0x09	; 9
    2586:	8d 93       	st	X+, r24
    2588:	9c 93       	st	X, r25
    258a:	1a 97       	sbiw	r26, 0x0a	; 10
    258c:	30 81       	ld	r19, Z
    258e:	20 81       	ld	r18, Z
    2590:	80 81       	ld	r24, Z
    2592:	40 81       	ld	r20, Z
    2594:	88 1f       	adc	r24, r24
    2596:	88 27       	eor	r24, r24
    2598:	88 1f       	adc	r24, r24
    259a:	90 e0       	ldi	r25, 0x00	; 0
    259c:	88 0f       	add	r24, r24
    259e:	99 1f       	adc	r25, r25
    25a0:	88 0f       	add	r24, r24
    25a2:	99 1f       	adc	r25, r25
    25a4:	36 fb       	bst	r19, 6
    25a6:	33 27       	eor	r19, r19
    25a8:	30 f9       	bld	r19, 0
    25aa:	3b 8f       	std	Y+27, r19	; 0x1b
    25ac:	1c 8e       	std	Y+28, r1	; 0x1c
    25ae:	6b 8d       	ldd	r22, Y+27	; 0x1b
    25b0:	7c 8d       	ldd	r23, Y+28	; 0x1c
    25b2:	86 2b       	or	r24, r22
    25b4:	97 2b       	or	r25, r23
    25b6:	22 95       	swap	r18
    25b8:	21 70       	andi	r18, 0x01	; 1
    25ba:	2d 8f       	std	Y+29, r18	; 0x1d
    25bc:	1e 8e       	std	Y+30, r1	; 0x1e
    25be:	2d 8d       	ldd	r18, Y+29	; 0x1d
    25c0:	3e 8d       	ldd	r19, Y+30	; 0x1e
    25c2:	22 0f       	add	r18, r18
    25c4:	33 1f       	adc	r19, r19
    25c6:	82 2b       	or	r24, r18
    25c8:	93 2b       	or	r25, r19
    25ca:	45 fb       	bst	r20, 5
    25cc:	44 27       	eor	r20, r20
    25ce:	40 f9       	bld	r20, 0
    25d0:	4f 8f       	std	Y+31, r20	; 0x1f
    25d2:	18 a2       	std	Y+32, r1	; 0x20
    25d4:	2f 8d       	ldd	r18, Y+31	; 0x1f
    25d6:	38 a1       	ldd	r19, Y+32	; 0x20
    25d8:	22 0f       	add	r18, r18
    25da:	33 1f       	adc	r19, r19
    25dc:	22 0f       	add	r18, r18
    25de:	33 1f       	adc	r19, r19
    25e0:	22 0f       	add	r18, r18
    25e2:	33 1f       	adc	r19, r19
    25e4:	82 2b       	or	r24, r18
    25e6:	93 2b       	or	r25, r19
    25e8:	58 9f       	mul	r21, r24
    25ea:	d0 01       	movw	r26, r0
    25ec:	59 9f       	mul	r21, r25
    25ee:	b0 0d       	add	r27, r0
    25f0:	11 24       	eor	r1, r1
    25f2:	a0 53       	subi	r26, 0x30	; 48
    25f4:	bf 4d       	sbci	r27, 0xDF	; 223
    25f6:	80 91 80 23 	lds	r24, 0x2380
    25fa:	90 e0       	ldi	r25, 0x00	; 0
    25fc:	1b 96       	adiw	r26, 0x0b	; 11
    25fe:	8d 93       	st	X+, r24
    2600:	9c 93       	st	X, r25
    2602:	1c 97       	sbiw	r26, 0x0c	; 12
    2604:	30 81       	ld	r19, Z
    2606:	20 81       	ld	r18, Z
    2608:	80 81       	ld	r24, Z
    260a:	40 81       	ld	r20, Z
    260c:	88 1f       	adc	r24, r24
    260e:	88 27       	eor	r24, r24
    2610:	88 1f       	adc	r24, r24
    2612:	90 e0       	ldi	r25, 0x00	; 0
    2614:	88 0f       	add	r24, r24
    2616:	99 1f       	adc	r25, r25
    2618:	88 0f       	add	r24, r24
    261a:	99 1f       	adc	r25, r25
    261c:	36 fb       	bst	r19, 6
    261e:	33 27       	eor	r19, r19
    2620:	30 f9       	bld	r19, 0
    2622:	39 a3       	std	Y+33, r19	; 0x21
    2624:	1a a2       	std	Y+34, r1	; 0x22
    2626:	a9 a1       	ldd	r26, Y+33	; 0x21
    2628:	ba a1       	ldd	r27, Y+34	; 0x22
    262a:	8a 2b       	or	r24, r26
    262c:	9b 2b       	or	r25, r27
    262e:	22 95       	swap	r18
    2630:	21 70       	andi	r18, 0x01	; 1
    2632:	2b a3       	std	Y+35, r18	; 0x23
    2634:	1c a2       	std	Y+36, r1	; 0x24
    2636:	2b a1       	ldd	r18, Y+35	; 0x23
    2638:	3c a1       	ldd	r19, Y+36	; 0x24
    263a:	22 0f       	add	r18, r18
    263c:	33 1f       	adc	r19, r19
    263e:	82 2b       	or	r24, r18
    2640:	93 2b       	or	r25, r19
    2642:	45 fb       	bst	r20, 5
    2644:	44 27       	eor	r20, r20
    2646:	40 f9       	bld	r20, 0
    2648:	4d a3       	std	Y+37, r20	; 0x25
    264a:	1e a2       	std	Y+38, r1	; 0x26
    264c:	2d a1       	ldd	r18, Y+37	; 0x25
    264e:	3e a1       	ldd	r19, Y+38	; 0x26
    2650:	22 0f       	add	r18, r18
    2652:	33 1f       	adc	r19, r19
    2654:	22 0f       	add	r18, r18
    2656:	33 1f       	adc	r19, r19
    2658:	22 0f       	add	r18, r18
    265a:	33 1f       	adc	r19, r19
    265c:	82 2b       	or	r24, r18
    265e:	93 2b       	or	r25, r19
    2660:	58 9f       	mul	r21, r24
    2662:	d0 01       	movw	r26, r0
    2664:	59 9f       	mul	r21, r25
    2666:	b0 0d       	add	r27, r0
    2668:	11 24       	eor	r1, r1
    266a:	a0 53       	subi	r26, 0x30	; 48
    266c:	bf 4d       	sbci	r27, 0xDF	; 223
    266e:	80 91 81 23 	lds	r24, 0x2381
    2672:	90 e0       	ldi	r25, 0x00	; 0
    2674:	1d 96       	adiw	r26, 0x0d	; 13
    2676:	8d 93       	st	X+, r24
    2678:	9c 93       	st	X, r25
    267a:	1e 97       	sbiw	r26, 0x0e	; 14
    267c:	30 81       	ld	r19, Z
    267e:	20 81       	ld	r18, Z
    2680:	80 81       	ld	r24, Z
    2682:	40 81       	ld	r20, Z
    2684:	88 1f       	adc	r24, r24
    2686:	88 27       	eor	r24, r24
    2688:	88 1f       	adc	r24, r24
    268a:	90 e0       	ldi	r25, 0x00	; 0
    268c:	88 0f       	add	r24, r24
    268e:	99 1f       	adc	r25, r25
    2690:	88 0f       	add	r24, r24
    2692:	99 1f       	adc	r25, r25
    2694:	36 fb       	bst	r19, 6
    2696:	33 27       	eor	r19, r19
    2698:	30 f9       	bld	r19, 0
    269a:	3f a3       	std	Y+39, r19	; 0x27
    269c:	18 a6       	std	Y+40, r1	; 0x28
    269e:	6f a1       	ldd	r22, Y+39	; 0x27
    26a0:	78 a5       	ldd	r23, Y+40	; 0x28
    26a2:	86 2b       	or	r24, r22
    26a4:	97 2b       	or	r25, r23
    26a6:	22 95       	swap	r18
    26a8:	21 70       	andi	r18, 0x01	; 1
    26aa:	29 a7       	std	Y+41, r18	; 0x29
    26ac:	1a a6       	std	Y+42, r1	; 0x2a
    26ae:	29 a5       	ldd	r18, Y+41	; 0x29
    26b0:	3a a5       	ldd	r19, Y+42	; 0x2a
    26b2:	22 0f       	add	r18, r18
    26b4:	33 1f       	adc	r19, r19
    26b6:	82 2b       	or	r24, r18
    26b8:	93 2b       	or	r25, r19
    26ba:	45 fb       	bst	r20, 5
    26bc:	44 27       	eor	r20, r20
    26be:	40 f9       	bld	r20, 0
    26c0:	4b a7       	std	Y+43, r20	; 0x2b
    26c2:	1c a6       	std	Y+44, r1	; 0x2c
    26c4:	2b a5       	ldd	r18, Y+43	; 0x2b
    26c6:	3c a5       	ldd	r19, Y+44	; 0x2c
    26c8:	22 0f       	add	r18, r18
    26ca:	33 1f       	adc	r19, r19
    26cc:	22 0f       	add	r18, r18
    26ce:	33 1f       	adc	r19, r19
    26d0:	22 0f       	add	r18, r18
    26d2:	33 1f       	adc	r19, r19
    26d4:	82 2b       	or	r24, r18
    26d6:	93 2b       	or	r25, r19
    26d8:	58 9f       	mul	r21, r24
    26da:	d0 01       	movw	r26, r0
    26dc:	59 9f       	mul	r21, r25
    26de:	b0 0d       	add	r27, r0
    26e0:	11 24       	eor	r1, r1
    26e2:	a0 53       	subi	r26, 0x30	; 48
    26e4:	bf 4d       	sbci	r27, 0xDF	; 223
    26e6:	80 91 82 23 	lds	r24, 0x2382
    26ea:	90 e0       	ldi	r25, 0x00	; 0
    26ec:	1f 96       	adiw	r26, 0x0f	; 15
    26ee:	8d 93       	st	X+, r24
    26f0:	9c 93       	st	X, r25
    26f2:	50 97       	sbiw	r26, 0x10	; 16
    26f4:	30 81       	ld	r19, Z
    26f6:	20 81       	ld	r18, Z
    26f8:	80 81       	ld	r24, Z
    26fa:	40 81       	ld	r20, Z
    26fc:	88 1f       	adc	r24, r24
    26fe:	88 27       	eor	r24, r24
    2700:	88 1f       	adc	r24, r24
    2702:	90 e0       	ldi	r25, 0x00	; 0
    2704:	88 0f       	add	r24, r24
    2706:	99 1f       	adc	r25, r25
    2708:	88 0f       	add	r24, r24
    270a:	99 1f       	adc	r25, r25
    270c:	36 fb       	bst	r19, 6
    270e:	33 27       	eor	r19, r19
    2710:	30 f9       	bld	r19, 0
    2712:	3d a7       	std	Y+45, r19	; 0x2d
    2714:	1e a6       	std	Y+46, r1	; 0x2e
    2716:	ad a5       	ldd	r26, Y+45	; 0x2d
    2718:	be a5       	ldd	r27, Y+46	; 0x2e
    271a:	8a 2b       	or	r24, r26
    271c:	9b 2b       	or	r25, r27
    271e:	22 95       	swap	r18
    2720:	21 70       	andi	r18, 0x01	; 1
    2722:	2f a7       	std	Y+47, r18	; 0x2f
    2724:	18 aa       	std	Y+48, r1	; 0x30
    2726:	2f a5       	ldd	r18, Y+47	; 0x2f
    2728:	38 a9       	ldd	r19, Y+48	; 0x30
    272a:	22 0f       	add	r18, r18
    272c:	33 1f       	adc	r19, r19
    272e:	82 2b       	or	r24, r18
    2730:	93 2b       	or	r25, r19
    2732:	45 fb       	bst	r20, 5
    2734:	44 27       	eor	r20, r20
    2736:	40 f9       	bld	r20, 0
    2738:	49 ab       	std	Y+49, r20	; 0x31
    273a:	1a aa       	std	Y+50, r1	; 0x32
    273c:	29 a9       	ldd	r18, Y+49	; 0x31
    273e:	3a a9       	ldd	r19, Y+50	; 0x32
    2740:	22 0f       	add	r18, r18
    2742:	33 1f       	adc	r19, r19
    2744:	22 0f       	add	r18, r18
    2746:	33 1f       	adc	r19, r19
    2748:	22 0f       	add	r18, r18
    274a:	33 1f       	adc	r19, r19
    274c:	82 2b       	or	r24, r18
    274e:	93 2b       	or	r25, r19
    2750:	58 9f       	mul	r21, r24
    2752:	d0 01       	movw	r26, r0
    2754:	59 9f       	mul	r21, r25
    2756:	b0 0d       	add	r27, r0
    2758:	11 24       	eor	r1, r1
    275a:	a0 53       	subi	r26, 0x30	; 48
    275c:	bf 4d       	sbci	r27, 0xDF	; 223
    275e:	80 91 83 23 	lds	r24, 0x2383
    2762:	51 96       	adiw	r26, 0x11	; 17
    2764:	8c 93       	st	X, r24
    2766:	30 81       	ld	r19, Z
    2768:	20 81       	ld	r18, Z
    276a:	80 81       	ld	r24, Z
    276c:	40 81       	ld	r20, Z
    276e:	88 1f       	adc	r24, r24
    2770:	88 27       	eor	r24, r24
    2772:	88 1f       	adc	r24, r24
    2774:	90 e0       	ldi	r25, 0x00	; 0
    2776:	88 0f       	add	r24, r24
    2778:	99 1f       	adc	r25, r25
    277a:	88 0f       	add	r24, r24
    277c:	99 1f       	adc	r25, r25
    277e:	36 fb       	bst	r19, 6
    2780:	33 27       	eor	r19, r19
    2782:	30 f9       	bld	r19, 0
    2784:	3b ab       	std	Y+51, r19	; 0x33
    2786:	1c aa       	std	Y+52, r1	; 0x34
    2788:	6b a9       	ldd	r22, Y+51	; 0x33
    278a:	7c a9       	ldd	r23, Y+52	; 0x34
    278c:	86 2b       	or	r24, r22
    278e:	97 2b       	or	r25, r23
    2790:	22 95       	swap	r18
    2792:	21 70       	andi	r18, 0x01	; 1
    2794:	2d ab       	std	Y+53, r18	; 0x35
    2796:	1e aa       	std	Y+54, r1	; 0x36
    2798:	2d a9       	ldd	r18, Y+53	; 0x35
    279a:	3e a9       	ldd	r19, Y+54	; 0x36
    279c:	22 0f       	add	r18, r18
    279e:	33 1f       	adc	r19, r19
    27a0:	82 2b       	or	r24, r18
    27a2:	93 2b       	or	r25, r19
    27a4:	45 fb       	bst	r20, 5
    27a6:	44 27       	eor	r20, r20
    27a8:	40 f9       	bld	r20, 0
    27aa:	4f ab       	std	Y+55, r20	; 0x37
    27ac:	18 ae       	std	Y+56, r1	; 0x38
    27ae:	2f a9       	ldd	r18, Y+55	; 0x37
    27b0:	38 ad       	ldd	r19, Y+56	; 0x38
    27b2:	22 0f       	add	r18, r18
    27b4:	33 1f       	adc	r19, r19
    27b6:	22 0f       	add	r18, r18
    27b8:	33 1f       	adc	r19, r19
    27ba:	22 0f       	add	r18, r18
    27bc:	33 1f       	adc	r19, r19
    27be:	82 2b       	or	r24, r18
    27c0:	93 2b       	or	r25, r19
    27c2:	58 9f       	mul	r21, r24
    27c4:	d0 01       	movw	r26, r0
    27c6:	59 9f       	mul	r21, r25
    27c8:	b0 0d       	add	r27, r0
    27ca:	11 24       	eor	r1, r1
    27cc:	a0 53       	subi	r26, 0x30	; 48
    27ce:	bf 4d       	sbci	r27, 0xDF	; 223
    27d0:	80 91 84 23 	lds	r24, 0x2384
    27d4:	52 96       	adiw	r26, 0x12	; 18
    27d6:	8c 93       	st	X, r24
    27d8:	30 81       	ld	r19, Z
    27da:	20 81       	ld	r18, Z
    27dc:	80 81       	ld	r24, Z
    27de:	40 81       	ld	r20, Z
    27e0:	88 1f       	adc	r24, r24
    27e2:	88 27       	eor	r24, r24
    27e4:	88 1f       	adc	r24, r24
    27e6:	90 e0       	ldi	r25, 0x00	; 0
    27e8:	88 0f       	add	r24, r24
    27ea:	99 1f       	adc	r25, r25
    27ec:	88 0f       	add	r24, r24
    27ee:	99 1f       	adc	r25, r25
    27f0:	36 fb       	bst	r19, 6
    27f2:	33 27       	eor	r19, r19
    27f4:	30 f9       	bld	r19, 0
    27f6:	39 af       	std	Y+57, r19	; 0x39
    27f8:	1a ae       	std	Y+58, r1	; 0x3a
    27fa:	a9 ad       	ldd	r26, Y+57	; 0x39
    27fc:	ba ad       	ldd	r27, Y+58	; 0x3a
    27fe:	8a 2b       	or	r24, r26
    2800:	9b 2b       	or	r25, r27
    2802:	22 95       	swap	r18
    2804:	21 70       	andi	r18, 0x01	; 1
    2806:	2b af       	std	Y+59, r18	; 0x3b
    2808:	1c ae       	std	Y+60, r1	; 0x3c
    280a:	2b ad       	ldd	r18, Y+59	; 0x3b
    280c:	3c ad       	ldd	r19, Y+60	; 0x3c
    280e:	22 0f       	add	r18, r18
    2810:	33 1f       	adc	r19, r19
    2812:	82 2b       	or	r24, r18
    2814:	93 2b       	or	r25, r19
    2816:	45 fb       	bst	r20, 5
    2818:	44 27       	eor	r20, r20
    281a:	40 f9       	bld	r20, 0
    281c:	4d af       	std	Y+61, r20	; 0x3d
    281e:	1e ae       	std	Y+62, r1	; 0x3e
    2820:	2d ad       	ldd	r18, Y+61	; 0x3d
    2822:	3e ad       	ldd	r19, Y+62	; 0x3e
    2824:	22 0f       	add	r18, r18
    2826:	33 1f       	adc	r19, r19
    2828:	22 0f       	add	r18, r18
    282a:	33 1f       	adc	r19, r19
    282c:	22 0f       	add	r18, r18
    282e:	33 1f       	adc	r19, r19
    2830:	82 2b       	or	r24, r18
    2832:	93 2b       	or	r25, r19
    2834:	58 9f       	mul	r21, r24
    2836:	d0 01       	movw	r26, r0
    2838:	59 9f       	mul	r21, r25
    283a:	b0 0d       	add	r27, r0
    283c:	11 24       	eor	r1, r1
    283e:	a0 53       	subi	r26, 0x30	; 48
    2840:	bf 4d       	sbci	r27, 0xDF	; 223
    2842:	80 91 85 23 	lds	r24, 0x2385
    2846:	53 96       	adiw	r26, 0x13	; 19
    2848:	8c 93       	st	X, r24
    284a:	30 81       	ld	r19, Z
    284c:	20 81       	ld	r18, Z
    284e:	80 81       	ld	r24, Z
    2850:	40 81       	ld	r20, Z
    2852:	88 1f       	adc	r24, r24
    2854:	88 27       	eor	r24, r24
    2856:	88 1f       	adc	r24, r24
    2858:	90 e0       	ldi	r25, 0x00	; 0
    285a:	88 0f       	add	r24, r24
    285c:	99 1f       	adc	r25, r25
    285e:	88 0f       	add	r24, r24
    2860:	99 1f       	adc	r25, r25
    2862:	36 fb       	bst	r19, 6
    2864:	33 27       	eor	r19, r19
    2866:	30 f9       	bld	r19, 0
    2868:	3f af       	std	Y+63, r19	; 0x3f
    286a:	21 96       	adiw	r28, 0x01	; 1
    286c:	1f ae       	std	Y+63, r1	; 0x3f
    286e:	21 97       	sbiw	r28, 0x01	; 1
    2870:	21 96       	adiw	r28, 0x01	; 1
    2872:	6e ad       	ldd	r22, Y+62	; 0x3e
    2874:	7f ad       	ldd	r23, Y+63	; 0x3f
    2876:	21 97       	sbiw	r28, 0x01	; 1
    2878:	86 2b       	or	r24, r22
    287a:	97 2b       	or	r25, r23
    287c:	22 95       	swap	r18
    287e:	21 70       	andi	r18, 0x01	; 1
    2880:	22 96       	adiw	r28, 0x02	; 2
    2882:	2f af       	std	Y+63, r18	; 0x3f
    2884:	22 97       	sbiw	r28, 0x02	; 2
    2886:	23 96       	adiw	r28, 0x03	; 3
    2888:	1f ae       	std	Y+63, r1	; 0x3f
    288a:	23 97       	sbiw	r28, 0x03	; 3
    288c:	23 96       	adiw	r28, 0x03	; 3
    288e:	2e ad       	ldd	r18, Y+62	; 0x3e
    2890:	3f ad       	ldd	r19, Y+63	; 0x3f
    2892:	23 97       	sbiw	r28, 0x03	; 3
    2894:	22 0f       	add	r18, r18
    2896:	33 1f       	adc	r19, r19
    2898:	82 2b       	or	r24, r18
    289a:	93 2b       	or	r25, r19
    289c:	45 fb       	bst	r20, 5
    289e:	44 27       	eor	r20, r20
    28a0:	40 f9       	bld	r20, 0
    28a2:	24 96       	adiw	r28, 0x04	; 4
    28a4:	4f af       	std	Y+63, r20	; 0x3f
    28a6:	24 97       	sbiw	r28, 0x04	; 4
    28a8:	25 96       	adiw	r28, 0x05	; 5
    28aa:	1f ae       	std	Y+63, r1	; 0x3f
    28ac:	25 97       	sbiw	r28, 0x05	; 5
    28ae:	25 96       	adiw	r28, 0x05	; 5
    28b0:	2e ad       	ldd	r18, Y+62	; 0x3e
    28b2:	3f ad       	ldd	r19, Y+63	; 0x3f
    28b4:	25 97       	sbiw	r28, 0x05	; 5
    28b6:	22 0f       	add	r18, r18
    28b8:	33 1f       	adc	r19, r19
    28ba:	22 0f       	add	r18, r18
    28bc:	33 1f       	adc	r19, r19
    28be:	22 0f       	add	r18, r18
    28c0:	33 1f       	adc	r19, r19
    28c2:	82 2b       	or	r24, r18
    28c4:	93 2b       	or	r25, r19
    28c6:	58 9f       	mul	r21, r24
    28c8:	d0 01       	movw	r26, r0
    28ca:	59 9f       	mul	r21, r25
    28cc:	b0 0d       	add	r27, r0
    28ce:	11 24       	eor	r1, r1
    28d0:	a0 53       	subi	r26, 0x30	; 48
    28d2:	bf 4d       	sbci	r27, 0xDF	; 223
    28d4:	80 91 86 23 	lds	r24, 0x2386
    28d8:	54 96       	adiw	r26, 0x14	; 20
    28da:	8c 93       	st	X, r24
    28dc:	30 81       	ld	r19, Z
    28de:	20 81       	ld	r18, Z
    28e0:	80 81       	ld	r24, Z
    28e2:	40 81       	ld	r20, Z
    28e4:	88 1f       	adc	r24, r24
    28e6:	88 27       	eor	r24, r24
    28e8:	88 1f       	adc	r24, r24
    28ea:	90 e0       	ldi	r25, 0x00	; 0
    28ec:	88 0f       	add	r24, r24
    28ee:	99 1f       	adc	r25, r25
    28f0:	88 0f       	add	r24, r24
    28f2:	99 1f       	adc	r25, r25
    28f4:	36 fb       	bst	r19, 6
    28f6:	33 27       	eor	r19, r19
    28f8:	30 f9       	bld	r19, 0
    28fa:	26 96       	adiw	r28, 0x06	; 6
    28fc:	3f af       	std	Y+63, r19	; 0x3f
    28fe:	26 97       	sbiw	r28, 0x06	; 6
    2900:	27 96       	adiw	r28, 0x07	; 7
    2902:	1f ae       	std	Y+63, r1	; 0x3f
    2904:	27 97       	sbiw	r28, 0x07	; 7
    2906:	27 96       	adiw	r28, 0x07	; 7
    2908:	ae ad       	ldd	r26, Y+62	; 0x3e
    290a:	bf ad       	ldd	r27, Y+63	; 0x3f
    290c:	27 97       	sbiw	r28, 0x07	; 7
    290e:	8a 2b       	or	r24, r26
    2910:	9b 2b       	or	r25, r27
    2912:	22 95       	swap	r18
    2914:	21 70       	andi	r18, 0x01	; 1
    2916:	28 96       	adiw	r28, 0x08	; 8
    2918:	2f af       	std	Y+63, r18	; 0x3f
    291a:	28 97       	sbiw	r28, 0x08	; 8
    291c:	29 96       	adiw	r28, 0x09	; 9
    291e:	1f ae       	std	Y+63, r1	; 0x3f
    2920:	29 97       	sbiw	r28, 0x09	; 9
    2922:	29 96       	adiw	r28, 0x09	; 9
    2924:	2e ad       	ldd	r18, Y+62	; 0x3e
    2926:	3f ad       	ldd	r19, Y+63	; 0x3f
    2928:	29 97       	sbiw	r28, 0x09	; 9
    292a:	22 0f       	add	r18, r18
    292c:	33 1f       	adc	r19, r19
    292e:	82 2b       	or	r24, r18
    2930:	93 2b       	or	r25, r19
    2932:	45 fb       	bst	r20, 5
    2934:	44 27       	eor	r20, r20
    2936:	40 f9       	bld	r20, 0
    2938:	2a 96       	adiw	r28, 0x0a	; 10
    293a:	4f af       	std	Y+63, r20	; 0x3f
    293c:	2a 97       	sbiw	r28, 0x0a	; 10
    293e:	2b 96       	adiw	r28, 0x0b	; 11
    2940:	1f ae       	std	Y+63, r1	; 0x3f
    2942:	2b 97       	sbiw	r28, 0x0b	; 11
    2944:	2b 96       	adiw	r28, 0x0b	; 11
    2946:	2e ad       	ldd	r18, Y+62	; 0x3e
    2948:	3f ad       	ldd	r19, Y+63	; 0x3f
    294a:	2b 97       	sbiw	r28, 0x0b	; 11
    294c:	22 0f       	add	r18, r18
    294e:	33 1f       	adc	r19, r19
    2950:	22 0f       	add	r18, r18
    2952:	33 1f       	adc	r19, r19
    2954:	22 0f       	add	r18, r18
    2956:	33 1f       	adc	r19, r19
    2958:	82 2b       	or	r24, r18
    295a:	93 2b       	or	r25, r19
    295c:	58 9f       	mul	r21, r24
    295e:	d0 01       	movw	r26, r0
    2960:	59 9f       	mul	r21, r25
    2962:	b0 0d       	add	r27, r0
    2964:	11 24       	eor	r1, r1
    2966:	a0 53       	subi	r26, 0x30	; 48
    2968:	bf 4d       	sbci	r27, 0xDF	; 223
    296a:	80 91 87 23 	lds	r24, 0x2387
    296e:	55 96       	adiw	r26, 0x15	; 21
    2970:	8c 93       	st	X, r24
    2972:	30 81       	ld	r19, Z
    2974:	20 81       	ld	r18, Z
    2976:	80 81       	ld	r24, Z
    2978:	40 81       	ld	r20, Z
    297a:	88 1f       	adc	r24, r24
    297c:	88 27       	eor	r24, r24
    297e:	88 1f       	adc	r24, r24
    2980:	90 e0       	ldi	r25, 0x00	; 0
    2982:	88 0f       	add	r24, r24
    2984:	99 1f       	adc	r25, r25
    2986:	88 0f       	add	r24, r24
    2988:	99 1f       	adc	r25, r25
    298a:	36 fb       	bst	r19, 6
    298c:	33 27       	eor	r19, r19
    298e:	30 f9       	bld	r19, 0
    2990:	2c 96       	adiw	r28, 0x0c	; 12
    2992:	3f af       	std	Y+63, r19	; 0x3f
    2994:	2c 97       	sbiw	r28, 0x0c	; 12
    2996:	2d 96       	adiw	r28, 0x0d	; 13
    2998:	1f ae       	std	Y+63, r1	; 0x3f
    299a:	2d 97       	sbiw	r28, 0x0d	; 13
    299c:	2d 96       	adiw	r28, 0x0d	; 13
    299e:	ee ad       	ldd	r30, Y+62	; 0x3e
    29a0:	ff ad       	ldd	r31, Y+63	; 0x3f
    29a2:	2d 97       	sbiw	r28, 0x0d	; 13
    29a4:	8e 2b       	or	r24, r30
    29a6:	9f 2b       	or	r25, r31
    29a8:	22 95       	swap	r18
    29aa:	21 70       	andi	r18, 0x01	; 1
    29ac:	2e 96       	adiw	r28, 0x0e	; 14
    29ae:	2f af       	std	Y+63, r18	; 0x3f
    29b0:	2e 97       	sbiw	r28, 0x0e	; 14
    29b2:	2f 96       	adiw	r28, 0x0f	; 15
    29b4:	1f ae       	std	Y+63, r1	; 0x3f
    29b6:	2f 97       	sbiw	r28, 0x0f	; 15
    29b8:	2f 96       	adiw	r28, 0x0f	; 15
    29ba:	2e ad       	ldd	r18, Y+62	; 0x3e
    29bc:	3f ad       	ldd	r19, Y+63	; 0x3f
    29be:	2f 97       	sbiw	r28, 0x0f	; 15
    29c0:	22 0f       	add	r18, r18
    29c2:	33 1f       	adc	r19, r19
    29c4:	82 2b       	or	r24, r18
    29c6:	93 2b       	or	r25, r19
    29c8:	45 fb       	bst	r20, 5
    29ca:	44 27       	eor	r20, r20
    29cc:	40 f9       	bld	r20, 0
    29ce:	60 96       	adiw	r28, 0x10	; 16
    29d0:	4f af       	std	Y+63, r20	; 0x3f
    29d2:	60 97       	sbiw	r28, 0x10	; 16
    29d4:	61 96       	adiw	r28, 0x11	; 17
    29d6:	1f ae       	std	Y+63, r1	; 0x3f
    29d8:	61 97       	sbiw	r28, 0x11	; 17
    29da:	61 96       	adiw	r28, 0x11	; 17
    29dc:	2e ad       	ldd	r18, Y+62	; 0x3e
    29de:	3f ad       	ldd	r19, Y+63	; 0x3f
    29e0:	61 97       	sbiw	r28, 0x11	; 17
    29e2:	22 0f       	add	r18, r18
    29e4:	33 1f       	adc	r19, r19
    29e6:	22 0f       	add	r18, r18
    29e8:	33 1f       	adc	r19, r19
    29ea:	22 0f       	add	r18, r18
    29ec:	33 1f       	adc	r19, r19
    29ee:	82 2b       	or	r24, r18
    29f0:	93 2b       	or	r25, r19
    29f2:	58 9f       	mul	r21, r24
    29f4:	f0 01       	movw	r30, r0
    29f6:	59 9f       	mul	r21, r25
    29f8:	f0 0d       	add	r31, r0
    29fa:	11 24       	eor	r1, r1
    29fc:	e0 53       	subi	r30, 0x30	; 48
    29fe:	ff 4d       	sbci	r31, 0xDF	; 223
    2a00:	80 91 88 23 	lds	r24, 0x2388
    2a04:	86 8b       	std	Z+22, r24	; 0x16
    2a06:	d5 fe       	sbrs	r13, 5
    2a08:	04 c0       	rjmp	.+8      	; 0x2a12 <__vector_43+0x83c>
    2a0a:	80 e2       	ldi	r24, 0x20	; 32
    2a0c:	e0 e6       	ldi	r30, 0x60	; 96
    2a0e:	f6 e0       	ldi	r31, 0x06	; 6
    2a10:	87 83       	std	Z+7, r24	; 0x07
    2a12:	d4 fe       	sbrs	r13, 4
    2a14:	06 c0       	rjmp	.+12     	; 0x2a22 <__vector_43+0x84c>
    2a16:	84 e0       	ldi	r24, 0x04	; 4
    2a18:	e0 e6       	ldi	r30, 0x60	; 96
    2a1a:	f6 e0       	ldi	r31, 0x06	; 6
    2a1c:	87 83       	std	Z+7, r24	; 0x07
    2a1e:	0e 94 10 24 	call	0x4820	; 0x4820 <NRF24L01_L_Flush_TX>
    2a22:	ce 5a       	subi	r28, 0xAE	; 174
    2a24:	df 4f       	sbci	r29, 0xFF	; 255
    2a26:	cd bf       	out	0x3d, r28	; 61
    2a28:	de bf       	out	0x3e, r29	; 62
    2a2a:	df 91       	pop	r29
    2a2c:	cf 91       	pop	r28
    2a2e:	ff 91       	pop	r31
    2a30:	ef 91       	pop	r30
    2a32:	bf 91       	pop	r27
    2a34:	af 91       	pop	r26
    2a36:	9f 91       	pop	r25
    2a38:	8f 91       	pop	r24
    2a3a:	7f 91       	pop	r23
    2a3c:	6f 91       	pop	r22
    2a3e:	5f 91       	pop	r21
    2a40:	4f 91       	pop	r20
    2a42:	3f 91       	pop	r19
    2a44:	2f 91       	pop	r18
    2a46:	1f 91       	pop	r17
    2a48:	0f 91       	pop	r16
    2a4a:	ff 90       	pop	r15
    2a4c:	ef 90       	pop	r14
    2a4e:	df 90       	pop	r13
    2a50:	bf 90       	pop	r11
    2a52:	af 90       	pop	r10
    2a54:	9f 90       	pop	r9
    2a56:	8f 90       	pop	r8
    2a58:	7f 90       	pop	r7
    2a5a:	6f 90       	pop	r6
    2a5c:	5f 90       	pop	r5
    2a5e:	4f 90       	pop	r4
    2a60:	3f 90       	pop	r3
    2a62:	2f 90       	pop	r2
    2a64:	0f 90       	pop	r0
    2a66:	0b be       	out	0x3b, r0	; 59
    2a68:	0f 90       	pop	r0
    2a6a:	0a be       	out	0x3a, r0	; 58
    2a6c:	0f 90       	pop	r0
    2a6e:	09 be       	out	0x39, r0	; 57
    2a70:	0f 90       	pop	r0
    2a72:	08 be       	out	0x38, r0	; 56
    2a74:	0f 90       	pop	r0
    2a76:	0f be       	out	0x3f, r0	; 63
    2a78:	0f 90       	pop	r0
    2a7a:	1f 90       	pop	r1
    2a7c:	18 95       	reti

00002a7e <__vector_77>:
    2a7e:	1f 92       	push	r1
    2a80:	0f 92       	push	r0
    2a82:	0f b6       	in	r0, 0x3f	; 63
    2a84:	0f 92       	push	r0
    2a86:	11 24       	eor	r1, r1
    2a88:	08 b6       	in	r0, 0x38	; 56
    2a8a:	0f 92       	push	r0
    2a8c:	18 be       	out	0x38, r1	; 56
    2a8e:	09 b6       	in	r0, 0x39	; 57
    2a90:	0f 92       	push	r0
    2a92:	19 be       	out	0x39, r1	; 57
    2a94:	0a b6       	in	r0, 0x3a	; 58
    2a96:	0f 92       	push	r0
    2a98:	1a be       	out	0x3a, r1	; 58
    2a9a:	0b b6       	in	r0, 0x3b	; 59
    2a9c:	0f 92       	push	r0
    2a9e:	1b be       	out	0x3b, r1	; 59
    2aa0:	af 92       	push	r10
    2aa2:	bf 92       	push	r11
    2aa4:	df 92       	push	r13
    2aa6:	ef 92       	push	r14
    2aa8:	ff 92       	push	r15
    2aaa:	0f 93       	push	r16
    2aac:	1f 93       	push	r17
    2aae:	2f 93       	push	r18
    2ab0:	3f 93       	push	r19
    2ab2:	4f 93       	push	r20
    2ab4:	5f 93       	push	r21
    2ab6:	6f 93       	push	r22
    2ab8:	7f 93       	push	r23
    2aba:	8f 93       	push	r24
    2abc:	9f 93       	push	r25
    2abe:	af 93       	push	r26
    2ac0:	bf 93       	push	r27
    2ac2:	cf 93       	push	r28
    2ac4:	df 93       	push	r29
    2ac6:	ef 93       	push	r30
    2ac8:	ff 93       	push	r31
    2aca:	a8 95       	wdr
    2acc:	80 91 9e 23 	lds	r24, 0x239E
    2ad0:	8f 5f       	subi	r24, 0xFF	; 255
    2ad2:	80 93 9e 23 	sts	0x239E, r24
    2ad6:	84 31       	cpi	r24, 0x14	; 20
    2ad8:	b4 f0       	brlt	.+44     	; 0x2b06 <__vector_77+0x88>
    2ada:	81 e0       	ldi	r24, 0x01	; 1
    2adc:	80 93 b8 20 	sts	0x20B8, r24
    2ae0:	80 91 fd 23 	lds	r24, 0x23FD
    2ae4:	90 91 fe 23 	lds	r25, 0x23FE
    2ae8:	01 96       	adiw	r24, 0x01	; 1
    2aea:	81 70       	andi	r24, 0x01	; 1
    2aec:	90 78       	andi	r25, 0x80	; 128
    2aee:	99 23       	and	r25, r25
    2af0:	24 f4       	brge	.+8      	; 0x2afa <__vector_77+0x7c>
    2af2:	01 97       	sbiw	r24, 0x01	; 1
    2af4:	8e 6f       	ori	r24, 0xFE	; 254
    2af6:	9f 6f       	ori	r25, 0xFF	; 255
    2af8:	01 96       	adiw	r24, 0x01	; 1
    2afa:	80 93 fd 23 	sts	0x23FD, r24
    2afe:	90 93 fe 23 	sts	0x23FE, r25
    2b02:	10 92 9e 23 	sts	0x239E, r1
    2b06:	80 91 b9 20 	lds	r24, 0x20B9
    2b0a:	90 91 ba 20 	lds	r25, 0x20BA
    2b0e:	a0 91 bb 20 	lds	r26, 0x20BB
    2b12:	b0 91 bc 20 	lds	r27, 0x20BC
    2b16:	01 96       	adiw	r24, 0x01	; 1
    2b18:	a1 1d       	adc	r26, r1
    2b1a:	b1 1d       	adc	r27, r1
    2b1c:	80 93 b9 20 	sts	0x20B9, r24
    2b20:	90 93 ba 20 	sts	0x20BA, r25
    2b24:	a0 93 bb 20 	sts	0x20BB, r26
    2b28:	b0 93 bc 20 	sts	0x20BC, r27
    2b2c:	80 91 c1 20 	lds	r24, 0x20C1
    2b30:	90 91 c2 20 	lds	r25, 0x20C2
    2b34:	89 2b       	or	r24, r25
    2b36:	09 f4       	brne	.+2      	; 0x2b3a <__vector_77+0xbc>
    2b38:	40 c0       	rjmp	.+128    	; 0x2bba <__vector_77+0x13c>
    2b3a:	80 91 ea 21 	lds	r24, 0x21EA
    2b3e:	90 91 eb 21 	lds	r25, 0x21EB
    2b42:	a0 91 ec 21 	lds	r26, 0x21EC
    2b46:	b0 91 ed 21 	lds	r27, 0x21ED
    2b4a:	88 3b       	cpi	r24, 0xB8	; 184
    2b4c:	2b e0       	ldi	r18, 0x0B	; 11
    2b4e:	92 07       	cpc	r25, r18
    2b50:	a1 05       	cpc	r26, r1
    2b52:	b1 05       	cpc	r27, r1
    2b54:	d0 f4       	brcc	.+52     	; 0x2b8a <__vector_77+0x10c>
    2b56:	01 96       	adiw	r24, 0x01	; 1
    2b58:	a1 1d       	adc	r26, r1
    2b5a:	b1 1d       	adc	r27, r1
    2b5c:	80 93 ea 21 	sts	0x21EA, r24
    2b60:	90 93 eb 21 	sts	0x21EB, r25
    2b64:	a0 93 ec 21 	sts	0x21EC, r26
    2b68:	b0 93 ed 21 	sts	0x21ED, r27
    2b6c:	a0 e2       	ldi	r26, 0x20	; 32
    2b6e:	b6 e0       	ldi	r27, 0x06	; 6
    2b70:	14 96       	adiw	r26, 0x04	; 4
    2b72:	8c 91       	ld	r24, X
    2b74:	14 97       	sbiw	r26, 0x04	; 4
    2b76:	80 64       	ori	r24, 0x40	; 64
    2b78:	14 96       	adiw	r26, 0x04	; 4
    2b7a:	8c 93       	st	X, r24
    2b7c:	8f ef       	ldi	r24, 0xFF	; 255
    2b7e:	90 e0       	ldi	r25, 0x00	; 0
    2b80:	80 93 2a 08 	sts	0x082A, r24
    2b84:	90 93 2b 08 	sts	0x082B, r25
    2b88:	18 c0       	rjmp	.+48     	; 0x2bba <__vector_77+0x13c>
    2b8a:	10 92 2a 08 	sts	0x082A, r1
    2b8e:	10 92 2b 08 	sts	0x082B, r1
    2b92:	a0 e2       	ldi	r26, 0x20	; 32
    2b94:	b6 e0       	ldi	r27, 0x06	; 6
    2b96:	14 96       	adiw	r26, 0x04	; 4
    2b98:	8c 91       	ld	r24, X
    2b9a:	14 97       	sbiw	r26, 0x04	; 4
    2b9c:	8f 7b       	andi	r24, 0xBF	; 191
    2b9e:	14 96       	adiw	r26, 0x04	; 4
    2ba0:	8c 93       	st	X, r24
    2ba2:	10 92 ea 21 	sts	0x21EA, r1
    2ba6:	10 92 eb 21 	sts	0x21EB, r1
    2baa:	10 92 ec 21 	sts	0x21EC, r1
    2bae:	10 92 ed 21 	sts	0x21ED, r1
    2bb2:	10 92 c1 20 	sts	0x20C1, r1
    2bb6:	10 92 c2 20 	sts	0x20C2, r1
    2bba:	80 91 bf 20 	lds	r24, 0x20BF
    2bbe:	90 91 c0 20 	lds	r25, 0x20C0
    2bc2:	89 2b       	or	r24, r25
    2bc4:	09 f4       	brne	.+2      	; 0x2bc8 <__vector_77+0x14a>
    2bc6:	3f c0       	rjmp	.+126    	; 0x2c46 <__vector_77+0x1c8>
    2bc8:	80 91 ea 21 	lds	r24, 0x21EA
    2bcc:	90 91 eb 21 	lds	r25, 0x21EB
    2bd0:	a0 91 ec 21 	lds	r26, 0x21EC
    2bd4:	b0 91 ed 21 	lds	r27, 0x21ED
    2bd8:	84 36       	cpi	r24, 0x64	; 100
    2bda:	91 05       	cpc	r25, r1
    2bdc:	a1 05       	cpc	r26, r1
    2bde:	b1 05       	cpc	r27, r1
    2be0:	d0 f4       	brcc	.+52     	; 0x2c16 <__vector_77+0x198>
    2be2:	01 96       	adiw	r24, 0x01	; 1
    2be4:	a1 1d       	adc	r26, r1
    2be6:	b1 1d       	adc	r27, r1
    2be8:	80 93 ea 21 	sts	0x21EA, r24
    2bec:	90 93 eb 21 	sts	0x21EB, r25
    2bf0:	a0 93 ec 21 	sts	0x21EC, r26
    2bf4:	b0 93 ed 21 	sts	0x21ED, r27
    2bf8:	8f ef       	ldi	r24, 0xFF	; 255
    2bfa:	90 e0       	ldi	r25, 0x00	; 0
    2bfc:	80 93 28 08 	sts	0x0828, r24
    2c00:	90 93 29 08 	sts	0x0829, r25
    2c04:	a0 e2       	ldi	r26, 0x20	; 32
    2c06:	b6 e0       	ldi	r27, 0x06	; 6
    2c08:	14 96       	adiw	r26, 0x04	; 4
    2c0a:	8c 91       	ld	r24, X
    2c0c:	14 97       	sbiw	r26, 0x04	; 4
    2c0e:	80 64       	ori	r24, 0x40	; 64
    2c10:	14 96       	adiw	r26, 0x04	; 4
    2c12:	8c 93       	st	X, r24
    2c14:	18 c0       	rjmp	.+48     	; 0x2c46 <__vector_77+0x1c8>
    2c16:	10 92 28 08 	sts	0x0828, r1
    2c1a:	10 92 29 08 	sts	0x0829, r1
    2c1e:	a0 e2       	ldi	r26, 0x20	; 32
    2c20:	b6 e0       	ldi	r27, 0x06	; 6
    2c22:	14 96       	adiw	r26, 0x04	; 4
    2c24:	8c 91       	ld	r24, X
    2c26:	14 97       	sbiw	r26, 0x04	; 4
    2c28:	8f 7b       	andi	r24, 0xBF	; 191
    2c2a:	14 96       	adiw	r26, 0x04	; 4
    2c2c:	8c 93       	st	X, r24
    2c2e:	10 92 ea 21 	sts	0x21EA, r1
    2c32:	10 92 eb 21 	sts	0x21EB, r1
    2c36:	10 92 ec 21 	sts	0x21EC, r1
    2c3a:	10 92 ed 21 	sts	0x21ED, r1
    2c3e:	10 92 bf 20 	sts	0x20BF, r1
    2c42:	10 92 c0 20 	sts	0x20C0, r1
    2c46:	80 91 c3 20 	lds	r24, 0x20C3
    2c4a:	90 91 c4 20 	lds	r25, 0x20C4
    2c4e:	01 96       	adiw	r24, 0x01	; 1
    2c50:	80 93 c3 20 	sts	0x20C3, r24
    2c54:	90 93 c4 20 	sts	0x20C4, r25
    2c58:	80 91 60 20 	lds	r24, 0x2060
    2c5c:	90 91 61 20 	lds	r25, 0x2061
    2c60:	81 30       	cpi	r24, 0x01	; 1
    2c62:	91 05       	cpc	r25, r1
    2c64:	81 f4       	brne	.+32     	; 0x2c86 <__vector_77+0x208>
    2c66:	10 92 c5 20 	sts	0x20C5, r1
    2c6a:	0e 94 98 02 	call	0x530	; 0x530 <Menu_Display>
    2c6e:	0e 94 c4 02 	call	0x588	; 0x588 <Menu_Reset>
    2c72:	80 91 60 20 	lds	r24, 0x2060
    2c76:	90 91 61 20 	lds	r25, 0x2061
    2c7a:	01 97       	sbiw	r24, 0x01	; 1
    2c7c:	80 93 60 20 	sts	0x2060, r24
    2c80:	90 93 61 20 	sts	0x2061, r25
    2c84:	87 c0       	rjmp	.+270    	; 0x2d94 <__vector_77+0x316>
    2c86:	82 30       	cpi	r24, 0x02	; 2
    2c88:	91 05       	cpc	r25, r1
    2c8a:	08 f1       	brcs	.+66     	; 0x2cce <__vector_77+0x250>
    2c8c:	01 97       	sbiw	r24, 0x01	; 1
    2c8e:	80 93 60 20 	sts	0x2060, r24
    2c92:	90 93 61 20 	sts	0x2061, r25
    2c96:	0e 94 e9 02 	call	0x5d2	; 0x5d2 <menu_check_status>
    2c9a:	80 91 60 20 	lds	r24, 0x2060
    2c9e:	90 91 61 20 	lds	r25, 0x2061
    2ca2:	88 3b       	cpi	r24, 0xB8	; 184
    2ca4:	2b e0       	ldi	r18, 0x0B	; 11
    2ca6:	92 07       	cpc	r25, r18
    2ca8:	08 f0       	brcs	.+2      	; 0x2cac <__vector_77+0x22e>
    2caa:	74 c0       	rjmp	.+232    	; 0x2d94 <__vector_77+0x316>
    2cac:	a0 e0       	ldi	r26, 0x00	; 0
    2cae:	b0 e0       	ldi	r27, 0x00	; 0
    2cb0:	80 93 2c 20 	sts	0x202C, r24
    2cb4:	90 93 2d 20 	sts	0x202D, r25
    2cb8:	a0 93 2e 20 	sts	0x202E, r26
    2cbc:	b0 93 2f 20 	sts	0x202F, r27
    2cc0:	88 ec       	ldi	r24, 0xC8	; 200
    2cc2:	90 e0       	ldi	r25, 0x00	; 0
    2cc4:	80 93 62 22 	sts	0x2262, r24
    2cc8:	90 93 63 22 	sts	0x2263, r25
    2ccc:	63 c0       	rjmp	.+198    	; 0x2d94 <__vector_77+0x316>
    2cce:	a8 e0       	ldi	r26, 0x08	; 8
    2cd0:	b6 e0       	ldi	r27, 0x06	; 6
    2cd2:	dc 90       	ld	r13, X
    2cd4:	ec 90       	ld	r14, X
    2cd6:	8c 91       	ld	r24, X
    2cd8:	fc 90       	ld	r15, X
    2cda:	88 1f       	adc	r24, r24
    2cdc:	88 27       	eor	r24, r24
    2cde:	88 1f       	adc	r24, r24
    2ce0:	90 e0       	ldi	r25, 0x00	; 0
    2ce2:	88 0f       	add	r24, r24
    2ce4:	99 1f       	adc	r25, r25
    2ce6:	88 0f       	add	r24, r24
    2ce8:	99 1f       	adc	r25, r25
    2cea:	d6 fa       	bst	r13, 6
    2cec:	00 27       	eor	r16, r16
    2cee:	00 f9       	bld	r16, 0
    2cf0:	10 e0       	ldi	r17, 0x00	; 0
    2cf2:	08 2b       	or	r16, r24
    2cf4:	19 2b       	or	r17, r25
    2cf6:	e4 fa       	bst	r14, 4
    2cf8:	ee 24       	eor	r14, r14
    2cfa:	e0 f8       	bld	r14, 0
    2cfc:	ce 2d       	mov	r28, r14
    2cfe:	80 e0       	ldi	r24, 0x00	; 0
    2d00:	d8 2f       	mov	r29, r24
    2d02:	cc 0f       	add	r28, r28
    2d04:	dd 1f       	adc	r29, r29
    2d06:	0c 2b       	or	r16, r28
    2d08:	1d 2b       	or	r17, r29
    2d0a:	f5 fa       	bst	r15, 5
    2d0c:	ee 27       	eor	r30, r30
    2d0e:	e0 f9       	bld	r30, 0
    2d10:	f0 e0       	ldi	r31, 0x00	; 0
    2d12:	cf 01       	movw	r24, r30
    2d14:	88 0f       	add	r24, r24
    2d16:	99 1f       	adc	r25, r25
    2d18:	88 0f       	add	r24, r24
    2d1a:	99 1f       	adc	r25, r25
    2d1c:	88 0f       	add	r24, r24
    2d1e:	99 1f       	adc	r25, r25
    2d20:	f8 01       	movw	r30, r16
    2d22:	e8 2b       	or	r30, r24
    2d24:	f9 2b       	or	r31, r25
    2d26:	ee 0f       	add	r30, r30
    2d28:	ff 1f       	adc	r31, r31
    2d2a:	e8 5f       	subi	r30, 0xF8	; 248
    2d2c:	ff 4d       	sbci	r31, 0xDF	; 223
    2d2e:	80 81       	ld	r24, Z
    2d30:	e0 e2       	ldi	r30, 0x20	; 32
    2d32:	f7 e0       	ldi	r31, 0x07	; 7
    2d34:	84 83       	std	Z+4, r24	; 0x04
    2d36:	cc 91       	ld	r28, X
    2d38:	9c 91       	ld	r25, X
    2d3a:	ec 91       	ld	r30, X
    2d3c:	8c 91       	ld	r24, X
    2d3e:	ee 1f       	adc	r30, r30
    2d40:	ee 27       	eor	r30, r30
    2d42:	ee 1f       	adc	r30, r30
    2d44:	f0 e0       	ldi	r31, 0x00	; 0
    2d46:	ee 0f       	add	r30, r30
    2d48:	ff 1f       	adc	r31, r31
    2d4a:	ee 0f       	add	r30, r30
    2d4c:	ff 1f       	adc	r31, r31
    2d4e:	c6 fb       	bst	r28, 6
    2d50:	66 27       	eor	r22, r22
    2d52:	60 f9       	bld	r22, 0
    2d54:	70 e0       	ldi	r23, 0x00	; 0
    2d56:	e6 2b       	or	r30, r22
    2d58:	f7 2b       	or	r31, r23
    2d5a:	94 fb       	bst	r25, 4
    2d5c:	44 27       	eor	r20, r20
    2d5e:	40 f9       	bld	r20, 0
    2d60:	50 e0       	ldi	r21, 0x00	; 0
    2d62:	44 0f       	add	r20, r20
    2d64:	55 1f       	adc	r21, r21
    2d66:	e4 2b       	or	r30, r20
    2d68:	f5 2b       	or	r31, r21
    2d6a:	85 fb       	bst	r24, 5
    2d6c:	aa 24       	eor	r10, r10
    2d6e:	a0 f8       	bld	r10, 0
    2d70:	b1 2c       	mov	r11, r1
    2d72:	95 01       	movw	r18, r10
    2d74:	22 0f       	add	r18, r18
    2d76:	33 1f       	adc	r19, r19
    2d78:	22 0f       	add	r18, r18
    2d7a:	33 1f       	adc	r19, r19
    2d7c:	22 0f       	add	r18, r18
    2d7e:	33 1f       	adc	r19, r19
    2d80:	e2 2b       	or	r30, r18
    2d82:	f3 2b       	or	r31, r19
    2d84:	ee 0f       	add	r30, r30
    2d86:	ff 1f       	adc	r31, r31
    2d88:	e8 5f       	subi	r30, 0xF8	; 248
    2d8a:	ff 4d       	sbci	r31, 0xDF	; 223
    2d8c:	80 81       	ld	r24, Z
    2d8e:	e0 e0       	ldi	r30, 0x00	; 0
    2d90:	f7 e0       	ldi	r31, 0x07	; 7
    2d92:	84 83       	std	Z+4, r24	; 0x04
    2d94:	ff 91       	pop	r31
    2d96:	ef 91       	pop	r30
    2d98:	df 91       	pop	r29
    2d9a:	cf 91       	pop	r28
    2d9c:	bf 91       	pop	r27
    2d9e:	af 91       	pop	r26
    2da0:	9f 91       	pop	r25
    2da2:	8f 91       	pop	r24
    2da4:	7f 91       	pop	r23
    2da6:	6f 91       	pop	r22
    2da8:	5f 91       	pop	r21
    2daa:	4f 91       	pop	r20
    2dac:	3f 91       	pop	r19
    2dae:	2f 91       	pop	r18
    2db0:	1f 91       	pop	r17
    2db2:	0f 91       	pop	r16
    2db4:	ff 90       	pop	r15
    2db6:	ef 90       	pop	r14
    2db8:	df 90       	pop	r13
    2dba:	bf 90       	pop	r11
    2dbc:	af 90       	pop	r10
    2dbe:	0f 90       	pop	r0
    2dc0:	0b be       	out	0x3b, r0	; 59
    2dc2:	0f 90       	pop	r0
    2dc4:	0a be       	out	0x3a, r0	; 58
    2dc6:	0f 90       	pop	r0
    2dc8:	09 be       	out	0x39, r0	; 57
    2dca:	0f 90       	pop	r0
    2dcc:	08 be       	out	0x38, r0	; 56
    2dce:	0f 90       	pop	r0
    2dd0:	0f be       	out	0x3f, r0	; 63
    2dd2:	0f 90       	pop	r0
    2dd4:	1f 90       	pop	r1
    2dd6:	18 95       	reti

00002dd8 <__vector_104>:
    2dd8:	1f 92       	push	r1
    2dda:	0f 92       	push	r0
    2ddc:	0f b6       	in	r0, 0x3f	; 63
    2dde:	0f 92       	push	r0
    2de0:	11 24       	eor	r1, r1
    2de2:	08 b6       	in	r0, 0x38	; 56
    2de4:	0f 92       	push	r0
    2de6:	18 be       	out	0x38, r1	; 56
    2de8:	0f 90       	pop	r0
    2dea:	08 be       	out	0x38, r0	; 56
    2dec:	0f 90       	pop	r0
    2dee:	0f be       	out	0x3f, r0	; 63
    2df0:	0f 90       	pop	r0
    2df2:	1f 90       	pop	r1
    2df4:	18 95       	reti

00002df6 <__vector_94>:
    2df6:	1f 92       	push	r1
    2df8:	0f 92       	push	r0
    2dfa:	0f b6       	in	r0, 0x3f	; 63
    2dfc:	0f 92       	push	r0
    2dfe:	11 24       	eor	r1, r1
    2e00:	08 b6       	in	r0, 0x38	; 56
    2e02:	0f 92       	push	r0
    2e04:	18 be       	out	0x38, r1	; 56
    2e06:	2f 93       	push	r18
    2e08:	3f 93       	push	r19
    2e0a:	8f 93       	push	r24
    2e0c:	9f 93       	push	r25
    2e0e:	20 91 41 24 	lds	r18, 0x2441
    2e12:	30 91 42 24 	lds	r19, 0x2442
    2e16:	80 91 c8 07 	lds	r24, 0x07C8
    2e1a:	81 ff       	sbrs	r24, 1
    2e1c:	03 c0       	rjmp	.+6      	; 0x2e24 <__vector_94+0x2e>
    2e1e:	8f ef       	ldi	r24, 0xFF	; 255
    2e20:	9f ef       	ldi	r25, 0xFF	; 255
    2e22:	02 c0       	rjmp	.+4      	; 0x2e28 <__vector_94+0x32>
    2e24:	81 e0       	ldi	r24, 0x01	; 1
    2e26:	90 e0       	ldi	r25, 0x00	; 0
    2e28:	82 0f       	add	r24, r18
    2e2a:	93 1f       	adc	r25, r19
    2e2c:	80 93 41 24 	sts	0x2441, r24
    2e30:	90 93 42 24 	sts	0x2442, r25
    2e34:	9f 91       	pop	r25
    2e36:	8f 91       	pop	r24
    2e38:	3f 91       	pop	r19
    2e3a:	2f 91       	pop	r18
    2e3c:	0f 90       	pop	r0
    2e3e:	08 be       	out	0x38, r0	; 56
    2e40:	0f 90       	pop	r0
    2e42:	0f be       	out	0x3f, r0	; 63
    2e44:	0f 90       	pop	r0
    2e46:	1f 90       	pop	r1
    2e48:	18 95       	reti

00002e4a <__vector_96>:
    2e4a:	1f 92       	push	r1
    2e4c:	0f 92       	push	r0
    2e4e:	0f b6       	in	r0, 0x3f	; 63
    2e50:	0f 92       	push	r0
    2e52:	11 24       	eor	r1, r1
    2e54:	08 b6       	in	r0, 0x38	; 56
    2e56:	0f 92       	push	r0
    2e58:	18 be       	out	0x38, r1	; 56
    2e5a:	2f 93       	push	r18
    2e5c:	3f 93       	push	r19
    2e5e:	8f 93       	push	r24
    2e60:	9f 93       	push	r25
    2e62:	20 91 aa 23 	lds	r18, 0x23AA
    2e66:	30 91 ab 23 	lds	r19, 0x23AB
    2e6a:	80 91 e8 06 	lds	r24, 0x06E8
    2e6e:	84 ff       	sbrs	r24, 4
    2e70:	03 c0       	rjmp	.+6      	; 0x2e78 <__vector_96+0x2e>
    2e72:	8f ef       	ldi	r24, 0xFF	; 255
    2e74:	9f ef       	ldi	r25, 0xFF	; 255
    2e76:	02 c0       	rjmp	.+4      	; 0x2e7c <__vector_96+0x32>
    2e78:	81 e0       	ldi	r24, 0x01	; 1
    2e7a:	90 e0       	ldi	r25, 0x00	; 0
    2e7c:	82 0f       	add	r24, r18
    2e7e:	93 1f       	adc	r25, r19
    2e80:	80 93 aa 23 	sts	0x23AA, r24
    2e84:	90 93 ab 23 	sts	0x23AB, r25
    2e88:	9f 91       	pop	r25
    2e8a:	8f 91       	pop	r24
    2e8c:	3f 91       	pop	r19
    2e8e:	2f 91       	pop	r18
    2e90:	0f 90       	pop	r0
    2e92:	08 be       	out	0x38, r0	; 56
    2e94:	0f 90       	pop	r0
    2e96:	0f be       	out	0x3f, r0	; 63
    2e98:	0f 90       	pop	r0
    2e9a:	1f 90       	pop	r1
    2e9c:	18 95       	reti

00002e9e <__vector_2>:
    2e9e:	1f 92       	push	r1
    2ea0:	0f 92       	push	r0
    2ea2:	0f b6       	in	r0, 0x3f	; 63
    2ea4:	0f 92       	push	r0
    2ea6:	11 24       	eor	r1, r1
    2ea8:	08 b6       	in	r0, 0x38	; 56
    2eaa:	0f 92       	push	r0
    2eac:	18 be       	out	0x38, r1	; 56
    2eae:	2f 93       	push	r18
    2eb0:	3f 93       	push	r19
    2eb2:	8f 93       	push	r24
    2eb4:	9f 93       	push	r25
    2eb6:	20 91 e6 23 	lds	r18, 0x23E6
    2eba:	30 91 e7 23 	lds	r19, 0x23E7
    2ebe:	80 91 48 06 	lds	r24, 0x0648
    2ec2:	84 ff       	sbrs	r24, 4
    2ec4:	03 c0       	rjmp	.+6      	; 0x2ecc <__vector_2+0x2e>
    2ec6:	8f ef       	ldi	r24, 0xFF	; 255
    2ec8:	9f ef       	ldi	r25, 0xFF	; 255
    2eca:	02 c0       	rjmp	.+4      	; 0x2ed0 <__vector_2+0x32>
    2ecc:	81 e0       	ldi	r24, 0x01	; 1
    2ece:	90 e0       	ldi	r25, 0x00	; 0
    2ed0:	82 0f       	add	r24, r18
    2ed2:	93 1f       	adc	r25, r19
    2ed4:	80 93 e6 23 	sts	0x23E6, r24
    2ed8:	90 93 e7 23 	sts	0x23E7, r25
    2edc:	9f 91       	pop	r25
    2ede:	8f 91       	pop	r24
    2ee0:	3f 91       	pop	r19
    2ee2:	2f 91       	pop	r18
    2ee4:	0f 90       	pop	r0
    2ee6:	08 be       	out	0x38, r0	; 56
    2ee8:	0f 90       	pop	r0
    2eea:	0f be       	out	0x3f, r0	; 63
    2eec:	0f 90       	pop	r0
    2eee:	1f 90       	pop	r1
    2ef0:	18 95       	reti

00002ef2 <__vector_95>:
    2ef2:	1f 92       	push	r1
    2ef4:	0f 92       	push	r0
    2ef6:	0f b6       	in	r0, 0x3f	; 63
    2ef8:	0f 92       	push	r0
    2efa:	11 24       	eor	r1, r1
    2efc:	08 b6       	in	r0, 0x38	; 56
    2efe:	0f 92       	push	r0
    2f00:	18 be       	out	0x38, r1	; 56
    2f02:	2f 93       	push	r18
    2f04:	3f 93       	push	r19
    2f06:	8f 93       	push	r24
    2f08:	9f 93       	push	r25
    2f0a:	20 91 5f 24 	lds	r18, 0x245F
    2f0e:	30 91 60 24 	lds	r19, 0x2460
    2f12:	80 91 c8 07 	lds	r24, 0x07C8
    2f16:	82 ff       	sbrs	r24, 2
    2f18:	03 c0       	rjmp	.+6      	; 0x2f20 <__vector_95+0x2e>
    2f1a:	8f ef       	ldi	r24, 0xFF	; 255
    2f1c:	9f ef       	ldi	r25, 0xFF	; 255
    2f1e:	02 c0       	rjmp	.+4      	; 0x2f24 <__vector_95+0x32>
    2f20:	81 e0       	ldi	r24, 0x01	; 1
    2f22:	90 e0       	ldi	r25, 0x00	; 0
    2f24:	82 0f       	add	r24, r18
    2f26:	93 1f       	adc	r25, r19
    2f28:	80 93 5f 24 	sts	0x245F, r24
    2f2c:	90 93 60 24 	sts	0x2460, r25
    2f30:	9f 91       	pop	r25
    2f32:	8f 91       	pop	r24
    2f34:	3f 91       	pop	r19
    2f36:	2f 91       	pop	r18
    2f38:	0f 90       	pop	r0
    2f3a:	08 be       	out	0x38, r0	; 56
    2f3c:	0f 90       	pop	r0
    2f3e:	0f be       	out	0x3f, r0	; 63
    2f40:	0f 90       	pop	r0
    2f42:	1f 90       	pop	r1
    2f44:	18 95       	reti

00002f46 <__vector_97>:
    2f46:	1f 92       	push	r1
    2f48:	0f 92       	push	r0
    2f4a:	0f b6       	in	r0, 0x3f	; 63
    2f4c:	0f 92       	push	r0
    2f4e:	11 24       	eor	r1, r1
    2f50:	08 b6       	in	r0, 0x38	; 56
    2f52:	0f 92       	push	r0
    2f54:	18 be       	out	0x38, r1	; 56
    2f56:	09 b6       	in	r0, 0x39	; 57
    2f58:	0f 92       	push	r0
    2f5a:	19 be       	out	0x39, r1	; 57
    2f5c:	0b b6       	in	r0, 0x3b	; 59
    2f5e:	0f 92       	push	r0
    2f60:	1b be       	out	0x3b, r1	; 59
    2f62:	2f 93       	push	r18
    2f64:	3f 93       	push	r19
    2f66:	4f 93       	push	r20
    2f68:	5f 93       	push	r21
    2f6a:	6f 93       	push	r22
    2f6c:	7f 93       	push	r23
    2f6e:	8f 93       	push	r24
    2f70:	9f 93       	push	r25
    2f72:	af 93       	push	r26
    2f74:	bf 93       	push	r27
    2f76:	ef 93       	push	r30
    2f78:	ff 93       	push	r31
    2f7a:	80 91 60 20 	lds	r24, 0x2060
    2f7e:	90 91 61 20 	lds	r25, 0x2061
    2f82:	89 2b       	or	r24, r25
    2f84:	89 f4       	brne	.+34     	; 0x2fa8 <__vector_97+0x62>
    2f86:	80 91 e8 06 	lds	r24, 0x06E8
    2f8a:	63 e6       	ldi	r22, 0x63	; 99
    2f8c:	70 e2       	ldi	r23, 0x20	; 32
    2f8e:	88 1f       	adc	r24, r24
    2f90:	88 27       	eor	r24, r24
    2f92:	88 1f       	adc	r24, r24
    2f94:	0e 94 89 02 	call	0x512	; 0x512 <menu_check_sw>
    2f98:	80 91 a8 06 	lds	r24, 0x06A8
    2f9c:	62 e6       	ldi	r22, 0x62	; 98
    2f9e:	70 e2       	ldi	r23, 0x20	; 32
    2fa0:	82 95       	swap	r24
    2fa2:	81 70       	andi	r24, 0x01	; 1
    2fa4:	0e 94 89 02 	call	0x512	; 0x512 <menu_check_sw>
    2fa8:	80 e3       	ldi	r24, 0x30	; 48
    2faa:	95 e7       	ldi	r25, 0x75	; 117
    2fac:	80 93 60 20 	sts	0x2060, r24
    2fb0:	90 93 61 20 	sts	0x2061, r25
    2fb4:	8f ef       	ldi	r24, 0xFF	; 255
    2fb6:	80 93 c5 20 	sts	0x20C5, r24
    2fba:	0e 94 98 02 	call	0x530	; 0x530 <Menu_Display>
    2fbe:	ff 91       	pop	r31
    2fc0:	ef 91       	pop	r30
    2fc2:	bf 91       	pop	r27
    2fc4:	af 91       	pop	r26
    2fc6:	9f 91       	pop	r25
    2fc8:	8f 91       	pop	r24
    2fca:	7f 91       	pop	r23
    2fcc:	6f 91       	pop	r22
    2fce:	5f 91       	pop	r21
    2fd0:	4f 91       	pop	r20
    2fd2:	3f 91       	pop	r19
    2fd4:	2f 91       	pop	r18
    2fd6:	0f 90       	pop	r0
    2fd8:	0b be       	out	0x3b, r0	; 59
    2fda:	0f 90       	pop	r0
    2fdc:	09 be       	out	0x39, r0	; 57
    2fde:	0f 90       	pop	r0
    2fe0:	08 be       	out	0x38, r0	; 56
    2fe2:	0f 90       	pop	r0
    2fe4:	0f be       	out	0x3f, r0	; 63
    2fe6:	0f 90       	pop	r0
    2fe8:	1f 90       	pop	r1
    2fea:	18 95       	reti

00002fec <__vector_100>:
    2fec:	1f 92       	push	r1
    2fee:	0f 92       	push	r0
    2ff0:	0f b6       	in	r0, 0x3f	; 63
    2ff2:	0f 92       	push	r0
    2ff4:	11 24       	eor	r1, r1
    2ff6:	08 b6       	in	r0, 0x38	; 56
    2ff8:	0f 92       	push	r0
    2ffa:	18 be       	out	0x38, r1	; 56
    2ffc:	0f 90       	pop	r0
    2ffe:	08 be       	out	0x38, r0	; 56
    3000:	0f 90       	pop	r0
    3002:	0f be       	out	0x3f, r0	; 63
    3004:	0f 90       	pop	r0
    3006:	1f 90       	pop	r1
    3008:	18 95       	reti

0000300a <disp_ans>:
    300a:	ef 92       	push	r14
    300c:	ff 92       	push	r15
    300e:	0f 93       	push	r16
    3010:	1f 93       	push	r17
    3012:	cf 93       	push	r28
    3014:	df 93       	push	r29
    3016:	cd b7       	in	r28, 0x3d	; 61
    3018:	de b7       	in	r29, 0x3e	; 62
    301a:	c8 5c       	subi	r28, 0xC8	; 200
    301c:	d1 09       	sbc	r29, r1
    301e:	cd bf       	out	0x3d, r28	; 61
    3020:	de bf       	out	0x3e, r29	; 62
    3022:	60 e0       	ldi	r22, 0x00	; 0
    3024:	80 e0       	ldi	r24, 0x00	; 0
    3026:	0e 94 7b 02 	call	0x4f6	; 0x4f6 <LCDGotoXY>
    302a:	80 91 a3 23 	lds	r24, 0x23A3
    302e:	8f 93       	push	r24
    3030:	80 91 a2 23 	lds	r24, 0x23A2
    3034:	8f 93       	push	r24
    3036:	8c e3       	ldi	r24, 0x3C	; 60
    3038:	90 e2       	ldi	r25, 0x20	; 32
    303a:	9f 93       	push	r25
    303c:	8f 93       	push	r24
    303e:	04 e1       	ldi	r16, 0x14	; 20
    3040:	14 e2       	ldi	r17, 0x24	; 36
    3042:	1f 93       	push	r17
    3044:	0f 93       	push	r16
    3046:	0e 94 d5 25 	call	0x4baa	; 0x4baa <sprintf>
    304a:	c8 01       	movw	r24, r16
    304c:	0e 94 6c 02 	call	0x4d8	; 0x4d8 <LCDStringRam>
    3050:	61 e0       	ldi	r22, 0x01	; 1
    3052:	80 e0       	ldi	r24, 0x00	; 0
    3054:	0e 94 7b 02 	call	0x4f6	; 0x4f6 <LCDGotoXY>
    3058:	ea ee       	ldi	r30, 0xEA	; 234
    305a:	f3 e2       	ldi	r31, 0x23	; 35
    305c:	81 81       	ldd	r24, Z+1	; 0x01
    305e:	8f 93       	push	r24
    3060:	80 81       	ld	r24, Z
    3062:	8f 93       	push	r24
    3064:	86 e4       	ldi	r24, 0x46	; 70
    3066:	90 e2       	ldi	r25, 0x20	; 32
    3068:	9f 93       	push	r25
    306a:	8f 93       	push	r24
    306c:	1f 93       	push	r17
    306e:	0f 93       	push	r16
    3070:	0e 94 d5 25 	call	0x4baa	; 0x4baa <sprintf>
    3074:	c8 01       	movw	r24, r16
    3076:	0e 94 6c 02 	call	0x4d8	; 0x4d8 <LCDStringRam>
    307a:	61 e0       	ldi	r22, 0x01	; 1
    307c:	89 e0       	ldi	r24, 0x09	; 9
    307e:	0e 94 7b 02 	call	0x4f6	; 0x4f6 <LCDGotoXY>
    3082:	80 91 08 22 	lds	r24, 0x2208
    3086:	1f 92       	push	r1
    3088:	8f 93       	push	r24
    308a:	8f e4       	ldi	r24, 0x4F	; 79
    308c:	90 e2       	ldi	r25, 0x20	; 32
    308e:	9f 93       	push	r25
    3090:	8f 93       	push	r24
    3092:	1f 93       	push	r17
    3094:	0f 93       	push	r16
    3096:	0e 94 d5 25 	call	0x4baa	; 0x4baa <sprintf>
    309a:	c8 01       	movw	r24, r16
    309c:	0e 94 6c 02 	call	0x4d8	; 0x4d8 <LCDStringRam>
    30a0:	80 91 7e 24 	lds	r24, 0x247E
    30a4:	8f 93       	push	r24
    30a6:	80 91 7d 24 	lds	r24, 0x247D
    30aa:	8f 93       	push	r24
    30ac:	80 91 c2 23 	lds	r24, 0x23C2
    30b0:	8f 93       	push	r24
    30b2:	80 91 c1 23 	lds	r24, 0x23C1
    30b6:	8f 93       	push	r24
    30b8:	e8 ee       	ldi	r30, 0xE8	; 232
    30ba:	f3 e2       	ldi	r31, 0x23	; 35
    30bc:	81 81       	ldd	r24, Z+1	; 0x01
    30be:	8f 93       	push	r24
    30c0:	80 81       	ld	r24, Z
    30c2:	8f 93       	push	r24
    30c4:	86 e5       	ldi	r24, 0x56	; 86
    30c6:	90 e2       	ldi	r25, 0x20	; 32
    30c8:	9f 93       	push	r25
    30ca:	8f 93       	push	r24
    30cc:	ce 01       	movw	r24, r28
    30ce:	01 96       	adiw	r24, 0x01	; 1
    30d0:	9f 93       	push	r25
    30d2:	8f 93       	push	r24
    30d4:	0e 94 d5 25 	call	0x4baa	; 0x4baa <sprintf>
    30d8:	cd bf       	out	0x3d, r28	; 61
    30da:	de bf       	out	0x3e, r29	; 62
    30dc:	88 23       	and	r24, r24
    30de:	b1 f0       	breq	.+44     	; 0x310c <disp_ans+0x102>
    30e0:	8e 01       	movw	r16, r28
    30e2:	0f 5f       	subi	r16, 0xFF	; 255
    30e4:	1f 4f       	sbci	r17, 0xFF	; 255
    30e6:	81 50       	subi	r24, 0x01	; 1
    30e8:	68 94       	set
    30ea:	ee 24       	eor	r14, r14
    30ec:	e1 f8       	bld	r14, 1
    30ee:	f1 2c       	mov	r15, r1
    30f0:	ec 0e       	add	r14, r28
    30f2:	fd 1e       	adc	r15, r29
    30f4:	e8 0e       	add	r14, r24
    30f6:	f1 1c       	adc	r15, r1
    30f8:	f8 01       	movw	r30, r16
    30fa:	61 91       	ld	r22, Z+
    30fc:	8f 01       	movw	r16, r30
    30fe:	80 ea       	ldi	r24, 0xA0	; 160
    3100:	9a e0       	ldi	r25, 0x0A	; 10
    3102:	0e 94 77 0e 	call	0x1cee	; 0x1cee <usart_putchar>
    3106:	0e 15       	cp	r16, r14
    3108:	1f 05       	cpc	r17, r15
    310a:	b1 f7       	brne	.-20     	; 0x30f8 <disp_ans+0xee>
    310c:	c8 53       	subi	r28, 0x38	; 56
    310e:	df 4f       	sbci	r29, 0xFF	; 255
    3110:	cd bf       	out	0x3d, r28	; 61
    3112:	de bf       	out	0x3e, r29	; 62
    3114:	df 91       	pop	r29
    3116:	cf 91       	pop	r28
    3118:	1f 91       	pop	r17
    311a:	0f 91       	pop	r16
    311c:	ff 90       	pop	r15
    311e:	ef 90       	pop	r14
    3120:	08 95       	ret

00003122 <main>:
    3122:	cf 93       	push	r28
    3124:	df 93       	push	r29
    3126:	cd b7       	in	r28, 0x3d	; 61
    3128:	de b7       	in	r29, 0x3e	; 62
    312a:	ce 58       	subi	r28, 0x8E	; 142
    312c:	d1 09       	sbc	r29, r1
    312e:	cd bf       	out	0x3d, r28	; 61
    3130:	de bf       	out	0x3e, r29	; 62
    3132:	0e 94 9f 0f 	call	0x1f3e	; 0x1f3e <En_RC32M>
    3136:	e2 ea       	ldi	r30, 0xA2	; 162
    3138:	f0 e0       	ldi	r31, 0x00	; 0
    313a:	80 81       	ld	r24, Z
    313c:	87 60       	ori	r24, 0x07	; 7
    313e:	80 83       	st	Z, r24
    3140:	0e 94 b4 0f 	call	0x1f68	; 0x1f68 <PORT_init>
    3144:	0e 94 03 10 	call	0x2006	; 0x2006 <TimerD0_init>
    3148:	0e 94 e8 0f 	call	0x1fd0	; 0x1fd0 <TimerC0_init>
    314c:	0e 94 58 10 	call	0x20b0	; 0x20b0 <USARTF0_init>
    3150:	0e 94 7d 10 	call	0x20fa	; 0x20fa <USARTF1_init>
    3154:	0e 94 36 10 	call	0x206c	; 0x206c <USARTE0_init>
    3158:	0e 94 a2 10 	call	0x2144	; 0x2144 <ADCA_init>
    315c:	0e 94 eb 01 	call	0x3d6	; 0x3d6 <LCDInit>
    3160:	78 94       	sei
    3162:	88 eb       	ldi	r24, 0xB8	; 184
    3164:	9b e0       	ldi	r25, 0x0B	; 11
    3166:	a0 e0       	ldi	r26, 0x00	; 0
    3168:	b0 e0       	ldi	r27, 0x00	; 0
    316a:	80 93 34 20 	sts	0x2034, r24
    316e:	90 93 35 20 	sts	0x2035, r25
    3172:	a0 93 36 20 	sts	0x2036, r26
    3176:	b0 93 37 20 	sts	0x2037, r27
    317a:	24 ef       	ldi	r18, 0xF4	; 244
    317c:	31 e0       	ldi	r19, 0x01	; 1
    317e:	20 93 10 24 	sts	0x2410, r18
    3182:	30 93 11 24 	sts	0x2411, r19
    3186:	80 93 38 20 	sts	0x2038, r24
    318a:	90 93 39 20 	sts	0x2039, r25
    318e:	a0 93 3a 20 	sts	0x203A, r26
    3192:	b0 93 3b 20 	sts	0x203B, r27
    3196:	84 e6       	ldi	r24, 0x64	; 100
    3198:	90 e0       	ldi	r25, 0x00	; 0
    319a:	80 93 1a 22 	sts	0x221A, r24
    319e:	90 93 1b 22 	sts	0x221B, r25
    31a2:	88 ee       	ldi	r24, 0xE8	; 232
    31a4:	93 e0       	ldi	r25, 0x03	; 3
    31a6:	a0 e0       	ldi	r26, 0x00	; 0
    31a8:	b0 e0       	ldi	r27, 0x00	; 0
    31aa:	80 93 30 20 	sts	0x2030, r24
    31ae:	90 93 31 20 	sts	0x2031, r25
    31b2:	a0 93 32 20 	sts	0x2032, r26
    31b6:	b0 93 33 20 	sts	0x2033, r27
    31ba:	88 ec       	ldi	r24, 0xC8	; 200
    31bc:	90 e0       	ldi	r25, 0x00	; 0
    31be:	80 93 3e 24 	sts	0x243E, r24
    31c2:	90 93 3f 24 	sts	0x243F, r25
    31c6:	80 ed       	ldi	r24, 0xD0	; 208
    31c8:	97 e0       	ldi	r25, 0x07	; 7
    31ca:	a0 e0       	ldi	r26, 0x00	; 0
    31cc:	b0 e0       	ldi	r27, 0x00	; 0
    31ce:	80 93 2c 20 	sts	0x202C, r24
    31d2:	90 93 2d 20 	sts	0x202D, r25
    31d6:	a0 93 2e 20 	sts	0x202E, r26
    31da:	b0 93 2f 20 	sts	0x202F, r27
    31de:	86 e9       	ldi	r24, 0x96	; 150
    31e0:	90 e0       	ldi	r25, 0x00	; 0
    31e2:	80 93 62 22 	sts	0x2262, r24
    31e6:	90 93 63 22 	sts	0x2263, r25
    31ea:	e8 e0       	ldi	r30, 0x08	; 8
    31ec:	f6 e0       	ldi	r31, 0x06	; 6
    31ee:	90 81       	ld	r25, Z
    31f0:	30 81       	ld	r19, Z
    31f2:	80 81       	ld	r24, Z
    31f4:	40 81       	ld	r20, Z
    31f6:	e3 e0       	ldi	r30, 0x03	; 3
    31f8:	f0 e2       	ldi	r31, 0x20	; 32
    31fa:	88 1f       	adc	r24, r24
    31fc:	88 27       	eor	r24, r24
    31fe:	88 1f       	adc	r24, r24
    3200:	28 2f       	mov	r18, r24
    3202:	22 0f       	add	r18, r18
    3204:	22 0f       	add	r18, r18
    3206:	96 fb       	bst	r25, 6
    3208:	88 27       	eor	r24, r24
    320a:	80 f9       	bld	r24, 0
    320c:	28 2b       	or	r18, r24
    320e:	34 fb       	bst	r19, 4
    3210:	88 24       	eor	r8, r8
    3212:	80 f8       	bld	r8, 0
    3214:	91 2c       	mov	r9, r1
    3216:	c4 01       	movw	r24, r8
    3218:	88 0f       	add	r24, r24
    321a:	99 1f       	adc	r25, r25
    321c:	28 2b       	or	r18, r24
    321e:	45 fb       	bst	r20, 5
    3220:	00 27       	eor	r16, r16
    3222:	00 f9       	bld	r16, 0
    3224:	10 e0       	ldi	r17, 0x00	; 0
    3226:	c8 01       	movw	r24, r16
    3228:	88 0f       	add	r24, r24
    322a:	99 1f       	adc	r25, r25
    322c:	88 0f       	add	r24, r24
    322e:	99 1f       	adc	r25, r25
    3230:	88 0f       	add	r24, r24
    3232:	99 1f       	adc	r25, r25
    3234:	82 2b       	or	r24, r18
    3236:	90 81       	ld	r25, Z
    3238:	89 0f       	add	r24, r25
    323a:	80 83       	st	Z, r24
    323c:	82 e0       	ldi	r24, 0x02	; 2
    323e:	e0 e8       	ldi	r30, 0x80	; 128
    3240:	f6 e0       	ldi	r31, 0x06	; 6
    3242:	86 83       	std	Z+6, r24	; 0x06
    3244:	0e 94 1d 10 	call	0x203a	; 0x203a <SPI_Init>
    3248:	23 e0       	ldi	r18, 0x03	; 3
    324a:	2a 95       	dec	r18
    324c:	f1 f7       	brne	.-4      	; 0x324a <main+0x128>
    324e:	00 00       	nop
    3250:	87 ea       	ldi	r24, 0xA7	; 167
    3252:	91 e6       	ldi	r25, 0x61	; 97
    3254:	01 97       	sbiw	r24, 0x01	; 1
    3256:	f1 f7       	brne	.-4      	; 0x3254 <main+0x132>
    3258:	00 c0       	rjmp	.+0      	; 0x325a <main+0x138>
    325a:	00 00       	nop
    325c:	0e 94 49 23 	call	0x4692	; 0x4692 <NRF24L01_L_Clear_Interrupts>
    3260:	0e 94 10 24 	call	0x4820	; 0x4820 <NRF24L01_L_Flush_TX>
    3264:	0e 94 1e 24 	call	0x483c	; 0x483c <NRF24L01_L_Flush_RX>
    3268:	82 e0       	ldi	r24, 0x02	; 2
    326a:	e0 e8       	ldi	r30, 0x80	; 128
    326c:	f6 e0       	ldi	r31, 0x06	; 6
    326e:	86 83       	std	Z+6, r24	; 0x06
    3270:	e8 e0       	ldi	r30, 0x08	; 8
    3272:	f6 e0       	ldi	r31, 0x06	; 6
    3274:	20 81       	ld	r18, Z
    3276:	30 81       	ld	r19, Z
    3278:	80 81       	ld	r24, Z
    327a:	40 81       	ld	r20, Z
    327c:	88 1f       	adc	r24, r24
    327e:	88 27       	eor	r24, r24
    3280:	88 1f       	adc	r24, r24
    3282:	90 e0       	ldi	r25, 0x00	; 0
    3284:	88 0f       	add	r24, r24
    3286:	99 1f       	adc	r25, r25
    3288:	88 0f       	add	r24, r24
    328a:	99 1f       	adc	r25, r25
    328c:	26 fb       	bst	r18, 6
    328e:	ee 24       	eor	r14, r14
    3290:	e0 f8       	bld	r14, 0
    3292:	f1 2c       	mov	r15, r1
    3294:	e8 2a       	or	r14, r24
    3296:	f9 2a       	or	r15, r25
    3298:	34 fb       	bst	r19, 4
    329a:	cc 24       	eor	r12, r12
    329c:	c0 f8       	bld	r12, 0
    329e:	d1 2c       	mov	r13, r1
    32a0:	c6 01       	movw	r24, r12
    32a2:	88 0f       	add	r24, r24
    32a4:	99 1f       	adc	r25, r25
    32a6:	e8 2a       	or	r14, r24
    32a8:	f9 2a       	or	r15, r25
    32aa:	45 fb       	bst	r20, 5
    32ac:	aa 24       	eor	r10, r10
    32ae:	a0 f8       	bld	r10, 0
    32b0:	b1 2c       	mov	r11, r1
    32b2:	c5 01       	movw	r24, r10
    32b4:	88 0f       	add	r24, r24
    32b6:	99 1f       	adc	r25, r25
    32b8:	88 0f       	add	r24, r24
    32ba:	99 1f       	adc	r25, r25
    32bc:	88 0f       	add	r24, r24
    32be:	99 1f       	adc	r25, r25
    32c0:	8e 29       	or	r24, r14
    32c2:	9f 29       	or	r25, r15
    32c4:	03 97       	sbiw	r24, 0x03	; 3
    32c6:	84 f4       	brge	.+32     	; 0x32e8 <main+0x1c6>
    32c8:	0f 2e       	mov	r0, r31
    32ca:	f6 e0       	ldi	r31, 0x06	; 6
    32cc:	cf 2e       	mov	r12, r31
    32ce:	f0 2d       	mov	r31, r0
    32d0:	68 94       	set
    32d2:	ee 24       	eor	r14, r14
    32d4:	e5 f8       	bld	r14, 5
    32d6:	05 e0       	ldi	r16, 0x05	; 5
    32d8:	23 e0       	ldi	r18, 0x03	; 3
    32da:	30 e2       	ldi	r19, 0x20	; 32
    32dc:	48 e0       	ldi	r20, 0x08	; 8
    32de:	62 e3       	ldi	r22, 0x32	; 50
    32e0:	80 e0       	ldi	r24, 0x00	; 0
    32e2:	0e 94 d0 23 	call	0x47a0	; 0x47a0 <NRF24L01_L_Init_milad>
    32e6:	0f c0       	rjmp	.+30     	; 0x3306 <main+0x1e4>
    32e8:	0f 2e       	mov	r0, r31
    32ea:	f6 e0       	ldi	r31, 0x06	; 6
    32ec:	cf 2e       	mov	r12, r31
    32ee:	f0 2d       	mov	r31, r0
    32f0:	68 94       	set
    32f2:	ee 24       	eor	r14, r14
    32f4:	e5 f8       	bld	r14, 5
    32f6:	05 e0       	ldi	r16, 0x05	; 5
    32f8:	23 e0       	ldi	r18, 0x03	; 3
    32fa:	30 e2       	ldi	r19, 0x20	; 32
    32fc:	48 e0       	ldi	r20, 0x08	; 8
    32fe:	61 e0       	ldi	r22, 0x01	; 1
    3300:	80 e0       	ldi	r24, 0x00	; 0
    3302:	0e 94 d0 23 	call	0x47a0	; 0x47a0 <NRF24L01_L_Init_milad>
    3306:	61 e0       	ldi	r22, 0x01	; 1
    3308:	8c e3       	ldi	r24, 0x3C	; 60
    330a:	0e 94 20 23 	call	0x4640	; 0x4640 <NRF24L01_L_WriteReg>
    330e:	66 e0       	ldi	r22, 0x06	; 6
    3310:	8d e3       	ldi	r24, 0x3D	; 61
    3312:	0e 94 20 23 	call	0x4640	; 0x4640 <NRF24L01_L_WriteReg>
    3316:	82 e0       	ldi	r24, 0x02	; 2
    3318:	e0 e8       	ldi	r30, 0x80	; 128
    331a:	f6 e0       	ldi	r31, 0x06	; 6
    331c:	85 83       	std	Z+5, r24	; 0x05
    331e:	9b e2       	ldi	r25, 0x2B	; 43
    3320:	9a 95       	dec	r25
    3322:	f1 f7       	brne	.-4      	; 0x3320 <main+0x1fe>
    3324:	00 00       	nop
    3326:	0e ea       	ldi	r16, 0xAE	; 174
    3328:	13 e2       	ldi	r17, 0x23	; 35
    332a:	0f 2e       	mov	r0, r31
    332c:	f3 e6       	ldi	r31, 0x63	; 99
    332e:	8f 2e       	mov	r8, r31
    3330:	f4 e2       	ldi	r31, 0x24	; 36
    3332:	9f 2e       	mov	r9, r31
    3334:	f0 2d       	mov	r31, r0
    3336:	a8 95       	wdr
    3338:	80 91 b8 20 	lds	r24, 0x20B8
    333c:	88 23       	and	r24, r24
    333e:	11 f4       	brne	.+4      	; 0x3344 <main+0x222>
    3340:	0c 94 ef 21 	jmp	0x43de	; 0x43de <__stack+0x3df>
    3344:	f8 01       	movw	r30, r16
    3346:	e0 80       	ld	r14, Z
    3348:	f1 80       	ldd	r15, Z+1	; 0x01
    334a:	e2 eb       	ldi	r30, 0xB2	; 178
    334c:	f3 e2       	ldi	r31, 0x23	; 35
    334e:	e0 82       	st	Z, r14
    3350:	f1 82       	std	Z+1, r15	; 0x01
    3352:	ea ea       	ldi	r30, 0xAA	; 170
    3354:	f3 e2       	ldi	r31, 0x23	; 35
    3356:	60 81       	ld	r22, Z
    3358:	71 81       	ldd	r23, Z+1	; 0x01
    335a:	88 27       	eor	r24, r24
    335c:	77 fd       	sbrc	r23, 7
    335e:	80 95       	com	r24
    3360:	98 2f       	mov	r25, r24
    3362:	0e 94 e6 24 	call	0x49cc	; 0x49cc <__floatsisf>
    3366:	20 e0       	ldi	r18, 0x00	; 0
    3368:	30 e0       	ldi	r19, 0x00	; 0
    336a:	40 ef       	ldi	r20, 0xF0	; 240
    336c:	50 e4       	ldi	r21, 0x40	; 64
    336e:	0e 94 72 25 	call	0x4ae4	; 0x4ae4 <__mulsf3>
    3372:	0e 94 b3 24 	call	0x4966	; 0x4966 <__fixsfsi>
    3376:	2b 01       	movw	r4, r22
    3378:	3c 01       	movw	r6, r24
    337a:	ea ea       	ldi	r30, 0xAA	; 170
    337c:	f3 e2       	ldi	r31, 0x23	; 35
    337e:	10 82       	st	Z, r1
    3380:	11 82       	std	Z+1, r1	; 0x01
    3382:	b7 01       	movw	r22, r14
    3384:	88 27       	eor	r24, r24
    3386:	77 fd       	sbrc	r23, 7
    3388:	80 95       	com	r24
    338a:	98 2f       	mov	r25, r24
    338c:	0e 94 e6 24 	call	0x49cc	; 0x49cc <__floatsisf>
    3390:	69 83       	std	Y+1, r22	; 0x01
    3392:	7a 83       	std	Y+2, r23	; 0x02
    3394:	8b 83       	std	Y+3, r24	; 0x03
    3396:	9c 83       	std	Y+4, r25	; 0x04
    3398:	4e 18       	sub	r4, r14
    339a:	5f 08       	sbc	r5, r15
    339c:	b2 01       	movw	r22, r4
    339e:	88 27       	eor	r24, r24
    33a0:	77 fd       	sbrc	r23, 7
    33a2:	80 95       	com	r24
    33a4:	98 2f       	mov	r25, r24
    33a6:	0e 94 e6 24 	call	0x49cc	; 0x49cc <__floatsisf>
    33aa:	2e ea       	ldi	r18, 0xAE	; 174
    33ac:	37 e4       	ldi	r19, 0x47	; 71
    33ae:	41 ee       	ldi	r20, 0xE1	; 225
    33b0:	5d e3       	ldi	r21, 0x3D	; 61
    33b2:	0e 94 72 25 	call	0x4ae4	; 0x4ae4 <__mulsf3>
    33b6:	9b 01       	movw	r18, r22
    33b8:	ac 01       	movw	r20, r24
    33ba:	69 81       	ldd	r22, Y+1	; 0x01
    33bc:	7a 81       	ldd	r23, Y+2	; 0x02
    33be:	8b 81       	ldd	r24, Y+3	; 0x03
    33c0:	9c 81       	ldd	r25, Y+4	; 0x04
    33c2:	0e 94 4f 24 	call	0x489e	; 0x489e <__addsf3>
    33c6:	0e 94 b3 24 	call	0x4966	; 0x4966 <__fixsfsi>
    33ca:	f8 01       	movw	r30, r16
    33cc:	60 83       	st	Z, r22
    33ce:	71 83       	std	Z+1, r23	; 0x01
    33d0:	e5 e4       	ldi	r30, 0x45	; 69
    33d2:	f4 e2       	ldi	r31, 0x24	; 36
    33d4:	e0 80       	ld	r14, Z
    33d6:	f1 80       	ldd	r15, Z+1	; 0x01
    33d8:	e9 e4       	ldi	r30, 0x49	; 73
    33da:	f4 e2       	ldi	r31, 0x24	; 36
    33dc:	e0 82       	st	Z, r14
    33de:	f1 82       	std	Z+1, r15	; 0x01
    33e0:	e1 e4       	ldi	r30, 0x41	; 65
    33e2:	f4 e2       	ldi	r31, 0x24	; 36
    33e4:	60 81       	ld	r22, Z
    33e6:	71 81       	ldd	r23, Z+1	; 0x01
    33e8:	88 27       	eor	r24, r24
    33ea:	77 fd       	sbrc	r23, 7
    33ec:	80 95       	com	r24
    33ee:	98 2f       	mov	r25, r24
    33f0:	0e 94 e6 24 	call	0x49cc	; 0x49cc <__floatsisf>
    33f4:	20 e0       	ldi	r18, 0x00	; 0
    33f6:	30 e0       	ldi	r19, 0x00	; 0
    33f8:	40 ef       	ldi	r20, 0xF0	; 240
    33fa:	50 e4       	ldi	r21, 0x40	; 64
    33fc:	0e 94 72 25 	call	0x4ae4	; 0x4ae4 <__mulsf3>
    3400:	0e 94 b3 24 	call	0x4966	; 0x4966 <__fixsfsi>
    3404:	2b 01       	movw	r4, r22
    3406:	3c 01       	movw	r6, r24
    3408:	e1 e4       	ldi	r30, 0x41	; 65
    340a:	f4 e2       	ldi	r31, 0x24	; 36
    340c:	10 82       	st	Z, r1
    340e:	11 82       	std	Z+1, r1	; 0x01
    3410:	b7 01       	movw	r22, r14
    3412:	88 27       	eor	r24, r24
    3414:	77 fd       	sbrc	r23, 7
    3416:	80 95       	com	r24
    3418:	98 2f       	mov	r25, r24
    341a:	0e 94 e6 24 	call	0x49cc	; 0x49cc <__floatsisf>
    341e:	69 83       	std	Y+1, r22	; 0x01
    3420:	7a 83       	std	Y+2, r23	; 0x02
    3422:	8b 83       	std	Y+3, r24	; 0x03
    3424:	9c 83       	std	Y+4, r25	; 0x04
    3426:	4e 18       	sub	r4, r14
    3428:	5f 08       	sbc	r5, r15
    342a:	b2 01       	movw	r22, r4
    342c:	88 27       	eor	r24, r24
    342e:	77 fd       	sbrc	r23, 7
    3430:	80 95       	com	r24
    3432:	98 2f       	mov	r25, r24
    3434:	0e 94 e6 24 	call	0x49cc	; 0x49cc <__floatsisf>
    3438:	2e ea       	ldi	r18, 0xAE	; 174
    343a:	37 e4       	ldi	r19, 0x47	; 71
    343c:	41 ee       	ldi	r20, 0xE1	; 225
    343e:	5d e3       	ldi	r21, 0x3D	; 61
    3440:	0e 94 72 25 	call	0x4ae4	; 0x4ae4 <__mulsf3>
    3444:	9b 01       	movw	r18, r22
    3446:	ac 01       	movw	r20, r24
    3448:	69 81       	ldd	r22, Y+1	; 0x01
    344a:	7a 81       	ldd	r23, Y+2	; 0x02
    344c:	8b 81       	ldd	r24, Y+3	; 0x03
    344e:	9c 81       	ldd	r25, Y+4	; 0x04
    3450:	0e 94 4f 24 	call	0x489e	; 0x489e <__addsf3>
    3454:	0e 94 b3 24 	call	0x4966	; 0x4966 <__fixsfsi>
    3458:	e5 e4       	ldi	r30, 0x45	; 69
    345a:	f4 e2       	ldi	r31, 0x24	; 36
    345c:	60 83       	st	Z, r22
    345e:	71 83       	std	Z+1, r23	; 0x01
    3460:	f4 01       	movw	r30, r8
    3462:	e0 80       	ld	r14, Z
    3464:	f1 80       	ldd	r15, Z+1	; 0x01
    3466:	e7 e6       	ldi	r30, 0x67	; 103
    3468:	f4 e2       	ldi	r31, 0x24	; 36
    346a:	e0 82       	st	Z, r14
    346c:	f1 82       	std	Z+1, r15	; 0x01
    346e:	ef e5       	ldi	r30, 0x5F	; 95
    3470:	f4 e2       	ldi	r31, 0x24	; 36
    3472:	60 81       	ld	r22, Z
    3474:	71 81       	ldd	r23, Z+1	; 0x01
    3476:	88 27       	eor	r24, r24
    3478:	77 fd       	sbrc	r23, 7
    347a:	80 95       	com	r24
    347c:	98 2f       	mov	r25, r24
    347e:	0e 94 e6 24 	call	0x49cc	; 0x49cc <__floatsisf>
    3482:	20 e0       	ldi	r18, 0x00	; 0
    3484:	30 e0       	ldi	r19, 0x00	; 0
    3486:	40 ef       	ldi	r20, 0xF0	; 240
    3488:	50 e4       	ldi	r21, 0x40	; 64
    348a:	0e 94 72 25 	call	0x4ae4	; 0x4ae4 <__mulsf3>
    348e:	0e 94 b3 24 	call	0x4966	; 0x4966 <__fixsfsi>
    3492:	2b 01       	movw	r4, r22
    3494:	3c 01       	movw	r6, r24
    3496:	ef e5       	ldi	r30, 0x5F	; 95
    3498:	f4 e2       	ldi	r31, 0x24	; 36
    349a:	10 82       	st	Z, r1
    349c:	11 82       	std	Z+1, r1	; 0x01
    349e:	b7 01       	movw	r22, r14
    34a0:	88 27       	eor	r24, r24
    34a2:	77 fd       	sbrc	r23, 7
    34a4:	80 95       	com	r24
    34a6:	98 2f       	mov	r25, r24
    34a8:	0e 94 e6 24 	call	0x49cc	; 0x49cc <__floatsisf>
    34ac:	69 83       	std	Y+1, r22	; 0x01
    34ae:	7a 83       	std	Y+2, r23	; 0x02
    34b0:	8b 83       	std	Y+3, r24	; 0x03
    34b2:	9c 83       	std	Y+4, r25	; 0x04
    34b4:	4e 18       	sub	r4, r14
    34b6:	5f 08       	sbc	r5, r15
    34b8:	b2 01       	movw	r22, r4
    34ba:	88 27       	eor	r24, r24
    34bc:	77 fd       	sbrc	r23, 7
    34be:	80 95       	com	r24
    34c0:	98 2f       	mov	r25, r24
    34c2:	0e 94 e6 24 	call	0x49cc	; 0x49cc <__floatsisf>
    34c6:	2e ea       	ldi	r18, 0xAE	; 174
    34c8:	37 e4       	ldi	r19, 0x47	; 71
    34ca:	41 ee       	ldi	r20, 0xE1	; 225
    34cc:	5d e3       	ldi	r21, 0x3D	; 61
    34ce:	0e 94 72 25 	call	0x4ae4	; 0x4ae4 <__mulsf3>
    34d2:	9b 01       	movw	r18, r22
    34d4:	ac 01       	movw	r20, r24
    34d6:	69 81       	ldd	r22, Y+1	; 0x01
    34d8:	7a 81       	ldd	r23, Y+2	; 0x02
    34da:	8b 81       	ldd	r24, Y+3	; 0x03
    34dc:	9c 81       	ldd	r25, Y+4	; 0x04
    34de:	0e 94 4f 24 	call	0x489e	; 0x489e <__addsf3>
    34e2:	0e 94 b3 24 	call	0x4966	; 0x4966 <__fixsfsi>
    34e6:	f4 01       	movw	r30, r8
    34e8:	60 83       	st	Z, r22
    34ea:	71 83       	std	Z+1, r23	; 0x01
    34ec:	ea ee       	ldi	r30, 0xEA	; 234
    34ee:	f3 e2       	ldi	r31, 0x23	; 35
    34f0:	e0 80       	ld	r14, Z
    34f2:	f1 80       	ldd	r15, Z+1	; 0x01
    34f4:	ee ee       	ldi	r30, 0xEE	; 238
    34f6:	f3 e2       	ldi	r31, 0x23	; 35
    34f8:	e0 82       	st	Z, r14
    34fa:	f1 82       	std	Z+1, r15	; 0x01
    34fc:	e6 ee       	ldi	r30, 0xE6	; 230
    34fe:	f3 e2       	ldi	r31, 0x23	; 35
    3500:	60 81       	ld	r22, Z
    3502:	71 81       	ldd	r23, Z+1	; 0x01
    3504:	88 27       	eor	r24, r24
    3506:	77 fd       	sbrc	r23, 7
    3508:	80 95       	com	r24
    350a:	98 2f       	mov	r25, r24
    350c:	0e 94 e6 24 	call	0x49cc	; 0x49cc <__floatsisf>
    3510:	20 e0       	ldi	r18, 0x00	; 0
    3512:	30 e0       	ldi	r19, 0x00	; 0
    3514:	40 ef       	ldi	r20, 0xF0	; 240
    3516:	50 e4       	ldi	r21, 0x40	; 64
    3518:	0e 94 72 25 	call	0x4ae4	; 0x4ae4 <__mulsf3>
    351c:	0e 94 b3 24 	call	0x4966	; 0x4966 <__fixsfsi>
    3520:	2b 01       	movw	r4, r22
    3522:	3c 01       	movw	r6, r24
    3524:	e6 ee       	ldi	r30, 0xE6	; 230
    3526:	f3 e2       	ldi	r31, 0x23	; 35
    3528:	10 82       	st	Z, r1
    352a:	11 82       	std	Z+1, r1	; 0x01
    352c:	b7 01       	movw	r22, r14
    352e:	88 27       	eor	r24, r24
    3530:	77 fd       	sbrc	r23, 7
    3532:	80 95       	com	r24
    3534:	98 2f       	mov	r25, r24
    3536:	0e 94 e6 24 	call	0x49cc	; 0x49cc <__floatsisf>
    353a:	69 83       	std	Y+1, r22	; 0x01
    353c:	7a 83       	std	Y+2, r23	; 0x02
    353e:	8b 83       	std	Y+3, r24	; 0x03
    3540:	9c 83       	std	Y+4, r25	; 0x04
    3542:	4e 18       	sub	r4, r14
    3544:	5f 08       	sbc	r5, r15
    3546:	b2 01       	movw	r22, r4
    3548:	88 27       	eor	r24, r24
    354a:	77 fd       	sbrc	r23, 7
    354c:	80 95       	com	r24
    354e:	98 2f       	mov	r25, r24
    3550:	0e 94 e6 24 	call	0x49cc	; 0x49cc <__floatsisf>
    3554:	2e ea       	ldi	r18, 0xAE	; 174
    3556:	37 e4       	ldi	r19, 0x47	; 71
    3558:	41 ee       	ldi	r20, 0xE1	; 225
    355a:	5d e3       	ldi	r21, 0x3D	; 61
    355c:	0e 94 72 25 	call	0x4ae4	; 0x4ae4 <__mulsf3>
    3560:	9b 01       	movw	r18, r22
    3562:	ac 01       	movw	r20, r24
    3564:	69 81       	ldd	r22, Y+1	; 0x01
    3566:	7a 81       	ldd	r23, Y+2	; 0x02
    3568:	8b 81       	ldd	r24, Y+3	; 0x03
    356a:	9c 81       	ldd	r25, Y+4	; 0x04
    356c:	0e 94 4f 24 	call	0x489e	; 0x489e <__addsf3>
    3570:	0e 94 b3 24 	call	0x4966	; 0x4966 <__fixsfsi>
    3574:	ea ee       	ldi	r30, 0xEA	; 234
    3576:	f3 e2       	ldi	r31, 0x23	; 35
    3578:	60 83       	st	Z, r22
    357a:	71 83       	std	Z+1, r23	; 0x01
    357c:	46 dd       	rcall	.-1396   	; 0x300a <disp_ans>
    357e:	10 92 b8 20 	sts	0x20B8, r1
    3582:	e8 e0       	ldi	r30, 0x08	; 8
    3584:	f6 e0       	ldi	r31, 0x06	; 6
    3586:	30 81       	ld	r19, Z
    3588:	20 81       	ld	r18, Z
    358a:	80 81       	ld	r24, Z
    358c:	40 81       	ld	r20, Z
    358e:	88 1f       	adc	r24, r24
    3590:	88 27       	eor	r24, r24
    3592:	88 1f       	adc	r24, r24
    3594:	90 e0       	ldi	r25, 0x00	; 0
    3596:	88 0f       	add	r24, r24
    3598:	99 1f       	adc	r25, r25
    359a:	88 0f       	add	r24, r24
    359c:	99 1f       	adc	r25, r25
    359e:	36 fb       	bst	r19, 6
    35a0:	22 24       	eor	r2, r2
    35a2:	20 f8       	bld	r2, 0
    35a4:	31 2c       	mov	r3, r1
    35a6:	82 29       	or	r24, r2
    35a8:	93 29       	or	r25, r3
    35aa:	22 95       	swap	r18
    35ac:	21 70       	andi	r18, 0x01	; 1
    35ae:	2d 83       	std	Y+5, r18	; 0x05
    35b0:	1e 82       	std	Y+6, r1	; 0x06
    35b2:	2d 81       	ldd	r18, Y+5	; 0x05
    35b4:	3e 81       	ldd	r19, Y+6	; 0x06
    35b6:	22 0f       	add	r18, r18
    35b8:	33 1f       	adc	r19, r19
    35ba:	82 2b       	or	r24, r18
    35bc:	93 2b       	or	r25, r19
    35be:	45 fb       	bst	r20, 5
    35c0:	44 27       	eor	r20, r20
    35c2:	40 f9       	bld	r20, 0
    35c4:	4f 83       	std	Y+7, r20	; 0x07
    35c6:	18 86       	std	Y+8, r1	; 0x08
    35c8:	2f 81       	ldd	r18, Y+7	; 0x07
    35ca:	38 85       	ldd	r19, Y+8	; 0x08
    35cc:	22 0f       	add	r18, r18
    35ce:	33 1f       	adc	r19, r19
    35d0:	22 0f       	add	r18, r18
    35d2:	33 1f       	adc	r19, r19
    35d4:	22 0f       	add	r18, r18
    35d6:	33 1f       	adc	r19, r19
    35d8:	82 2b       	or	r24, r18
    35da:	93 2b       	or	r25, r19
    35dc:	0f 2e       	mov	r0, r31
    35de:	f7 e1       	ldi	r31, 0x17	; 23
    35e0:	ff 2e       	mov	r15, r31
    35e2:	f0 2d       	mov	r31, r0
    35e4:	f8 9e       	mul	r15, r24
    35e6:	f0 01       	movw	r30, r0
    35e8:	f9 9e       	mul	r15, r25
    35ea:	f0 0d       	add	r31, r0
    35ec:	11 24       	eor	r1, r1
    35ee:	e0 53       	subi	r30, 0x30	; 48
    35f0:	ff 4d       	sbci	r31, 0xDF	; 223
    35f2:	8f e0       	ldi	r24, 0x0F	; 15
    35f4:	84 8b       	std	Z+20, r24	; 0x14
    35f6:	e8 e0       	ldi	r30, 0x08	; 8
    35f8:	f6 e0       	ldi	r31, 0x06	; 6
    35fa:	30 81       	ld	r19, Z
    35fc:	20 81       	ld	r18, Z
    35fe:	80 81       	ld	r24, Z
    3600:	40 81       	ld	r20, Z
    3602:	88 1f       	adc	r24, r24
    3604:	88 27       	eor	r24, r24
    3606:	88 1f       	adc	r24, r24
    3608:	90 e0       	ldi	r25, 0x00	; 0
    360a:	88 0f       	add	r24, r24
    360c:	99 1f       	adc	r25, r25
    360e:	88 0f       	add	r24, r24
    3610:	99 1f       	adc	r25, r25
    3612:	36 fb       	bst	r19, 6
    3614:	33 27       	eor	r19, r19
    3616:	30 f9       	bld	r19, 0
    3618:	39 87       	std	Y+9, r19	; 0x09
    361a:	1a 86       	std	Y+10, r1	; 0x0a
    361c:	69 85       	ldd	r22, Y+9	; 0x09
    361e:	7a 85       	ldd	r23, Y+10	; 0x0a
    3620:	86 2b       	or	r24, r22
    3622:	97 2b       	or	r25, r23
    3624:	22 95       	swap	r18
    3626:	21 70       	andi	r18, 0x01	; 1
    3628:	2b 87       	std	Y+11, r18	; 0x0b
    362a:	1c 86       	std	Y+12, r1	; 0x0c
    362c:	2b 85       	ldd	r18, Y+11	; 0x0b
    362e:	3c 85       	ldd	r19, Y+12	; 0x0c
    3630:	22 0f       	add	r18, r18
    3632:	33 1f       	adc	r19, r19
    3634:	82 2b       	or	r24, r18
    3636:	93 2b       	or	r25, r19
    3638:	45 fb       	bst	r20, 5
    363a:	44 27       	eor	r20, r20
    363c:	40 f9       	bld	r20, 0
    363e:	4d 87       	std	Y+13, r20	; 0x0d
    3640:	1e 86       	std	Y+14, r1	; 0x0e
    3642:	2d 85       	ldd	r18, Y+13	; 0x0d
    3644:	3e 85       	ldd	r19, Y+14	; 0x0e
    3646:	22 0f       	add	r18, r18
    3648:	33 1f       	adc	r19, r19
    364a:	22 0f       	add	r18, r18
    364c:	33 1f       	adc	r19, r19
    364e:	22 0f       	add	r18, r18
    3650:	33 1f       	adc	r19, r19
    3652:	82 2b       	or	r24, r18
    3654:	93 2b       	or	r25, r19
    3656:	f8 9e       	mul	r15, r24
    3658:	f0 01       	movw	r30, r0
    365a:	f9 9e       	mul	r15, r25
    365c:	f0 0d       	add	r31, r0
    365e:	11 24       	eor	r1, r1
    3660:	e0 53       	subi	r30, 0x30	; 48
    3662:	ff 4d       	sbci	r31, 0xDF	; 223
    3664:	81 e4       	ldi	r24, 0x41	; 65
    3666:	85 8b       	std	Z+21, r24	; 0x15
    3668:	e8 e0       	ldi	r30, 0x08	; 8
    366a:	f6 e0       	ldi	r31, 0x06	; 6
    366c:	30 81       	ld	r19, Z
    366e:	20 81       	ld	r18, Z
    3670:	80 81       	ld	r24, Z
    3672:	40 81       	ld	r20, Z
    3674:	88 1f       	adc	r24, r24
    3676:	88 27       	eor	r24, r24
    3678:	88 1f       	adc	r24, r24
    367a:	90 e0       	ldi	r25, 0x00	; 0
    367c:	88 0f       	add	r24, r24
    367e:	99 1f       	adc	r25, r25
    3680:	88 0f       	add	r24, r24
    3682:	99 1f       	adc	r25, r25
    3684:	36 fb       	bst	r19, 6
    3686:	33 27       	eor	r19, r19
    3688:	30 f9       	bld	r19, 0
    368a:	3f 87       	std	Y+15, r19	; 0x0f
    368c:	18 8a       	std	Y+16, r1	; 0x10
    368e:	6f 85       	ldd	r22, Y+15	; 0x0f
    3690:	78 89       	ldd	r23, Y+16	; 0x10
    3692:	86 2b       	or	r24, r22
    3694:	97 2b       	or	r25, r23
    3696:	22 95       	swap	r18
    3698:	21 70       	andi	r18, 0x01	; 1
    369a:	29 8b       	std	Y+17, r18	; 0x11
    369c:	1a 8a       	std	Y+18, r1	; 0x12
    369e:	29 89       	ldd	r18, Y+17	; 0x11
    36a0:	3a 89       	ldd	r19, Y+18	; 0x12
    36a2:	22 0f       	add	r18, r18
    36a4:	33 1f       	adc	r19, r19
    36a6:	82 2b       	or	r24, r18
    36a8:	93 2b       	or	r25, r19
    36aa:	45 fb       	bst	r20, 5
    36ac:	44 27       	eor	r20, r20
    36ae:	40 f9       	bld	r20, 0
    36b0:	4b 8b       	std	Y+19, r20	; 0x13
    36b2:	1c 8a       	std	Y+20, r1	; 0x14
    36b4:	2b 89       	ldd	r18, Y+19	; 0x13
    36b6:	3c 89       	ldd	r19, Y+20	; 0x14
    36b8:	22 0f       	add	r18, r18
    36ba:	33 1f       	adc	r19, r19
    36bc:	22 0f       	add	r18, r18
    36be:	33 1f       	adc	r19, r19
    36c0:	22 0f       	add	r18, r18
    36c2:	33 1f       	adc	r19, r19
    36c4:	82 2b       	or	r24, r18
    36c6:	93 2b       	or	r25, r19
    36c8:	f8 9e       	mul	r15, r24
    36ca:	f0 01       	movw	r30, r0
    36cc:	f9 9e       	mul	r15, r25
    36ce:	f0 0d       	add	r31, r0
    36d0:	11 24       	eor	r1, r1
    36d2:	e0 53       	subi	r30, 0x30	; 48
    36d4:	ff 4d       	sbci	r31, 0xDF	; 223
    36d6:	85 e0       	ldi	r24, 0x05	; 5
    36d8:	86 8b       	std	Z+22, r24	; 0x16
    36da:	6a e2       	ldi	r22, 0x2A	; 42
    36dc:	80 ea       	ldi	r24, 0xA0	; 160
    36de:	9b e0       	ldi	r25, 0x0B	; 11
    36e0:	0e 94 77 0e 	call	0x1cee	; 0x1cee <usart_putchar>
    36e4:	6e e7       	ldi	r22, 0x7E	; 126
    36e6:	80 ea       	ldi	r24, 0xA0	; 160
    36e8:	9b e0       	ldi	r25, 0x0B	; 11
    36ea:	0e 94 77 0e 	call	0x1cee	; 0x1cee <usart_putchar>
    36ee:	e8 e0       	ldi	r30, 0x08	; 8
    36f0:	f6 e0       	ldi	r31, 0x06	; 6
    36f2:	30 81       	ld	r19, Z
    36f4:	20 81       	ld	r18, Z
    36f6:	80 81       	ld	r24, Z
    36f8:	40 81       	ld	r20, Z
    36fa:	88 1f       	adc	r24, r24
    36fc:	88 27       	eor	r24, r24
    36fe:	88 1f       	adc	r24, r24
    3700:	90 e0       	ldi	r25, 0x00	; 0
    3702:	88 0f       	add	r24, r24
    3704:	99 1f       	adc	r25, r25
    3706:	88 0f       	add	r24, r24
    3708:	99 1f       	adc	r25, r25
    370a:	36 fb       	bst	r19, 6
    370c:	33 27       	eor	r19, r19
    370e:	30 f9       	bld	r19, 0
    3710:	3d 8b       	std	Y+21, r19	; 0x15
    3712:	1e 8a       	std	Y+22, r1	; 0x16
    3714:	6d 89       	ldd	r22, Y+21	; 0x15
    3716:	7e 89       	ldd	r23, Y+22	; 0x16
    3718:	86 2b       	or	r24, r22
    371a:	97 2b       	or	r25, r23
    371c:	22 95       	swap	r18
    371e:	21 70       	andi	r18, 0x01	; 1
    3720:	2f 8b       	std	Y+23, r18	; 0x17
    3722:	18 8e       	std	Y+24, r1	; 0x18
    3724:	2f 89       	ldd	r18, Y+23	; 0x17
    3726:	38 8d       	ldd	r19, Y+24	; 0x18
    3728:	22 0f       	add	r18, r18
    372a:	33 1f       	adc	r19, r19
    372c:	82 2b       	or	r24, r18
    372e:	93 2b       	or	r25, r19
    3730:	45 fb       	bst	r20, 5
    3732:	44 27       	eor	r20, r20
    3734:	40 f9       	bld	r20, 0
    3736:	49 8f       	std	Y+25, r20	; 0x19
    3738:	1a 8e       	std	Y+26, r1	; 0x1a
    373a:	29 8d       	ldd	r18, Y+25	; 0x19
    373c:	3a 8d       	ldd	r19, Y+26	; 0x1a
    373e:	22 0f       	add	r18, r18
    3740:	33 1f       	adc	r19, r19
    3742:	22 0f       	add	r18, r18
    3744:	33 1f       	adc	r19, r19
    3746:	22 0f       	add	r18, r18
    3748:	33 1f       	adc	r19, r19
    374a:	82 2b       	or	r24, r18
    374c:	93 2b       	or	r25, r19
    374e:	f8 9e       	mul	r15, r24
    3750:	f0 01       	movw	r30, r0
    3752:	f9 9e       	mul	r15, r25
    3754:	f0 0d       	add	r31, r0
    3756:	11 24       	eor	r1, r1
    3758:	e0 53       	subi	r30, 0x30	; 48
    375a:	ff 4d       	sbci	r31, 0xDF	; 223
    375c:	63 81       	ldd	r22, Z+3	; 0x03
    375e:	80 ea       	ldi	r24, 0xA0	; 160
    3760:	9b e0       	ldi	r25, 0x0B	; 11
    3762:	0e 94 77 0e 	call	0x1cee	; 0x1cee <usart_putchar>
    3766:	e8 e0       	ldi	r30, 0x08	; 8
    3768:	f6 e0       	ldi	r31, 0x06	; 6
    376a:	30 81       	ld	r19, Z
    376c:	20 81       	ld	r18, Z
    376e:	80 81       	ld	r24, Z
    3770:	40 81       	ld	r20, Z
    3772:	88 1f       	adc	r24, r24
    3774:	88 27       	eor	r24, r24
    3776:	88 1f       	adc	r24, r24
    3778:	90 e0       	ldi	r25, 0x00	; 0
    377a:	88 0f       	add	r24, r24
    377c:	99 1f       	adc	r25, r25
    377e:	88 0f       	add	r24, r24
    3780:	99 1f       	adc	r25, r25
    3782:	36 fb       	bst	r19, 6
    3784:	33 27       	eor	r19, r19
    3786:	30 f9       	bld	r19, 0
    3788:	3b 8f       	std	Y+27, r19	; 0x1b
    378a:	1c 8e       	std	Y+28, r1	; 0x1c
    378c:	6b 8d       	ldd	r22, Y+27	; 0x1b
    378e:	7c 8d       	ldd	r23, Y+28	; 0x1c
    3790:	86 2b       	or	r24, r22
    3792:	97 2b       	or	r25, r23
    3794:	22 95       	swap	r18
    3796:	21 70       	andi	r18, 0x01	; 1
    3798:	2d 8f       	std	Y+29, r18	; 0x1d
    379a:	1e 8e       	std	Y+30, r1	; 0x1e
    379c:	2d 8d       	ldd	r18, Y+29	; 0x1d
    379e:	3e 8d       	ldd	r19, Y+30	; 0x1e
    37a0:	22 0f       	add	r18, r18
    37a2:	33 1f       	adc	r19, r19
    37a4:	82 2b       	or	r24, r18
    37a6:	93 2b       	or	r25, r19
    37a8:	45 fb       	bst	r20, 5
    37aa:	44 27       	eor	r20, r20
    37ac:	40 f9       	bld	r20, 0
    37ae:	4f 8f       	std	Y+31, r20	; 0x1f
    37b0:	18 a2       	std	Y+32, r1	; 0x20
    37b2:	2f 8d       	ldd	r18, Y+31	; 0x1f
    37b4:	38 a1       	ldd	r19, Y+32	; 0x20
    37b6:	22 0f       	add	r18, r18
    37b8:	33 1f       	adc	r19, r19
    37ba:	22 0f       	add	r18, r18
    37bc:	33 1f       	adc	r19, r19
    37be:	22 0f       	add	r18, r18
    37c0:	33 1f       	adc	r19, r19
    37c2:	82 2b       	or	r24, r18
    37c4:	93 2b       	or	r25, r19
    37c6:	f8 9e       	mul	r15, r24
    37c8:	f0 01       	movw	r30, r0
    37ca:	f9 9e       	mul	r15, r25
    37cc:	f0 0d       	add	r31, r0
    37ce:	11 24       	eor	r1, r1
    37d0:	e0 53       	subi	r30, 0x30	; 48
    37d2:	ff 4d       	sbci	r31, 0xDF	; 223
    37d4:	61 81       	ldd	r22, Z+1	; 0x01
    37d6:	80 ea       	ldi	r24, 0xA0	; 160
    37d8:	9b e0       	ldi	r25, 0x0B	; 11
    37da:	0e 94 77 0e 	call	0x1cee	; 0x1cee <usart_putchar>
    37de:	e8 e0       	ldi	r30, 0x08	; 8
    37e0:	f6 e0       	ldi	r31, 0x06	; 6
    37e2:	30 81       	ld	r19, Z
    37e4:	20 81       	ld	r18, Z
    37e6:	80 81       	ld	r24, Z
    37e8:	40 81       	ld	r20, Z
    37ea:	88 1f       	adc	r24, r24
    37ec:	88 27       	eor	r24, r24
    37ee:	88 1f       	adc	r24, r24
    37f0:	90 e0       	ldi	r25, 0x00	; 0
    37f2:	88 0f       	add	r24, r24
    37f4:	99 1f       	adc	r25, r25
    37f6:	88 0f       	add	r24, r24
    37f8:	99 1f       	adc	r25, r25
    37fa:	36 fb       	bst	r19, 6
    37fc:	33 27       	eor	r19, r19
    37fe:	30 f9       	bld	r19, 0
    3800:	39 a3       	std	Y+33, r19	; 0x21
    3802:	1a a2       	std	Y+34, r1	; 0x22
    3804:	69 a1       	ldd	r22, Y+33	; 0x21
    3806:	7a a1       	ldd	r23, Y+34	; 0x22
    3808:	86 2b       	or	r24, r22
    380a:	97 2b       	or	r25, r23
    380c:	22 95       	swap	r18
    380e:	21 70       	andi	r18, 0x01	; 1
    3810:	2b a3       	std	Y+35, r18	; 0x23
    3812:	1c a2       	std	Y+36, r1	; 0x24
    3814:	2b a1       	ldd	r18, Y+35	; 0x23
    3816:	3c a1       	ldd	r19, Y+36	; 0x24
    3818:	22 0f       	add	r18, r18
    381a:	33 1f       	adc	r19, r19
    381c:	82 2b       	or	r24, r18
    381e:	93 2b       	or	r25, r19
    3820:	45 fb       	bst	r20, 5
    3822:	44 27       	eor	r20, r20
    3824:	40 f9       	bld	r20, 0
    3826:	4d a3       	std	Y+37, r20	; 0x25
    3828:	1e a2       	std	Y+38, r1	; 0x26
    382a:	2d a1       	ldd	r18, Y+37	; 0x25
    382c:	3e a1       	ldd	r19, Y+38	; 0x26
    382e:	22 0f       	add	r18, r18
    3830:	33 1f       	adc	r19, r19
    3832:	22 0f       	add	r18, r18
    3834:	33 1f       	adc	r19, r19
    3836:	22 0f       	add	r18, r18
    3838:	33 1f       	adc	r19, r19
    383a:	82 2b       	or	r24, r18
    383c:	93 2b       	or	r25, r19
    383e:	f8 9e       	mul	r15, r24
    3840:	f0 01       	movw	r30, r0
    3842:	f9 9e       	mul	r15, r25
    3844:	f0 0d       	add	r31, r0
    3846:	11 24       	eor	r1, r1
    3848:	e0 53       	subi	r30, 0x30	; 48
    384a:	ff 4d       	sbci	r31, 0xDF	; 223
    384c:	67 81       	ldd	r22, Z+7	; 0x07
    384e:	80 ea       	ldi	r24, 0xA0	; 160
    3850:	9b e0       	ldi	r25, 0x0B	; 11
    3852:	0e 94 77 0e 	call	0x1cee	; 0x1cee <usart_putchar>
    3856:	e8 e0       	ldi	r30, 0x08	; 8
    3858:	f6 e0       	ldi	r31, 0x06	; 6
    385a:	30 81       	ld	r19, Z
    385c:	20 81       	ld	r18, Z
    385e:	80 81       	ld	r24, Z
    3860:	40 81       	ld	r20, Z
    3862:	88 1f       	adc	r24, r24
    3864:	88 27       	eor	r24, r24
    3866:	88 1f       	adc	r24, r24
    3868:	90 e0       	ldi	r25, 0x00	; 0
    386a:	88 0f       	add	r24, r24
    386c:	99 1f       	adc	r25, r25
    386e:	88 0f       	add	r24, r24
    3870:	99 1f       	adc	r25, r25
    3872:	36 fb       	bst	r19, 6
    3874:	33 27       	eor	r19, r19
    3876:	30 f9       	bld	r19, 0
    3878:	3f a3       	std	Y+39, r19	; 0x27
    387a:	18 a6       	std	Y+40, r1	; 0x28
    387c:	6f a1       	ldd	r22, Y+39	; 0x27
    387e:	78 a5       	ldd	r23, Y+40	; 0x28
    3880:	86 2b       	or	r24, r22
    3882:	97 2b       	or	r25, r23
    3884:	22 95       	swap	r18
    3886:	21 70       	andi	r18, 0x01	; 1
    3888:	29 a7       	std	Y+41, r18	; 0x29
    388a:	1a a6       	std	Y+42, r1	; 0x2a
    388c:	29 a5       	ldd	r18, Y+41	; 0x29
    388e:	3a a5       	ldd	r19, Y+42	; 0x2a
    3890:	22 0f       	add	r18, r18
    3892:	33 1f       	adc	r19, r19
    3894:	82 2b       	or	r24, r18
    3896:	93 2b       	or	r25, r19
    3898:	45 fb       	bst	r20, 5
    389a:	44 27       	eor	r20, r20
    389c:	40 f9       	bld	r20, 0
    389e:	4b a7       	std	Y+43, r20	; 0x2b
    38a0:	1c a6       	std	Y+44, r1	; 0x2c
    38a2:	2b a5       	ldd	r18, Y+43	; 0x2b
    38a4:	3c a5       	ldd	r19, Y+44	; 0x2c
    38a6:	22 0f       	add	r18, r18
    38a8:	33 1f       	adc	r19, r19
    38aa:	22 0f       	add	r18, r18
    38ac:	33 1f       	adc	r19, r19
    38ae:	22 0f       	add	r18, r18
    38b0:	33 1f       	adc	r19, r19
    38b2:	82 2b       	or	r24, r18
    38b4:	93 2b       	or	r25, r19
    38b6:	f8 9e       	mul	r15, r24
    38b8:	f0 01       	movw	r30, r0
    38ba:	f9 9e       	mul	r15, r25
    38bc:	f0 0d       	add	r31, r0
    38be:	11 24       	eor	r1, r1
    38c0:	e0 53       	subi	r30, 0x30	; 48
    38c2:	ff 4d       	sbci	r31, 0xDF	; 223
    38c4:	65 81       	ldd	r22, Z+5	; 0x05
    38c6:	80 ea       	ldi	r24, 0xA0	; 160
    38c8:	9b e0       	ldi	r25, 0x0B	; 11
    38ca:	0e 94 77 0e 	call	0x1cee	; 0x1cee <usart_putchar>
    38ce:	e8 e0       	ldi	r30, 0x08	; 8
    38d0:	f6 e0       	ldi	r31, 0x06	; 6
    38d2:	30 81       	ld	r19, Z
    38d4:	20 81       	ld	r18, Z
    38d6:	80 81       	ld	r24, Z
    38d8:	40 81       	ld	r20, Z
    38da:	88 1f       	adc	r24, r24
    38dc:	88 27       	eor	r24, r24
    38de:	88 1f       	adc	r24, r24
    38e0:	90 e0       	ldi	r25, 0x00	; 0
    38e2:	88 0f       	add	r24, r24
    38e4:	99 1f       	adc	r25, r25
    38e6:	88 0f       	add	r24, r24
    38e8:	99 1f       	adc	r25, r25
    38ea:	36 fb       	bst	r19, 6
    38ec:	33 27       	eor	r19, r19
    38ee:	30 f9       	bld	r19, 0
    38f0:	3d a7       	std	Y+45, r19	; 0x2d
    38f2:	1e a6       	std	Y+46, r1	; 0x2e
    38f4:	6d a5       	ldd	r22, Y+45	; 0x2d
    38f6:	7e a5       	ldd	r23, Y+46	; 0x2e
    38f8:	86 2b       	or	r24, r22
    38fa:	97 2b       	or	r25, r23
    38fc:	22 95       	swap	r18
    38fe:	21 70       	andi	r18, 0x01	; 1
    3900:	2f a7       	std	Y+47, r18	; 0x2f
    3902:	18 aa       	std	Y+48, r1	; 0x30
    3904:	2f a5       	ldd	r18, Y+47	; 0x2f
    3906:	38 a9       	ldd	r19, Y+48	; 0x30
    3908:	22 0f       	add	r18, r18
    390a:	33 1f       	adc	r19, r19
    390c:	82 2b       	or	r24, r18
    390e:	93 2b       	or	r25, r19
    3910:	45 fb       	bst	r20, 5
    3912:	44 27       	eor	r20, r20
    3914:	40 f9       	bld	r20, 0
    3916:	49 ab       	std	Y+49, r20	; 0x31
    3918:	1a aa       	std	Y+50, r1	; 0x32
    391a:	29 a9       	ldd	r18, Y+49	; 0x31
    391c:	3a a9       	ldd	r19, Y+50	; 0x32
    391e:	22 0f       	add	r18, r18
    3920:	33 1f       	adc	r19, r19
    3922:	22 0f       	add	r18, r18
    3924:	33 1f       	adc	r19, r19
    3926:	22 0f       	add	r18, r18
    3928:	33 1f       	adc	r19, r19
    392a:	82 2b       	or	r24, r18
    392c:	93 2b       	or	r25, r19
    392e:	f8 9e       	mul	r15, r24
    3930:	f0 01       	movw	r30, r0
    3932:	f9 9e       	mul	r15, r25
    3934:	f0 0d       	add	r31, r0
    3936:	11 24       	eor	r1, r1
    3938:	e0 53       	subi	r30, 0x30	; 48
    393a:	ff 4d       	sbci	r31, 0xDF	; 223
    393c:	63 85       	ldd	r22, Z+11	; 0x0b
    393e:	80 ea       	ldi	r24, 0xA0	; 160
    3940:	9b e0       	ldi	r25, 0x0B	; 11
    3942:	0e 94 77 0e 	call	0x1cee	; 0x1cee <usart_putchar>
    3946:	e8 e0       	ldi	r30, 0x08	; 8
    3948:	f6 e0       	ldi	r31, 0x06	; 6
    394a:	30 81       	ld	r19, Z
    394c:	20 81       	ld	r18, Z
    394e:	80 81       	ld	r24, Z
    3950:	40 81       	ld	r20, Z
    3952:	88 1f       	adc	r24, r24
    3954:	88 27       	eor	r24, r24
    3956:	88 1f       	adc	r24, r24
    3958:	90 e0       	ldi	r25, 0x00	; 0
    395a:	88 0f       	add	r24, r24
    395c:	99 1f       	adc	r25, r25
    395e:	88 0f       	add	r24, r24
    3960:	99 1f       	adc	r25, r25
    3962:	36 fb       	bst	r19, 6
    3964:	33 27       	eor	r19, r19
    3966:	30 f9       	bld	r19, 0
    3968:	3b ab       	std	Y+51, r19	; 0x33
    396a:	1c aa       	std	Y+52, r1	; 0x34
    396c:	6b a9       	ldd	r22, Y+51	; 0x33
    396e:	7c a9       	ldd	r23, Y+52	; 0x34
    3970:	86 2b       	or	r24, r22
    3972:	97 2b       	or	r25, r23
    3974:	22 95       	swap	r18
    3976:	21 70       	andi	r18, 0x01	; 1
    3978:	2d ab       	std	Y+53, r18	; 0x35
    397a:	1e aa       	std	Y+54, r1	; 0x36
    397c:	2d a9       	ldd	r18, Y+53	; 0x35
    397e:	3e a9       	ldd	r19, Y+54	; 0x36
    3980:	22 0f       	add	r18, r18
    3982:	33 1f       	adc	r19, r19
    3984:	82 2b       	or	r24, r18
    3986:	93 2b       	or	r25, r19
    3988:	45 fb       	bst	r20, 5
    398a:	44 27       	eor	r20, r20
    398c:	40 f9       	bld	r20, 0
    398e:	4f ab       	std	Y+55, r20	; 0x37
    3990:	18 ae       	std	Y+56, r1	; 0x38
    3992:	2f a9       	ldd	r18, Y+55	; 0x37
    3994:	38 ad       	ldd	r19, Y+56	; 0x38
    3996:	22 0f       	add	r18, r18
    3998:	33 1f       	adc	r19, r19
    399a:	22 0f       	add	r18, r18
    399c:	33 1f       	adc	r19, r19
    399e:	22 0f       	add	r18, r18
    39a0:	33 1f       	adc	r19, r19
    39a2:	82 2b       	or	r24, r18
    39a4:	93 2b       	or	r25, r19
    39a6:	f8 9e       	mul	r15, r24
    39a8:	f0 01       	movw	r30, r0
    39aa:	f9 9e       	mul	r15, r25
    39ac:	f0 0d       	add	r31, r0
    39ae:	11 24       	eor	r1, r1
    39b0:	e0 53       	subi	r30, 0x30	; 48
    39b2:	ff 4d       	sbci	r31, 0xDF	; 223
    39b4:	61 85       	ldd	r22, Z+9	; 0x09
    39b6:	80 ea       	ldi	r24, 0xA0	; 160
    39b8:	9b e0       	ldi	r25, 0x0B	; 11
    39ba:	0e 94 77 0e 	call	0x1cee	; 0x1cee <usart_putchar>
    39be:	e8 e0       	ldi	r30, 0x08	; 8
    39c0:	f6 e0       	ldi	r31, 0x06	; 6
    39c2:	30 81       	ld	r19, Z
    39c4:	20 81       	ld	r18, Z
    39c6:	80 81       	ld	r24, Z
    39c8:	40 81       	ld	r20, Z
    39ca:	88 1f       	adc	r24, r24
    39cc:	88 27       	eor	r24, r24
    39ce:	88 1f       	adc	r24, r24
    39d0:	90 e0       	ldi	r25, 0x00	; 0
    39d2:	88 0f       	add	r24, r24
    39d4:	99 1f       	adc	r25, r25
    39d6:	88 0f       	add	r24, r24
    39d8:	99 1f       	adc	r25, r25
    39da:	36 fb       	bst	r19, 6
    39dc:	33 27       	eor	r19, r19
    39de:	30 f9       	bld	r19, 0
    39e0:	39 af       	std	Y+57, r19	; 0x39
    39e2:	1a ae       	std	Y+58, r1	; 0x3a
    39e4:	69 ad       	ldd	r22, Y+57	; 0x39
    39e6:	7a ad       	ldd	r23, Y+58	; 0x3a
    39e8:	86 2b       	or	r24, r22
    39ea:	97 2b       	or	r25, r23
    39ec:	22 95       	swap	r18
    39ee:	21 70       	andi	r18, 0x01	; 1
    39f0:	2b af       	std	Y+59, r18	; 0x3b
    39f2:	1c ae       	std	Y+60, r1	; 0x3c
    39f4:	2b ad       	ldd	r18, Y+59	; 0x3b
    39f6:	3c ad       	ldd	r19, Y+60	; 0x3c
    39f8:	22 0f       	add	r18, r18
    39fa:	33 1f       	adc	r19, r19
    39fc:	82 2b       	or	r24, r18
    39fe:	93 2b       	or	r25, r19
    3a00:	45 fb       	bst	r20, 5
    3a02:	44 27       	eor	r20, r20
    3a04:	40 f9       	bld	r20, 0
    3a06:	4d af       	std	Y+61, r20	; 0x3d
    3a08:	1e ae       	std	Y+62, r1	; 0x3e
    3a0a:	2d ad       	ldd	r18, Y+61	; 0x3d
    3a0c:	3e ad       	ldd	r19, Y+62	; 0x3e
    3a0e:	22 0f       	add	r18, r18
    3a10:	33 1f       	adc	r19, r19
    3a12:	22 0f       	add	r18, r18
    3a14:	33 1f       	adc	r19, r19
    3a16:	22 0f       	add	r18, r18
    3a18:	33 1f       	adc	r19, r19
    3a1a:	82 2b       	or	r24, r18
    3a1c:	93 2b       	or	r25, r19
    3a1e:	f8 9e       	mul	r15, r24
    3a20:	f0 01       	movw	r30, r0
    3a22:	f9 9e       	mul	r15, r25
    3a24:	f0 0d       	add	r31, r0
    3a26:	11 24       	eor	r1, r1
    3a28:	e0 53       	subi	r30, 0x30	; 48
    3a2a:	ff 4d       	sbci	r31, 0xDF	; 223
    3a2c:	67 85       	ldd	r22, Z+15	; 0x0f
    3a2e:	80 ea       	ldi	r24, 0xA0	; 160
    3a30:	9b e0       	ldi	r25, 0x0B	; 11
    3a32:	0e 94 77 0e 	call	0x1cee	; 0x1cee <usart_putchar>
    3a36:	e8 e0       	ldi	r30, 0x08	; 8
    3a38:	f6 e0       	ldi	r31, 0x06	; 6
    3a3a:	30 81       	ld	r19, Z
    3a3c:	20 81       	ld	r18, Z
    3a3e:	80 81       	ld	r24, Z
    3a40:	40 81       	ld	r20, Z
    3a42:	88 1f       	adc	r24, r24
    3a44:	88 27       	eor	r24, r24
    3a46:	88 1f       	adc	r24, r24
    3a48:	90 e0       	ldi	r25, 0x00	; 0
    3a4a:	88 0f       	add	r24, r24
    3a4c:	99 1f       	adc	r25, r25
    3a4e:	88 0f       	add	r24, r24
    3a50:	99 1f       	adc	r25, r25
    3a52:	36 fb       	bst	r19, 6
    3a54:	33 27       	eor	r19, r19
    3a56:	30 f9       	bld	r19, 0
    3a58:	3f af       	std	Y+63, r19	; 0x3f
    3a5a:	21 96       	adiw	r28, 0x01	; 1
    3a5c:	1f ae       	std	Y+63, r1	; 0x3f
    3a5e:	21 97       	sbiw	r28, 0x01	; 1
    3a60:	21 96       	adiw	r28, 0x01	; 1
    3a62:	6e ad       	ldd	r22, Y+62	; 0x3e
    3a64:	7f ad       	ldd	r23, Y+63	; 0x3f
    3a66:	21 97       	sbiw	r28, 0x01	; 1
    3a68:	86 2b       	or	r24, r22
    3a6a:	97 2b       	or	r25, r23
    3a6c:	22 95       	swap	r18
    3a6e:	21 70       	andi	r18, 0x01	; 1
    3a70:	22 96       	adiw	r28, 0x02	; 2
    3a72:	2f af       	std	Y+63, r18	; 0x3f
    3a74:	22 97       	sbiw	r28, 0x02	; 2
    3a76:	23 96       	adiw	r28, 0x03	; 3
    3a78:	1f ae       	std	Y+63, r1	; 0x3f
    3a7a:	23 97       	sbiw	r28, 0x03	; 3
    3a7c:	23 96       	adiw	r28, 0x03	; 3
    3a7e:	2e ad       	ldd	r18, Y+62	; 0x3e
    3a80:	3f ad       	ldd	r19, Y+63	; 0x3f
    3a82:	23 97       	sbiw	r28, 0x03	; 3
    3a84:	22 0f       	add	r18, r18
    3a86:	33 1f       	adc	r19, r19
    3a88:	82 2b       	or	r24, r18
    3a8a:	93 2b       	or	r25, r19
    3a8c:	45 fb       	bst	r20, 5
    3a8e:	44 27       	eor	r20, r20
    3a90:	40 f9       	bld	r20, 0
    3a92:	24 96       	adiw	r28, 0x04	; 4
    3a94:	4f af       	std	Y+63, r20	; 0x3f
    3a96:	24 97       	sbiw	r28, 0x04	; 4
    3a98:	25 96       	adiw	r28, 0x05	; 5
    3a9a:	1f ae       	std	Y+63, r1	; 0x3f
    3a9c:	25 97       	sbiw	r28, 0x05	; 5
    3a9e:	25 96       	adiw	r28, 0x05	; 5
    3aa0:	2e ad       	ldd	r18, Y+62	; 0x3e
    3aa2:	3f ad       	ldd	r19, Y+63	; 0x3f
    3aa4:	25 97       	sbiw	r28, 0x05	; 5
    3aa6:	22 0f       	add	r18, r18
    3aa8:	33 1f       	adc	r19, r19
    3aaa:	22 0f       	add	r18, r18
    3aac:	33 1f       	adc	r19, r19
    3aae:	22 0f       	add	r18, r18
    3ab0:	33 1f       	adc	r19, r19
    3ab2:	82 2b       	or	r24, r18
    3ab4:	93 2b       	or	r25, r19
    3ab6:	f8 9e       	mul	r15, r24
    3ab8:	f0 01       	movw	r30, r0
    3aba:	f9 9e       	mul	r15, r25
    3abc:	f0 0d       	add	r31, r0
    3abe:	11 24       	eor	r1, r1
    3ac0:	e0 53       	subi	r30, 0x30	; 48
    3ac2:	ff 4d       	sbci	r31, 0xDF	; 223
    3ac4:	65 85       	ldd	r22, Z+13	; 0x0d
    3ac6:	80 ea       	ldi	r24, 0xA0	; 160
    3ac8:	9b e0       	ldi	r25, 0x0B	; 11
    3aca:	0e 94 77 0e 	call	0x1cee	; 0x1cee <usart_putchar>
    3ace:	e8 e0       	ldi	r30, 0x08	; 8
    3ad0:	f6 e0       	ldi	r31, 0x06	; 6
    3ad2:	30 81       	ld	r19, Z
    3ad4:	20 81       	ld	r18, Z
    3ad6:	80 81       	ld	r24, Z
    3ad8:	40 81       	ld	r20, Z
    3ada:	88 1f       	adc	r24, r24
    3adc:	88 27       	eor	r24, r24
    3ade:	88 1f       	adc	r24, r24
    3ae0:	90 e0       	ldi	r25, 0x00	; 0
    3ae2:	88 0f       	add	r24, r24
    3ae4:	99 1f       	adc	r25, r25
    3ae6:	88 0f       	add	r24, r24
    3ae8:	99 1f       	adc	r25, r25
    3aea:	36 fb       	bst	r19, 6
    3aec:	33 27       	eor	r19, r19
    3aee:	30 f9       	bld	r19, 0
    3af0:	26 96       	adiw	r28, 0x06	; 6
    3af2:	3f af       	std	Y+63, r19	; 0x3f
    3af4:	26 97       	sbiw	r28, 0x06	; 6
    3af6:	27 96       	adiw	r28, 0x07	; 7
    3af8:	1f ae       	std	Y+63, r1	; 0x3f
    3afa:	27 97       	sbiw	r28, 0x07	; 7
    3afc:	27 96       	adiw	r28, 0x07	; 7
    3afe:	6e ad       	ldd	r22, Y+62	; 0x3e
    3b00:	7f ad       	ldd	r23, Y+63	; 0x3f
    3b02:	27 97       	sbiw	r28, 0x07	; 7
    3b04:	86 2b       	or	r24, r22
    3b06:	97 2b       	or	r25, r23
    3b08:	22 95       	swap	r18
    3b0a:	21 70       	andi	r18, 0x01	; 1
    3b0c:	28 96       	adiw	r28, 0x08	; 8
    3b0e:	2f af       	std	Y+63, r18	; 0x3f
    3b10:	28 97       	sbiw	r28, 0x08	; 8
    3b12:	29 96       	adiw	r28, 0x09	; 9
    3b14:	1f ae       	std	Y+63, r1	; 0x3f
    3b16:	29 97       	sbiw	r28, 0x09	; 9
    3b18:	29 96       	adiw	r28, 0x09	; 9
    3b1a:	2e ad       	ldd	r18, Y+62	; 0x3e
    3b1c:	3f ad       	ldd	r19, Y+63	; 0x3f
    3b1e:	29 97       	sbiw	r28, 0x09	; 9
    3b20:	22 0f       	add	r18, r18
    3b22:	33 1f       	adc	r19, r19
    3b24:	82 2b       	or	r24, r18
    3b26:	93 2b       	or	r25, r19
    3b28:	45 fb       	bst	r20, 5
    3b2a:	44 27       	eor	r20, r20
    3b2c:	40 f9       	bld	r20, 0
    3b2e:	2a 96       	adiw	r28, 0x0a	; 10
    3b30:	4f af       	std	Y+63, r20	; 0x3f
    3b32:	2a 97       	sbiw	r28, 0x0a	; 10
    3b34:	2b 96       	adiw	r28, 0x0b	; 11
    3b36:	1f ae       	std	Y+63, r1	; 0x3f
    3b38:	2b 97       	sbiw	r28, 0x0b	; 11
    3b3a:	2b 96       	adiw	r28, 0x0b	; 11
    3b3c:	2e ad       	ldd	r18, Y+62	; 0x3e
    3b3e:	3f ad       	ldd	r19, Y+63	; 0x3f
    3b40:	2b 97       	sbiw	r28, 0x0b	; 11
    3b42:	22 0f       	add	r18, r18
    3b44:	33 1f       	adc	r19, r19
    3b46:	22 0f       	add	r18, r18
    3b48:	33 1f       	adc	r19, r19
    3b4a:	22 0f       	add	r18, r18
    3b4c:	33 1f       	adc	r19, r19
    3b4e:	82 2b       	or	r24, r18
    3b50:	93 2b       	or	r25, r19
    3b52:	f8 9e       	mul	r15, r24
    3b54:	f0 01       	movw	r30, r0
    3b56:	f9 9e       	mul	r15, r25
    3b58:	f0 0d       	add	r31, r0
    3b5a:	11 24       	eor	r1, r1
    3b5c:	e0 53       	subi	r30, 0x30	; 48
    3b5e:	ff 4d       	sbci	r31, 0xDF	; 223
    3b60:	64 89       	ldd	r22, Z+20	; 0x14
    3b62:	80 ea       	ldi	r24, 0xA0	; 160
    3b64:	9b e0       	ldi	r25, 0x0B	; 11
    3b66:	0e 94 77 0e 	call	0x1cee	; 0x1cee <usart_putchar>
    3b6a:	e8 e0       	ldi	r30, 0x08	; 8
    3b6c:	f6 e0       	ldi	r31, 0x06	; 6
    3b6e:	30 81       	ld	r19, Z
    3b70:	20 81       	ld	r18, Z
    3b72:	80 81       	ld	r24, Z
    3b74:	40 81       	ld	r20, Z
    3b76:	88 1f       	adc	r24, r24
    3b78:	88 27       	eor	r24, r24
    3b7a:	88 1f       	adc	r24, r24
    3b7c:	90 e0       	ldi	r25, 0x00	; 0
    3b7e:	88 0f       	add	r24, r24
    3b80:	99 1f       	adc	r25, r25
    3b82:	88 0f       	add	r24, r24
    3b84:	99 1f       	adc	r25, r25
    3b86:	36 fb       	bst	r19, 6
    3b88:	33 27       	eor	r19, r19
    3b8a:	30 f9       	bld	r19, 0
    3b8c:	2c 96       	adiw	r28, 0x0c	; 12
    3b8e:	3f af       	std	Y+63, r19	; 0x3f
    3b90:	2c 97       	sbiw	r28, 0x0c	; 12
    3b92:	2d 96       	adiw	r28, 0x0d	; 13
    3b94:	1f ae       	std	Y+63, r1	; 0x3f
    3b96:	2d 97       	sbiw	r28, 0x0d	; 13
    3b98:	2d 96       	adiw	r28, 0x0d	; 13
    3b9a:	6e ad       	ldd	r22, Y+62	; 0x3e
    3b9c:	7f ad       	ldd	r23, Y+63	; 0x3f
    3b9e:	2d 97       	sbiw	r28, 0x0d	; 13
    3ba0:	86 2b       	or	r24, r22
    3ba2:	97 2b       	or	r25, r23
    3ba4:	22 95       	swap	r18
    3ba6:	21 70       	andi	r18, 0x01	; 1
    3ba8:	2e 96       	adiw	r28, 0x0e	; 14
    3baa:	2f af       	std	Y+63, r18	; 0x3f
    3bac:	2e 97       	sbiw	r28, 0x0e	; 14
    3bae:	2f 96       	adiw	r28, 0x0f	; 15
    3bb0:	1f ae       	std	Y+63, r1	; 0x3f
    3bb2:	2f 97       	sbiw	r28, 0x0f	; 15
    3bb4:	2f 96       	adiw	r28, 0x0f	; 15
    3bb6:	2e ad       	ldd	r18, Y+62	; 0x3e
    3bb8:	3f ad       	ldd	r19, Y+63	; 0x3f
    3bba:	2f 97       	sbiw	r28, 0x0f	; 15
    3bbc:	22 0f       	add	r18, r18
    3bbe:	33 1f       	adc	r19, r19
    3bc0:	82 2b       	or	r24, r18
    3bc2:	93 2b       	or	r25, r19
    3bc4:	45 fb       	bst	r20, 5
    3bc6:	44 27       	eor	r20, r20
    3bc8:	40 f9       	bld	r20, 0
    3bca:	60 96       	adiw	r28, 0x10	; 16
    3bcc:	4f af       	std	Y+63, r20	; 0x3f
    3bce:	60 97       	sbiw	r28, 0x10	; 16
    3bd0:	61 96       	adiw	r28, 0x11	; 17
    3bd2:	1f ae       	std	Y+63, r1	; 0x3f
    3bd4:	61 97       	sbiw	r28, 0x11	; 17
    3bd6:	61 96       	adiw	r28, 0x11	; 17
    3bd8:	2e ad       	ldd	r18, Y+62	; 0x3e
    3bda:	3f ad       	ldd	r19, Y+63	; 0x3f
    3bdc:	61 97       	sbiw	r28, 0x11	; 17
    3bde:	22 0f       	add	r18, r18
    3be0:	33 1f       	adc	r19, r19
    3be2:	22 0f       	add	r18, r18
    3be4:	33 1f       	adc	r19, r19
    3be6:	22 0f       	add	r18, r18
    3be8:	33 1f       	adc	r19, r19
    3bea:	82 2b       	or	r24, r18
    3bec:	93 2b       	or	r25, r19
    3bee:	f8 9e       	mul	r15, r24
    3bf0:	f0 01       	movw	r30, r0
    3bf2:	f9 9e       	mul	r15, r25
    3bf4:	f0 0d       	add	r31, r0
    3bf6:	11 24       	eor	r1, r1
    3bf8:	e0 53       	subi	r30, 0x30	; 48
    3bfa:	ff 4d       	sbci	r31, 0xDF	; 223
    3bfc:	65 89       	ldd	r22, Z+21	; 0x15
    3bfe:	80 ea       	ldi	r24, 0xA0	; 160
    3c00:	9b e0       	ldi	r25, 0x0B	; 11
    3c02:	0e 94 77 0e 	call	0x1cee	; 0x1cee <usart_putchar>
    3c06:	e8 e0       	ldi	r30, 0x08	; 8
    3c08:	f6 e0       	ldi	r31, 0x06	; 6
    3c0a:	30 81       	ld	r19, Z
    3c0c:	20 81       	ld	r18, Z
    3c0e:	80 81       	ld	r24, Z
    3c10:	40 81       	ld	r20, Z
    3c12:	88 1f       	adc	r24, r24
    3c14:	88 27       	eor	r24, r24
    3c16:	88 1f       	adc	r24, r24
    3c18:	90 e0       	ldi	r25, 0x00	; 0
    3c1a:	88 0f       	add	r24, r24
    3c1c:	99 1f       	adc	r25, r25
    3c1e:	88 0f       	add	r24, r24
    3c20:	99 1f       	adc	r25, r25
    3c22:	36 fb       	bst	r19, 6
    3c24:	33 27       	eor	r19, r19
    3c26:	30 f9       	bld	r19, 0
    3c28:	62 96       	adiw	r28, 0x12	; 18
    3c2a:	3f af       	std	Y+63, r19	; 0x3f
    3c2c:	62 97       	sbiw	r28, 0x12	; 18
    3c2e:	63 96       	adiw	r28, 0x13	; 19
    3c30:	1f ae       	std	Y+63, r1	; 0x3f
    3c32:	63 97       	sbiw	r28, 0x13	; 19
    3c34:	63 96       	adiw	r28, 0x13	; 19
    3c36:	6e ad       	ldd	r22, Y+62	; 0x3e
    3c38:	7f ad       	ldd	r23, Y+63	; 0x3f
    3c3a:	63 97       	sbiw	r28, 0x13	; 19
    3c3c:	86 2b       	or	r24, r22
    3c3e:	97 2b       	or	r25, r23
    3c40:	22 95       	swap	r18
    3c42:	21 70       	andi	r18, 0x01	; 1
    3c44:	64 96       	adiw	r28, 0x14	; 20
    3c46:	2f af       	std	Y+63, r18	; 0x3f
    3c48:	64 97       	sbiw	r28, 0x14	; 20
    3c4a:	65 96       	adiw	r28, 0x15	; 21
    3c4c:	1f ae       	std	Y+63, r1	; 0x3f
    3c4e:	65 97       	sbiw	r28, 0x15	; 21
    3c50:	65 96       	adiw	r28, 0x15	; 21
    3c52:	2e ad       	ldd	r18, Y+62	; 0x3e
    3c54:	3f ad       	ldd	r19, Y+63	; 0x3f
    3c56:	65 97       	sbiw	r28, 0x15	; 21
    3c58:	22 0f       	add	r18, r18
    3c5a:	33 1f       	adc	r19, r19
    3c5c:	82 2b       	or	r24, r18
    3c5e:	93 2b       	or	r25, r19
    3c60:	45 fb       	bst	r20, 5
    3c62:	44 27       	eor	r20, r20
    3c64:	40 f9       	bld	r20, 0
    3c66:	66 96       	adiw	r28, 0x16	; 22
    3c68:	4f af       	std	Y+63, r20	; 0x3f
    3c6a:	66 97       	sbiw	r28, 0x16	; 22
    3c6c:	67 96       	adiw	r28, 0x17	; 23
    3c6e:	1f ae       	std	Y+63, r1	; 0x3f
    3c70:	67 97       	sbiw	r28, 0x17	; 23
    3c72:	67 96       	adiw	r28, 0x17	; 23
    3c74:	2e ad       	ldd	r18, Y+62	; 0x3e
    3c76:	3f ad       	ldd	r19, Y+63	; 0x3f
    3c78:	67 97       	sbiw	r28, 0x17	; 23
    3c7a:	22 0f       	add	r18, r18
    3c7c:	33 1f       	adc	r19, r19
    3c7e:	22 0f       	add	r18, r18
    3c80:	33 1f       	adc	r19, r19
    3c82:	22 0f       	add	r18, r18
    3c84:	33 1f       	adc	r19, r19
    3c86:	82 2b       	or	r24, r18
    3c88:	93 2b       	or	r25, r19
    3c8a:	f8 9e       	mul	r15, r24
    3c8c:	f0 01       	movw	r30, r0
    3c8e:	f9 9e       	mul	r15, r25
    3c90:	f0 0d       	add	r31, r0
    3c92:	11 24       	eor	r1, r1
    3c94:	e0 53       	subi	r30, 0x30	; 48
    3c96:	ff 4d       	sbci	r31, 0xDF	; 223
    3c98:	66 89       	ldd	r22, Z+22	; 0x16
    3c9a:	80 ea       	ldi	r24, 0xA0	; 160
    3c9c:	9b e0       	ldi	r25, 0x0B	; 11
    3c9e:	0e 94 77 0e 	call	0x1cee	; 0x1cee <usart_putchar>
    3ca2:	80 91 fd 23 	lds	r24, 0x23FD
    3ca6:	90 91 fe 23 	lds	r25, 0x23FE
    3caa:	00 97       	sbiw	r24, 0x00	; 0
    3cac:	19 f0       	breq	.+6      	; 0x3cb4 <main+0xb92>
    3cae:	01 97       	sbiw	r24, 0x01	; 1
    3cb0:	39 f0       	breq	.+14     	; 0x3cc0 <main+0xb9e>
    3cb2:	0b c0       	rjmp	.+22     	; 0x3cca <main+0xba8>
    3cb4:	63 e2       	ldi	r22, 0x23	; 35
    3cb6:	80 ea       	ldi	r24, 0xA0	; 160
    3cb8:	9b e0       	ldi	r25, 0x0B	; 11
    3cba:	0e 94 77 0e 	call	0x1cee	; 0x1cee <usart_putchar>
    3cbe:	05 c0       	rjmp	.+10     	; 0x3cca <main+0xba8>
    3cc0:	64 e2       	ldi	r22, 0x24	; 36
    3cc2:	80 ea       	ldi	r24, 0xA0	; 160
    3cc4:	9b e0       	ldi	r25, 0x0B	; 11
    3cc6:	0e 94 77 0e 	call	0x1cee	; 0x1cee <usart_putchar>
    3cca:	2f b7       	in	r18, 0x3f	; 63
    3ccc:	f8 94       	cli
    3cce:	e0 e0       	ldi	r30, 0x00	; 0
    3cd0:	f2 e0       	ldi	r31, 0x02	; 2
    3cd2:	84 a1       	ldd	r24, Z+36	; 0x24
    3cd4:	95 a1       	ldd	r25, Z+37	; 0x25
    3cd6:	2f bf       	out	0x3f, r18	; 63
    3cd8:	80 93 bd 20 	sts	0x20BD, r24
    3cdc:	90 93 be 20 	sts	0x20BE, r25
    3ce0:	89 3d       	cpi	r24, 0xD9	; 217
    3ce2:	94 40       	sbci	r25, 0x04	; 4
    3ce4:	3c f4       	brge	.+14     	; 0x3cf4 <main+0xbd2>
    3ce6:	e0 e4       	ldi	r30, 0x40	; 64
    3ce8:	f6 e0       	ldi	r31, 0x06	; 6
    3cea:	80 e4       	ldi	r24, 0x40	; 64
    3cec:	85 83       	std	Z+5, r24	; 0x05
    3cee:	84 e0       	ldi	r24, 0x04	; 4
    3cf0:	85 83       	std	Z+5, r24	; 0x05
    3cf2:	06 c0       	rjmp	.+12     	; 0x3d00 <main+0xbde>
    3cf4:	e0 e4       	ldi	r30, 0x40	; 64
    3cf6:	f6 e0       	ldi	r31, 0x06	; 6
    3cf8:	80 e4       	ldi	r24, 0x40	; 64
    3cfa:	86 83       	std	Z+6, r24	; 0x06
    3cfc:	84 e0       	ldi	r24, 0x04	; 4
    3cfe:	86 83       	std	Z+6, r24	; 0x06
    3d00:	e0 e0       	ldi	r30, 0x00	; 0
    3d02:	f6 e0       	ldi	r31, 0x06	; 6
    3d04:	80 85       	ldd	r24, Z+8	; 0x08
    3d06:	82 ff       	sbrs	r24, 2
    3d08:	03 c0       	rjmp	.+6      	; 0x3d10 <main+0xbee>
    3d0a:	8f ef       	ldi	r24, 0xFF	; 255
    3d0c:	90 e0       	ldi	r25, 0x00	; 0
    3d0e:	02 c0       	rjmp	.+4      	; 0x3d14 <main+0xbf2>
    3d10:	80 e0       	ldi	r24, 0x00	; 0
    3d12:	90 e0       	ldi	r25, 0x00	; 0
    3d14:	e8 e0       	ldi	r30, 0x08	; 8
    3d16:	f6 e0       	ldi	r31, 0x06	; 6
    3d18:	50 81       	ld	r21, Z
    3d1a:	40 81       	ld	r20, Z
    3d1c:	20 81       	ld	r18, Z
    3d1e:	60 81       	ld	r22, Z
    3d20:	22 1f       	adc	r18, r18
    3d22:	22 27       	eor	r18, r18
    3d24:	22 1f       	adc	r18, r18
    3d26:	30 e0       	ldi	r19, 0x00	; 0
    3d28:	22 0f       	add	r18, r18
    3d2a:	33 1f       	adc	r19, r19
    3d2c:	22 0f       	add	r18, r18
    3d2e:	33 1f       	adc	r19, r19
    3d30:	56 fb       	bst	r21, 6
    3d32:	55 27       	eor	r21, r21
    3d34:	50 f9       	bld	r21, 0
    3d36:	68 96       	adiw	r28, 0x18	; 24
    3d38:	5f af       	std	Y+63, r21	; 0x3f
    3d3a:	68 97       	sbiw	r28, 0x18	; 24
    3d3c:	69 96       	adiw	r28, 0x19	; 25
    3d3e:	1f ae       	std	Y+63, r1	; 0x3f
    3d40:	69 97       	sbiw	r28, 0x19	; 25
    3d42:	69 96       	adiw	r28, 0x19	; 25
    3d44:	ee ad       	ldd	r30, Y+62	; 0x3e
    3d46:	ff ad       	ldd	r31, Y+63	; 0x3f
    3d48:	69 97       	sbiw	r28, 0x19	; 25
    3d4a:	2e 2b       	or	r18, r30
    3d4c:	3f 2b       	or	r19, r31
    3d4e:	42 95       	swap	r20
    3d50:	41 70       	andi	r20, 0x01	; 1
    3d52:	6a 96       	adiw	r28, 0x1a	; 26
    3d54:	4f af       	std	Y+63, r20	; 0x3f
    3d56:	6a 97       	sbiw	r28, 0x1a	; 26
    3d58:	6b 96       	adiw	r28, 0x1b	; 27
    3d5a:	1f ae       	std	Y+63, r1	; 0x3f
    3d5c:	6b 97       	sbiw	r28, 0x1b	; 27
    3d5e:	6b 96       	adiw	r28, 0x1b	; 27
    3d60:	4e ad       	ldd	r20, Y+62	; 0x3e
    3d62:	5f ad       	ldd	r21, Y+63	; 0x3f
    3d64:	6b 97       	sbiw	r28, 0x1b	; 27
    3d66:	44 0f       	add	r20, r20
    3d68:	55 1f       	adc	r21, r21
    3d6a:	24 2b       	or	r18, r20
    3d6c:	35 2b       	or	r19, r21
    3d6e:	65 fb       	bst	r22, 5
    3d70:	66 27       	eor	r22, r22
    3d72:	60 f9       	bld	r22, 0
    3d74:	6c 96       	adiw	r28, 0x1c	; 28
    3d76:	6f af       	std	Y+63, r22	; 0x3f
    3d78:	6c 97       	sbiw	r28, 0x1c	; 28
    3d7a:	6d 96       	adiw	r28, 0x1d	; 29
    3d7c:	1f ae       	std	Y+63, r1	; 0x3f
    3d7e:	6d 97       	sbiw	r28, 0x1d	; 29
    3d80:	6d 96       	adiw	r28, 0x1d	; 29
    3d82:	4e ad       	ldd	r20, Y+62	; 0x3e
    3d84:	5f ad       	ldd	r21, Y+63	; 0x3f
    3d86:	6d 97       	sbiw	r28, 0x1d	; 29
    3d88:	44 0f       	add	r20, r20
    3d8a:	55 1f       	adc	r21, r21
    3d8c:	44 0f       	add	r20, r20
    3d8e:	55 1f       	adc	r21, r21
    3d90:	44 0f       	add	r20, r20
    3d92:	55 1f       	adc	r21, r21
    3d94:	24 2b       	or	r18, r20
    3d96:	35 2b       	or	r19, r21
    3d98:	47 e1       	ldi	r20, 0x17	; 23
    3d9a:	42 9f       	mul	r20, r18
    3d9c:	f0 01       	movw	r30, r0
    3d9e:	43 9f       	mul	r20, r19
    3da0:	f0 0d       	add	r31, r0
    3da2:	11 24       	eor	r1, r1
    3da4:	e0 53       	subi	r30, 0x30	; 48
    3da6:	ff 4d       	sbci	r31, 0xDF	; 223
    3da8:	21 89       	ldd	r18, Z+17	; 0x11
    3daa:	82 2b       	or	r24, r18
    3dac:	89 2b       	or	r24, r25
    3dae:	59 f0       	breq	.+22     	; 0x3dc6 <main+0xca4>
    3db0:	e0 e6       	ldi	r30, 0x60	; 96
    3db2:	f6 e0       	ldi	r31, 0x06	; 6
    3db4:	80 85       	ldd	r24, Z+8	; 0x08
    3db6:	88 23       	and	r24, r24
    3db8:	34 f0       	brlt	.+12     	; 0x3dc6 <main+0xca4>
    3dba:	81 e0       	ldi	r24, 0x01	; 1
    3dbc:	90 e0       	ldi	r25, 0x00	; 0
    3dbe:	80 93 c1 20 	sts	0x20C1, r24
    3dc2:	90 93 c2 20 	sts	0x20C2, r25
    3dc6:	e8 e0       	ldi	r30, 0x08	; 8
    3dc8:	f6 e0       	ldi	r31, 0x06	; 6
    3dca:	30 81       	ld	r19, Z
    3dcc:	20 81       	ld	r18, Z
    3dce:	80 81       	ld	r24, Z
    3dd0:	40 81       	ld	r20, Z
    3dd2:	88 1f       	adc	r24, r24
    3dd4:	88 27       	eor	r24, r24
    3dd6:	88 1f       	adc	r24, r24
    3dd8:	90 e0       	ldi	r25, 0x00	; 0
    3dda:	88 0f       	add	r24, r24
    3ddc:	99 1f       	adc	r25, r25
    3dde:	88 0f       	add	r24, r24
    3de0:	99 1f       	adc	r25, r25
    3de2:	36 fb       	bst	r19, 6
    3de4:	33 27       	eor	r19, r19
    3de6:	30 f9       	bld	r19, 0
    3de8:	6e 96       	adiw	r28, 0x1e	; 30
    3dea:	3f af       	std	Y+63, r19	; 0x3f
    3dec:	6e 97       	sbiw	r28, 0x1e	; 30
    3dee:	6f 96       	adiw	r28, 0x1f	; 31
    3df0:	1f ae       	std	Y+63, r1	; 0x3f
    3df2:	6f 97       	sbiw	r28, 0x1f	; 31
    3df4:	6f 96       	adiw	r28, 0x1f	; 31
    3df6:	6e ad       	ldd	r22, Y+62	; 0x3e
    3df8:	7f ad       	ldd	r23, Y+63	; 0x3f
    3dfa:	6f 97       	sbiw	r28, 0x1f	; 31
    3dfc:	86 2b       	or	r24, r22
    3dfe:	97 2b       	or	r25, r23
    3e00:	22 95       	swap	r18
    3e02:	21 70       	andi	r18, 0x01	; 1
    3e04:	a0 96       	adiw	r28, 0x20	; 32
    3e06:	2f af       	std	Y+63, r18	; 0x3f
    3e08:	a0 97       	sbiw	r28, 0x20	; 32
    3e0a:	a1 96       	adiw	r28, 0x21	; 33
    3e0c:	1f ae       	std	Y+63, r1	; 0x3f
    3e0e:	a1 97       	sbiw	r28, 0x21	; 33
    3e10:	a1 96       	adiw	r28, 0x21	; 33
    3e12:	2e ad       	ldd	r18, Y+62	; 0x3e
    3e14:	3f ad       	ldd	r19, Y+63	; 0x3f
    3e16:	a1 97       	sbiw	r28, 0x21	; 33
    3e18:	22 0f       	add	r18, r18
    3e1a:	33 1f       	adc	r19, r19
    3e1c:	82 2b       	or	r24, r18
    3e1e:	93 2b       	or	r25, r19
    3e20:	45 fb       	bst	r20, 5
    3e22:	44 27       	eor	r20, r20
    3e24:	40 f9       	bld	r20, 0
    3e26:	a2 96       	adiw	r28, 0x22	; 34
    3e28:	4f af       	std	Y+63, r20	; 0x3f
    3e2a:	a2 97       	sbiw	r28, 0x22	; 34
    3e2c:	a3 96       	adiw	r28, 0x23	; 35
    3e2e:	1f ae       	std	Y+63, r1	; 0x3f
    3e30:	a3 97       	sbiw	r28, 0x23	; 35
    3e32:	a3 96       	adiw	r28, 0x23	; 35
    3e34:	2e ad       	ldd	r18, Y+62	; 0x3e
    3e36:	3f ad       	ldd	r19, Y+63	; 0x3f
    3e38:	a3 97       	sbiw	r28, 0x23	; 35
    3e3a:	22 0f       	add	r18, r18
    3e3c:	33 1f       	adc	r19, r19
    3e3e:	22 0f       	add	r18, r18
    3e40:	33 1f       	adc	r19, r19
    3e42:	22 0f       	add	r18, r18
    3e44:	33 1f       	adc	r19, r19
    3e46:	82 2b       	or	r24, r18
    3e48:	93 2b       	or	r25, r19
    3e4a:	27 e1       	ldi	r18, 0x17	; 23
    3e4c:	28 9f       	mul	r18, r24
    3e4e:	f0 01       	movw	r30, r0
    3e50:	29 9f       	mul	r18, r25
    3e52:	f0 0d       	add	r31, r0
    3e54:	11 24       	eor	r1, r1
    3e56:	e0 53       	subi	r30, 0x30	; 48
    3e58:	ff 4d       	sbci	r31, 0xDF	; 223
    3e5a:	82 89       	ldd	r24, Z+18	; 0x12
    3e5c:	88 23       	and	r24, r24
    3e5e:	59 f0       	breq	.+22     	; 0x3e76 <main+0xd54>
    3e60:	e0 e6       	ldi	r30, 0x60	; 96
    3e62:	f6 e0       	ldi	r31, 0x06	; 6
    3e64:	80 85       	ldd	r24, Z+8	; 0x08
    3e66:	88 23       	and	r24, r24
    3e68:	34 f0       	brlt	.+12     	; 0x3e76 <main+0xd54>
    3e6a:	81 e0       	ldi	r24, 0x01	; 1
    3e6c:	90 e0       	ldi	r25, 0x00	; 0
    3e6e:	80 93 bf 20 	sts	0x20BF, r24
    3e72:	90 93 c0 20 	sts	0x20C0, r25
    3e76:	e8 e0       	ldi	r30, 0x08	; 8
    3e78:	f6 e0       	ldi	r31, 0x06	; 6
    3e7a:	30 81       	ld	r19, Z
    3e7c:	20 81       	ld	r18, Z
    3e7e:	80 81       	ld	r24, Z
    3e80:	40 81       	ld	r20, Z
    3e82:	88 1f       	adc	r24, r24
    3e84:	88 27       	eor	r24, r24
    3e86:	88 1f       	adc	r24, r24
    3e88:	90 e0       	ldi	r25, 0x00	; 0
    3e8a:	88 0f       	add	r24, r24
    3e8c:	99 1f       	adc	r25, r25
    3e8e:	88 0f       	add	r24, r24
    3e90:	99 1f       	adc	r25, r25
    3e92:	36 fb       	bst	r19, 6
    3e94:	33 27       	eor	r19, r19
    3e96:	30 f9       	bld	r19, 0
    3e98:	a4 96       	adiw	r28, 0x24	; 36
    3e9a:	3f af       	std	Y+63, r19	; 0x3f
    3e9c:	a4 97       	sbiw	r28, 0x24	; 36
    3e9e:	a5 96       	adiw	r28, 0x25	; 37
    3ea0:	1f ae       	std	Y+63, r1	; 0x3f
    3ea2:	a5 97       	sbiw	r28, 0x25	; 37
    3ea4:	a5 96       	adiw	r28, 0x25	; 37
    3ea6:	6e ad       	ldd	r22, Y+62	; 0x3e
    3ea8:	7f ad       	ldd	r23, Y+63	; 0x3f
    3eaa:	a5 97       	sbiw	r28, 0x25	; 37
    3eac:	86 2b       	or	r24, r22
    3eae:	97 2b       	or	r25, r23
    3eb0:	22 95       	swap	r18
    3eb2:	21 70       	andi	r18, 0x01	; 1
    3eb4:	a6 96       	adiw	r28, 0x26	; 38
    3eb6:	2f af       	std	Y+63, r18	; 0x3f
    3eb8:	a6 97       	sbiw	r28, 0x26	; 38
    3eba:	a7 96       	adiw	r28, 0x27	; 39
    3ebc:	1f ae       	std	Y+63, r1	; 0x3f
    3ebe:	a7 97       	sbiw	r28, 0x27	; 39
    3ec0:	a7 96       	adiw	r28, 0x27	; 39
    3ec2:	2e ad       	ldd	r18, Y+62	; 0x3e
    3ec4:	3f ad       	ldd	r19, Y+63	; 0x3f
    3ec6:	a7 97       	sbiw	r28, 0x27	; 39
    3ec8:	22 0f       	add	r18, r18
    3eca:	33 1f       	adc	r19, r19
    3ecc:	82 2b       	or	r24, r18
    3ece:	93 2b       	or	r25, r19
    3ed0:	45 fb       	bst	r20, 5
    3ed2:	44 27       	eor	r20, r20
    3ed4:	40 f9       	bld	r20, 0
    3ed6:	a8 96       	adiw	r28, 0x28	; 40
    3ed8:	4f af       	std	Y+63, r20	; 0x3f
    3eda:	a8 97       	sbiw	r28, 0x28	; 40
    3edc:	a9 96       	adiw	r28, 0x29	; 41
    3ede:	1f ae       	std	Y+63, r1	; 0x3f
    3ee0:	a9 97       	sbiw	r28, 0x29	; 41
    3ee2:	a9 96       	adiw	r28, 0x29	; 41
    3ee4:	2e ad       	ldd	r18, Y+62	; 0x3e
    3ee6:	3f ad       	ldd	r19, Y+63	; 0x3f
    3ee8:	a9 97       	sbiw	r28, 0x29	; 41
    3eea:	22 0f       	add	r18, r18
    3eec:	33 1f       	adc	r19, r19
    3eee:	22 0f       	add	r18, r18
    3ef0:	33 1f       	adc	r19, r19
    3ef2:	22 0f       	add	r18, r18
    3ef4:	33 1f       	adc	r19, r19
    3ef6:	82 2b       	or	r24, r18
    3ef8:	93 2b       	or	r25, r19
    3efa:	47 e1       	ldi	r20, 0x17	; 23
    3efc:	48 9f       	mul	r20, r24
    3efe:	f0 01       	movw	r30, r0
    3f00:	49 9f       	mul	r20, r25
    3f02:	f0 0d       	add	r31, r0
    3f04:	11 24       	eor	r1, r1
    3f06:	e0 53       	subi	r30, 0x30	; 48
    3f08:	ff 4d       	sbci	r31, 0xDF	; 223
    3f0a:	83 81       	ldd	r24, Z+3	; 0x03
    3f0c:	80 93 c4 23 	sts	0x23C4, r24
    3f10:	e8 e0       	ldi	r30, 0x08	; 8
    3f12:	f6 e0       	ldi	r31, 0x06	; 6
    3f14:	30 81       	ld	r19, Z
    3f16:	20 81       	ld	r18, Z
    3f18:	80 81       	ld	r24, Z
    3f1a:	50 81       	ld	r21, Z
    3f1c:	88 1f       	adc	r24, r24
    3f1e:	88 27       	eor	r24, r24
    3f20:	88 1f       	adc	r24, r24
    3f22:	90 e0       	ldi	r25, 0x00	; 0
    3f24:	88 0f       	add	r24, r24
    3f26:	99 1f       	adc	r25, r25
    3f28:	88 0f       	add	r24, r24
    3f2a:	99 1f       	adc	r25, r25
    3f2c:	36 fb       	bst	r19, 6
    3f2e:	33 27       	eor	r19, r19
    3f30:	30 f9       	bld	r19, 0
    3f32:	aa 96       	adiw	r28, 0x2a	; 42
    3f34:	3f af       	std	Y+63, r19	; 0x3f
    3f36:	aa 97       	sbiw	r28, 0x2a	; 42
    3f38:	ab 96       	adiw	r28, 0x2b	; 43
    3f3a:	1f ae       	std	Y+63, r1	; 0x3f
    3f3c:	ab 97       	sbiw	r28, 0x2b	; 43
    3f3e:	ab 96       	adiw	r28, 0x2b	; 43
    3f40:	6e ad       	ldd	r22, Y+62	; 0x3e
    3f42:	7f ad       	ldd	r23, Y+63	; 0x3f
    3f44:	ab 97       	sbiw	r28, 0x2b	; 43
    3f46:	86 2b       	or	r24, r22
    3f48:	97 2b       	or	r25, r23
    3f4a:	22 95       	swap	r18
    3f4c:	21 70       	andi	r18, 0x01	; 1
    3f4e:	ac 96       	adiw	r28, 0x2c	; 44
    3f50:	2f af       	std	Y+63, r18	; 0x3f
    3f52:	ac 97       	sbiw	r28, 0x2c	; 44
    3f54:	ad 96       	adiw	r28, 0x2d	; 45
    3f56:	1f ae       	std	Y+63, r1	; 0x3f
    3f58:	ad 97       	sbiw	r28, 0x2d	; 45
    3f5a:	ad 96       	adiw	r28, 0x2d	; 45
    3f5c:	2e ad       	ldd	r18, Y+62	; 0x3e
    3f5e:	3f ad       	ldd	r19, Y+63	; 0x3f
    3f60:	ad 97       	sbiw	r28, 0x2d	; 45
    3f62:	22 0f       	add	r18, r18
    3f64:	33 1f       	adc	r19, r19
    3f66:	82 2b       	or	r24, r18
    3f68:	93 2b       	or	r25, r19
    3f6a:	55 fb       	bst	r21, 5
    3f6c:	55 27       	eor	r21, r21
    3f6e:	50 f9       	bld	r21, 0
    3f70:	ae 96       	adiw	r28, 0x2e	; 46
    3f72:	5f af       	std	Y+63, r21	; 0x3f
    3f74:	ae 97       	sbiw	r28, 0x2e	; 46
    3f76:	af 96       	adiw	r28, 0x2f	; 47
    3f78:	1f ae       	std	Y+63, r1	; 0x3f
    3f7a:	af 97       	sbiw	r28, 0x2f	; 47
    3f7c:	af 96       	adiw	r28, 0x2f	; 47
    3f7e:	2e ad       	ldd	r18, Y+62	; 0x3e
    3f80:	3f ad       	ldd	r19, Y+63	; 0x3f
    3f82:	af 97       	sbiw	r28, 0x2f	; 47
    3f84:	22 0f       	add	r18, r18
    3f86:	33 1f       	adc	r19, r19
    3f88:	22 0f       	add	r18, r18
    3f8a:	33 1f       	adc	r19, r19
    3f8c:	22 0f       	add	r18, r18
    3f8e:	33 1f       	adc	r19, r19
    3f90:	82 2b       	or	r24, r18
    3f92:	93 2b       	or	r25, r19
    3f94:	48 9f       	mul	r20, r24
    3f96:	f0 01       	movw	r30, r0
    3f98:	49 9f       	mul	r20, r25
    3f9a:	f0 0d       	add	r31, r0
    3f9c:	11 24       	eor	r1, r1
    3f9e:	e0 53       	subi	r30, 0x30	; 48
    3fa0:	ff 4d       	sbci	r31, 0xDF	; 223
    3fa2:	81 81       	ldd	r24, Z+1	; 0x01
    3fa4:	80 93 c5 23 	sts	0x23C5, r24
    3fa8:	e8 e0       	ldi	r30, 0x08	; 8
    3faa:	f6 e0       	ldi	r31, 0x06	; 6
    3fac:	30 81       	ld	r19, Z
    3fae:	20 81       	ld	r18, Z
    3fb0:	80 81       	ld	r24, Z
    3fb2:	50 81       	ld	r21, Z
    3fb4:	88 1f       	adc	r24, r24
    3fb6:	88 27       	eor	r24, r24
    3fb8:	88 1f       	adc	r24, r24
    3fba:	90 e0       	ldi	r25, 0x00	; 0
    3fbc:	88 0f       	add	r24, r24
    3fbe:	99 1f       	adc	r25, r25
    3fc0:	88 0f       	add	r24, r24
    3fc2:	99 1f       	adc	r25, r25
    3fc4:	36 fb       	bst	r19, 6
    3fc6:	33 27       	eor	r19, r19
    3fc8:	30 f9       	bld	r19, 0
    3fca:	e0 96       	adiw	r28, 0x30	; 48
    3fcc:	3f af       	std	Y+63, r19	; 0x3f
    3fce:	e0 97       	sbiw	r28, 0x30	; 48
    3fd0:	e1 96       	adiw	r28, 0x31	; 49
    3fd2:	1f ae       	std	Y+63, r1	; 0x3f
    3fd4:	e1 97       	sbiw	r28, 0x31	; 49
    3fd6:	e1 96       	adiw	r28, 0x31	; 49
    3fd8:	6e ad       	ldd	r22, Y+62	; 0x3e
    3fda:	7f ad       	ldd	r23, Y+63	; 0x3f
    3fdc:	e1 97       	sbiw	r28, 0x31	; 49
    3fde:	86 2b       	or	r24, r22
    3fe0:	97 2b       	or	r25, r23
    3fe2:	22 95       	swap	r18
    3fe4:	21 70       	andi	r18, 0x01	; 1
    3fe6:	e2 96       	adiw	r28, 0x32	; 50
    3fe8:	2f af       	std	Y+63, r18	; 0x3f
    3fea:	e2 97       	sbiw	r28, 0x32	; 50
    3fec:	e3 96       	adiw	r28, 0x33	; 51
    3fee:	1f ae       	std	Y+63, r1	; 0x3f
    3ff0:	e3 97       	sbiw	r28, 0x33	; 51
    3ff2:	e3 96       	adiw	r28, 0x33	; 51
    3ff4:	2e ad       	ldd	r18, Y+62	; 0x3e
    3ff6:	3f ad       	ldd	r19, Y+63	; 0x3f
    3ff8:	e3 97       	sbiw	r28, 0x33	; 51
    3ffa:	22 0f       	add	r18, r18
    3ffc:	33 1f       	adc	r19, r19
    3ffe:	82 2b       	or	r24, r18
    4000:	93 2b       	or	r25, r19
    4002:	55 fb       	bst	r21, 5
    4004:	55 27       	eor	r21, r21
    4006:	50 f9       	bld	r21, 0
    4008:	e4 96       	adiw	r28, 0x34	; 52
    400a:	5f af       	std	Y+63, r21	; 0x3f
    400c:	e4 97       	sbiw	r28, 0x34	; 52
    400e:	e5 96       	adiw	r28, 0x35	; 53
    4010:	1f ae       	std	Y+63, r1	; 0x3f
    4012:	e5 97       	sbiw	r28, 0x35	; 53
    4014:	e5 96       	adiw	r28, 0x35	; 53
    4016:	2e ad       	ldd	r18, Y+62	; 0x3e
    4018:	3f ad       	ldd	r19, Y+63	; 0x3f
    401a:	e5 97       	sbiw	r28, 0x35	; 53
    401c:	22 0f       	add	r18, r18
    401e:	33 1f       	adc	r19, r19
    4020:	22 0f       	add	r18, r18
    4022:	33 1f       	adc	r19, r19
    4024:	22 0f       	add	r18, r18
    4026:	33 1f       	adc	r19, r19
    4028:	82 2b       	or	r24, r18
    402a:	93 2b       	or	r25, r19
    402c:	48 9f       	mul	r20, r24
    402e:	f0 01       	movw	r30, r0
    4030:	49 9f       	mul	r20, r25
    4032:	f0 0d       	add	r31, r0
    4034:	11 24       	eor	r1, r1
    4036:	e0 53       	subi	r30, 0x30	; 48
    4038:	ff 4d       	sbci	r31, 0xDF	; 223
    403a:	87 81       	ldd	r24, Z+7	; 0x07
    403c:	80 93 c6 23 	sts	0x23C6, r24
    4040:	e8 e0       	ldi	r30, 0x08	; 8
    4042:	f6 e0       	ldi	r31, 0x06	; 6
    4044:	30 81       	ld	r19, Z
    4046:	20 81       	ld	r18, Z
    4048:	80 81       	ld	r24, Z
    404a:	50 81       	ld	r21, Z
    404c:	88 1f       	adc	r24, r24
    404e:	88 27       	eor	r24, r24
    4050:	88 1f       	adc	r24, r24
    4052:	90 e0       	ldi	r25, 0x00	; 0
    4054:	88 0f       	add	r24, r24
    4056:	99 1f       	adc	r25, r25
    4058:	88 0f       	add	r24, r24
    405a:	99 1f       	adc	r25, r25
    405c:	36 fb       	bst	r19, 6
    405e:	33 27       	eor	r19, r19
    4060:	30 f9       	bld	r19, 0
    4062:	e6 96       	adiw	r28, 0x36	; 54
    4064:	3f af       	std	Y+63, r19	; 0x3f
    4066:	e6 97       	sbiw	r28, 0x36	; 54
    4068:	e7 96       	adiw	r28, 0x37	; 55
    406a:	1f ae       	std	Y+63, r1	; 0x3f
    406c:	e7 97       	sbiw	r28, 0x37	; 55
    406e:	e7 96       	adiw	r28, 0x37	; 55
    4070:	6e ad       	ldd	r22, Y+62	; 0x3e
    4072:	7f ad       	ldd	r23, Y+63	; 0x3f
    4074:	e7 97       	sbiw	r28, 0x37	; 55
    4076:	86 2b       	or	r24, r22
    4078:	97 2b       	or	r25, r23
    407a:	22 95       	swap	r18
    407c:	21 70       	andi	r18, 0x01	; 1
    407e:	e8 96       	adiw	r28, 0x38	; 56
    4080:	2f af       	std	Y+63, r18	; 0x3f
    4082:	e8 97       	sbiw	r28, 0x38	; 56
    4084:	e9 96       	adiw	r28, 0x39	; 57
    4086:	1f ae       	std	Y+63, r1	; 0x3f
    4088:	e9 97       	sbiw	r28, 0x39	; 57
    408a:	e9 96       	adiw	r28, 0x39	; 57
    408c:	2e ad       	ldd	r18, Y+62	; 0x3e
    408e:	3f ad       	ldd	r19, Y+63	; 0x3f
    4090:	e9 97       	sbiw	r28, 0x39	; 57
    4092:	22 0f       	add	r18, r18
    4094:	33 1f       	adc	r19, r19
    4096:	82 2b       	or	r24, r18
    4098:	93 2b       	or	r25, r19
    409a:	55 fb       	bst	r21, 5
    409c:	55 27       	eor	r21, r21
    409e:	50 f9       	bld	r21, 0
    40a0:	ea 96       	adiw	r28, 0x3a	; 58
    40a2:	5f af       	std	Y+63, r21	; 0x3f
    40a4:	ea 97       	sbiw	r28, 0x3a	; 58
    40a6:	eb 96       	adiw	r28, 0x3b	; 59
    40a8:	1f ae       	std	Y+63, r1	; 0x3f
    40aa:	eb 97       	sbiw	r28, 0x3b	; 59
    40ac:	eb 96       	adiw	r28, 0x3b	; 59
    40ae:	2e ad       	ldd	r18, Y+62	; 0x3e
    40b0:	3f ad       	ldd	r19, Y+63	; 0x3f
    40b2:	eb 97       	sbiw	r28, 0x3b	; 59
    40b4:	22 0f       	add	r18, r18
    40b6:	33 1f       	adc	r19, r19
    40b8:	22 0f       	add	r18, r18
    40ba:	33 1f       	adc	r19, r19
    40bc:	22 0f       	add	r18, r18
    40be:	33 1f       	adc	r19, r19
    40c0:	82 2b       	or	r24, r18
    40c2:	93 2b       	or	r25, r19
    40c4:	48 9f       	mul	r20, r24
    40c6:	f0 01       	movw	r30, r0
    40c8:	49 9f       	mul	r20, r25
    40ca:	f0 0d       	add	r31, r0
    40cc:	11 24       	eor	r1, r1
    40ce:	e0 53       	subi	r30, 0x30	; 48
    40d0:	ff 4d       	sbci	r31, 0xDF	; 223
    40d2:	85 81       	ldd	r24, Z+5	; 0x05
    40d4:	80 93 c7 23 	sts	0x23C7, r24
    40d8:	e8 e0       	ldi	r30, 0x08	; 8
    40da:	f6 e0       	ldi	r31, 0x06	; 6
    40dc:	30 81       	ld	r19, Z
    40de:	20 81       	ld	r18, Z
    40e0:	80 81       	ld	r24, Z
    40e2:	50 81       	ld	r21, Z
    40e4:	88 1f       	adc	r24, r24
    40e6:	88 27       	eor	r24, r24
    40e8:	88 1f       	adc	r24, r24
    40ea:	90 e0       	ldi	r25, 0x00	; 0
    40ec:	88 0f       	add	r24, r24
    40ee:	99 1f       	adc	r25, r25
    40f0:	88 0f       	add	r24, r24
    40f2:	99 1f       	adc	r25, r25
    40f4:	36 fb       	bst	r19, 6
    40f6:	33 27       	eor	r19, r19
    40f8:	30 f9       	bld	r19, 0
    40fa:	ec 96       	adiw	r28, 0x3c	; 60
    40fc:	3f af       	std	Y+63, r19	; 0x3f
    40fe:	ec 97       	sbiw	r28, 0x3c	; 60
    4100:	ed 96       	adiw	r28, 0x3d	; 61
    4102:	1f ae       	std	Y+63, r1	; 0x3f
    4104:	ed 97       	sbiw	r28, 0x3d	; 61
    4106:	ed 96       	adiw	r28, 0x3d	; 61
    4108:	6e ad       	ldd	r22, Y+62	; 0x3e
    410a:	7f ad       	ldd	r23, Y+63	; 0x3f
    410c:	ed 97       	sbiw	r28, 0x3d	; 61
    410e:	86 2b       	or	r24, r22
    4110:	97 2b       	or	r25, r23
    4112:	22 95       	swap	r18
    4114:	21 70       	andi	r18, 0x01	; 1
    4116:	ee 96       	adiw	r28, 0x3e	; 62
    4118:	2f af       	std	Y+63, r18	; 0x3f
    411a:	ee 97       	sbiw	r28, 0x3e	; 62
    411c:	ef 96       	adiw	r28, 0x3f	; 63
    411e:	1f ae       	std	Y+63, r1	; 0x3f
    4120:	ef 97       	sbiw	r28, 0x3f	; 63
    4122:	ef 96       	adiw	r28, 0x3f	; 63
    4124:	2e ad       	ldd	r18, Y+62	; 0x3e
    4126:	3f ad       	ldd	r19, Y+63	; 0x3f
    4128:	ef 97       	sbiw	r28, 0x3f	; 63
    412a:	22 0f       	add	r18, r18
    412c:	33 1f       	adc	r19, r19
    412e:	82 2b       	or	r24, r18
    4130:	93 2b       	or	r25, r19
    4132:	55 fb       	bst	r21, 5
    4134:	55 27       	eor	r21, r21
    4136:	50 f9       	bld	r21, 0
    4138:	c1 58       	subi	r28, 0x81	; 129
    413a:	df 4f       	sbci	r29, 0xFF	; 255
    413c:	58 83       	st	Y, r21
    413e:	cf 57       	subi	r28, 0x7F	; 127
    4140:	d0 40       	sbci	r29, 0x00	; 0
    4142:	c0 58       	subi	r28, 0x80	; 128
    4144:	df 4f       	sbci	r29, 0xFF	; 255
    4146:	18 82       	st	Y, r1
    4148:	c0 58       	subi	r28, 0x80	; 128
    414a:	d0 40       	sbci	r29, 0x00	; 0
    414c:	c1 58       	subi	r28, 0x81	; 129
    414e:	df 4f       	sbci	r29, 0xFF	; 255
    4150:	28 81       	ld	r18, Y
    4152:	39 81       	ldd	r19, Y+1	; 0x01
    4154:	cf 57       	subi	r28, 0x7F	; 127
    4156:	d0 40       	sbci	r29, 0x00	; 0
    4158:	22 0f       	add	r18, r18
    415a:	33 1f       	adc	r19, r19
    415c:	22 0f       	add	r18, r18
    415e:	33 1f       	adc	r19, r19
    4160:	22 0f       	add	r18, r18
    4162:	33 1f       	adc	r19, r19
    4164:	82 2b       	or	r24, r18
    4166:	93 2b       	or	r25, r19
    4168:	48 9f       	mul	r20, r24
    416a:	f0 01       	movw	r30, r0
    416c:	49 9f       	mul	r20, r25
    416e:	f0 0d       	add	r31, r0
    4170:	11 24       	eor	r1, r1
    4172:	e0 53       	subi	r30, 0x30	; 48
    4174:	ff 4d       	sbci	r31, 0xDF	; 223
    4176:	83 85       	ldd	r24, Z+11	; 0x0b
    4178:	80 93 c8 23 	sts	0x23C8, r24
    417c:	e8 e0       	ldi	r30, 0x08	; 8
    417e:	f6 e0       	ldi	r31, 0x06	; 6
    4180:	30 81       	ld	r19, Z
    4182:	20 81       	ld	r18, Z
    4184:	80 81       	ld	r24, Z
    4186:	50 81       	ld	r21, Z
    4188:	88 1f       	adc	r24, r24
    418a:	88 27       	eor	r24, r24
    418c:	88 1f       	adc	r24, r24
    418e:	90 e0       	ldi	r25, 0x00	; 0
    4190:	88 0f       	add	r24, r24
    4192:	99 1f       	adc	r25, r25
    4194:	88 0f       	add	r24, r24
    4196:	99 1f       	adc	r25, r25
    4198:	36 fb       	bst	r19, 6
    419a:	33 27       	eor	r19, r19
    419c:	30 f9       	bld	r19, 0
    419e:	cf 57       	subi	r28, 0x7F	; 127
    41a0:	df 4f       	sbci	r29, 0xFF	; 255
    41a2:	38 83       	st	Y, r19
    41a4:	c1 58       	subi	r28, 0x81	; 129
    41a6:	d0 40       	sbci	r29, 0x00	; 0
    41a8:	ce 57       	subi	r28, 0x7E	; 126
    41aa:	df 4f       	sbci	r29, 0xFF	; 255
    41ac:	18 82       	st	Y, r1
    41ae:	c2 58       	subi	r28, 0x82	; 130
    41b0:	d0 40       	sbci	r29, 0x00	; 0
    41b2:	cf 57       	subi	r28, 0x7F	; 127
    41b4:	df 4f       	sbci	r29, 0xFF	; 255
    41b6:	68 81       	ld	r22, Y
    41b8:	79 81       	ldd	r23, Y+1	; 0x01
    41ba:	c1 58       	subi	r28, 0x81	; 129
    41bc:	d0 40       	sbci	r29, 0x00	; 0
    41be:	86 2b       	or	r24, r22
    41c0:	97 2b       	or	r25, r23
    41c2:	22 95       	swap	r18
    41c4:	21 70       	andi	r18, 0x01	; 1
    41c6:	cd 57       	subi	r28, 0x7D	; 125
    41c8:	df 4f       	sbci	r29, 0xFF	; 255
    41ca:	28 83       	st	Y, r18
    41cc:	c3 58       	subi	r28, 0x83	; 131
    41ce:	d0 40       	sbci	r29, 0x00	; 0
    41d0:	cc 57       	subi	r28, 0x7C	; 124
    41d2:	df 4f       	sbci	r29, 0xFF	; 255
    41d4:	18 82       	st	Y, r1
    41d6:	c4 58       	subi	r28, 0x84	; 132
    41d8:	d0 40       	sbci	r29, 0x00	; 0
    41da:	cd 57       	subi	r28, 0x7D	; 125
    41dc:	df 4f       	sbci	r29, 0xFF	; 255
    41de:	28 81       	ld	r18, Y
    41e0:	39 81       	ldd	r19, Y+1	; 0x01
    41e2:	c3 58       	subi	r28, 0x83	; 131
    41e4:	d0 40       	sbci	r29, 0x00	; 0
    41e6:	22 0f       	add	r18, r18
    41e8:	33 1f       	adc	r19, r19
    41ea:	82 2b       	or	r24, r18
    41ec:	93 2b       	or	r25, r19
    41ee:	55 fb       	bst	r21, 5
    41f0:	55 27       	eor	r21, r21
    41f2:	50 f9       	bld	r21, 0
    41f4:	cb 57       	subi	r28, 0x7B	; 123
    41f6:	df 4f       	sbci	r29, 0xFF	; 255
    41f8:	58 83       	st	Y, r21
    41fa:	c5 58       	subi	r28, 0x85	; 133
    41fc:	d0 40       	sbci	r29, 0x00	; 0
    41fe:	ca 57       	subi	r28, 0x7A	; 122
    4200:	df 4f       	sbci	r29, 0xFF	; 255
    4202:	18 82       	st	Y, r1
    4204:	c6 58       	subi	r28, 0x86	; 134
    4206:	d0 40       	sbci	r29, 0x00	; 0
    4208:	cb 57       	subi	r28, 0x7B	; 123
    420a:	df 4f       	sbci	r29, 0xFF	; 255
    420c:	28 81       	ld	r18, Y
    420e:	39 81       	ldd	r19, Y+1	; 0x01
    4210:	c5 58       	subi	r28, 0x85	; 133
    4212:	d0 40       	sbci	r29, 0x00	; 0
    4214:	22 0f       	add	r18, r18
    4216:	33 1f       	adc	r19, r19
    4218:	22 0f       	add	r18, r18
    421a:	33 1f       	adc	r19, r19
    421c:	22 0f       	add	r18, r18
    421e:	33 1f       	adc	r19, r19
    4220:	82 2b       	or	r24, r18
    4222:	93 2b       	or	r25, r19
    4224:	48 9f       	mul	r20, r24
    4226:	f0 01       	movw	r30, r0
    4228:	49 9f       	mul	r20, r25
    422a:	f0 0d       	add	r31, r0
    422c:	11 24       	eor	r1, r1
    422e:	e0 53       	subi	r30, 0x30	; 48
    4230:	ff 4d       	sbci	r31, 0xDF	; 223
    4232:	81 85       	ldd	r24, Z+9	; 0x09
    4234:	80 93 c9 23 	sts	0x23C9, r24
    4238:	e8 e0       	ldi	r30, 0x08	; 8
    423a:	f6 e0       	ldi	r31, 0x06	; 6
    423c:	30 81       	ld	r19, Z
    423e:	20 81       	ld	r18, Z
    4240:	80 81       	ld	r24, Z
    4242:	50 81       	ld	r21, Z
    4244:	88 1f       	adc	r24, r24
    4246:	88 27       	eor	r24, r24
    4248:	88 1f       	adc	r24, r24
    424a:	90 e0       	ldi	r25, 0x00	; 0
    424c:	88 0f       	add	r24, r24
    424e:	99 1f       	adc	r25, r25
    4250:	88 0f       	add	r24, r24
    4252:	99 1f       	adc	r25, r25
    4254:	36 fb       	bst	r19, 6
    4256:	33 27       	eor	r19, r19
    4258:	30 f9       	bld	r19, 0
    425a:	c9 57       	subi	r28, 0x79	; 121
    425c:	df 4f       	sbci	r29, 0xFF	; 255
    425e:	38 83       	st	Y, r19
    4260:	c7 58       	subi	r28, 0x87	; 135
    4262:	d0 40       	sbci	r29, 0x00	; 0
    4264:	c8 57       	subi	r28, 0x78	; 120
    4266:	df 4f       	sbci	r29, 0xFF	; 255
    4268:	18 82       	st	Y, r1
    426a:	c8 58       	subi	r28, 0x88	; 136
    426c:	d0 40       	sbci	r29, 0x00	; 0
    426e:	c9 57       	subi	r28, 0x79	; 121
    4270:	df 4f       	sbci	r29, 0xFF	; 255
    4272:	68 81       	ld	r22, Y
    4274:	79 81       	ldd	r23, Y+1	; 0x01
    4276:	c7 58       	subi	r28, 0x87	; 135
    4278:	d0 40       	sbci	r29, 0x00	; 0
    427a:	86 2b       	or	r24, r22
    427c:	97 2b       	or	r25, r23
    427e:	22 95       	swap	r18
    4280:	21 70       	andi	r18, 0x01	; 1
    4282:	c7 57       	subi	r28, 0x77	; 119
    4284:	df 4f       	sbci	r29, 0xFF	; 255
    4286:	28 83       	st	Y, r18
    4288:	c9 58       	subi	r28, 0x89	; 137
    428a:	d0 40       	sbci	r29, 0x00	; 0
    428c:	c6 57       	subi	r28, 0x76	; 118
    428e:	df 4f       	sbci	r29, 0xFF	; 255
    4290:	18 82       	st	Y, r1
    4292:	ca 58       	subi	r28, 0x8A	; 138
    4294:	d0 40       	sbci	r29, 0x00	; 0
    4296:	c7 57       	subi	r28, 0x77	; 119
    4298:	df 4f       	sbci	r29, 0xFF	; 255
    429a:	28 81       	ld	r18, Y
    429c:	39 81       	ldd	r19, Y+1	; 0x01
    429e:	c9 58       	subi	r28, 0x89	; 137
    42a0:	d0 40       	sbci	r29, 0x00	; 0
    42a2:	22 0f       	add	r18, r18
    42a4:	33 1f       	adc	r19, r19
    42a6:	82 2b       	or	r24, r18
    42a8:	93 2b       	or	r25, r19
    42aa:	55 fb       	bst	r21, 5
    42ac:	55 27       	eor	r21, r21
    42ae:	50 f9       	bld	r21, 0
    42b0:	c5 57       	subi	r28, 0x75	; 117
    42b2:	df 4f       	sbci	r29, 0xFF	; 255
    42b4:	58 83       	st	Y, r21
    42b6:	cb 58       	subi	r28, 0x8B	; 139
    42b8:	d0 40       	sbci	r29, 0x00	; 0
    42ba:	c4 57       	subi	r28, 0x74	; 116
    42bc:	df 4f       	sbci	r29, 0xFF	; 255
    42be:	18 82       	st	Y, r1
    42c0:	cc 58       	subi	r28, 0x8C	; 140
    42c2:	d0 40       	sbci	r29, 0x00	; 0
    42c4:	c5 57       	subi	r28, 0x75	; 117
    42c6:	df 4f       	sbci	r29, 0xFF	; 255
    42c8:	28 81       	ld	r18, Y
    42ca:	39 81       	ldd	r19, Y+1	; 0x01
    42cc:	cb 58       	subi	r28, 0x8B	; 139
    42ce:	d0 40       	sbci	r29, 0x00	; 0
    42d0:	22 0f       	add	r18, r18
    42d2:	33 1f       	adc	r19, r19
    42d4:	22 0f       	add	r18, r18
    42d6:	33 1f       	adc	r19, r19
    42d8:	22 0f       	add	r18, r18
    42da:	33 1f       	adc	r19, r19
    42dc:	82 2b       	or	r24, r18
    42de:	93 2b       	or	r25, r19
    42e0:	48 9f       	mul	r20, r24
    42e2:	f0 01       	movw	r30, r0
    42e4:	49 9f       	mul	r20, r25
    42e6:	f0 0d       	add	r31, r0
    42e8:	11 24       	eor	r1, r1
    42ea:	e0 53       	subi	r30, 0x30	; 48
    42ec:	ff 4d       	sbci	r31, 0xDF	; 223
    42ee:	87 85       	ldd	r24, Z+15	; 0x0f
    42f0:	80 93 ca 23 	sts	0x23CA, r24
    42f4:	e8 e0       	ldi	r30, 0x08	; 8
    42f6:	f6 e0       	ldi	r31, 0x06	; 6
    42f8:	30 81       	ld	r19, Z
    42fa:	20 81       	ld	r18, Z
    42fc:	80 81       	ld	r24, Z
    42fe:	50 81       	ld	r21, Z
    4300:	88 1f       	adc	r24, r24
    4302:	88 27       	eor	r24, r24
    4304:	88 1f       	adc	r24, r24
    4306:	90 e0       	ldi	r25, 0x00	; 0
    4308:	88 0f       	add	r24, r24
    430a:	99 1f       	adc	r25, r25
    430c:	88 0f       	add	r24, r24
    430e:	99 1f       	adc	r25, r25
    4310:	36 fb       	bst	r19, 6
    4312:	33 27       	eor	r19, r19
    4314:	30 f9       	bld	r19, 0
    4316:	c3 57       	subi	r28, 0x73	; 115
    4318:	df 4f       	sbci	r29, 0xFF	; 255
    431a:	38 83       	st	Y, r19
    431c:	cd 58       	subi	r28, 0x8D	; 141
    431e:	d0 40       	sbci	r29, 0x00	; 0
    4320:	c2 57       	subi	r28, 0x72	; 114
    4322:	df 4f       	sbci	r29, 0xFF	; 255
    4324:	18 82       	st	Y, r1
    4326:	ce 58       	subi	r28, 0x8E	; 142
    4328:	d0 40       	sbci	r29, 0x00	; 0
    432a:	c3 57       	subi	r28, 0x73	; 115
    432c:	df 4f       	sbci	r29, 0xFF	; 255
    432e:	68 81       	ld	r22, Y
    4330:	79 81       	ldd	r23, Y+1	; 0x01
    4332:	cd 58       	subi	r28, 0x8D	; 141
    4334:	d0 40       	sbci	r29, 0x00	; 0
    4336:	86 2b       	or	r24, r22
    4338:	97 2b       	or	r25, r23
    433a:	24 fb       	bst	r18, 4
    433c:	aa 24       	eor	r10, r10
    433e:	a0 f8       	bld	r10, 0
    4340:	b1 2c       	mov	r11, r1
    4342:	95 01       	movw	r18, r10
    4344:	22 0f       	add	r18, r18
    4346:	33 1f       	adc	r19, r19
    4348:	82 2b       	or	r24, r18
    434a:	93 2b       	or	r25, r19
    434c:	55 fb       	bst	r21, 5
    434e:	cc 24       	eor	r12, r12
    4350:	c0 f8       	bld	r12, 0
    4352:	d1 2c       	mov	r13, r1
    4354:	96 01       	movw	r18, r12
    4356:	22 0f       	add	r18, r18
    4358:	33 1f       	adc	r19, r19
    435a:	22 0f       	add	r18, r18
    435c:	33 1f       	adc	r19, r19
    435e:	22 0f       	add	r18, r18
    4360:	33 1f       	adc	r19, r19
    4362:	82 2b       	or	r24, r18
    4364:	93 2b       	or	r25, r19
    4366:	48 9f       	mul	r20, r24
    4368:	f0 01       	movw	r30, r0
    436a:	49 9f       	mul	r20, r25
    436c:	f0 0d       	add	r31, r0
    436e:	11 24       	eor	r1, r1
    4370:	e0 53       	subi	r30, 0x30	; 48
    4372:	ff 4d       	sbci	r31, 0xDF	; 223
    4374:	85 85       	ldd	r24, Z+13	; 0x0d
    4376:	80 93 cb 23 	sts	0x23CB, r24
    437a:	f8 01       	movw	r30, r16
    437c:	90 81       	ld	r25, Z
    437e:	81 81       	ldd	r24, Z+1	; 0x01
    4380:	90 93 cc 23 	sts	0x23CC, r25
    4384:	80 93 cd 23 	sts	0x23CD, r24
    4388:	90 91 7d 24 	lds	r25, 0x247D
    438c:	80 91 7e 24 	lds	r24, 0x247E
    4390:	90 93 ce 23 	sts	0x23CE, r25
    4394:	80 93 cf 23 	sts	0x23CF, r24
    4398:	f4 01       	movw	r30, r8
    439a:	90 81       	ld	r25, Z
    439c:	81 81       	ldd	r24, Z+1	; 0x01
    439e:	90 93 d0 23 	sts	0x23D0, r25
    43a2:	80 93 d1 23 	sts	0x23D1, r24
    43a6:	e8 ee       	ldi	r30, 0xE8	; 232
    43a8:	f3 e2       	ldi	r31, 0x23	; 35
    43aa:	90 81       	ld	r25, Z
    43ac:	81 81       	ldd	r24, Z+1	; 0x01
    43ae:	90 93 d2 23 	sts	0x23D2, r25
    43b2:	80 93 d3 23 	sts	0x23D3, r24
    43b6:	80 91 bd 20 	lds	r24, 0x20BD
    43ba:	90 91 be 20 	lds	r25, 0x20BE
    43be:	95 95       	asr	r25
    43c0:	87 95       	ror	r24
    43c2:	95 95       	asr	r25
    43c4:	87 95       	ror	r24
    43c6:	95 95       	asr	r25
    43c8:	87 95       	ror	r24
    43ca:	95 95       	asr	r25
    43cc:	87 95       	ror	r24
    43ce:	80 93 d4 23 	sts	0x23D4, r24
    43d2:	60 e2       	ldi	r22, 0x20	; 32
    43d4:	70 e0       	ldi	r23, 0x00	; 0
    43d6:	84 ec       	ldi	r24, 0xC4	; 196
    43d8:	93 e2       	ldi	r25, 0x23	; 35
    43da:	1d d2       	rcall	.+1082   	; 0x4816 <NRF24L01_L_Write_TX_Buf>
    43dc:	0c d1       	rcall	.+536    	; 0x45f6 <NRF24L01_L_RF_TX>
    43de:	00 00       	nop
    43e0:	0c 94 9b 19 	jmp	0x3336	; 0x3336 <main+0x214>

000043e4 <__vector_119>:
int buff_u_temp;
unsigned char reply2_tmp;


ISR(USARTF0_RXC_vect)        ///////////Driver M.2  &  M.3
{
    43e4:	1f 92       	push	r1
    43e6:	0f 92       	push	r0
    43e8:	0f b6       	in	r0, 0x3f	; 63
    43ea:	0f 92       	push	r0
    43ec:	11 24       	eor	r1, r1
    43ee:	08 b6       	in	r0, 0x38	; 56
    43f0:	0f 92       	push	r0
    43f2:	18 be       	out	0x38, r1	; 56
    43f4:	2f 93       	push	r18
    43f6:	8f 93       	push	r24
    43f8:	9f 93       	push	r25
	
	//char buff_reply [16];
	unsigned char data;
	data=USARTF0_DATA;
    43fa:	20 91 a0 0b 	lds	r18, 0x0BA0
   
	

	switch(ask_cnt0)
    43fe:	80 91 b6 20 	lds	r24, 0x20B6
    4402:	90 91 b7 20 	lds	r25, 0x20B7
    4406:	81 30       	cpi	r24, 0x01	; 1
    4408:	91 05       	cpc	r25, r1
    440a:	99 f0       	breq	.+38     	; 0x4432 <__vector_119+0x4e>
    440c:	1c f4       	brge	.+6      	; 0x4414 <__vector_119+0x30>
    440e:	89 2b       	or	r24, r25
    4410:	39 f0       	breq	.+14     	; 0x4420 <__vector_119+0x3c>
    4412:	3a c0       	rjmp	.+116    	; 0x4488 <__vector_119+0xa4>
    4414:	82 30       	cpi	r24, 0x02	; 2
    4416:	91 05       	cpc	r25, r1
    4418:	c9 f0       	breq	.+50     	; 0x444c <__vector_119+0x68>
    441a:	03 97       	sbiw	r24, 0x03	; 3
    441c:	39 f1       	breq	.+78     	; 0x446c <__vector_119+0x88>
    441e:	34 c0       	rjmp	.+104    	; 0x4488 <__vector_119+0xa4>
	{
		case 0:
		if (data== '*')
    4420:	2a 32       	cpi	r18, 0x2A	; 42
    4422:	91 f5       	brne	.+100    	; 0x4488 <__vector_119+0xa4>
		{
			
			ask_cnt0++;
    4424:	81 e0       	ldi	r24, 0x01	; 1
    4426:	90 e0       	ldi	r25, 0x00	; 0
    4428:	80 93 b6 20 	sts	0x20B6, r24
    442c:	90 93 b7 20 	sts	0x20B7, r25
    4430:	2b c0       	rjmp	.+86     	; 0x4488 <__vector_119+0xa4>
		}
		break;

		case 1:
		buff_reply_tmp0=data&0x0ff;
    4432:	82 2f       	mov	r24, r18
    4434:	90 e0       	ldi	r25, 0x00	; 0
    4436:	80 93 7f 24 	sts	0x247F, r24
    443a:	90 93 80 24 	sts	0x2480, r25
		//tmp=data;
		ask_cnt0++;
    443e:	82 e0       	ldi	r24, 0x02	; 2
    4440:	90 e0       	ldi	r25, 0x00	; 0
    4442:	80 93 b6 20 	sts	0x20B6, r24
    4446:	90 93 b7 20 	sts	0x20B7, r25
		break;
    444a:	1e c0       	rjmp	.+60     	; 0x4488 <__vector_119+0xa4>

		case 2:
		buff_reply_tmp0|=(data<<8)&0x0ff00;
    444c:	80 91 7f 24 	lds	r24, 0x247F
    4450:	90 91 80 24 	lds	r25, 0x2480
    4454:	92 2b       	or	r25, r18
    4456:	80 93 7f 24 	sts	0x247F, r24
    445a:	90 93 80 24 	sts	0x2480, r25
		//master=data;
		ask_cnt0++;
    445e:	83 e0       	ldi	r24, 0x03	; 3
    4460:	90 e0       	ldi	r25, 0x00	; 0
    4462:	80 93 b6 20 	sts	0x20B6, r24
    4466:	90 93 b7 20 	sts	0x20B7, r25
		break;
    446a:	0e c0       	rjmp	.+28     	; 0x4488 <__vector_119+0xa4>
		//ask_cnt++;
		//break;


		case 3:
		if (data=='#')
    446c:	23 32       	cpi	r18, 0x23	; 35
    446e:	41 f4       	brne	.+16     	; 0x4480 <__vector_119+0x9c>
			//driver_Data0=buff_p_temp;
			//driver_Data1=buff_i_temp;
			//buff_reply=buff_reply_tmp0;
			//reply2 = reply2_tmp;
			
			M3.Hall=buff_reply_tmp0;
    4470:	80 91 7f 24 	lds	r24, 0x247F
    4474:	90 91 80 24 	lds	r25, 0x2480
    4478:	80 93 e8 23 	sts	0x23E8, r24
    447c:	90 93 e9 23 	sts	0x23E9, r25


			//flg_reply=0;
			ask_cnt0=0;
		}
		ask_cnt0=0;
    4480:	10 92 b6 20 	sts	0x20B6, r1
    4484:	10 92 b7 20 	sts	0x20B7, r1
		break;
	}
}
    4488:	9f 91       	pop	r25
    448a:	8f 91       	pop	r24
    448c:	2f 91       	pop	r18
    448e:	0f 90       	pop	r0
    4490:	08 be       	out	0x38, r0	; 56
    4492:	0f 90       	pop	r0
    4494:	0f be       	out	0x3f, r0	; 63
    4496:	0f 90       	pop	r0
    4498:	1f 90       	pop	r1
    449a:	18 95       	reti

0000449c <__vector_122>:

ISR(USARTF1_RXC_vect)   ///////////// Driver  M.0  &  M.1
{
    449c:	1f 92       	push	r1
    449e:	0f 92       	push	r0
    44a0:	0f b6       	in	r0, 0x3f	; 63
    44a2:	0f 92       	push	r0
    44a4:	11 24       	eor	r1, r1
    44a6:	08 b6       	in	r0, 0x38	; 56
    44a8:	0f 92       	push	r0
    44aa:	18 be       	out	0x38, r1	; 56
    44ac:	0b b6       	in	r0, 0x3b	; 59
    44ae:	0f 92       	push	r0
    44b0:	1b be       	out	0x3b, r1	; 59
    44b2:	2f 93       	push	r18
    44b4:	8f 93       	push	r24
    44b6:	9f 93       	push	r25
    44b8:	ef 93       	push	r30
    44ba:	ff 93       	push	r31
	
	
	unsigned char data;
	data=USARTF1_DATA;
    44bc:	20 91 b0 0b 	lds	r18, 0x0BB0

	


	switch(ask_cnt1)
    44c0:	80 91 b4 20 	lds	r24, 0x20B4
    44c4:	90 91 b5 20 	lds	r25, 0x20B5
    44c8:	82 30       	cpi	r24, 0x02	; 2
    44ca:	91 05       	cpc	r25, r1
    44cc:	39 f1       	breq	.+78     	; 0x451c <__vector_122+0x80>
    44ce:	2c f4       	brge	.+10     	; 0x44da <__vector_122+0x3e>
    44d0:	00 97       	sbiw	r24, 0x00	; 0
    44d2:	49 f0       	breq	.+18     	; 0x44e6 <__vector_122+0x4a>
    44d4:	01 97       	sbiw	r24, 0x01	; 1
    44d6:	a9 f0       	breq	.+42     	; 0x4502 <__vector_122+0x66>
    44d8:	62 c0       	rjmp	.+196    	; 0x459e <__vector_122+0x102>
    44da:	83 30       	cpi	r24, 0x03	; 3
    44dc:	91 05       	cpc	r25, r1
    44de:	71 f1       	breq	.+92     	; 0x453c <__vector_122+0xa0>
    44e0:	04 97       	sbiw	r24, 0x04	; 4
    44e2:	a9 f1       	breq	.+106    	; 0x454e <__vector_122+0xb2>
    44e4:	5c c0       	rjmp	.+184    	; 0x459e <__vector_122+0x102>
	{
		case 0:
		if (data== '*')
    44e6:	2a 32       	cpi	r18, 0x2A	; 42
    44e8:	09 f0       	breq	.+2      	; 0x44ec <__vector_122+0x50>
    44ea:	59 c0       	rjmp	.+178    	; 0x459e <__vector_122+0x102>
		{
			LED_Red_PORT.OUTTGL=LED_Red_PIN_bm;
    44ec:	80 e2       	ldi	r24, 0x20	; 32
    44ee:	e0 e6       	ldi	r30, 0x60	; 96
    44f0:	f6 e0       	ldi	r31, 0x06	; 6
    44f2:	87 83       	std	Z+7, r24	; 0x07
			ask_cnt1++;
    44f4:	81 e0       	ldi	r24, 0x01	; 1
    44f6:	90 e0       	ldi	r25, 0x00	; 0
    44f8:	80 93 b4 20 	sts	0x20B4, r24
    44fc:	90 93 b5 20 	sts	0x20B5, r25
    4500:	4e c0       	rjmp	.+156    	; 0x459e <__vector_122+0x102>
		}
		break;

		case 1:
		buff_reply_tmp1=data&0x0ff;
    4502:	82 2f       	mov	r24, r18
    4504:	90 e0       	ldi	r25, 0x00	; 0
    4506:	80 93 58 24 	sts	0x2458, r24
    450a:	90 93 59 24 	sts	0x2459, r25
		ask_cnt1++;
    450e:	82 e0       	ldi	r24, 0x02	; 2
    4510:	90 e0       	ldi	r25, 0x00	; 0
    4512:	80 93 b4 20 	sts	0x20B4, r24
    4516:	90 93 b5 20 	sts	0x20B5, r25
		break;
    451a:	41 c0       	rjmp	.+130    	; 0x459e <__vector_122+0x102>

		case 2:
		buff_reply_tmp1|=(data<<8)&0x0ff00;
    451c:	80 91 58 24 	lds	r24, 0x2458
    4520:	90 91 59 24 	lds	r25, 0x2459
    4524:	92 2b       	or	r25, r18
    4526:	80 93 58 24 	sts	0x2458, r24
    452a:	90 93 59 24 	sts	0x2459, r25
		ask_cnt1++;
    452e:	83 e0       	ldi	r24, 0x03	; 3
    4530:	90 e0       	ldi	r25, 0x00	; 0
    4532:	80 93 b4 20 	sts	0x20B4, r24
    4536:	90 93 b5 20 	sts	0x20B5, r25
		break;
    453a:	31 c0       	rjmp	.+98     	; 0x459e <__vector_122+0x102>

		case 3:
		reply2_tmp = data;
    453c:	20 93 0d 24 	sts	0x240D, r18
		ask_cnt1++;
    4540:	84 e0       	ldi	r24, 0x04	; 4
    4542:	90 e0       	ldi	r25, 0x00	; 0
    4544:	80 93 b4 20 	sts	0x20B4, r24
    4548:	90 93 b5 20 	sts	0x20B5, r25
		break;
    454c:	28 c0       	rjmp	.+80     	; 0x459e <__vector_122+0x102>
		//ask_cnt++;
		//break;


		case 4:
		if (data=='#')
    454e:	23 32       	cpi	r18, 0x23	; 35
    4550:	11 f5       	brne	.+68     	; 0x4596 <__vector_122+0xfa>
		{

			switch(reply2_tmp)
    4552:	20 91 0d 24 	lds	r18, 0x240D
    4556:	22 23       	and	r18, r18
    4558:	19 f0       	breq	.+6      	; 0x4560 <__vector_122+0xc4>
    455a:	21 30       	cpi	r18, 0x01	; 1
    455c:	51 f0       	breq	.+20     	; 0x4572 <__vector_122+0xd6>
    455e:	11 c0       	rjmp	.+34     	; 0x4582 <__vector_122+0xe6>
			{
				case 0:
				M0.Hall=buff_reply_tmp1;
    4560:	80 91 58 24 	lds	r24, 0x2458
    4564:	90 91 59 24 	lds	r25, 0x2459
    4568:	80 93 ac 23 	sts	0x23AC, r24
    456c:	90 93 ad 23 	sts	0x23AD, r25
				break;
    4570:	08 c0       	rjmp	.+16     	; 0x4582 <__vector_122+0xe6>
							
				case 1:
				M1.Hall=buff_reply_tmp1;
    4572:	80 91 58 24 	lds	r24, 0x2458
    4576:	90 91 59 24 	lds	r25, 0x2459
    457a:	80 93 43 24 	sts	0x2443, r24
    457e:	90 93 44 24 	sts	0x2444, r25
				break;
			}
						
			//LED_Green_PORT.OUTTGL = LED_Green_PIN_bm;
			buff_reply=buff_reply_tmp1;
    4582:	80 91 58 24 	lds	r24, 0x2458
    4586:	90 91 59 24 	lds	r25, 0x2459
    458a:	80 93 a2 23 	sts	0x23A2, r24
    458e:	90 93 a3 23 	sts	0x23A3, r25
			reply2 = reply2_tmp;
    4592:	20 93 08 22 	sts	0x2208, r18


			//flg_reply=0;
			ask_cnt1=0;
		}
		ask_cnt1=0;
    4596:	10 92 b4 20 	sts	0x20B4, r1
    459a:	10 92 b5 20 	sts	0x20B5, r1
		break;
	}
	
}
    459e:	ff 91       	pop	r31
    45a0:	ef 91       	pop	r30
    45a2:	9f 91       	pop	r25
    45a4:	8f 91       	pop	r24
    45a6:	2f 91       	pop	r18
    45a8:	0f 90       	pop	r0
    45aa:	0b be       	out	0x3b, r0	; 59
    45ac:	0f 90       	pop	r0
    45ae:	08 be       	out	0x38, r0	; 56
    45b0:	0f 90       	pop	r0
    45b2:	0f be       	out	0x3f, r0	; 63
    45b4:	0f 90       	pop	r0
    45b6:	1f 90       	pop	r1
    45b8:	18 95       	reti

000045ba <__vector_58>:

ISR(USARTE0_RXC_vect)
{
    45ba:	1f 92       	push	r1
    45bc:	0f 92       	push	r0
    45be:	0f b6       	in	r0, 0x3f	; 63
    45c0:	0f 92       	push	r0
    45c2:	11 24       	eor	r1, r1
    45c4:	08 b6       	in	r0, 0x38	; 56
    45c6:	0f 92       	push	r0
    45c8:	18 be       	out	0x38, r1	; 56
    45ca:	0b b6       	in	r0, 0x3b	; 59
    45cc:	0f 92       	push	r0
    45ce:	1b be       	out	0x3b, r1	; 59
    45d0:	8f 93       	push	r24
    45d2:	ef 93       	push	r30
    45d4:	ff 93       	push	r31
	LED_Green_PORT.OUTTGL = LED_Green_PIN_bm;
    45d6:	84 e0       	ldi	r24, 0x04	; 4
    45d8:	e0 e6       	ldi	r30, 0x60	; 96
    45da:	f6 e0       	ldi	r31, 0x06	; 6
    45dc:	87 83       	std	Z+7, r24	; 0x07
}
    45de:	ff 91       	pop	r31
    45e0:	ef 91       	pop	r30
    45e2:	8f 91       	pop	r24
    45e4:	0f 90       	pop	r0
    45e6:	0b be       	out	0x3b, r0	; 59
    45e8:	0f 90       	pop	r0
    45ea:	08 be       	out	0x38, r0	; 56
    45ec:	0f 90       	pop	r0
    45ee:	0f be       	out	0x3f, r0	; 63
    45f0:	0f 90       	pop	r0
    45f2:	1f 90       	pop	r1
    45f4:	18 95       	reti

000045f6 <NRF24L01_L_RF_TX>:
    45f6:	e0 e8       	ldi	r30, 0x80	; 128
    45f8:	f6 e0       	ldi	r31, 0x06	; 6
    45fa:	82 e0       	ldi	r24, 0x02	; 2
    45fc:	86 83       	std	Z+6, r24	; 0x06
    45fe:	85 83       	std	Z+5, r24	; 0x05
    4600:	8a e6       	ldi	r24, 0x6A	; 106
    4602:	8a 95       	dec	r24
    4604:	f1 f7       	brne	.-4      	; 0x4602 <NRF24L01_L_RF_TX+0xc>
    4606:	00 c0       	rjmp	.+0      	; 0x4608 <NRF24L01_L_RF_TX+0x12>
    4608:	82 e0       	ldi	r24, 0x02	; 2
    460a:	86 83       	std	Z+6, r24	; 0x06
    460c:	08 95       	ret

0000460e <SPI_L>:
    460e:	e0 ec       	ldi	r30, 0xC0	; 192
    4610:	fa e0       	ldi	r31, 0x0A	; 10
    4612:	83 83       	std	Z+3, r24	; 0x03
    4614:	82 81       	ldd	r24, Z+2	; 0x02
    4616:	88 23       	and	r24, r24
    4618:	ec f7       	brge	.-6      	; 0x4614 <SPI_L+0x6>
    461a:	e0 ec       	ldi	r30, 0xC0	; 192
    461c:	fa e0       	ldi	r31, 0x0A	; 10
    461e:	83 81       	ldd	r24, Z+3	; 0x03
    4620:	08 95       	ret

00004622 <NRF24L01_L_ReadReg>:
    4622:	1f 93       	push	r17
    4624:	cf 93       	push	r28
    4626:	df 93       	push	r29
    4628:	c0 e8       	ldi	r28, 0x80	; 128
    462a:	d6 e0       	ldi	r29, 0x06	; 6
    462c:	10 e1       	ldi	r17, 0x10	; 16
    462e:	1e 83       	std	Y+6, r17	; 0x06
    4630:	ee df       	rcall	.-36     	; 0x460e <SPI_L>
    4632:	8f ef       	ldi	r24, 0xFF	; 255
    4634:	ec df       	rcall	.-40     	; 0x460e <SPI_L>
    4636:	1d 83       	std	Y+5, r17	; 0x05
    4638:	df 91       	pop	r29
    463a:	cf 91       	pop	r28
    463c:	1f 91       	pop	r17
    463e:	08 95       	ret

00004640 <NRF24L01_L_WriteReg>:
    4640:	ff 92       	push	r15
    4642:	0f 93       	push	r16
    4644:	1f 93       	push	r17
    4646:	cf 93       	push	r28
    4648:	df 93       	push	r29
    464a:	f6 2e       	mov	r15, r22
    464c:	c0 e8       	ldi	r28, 0x80	; 128
    464e:	d6 e0       	ldi	r29, 0x06	; 6
    4650:	10 e1       	ldi	r17, 0x10	; 16
    4652:	1e 83       	std	Y+6, r17	; 0x06
    4654:	dc df       	rcall	.-72     	; 0x460e <SPI_L>
    4656:	08 2f       	mov	r16, r24
    4658:	8f 2d       	mov	r24, r15
    465a:	d9 df       	rcall	.-78     	; 0x460e <SPI_L>
    465c:	1d 83       	std	Y+5, r17	; 0x05
    465e:	80 2f       	mov	r24, r16
    4660:	df 91       	pop	r29
    4662:	cf 91       	pop	r28
    4664:	1f 91       	pop	r17
    4666:	0f 91       	pop	r16
    4668:	ff 90       	pop	r15
    466a:	08 95       	ret

0000466c <NRF24L01_L_Set_CH>:
    466c:	68 2f       	mov	r22, r24
    466e:	6f 77       	andi	r22, 0x7F	; 127
    4670:	85 e2       	ldi	r24, 0x25	; 37
    4672:	e6 cf       	rjmp	.-52     	; 0x4640 <NRF24L01_L_WriteReg>
    4674:	08 95       	ret

00004676 <NRF24L01_L_Set_ShockBurst>:
    4676:	cf 93       	push	r28
    4678:	c8 2f       	mov	r28, r24
    467a:	68 2f       	mov	r22, r24
    467c:	84 e2       	ldi	r24, 0x24	; 36
    467e:	e0 df       	rcall	.-64     	; 0x4640 <NRF24L01_L_WriteReg>
    4680:	6c 2f       	mov	r22, r28
    4682:	81 e2       	ldi	r24, 0x21	; 33
    4684:	dd df       	rcall	.-70     	; 0x4640 <NRF24L01_L_WriteReg>
    4686:	cf 91       	pop	r28
    4688:	08 95       	ret

0000468a <NRF24L01_L_Set_Address_Width>:
    468a:	63 e0       	ldi	r22, 0x03	; 3
    468c:	83 e2       	ldi	r24, 0x23	; 35
    468e:	d8 cf       	rjmp	.-80     	; 0x4640 <NRF24L01_L_WriteReg>
    4690:	08 95       	ret

00004692 <NRF24L01_L_Clear_Interrupts>:
    4692:	60 e7       	ldi	r22, 0x70	; 112
    4694:	87 e2       	ldi	r24, 0x27	; 39
    4696:	d4 cf       	rjmp	.-88     	; 0x4640 <NRF24L01_L_WriteReg>
    4698:	08 95       	ret

0000469a <NRF24L01_L_ReadRegBuf>:
    469a:	df 92       	push	r13
    469c:	ef 92       	push	r14
    469e:	ff 92       	push	r15
    46a0:	0f 93       	push	r16
    46a2:	1f 93       	push	r17
    46a4:	cf 93       	push	r28
    46a6:	df 93       	push	r29
    46a8:	7b 01       	movw	r14, r22
    46aa:	8a 01       	movw	r16, r20
    46ac:	90 e1       	ldi	r25, 0x10	; 16
    46ae:	e0 e8       	ldi	r30, 0x80	; 128
    46b0:	f6 e0       	ldi	r31, 0x06	; 6
    46b2:	96 83       	std	Z+6, r25	; 0x06
    46b4:	ac df       	rcall	.-168    	; 0x460e <SPI_L>
    46b6:	d8 2e       	mov	r13, r24
    46b8:	10 16       	cp	r1, r16
    46ba:	11 06       	cpc	r1, r17
    46bc:	4c f4       	brge	.+18     	; 0x46d0 <NRF24L01_L_ReadRegBuf+0x36>
    46be:	e7 01       	movw	r28, r14
    46c0:	0e 0d       	add	r16, r14
    46c2:	1f 1d       	adc	r17, r15
    46c4:	8f ef       	ldi	r24, 0xFF	; 255
    46c6:	a3 df       	rcall	.-186    	; 0x460e <SPI_L>
    46c8:	89 93       	st	Y+, r24
    46ca:	c0 17       	cp	r28, r16
    46cc:	d1 07       	cpc	r29, r17
    46ce:	d1 f7       	brne	.-12     	; 0x46c4 <NRF24L01_L_ReadRegBuf+0x2a>
    46d0:	80 e1       	ldi	r24, 0x10	; 16
    46d2:	e0 e8       	ldi	r30, 0x80	; 128
    46d4:	f6 e0       	ldi	r31, 0x06	; 6
    46d6:	85 83       	std	Z+5, r24	; 0x05
    46d8:	8d 2d       	mov	r24, r13
    46da:	df 91       	pop	r29
    46dc:	cf 91       	pop	r28
    46de:	1f 91       	pop	r17
    46e0:	0f 91       	pop	r16
    46e2:	ff 90       	pop	r15
    46e4:	ef 90       	pop	r14
    46e6:	df 90       	pop	r13
    46e8:	08 95       	ret

000046ea <NRF24L01_L_Read_RX_Buf>:
    46ea:	ab 01       	movw	r20, r22
    46ec:	bc 01       	movw	r22, r24
    46ee:	81 e6       	ldi	r24, 0x61	; 97
    46f0:	d4 cf       	rjmp	.-88     	; 0x469a <NRF24L01_L_ReadRegBuf>
    46f2:	08 95       	ret

000046f4 <NRF24L01_L_WriteRegBuf>:
    46f4:	df 92       	push	r13
    46f6:	ef 92       	push	r14
    46f8:	ff 92       	push	r15
    46fa:	0f 93       	push	r16
    46fc:	1f 93       	push	r17
    46fe:	cf 93       	push	r28
    4700:	df 93       	push	r29
    4702:	7b 01       	movw	r14, r22
    4704:	8a 01       	movw	r16, r20
    4706:	90 e1       	ldi	r25, 0x10	; 16
    4708:	e0 e8       	ldi	r30, 0x80	; 128
    470a:	f6 e0       	ldi	r31, 0x06	; 6
    470c:	96 83       	std	Z+6, r25	; 0x06
    470e:	7f df       	rcall	.-258    	; 0x460e <SPI_L>
    4710:	d8 2e       	mov	r13, r24
    4712:	10 16       	cp	r1, r16
    4714:	11 06       	cpc	r1, r17
    4716:	44 f4       	brge	.+16     	; 0x4728 <NRF24L01_L_WriteRegBuf+0x34>
    4718:	e7 01       	movw	r28, r14
    471a:	0e 0d       	add	r16, r14
    471c:	1f 1d       	adc	r17, r15
    471e:	89 91       	ld	r24, Y+
    4720:	76 df       	rcall	.-276    	; 0x460e <SPI_L>
    4722:	c0 17       	cp	r28, r16
    4724:	d1 07       	cpc	r29, r17
    4726:	d9 f7       	brne	.-10     	; 0x471e <NRF24L01_L_WriteRegBuf+0x2a>
    4728:	80 e1       	ldi	r24, 0x10	; 16
    472a:	e0 e8       	ldi	r30, 0x80	; 128
    472c:	f6 e0       	ldi	r31, 0x06	; 6
    472e:	85 83       	std	Z+5, r24	; 0x05
    4730:	8d 2d       	mov	r24, r13
    4732:	df 91       	pop	r29
    4734:	cf 91       	pop	r28
    4736:	1f 91       	pop	r17
    4738:	0f 91       	pop	r16
    473a:	ff 90       	pop	r15
    473c:	ef 90       	pop	r14
    473e:	df 90       	pop	r13
    4740:	08 95       	ret

00004742 <NRF24L01_L_Set_RX_Pipe>:
    4742:	ef 92       	push	r14
    4744:	ff 92       	push	r15
    4746:	0f 93       	push	r16
    4748:	1f 93       	push	r17
    474a:	cf 93       	push	r28
    474c:	df 93       	push	r29
    474e:	f8 2e       	mov	r15, r24
    4750:	eb 01       	movw	r28, r22
    4752:	8a 01       	movw	r16, r20
    4754:	e2 2e       	mov	r14, r18
    4756:	82 e0       	ldi	r24, 0x02	; 2
    4758:	64 df       	rcall	.-312    	; 0x4622 <NRF24L01_L_ReadReg>
    475a:	41 e0       	ldi	r20, 0x01	; 1
    475c:	50 e0       	ldi	r21, 0x00	; 0
    475e:	0f 2c       	mov	r0, r15
    4760:	02 c0       	rjmp	.+4      	; 0x4766 <NRF24L01_L_Set_RX_Pipe+0x24>
    4762:	44 0f       	add	r20, r20
    4764:	55 1f       	adc	r21, r21
    4766:	0a 94       	dec	r0
    4768:	e2 f7       	brpl	.-8      	; 0x4762 <NRF24L01_L_Set_RX_Pipe+0x20>
    476a:	68 2f       	mov	r22, r24
    476c:	64 2b       	or	r22, r20
    476e:	82 e2       	ldi	r24, 0x22	; 34
    4770:	67 df       	rcall	.-306    	; 0x4640 <NRF24L01_L_WriteReg>
    4772:	81 e1       	ldi	r24, 0x11	; 17
    4774:	8f 0d       	add	r24, r15
    4776:	6e 2d       	mov	r22, r14
    4778:	80 62       	ori	r24, 0x20	; 32
    477a:	62 df       	rcall	.-316    	; 0x4640 <NRF24L01_L_WriteReg>
    477c:	8a e0       	ldi	r24, 0x0A	; 10
    477e:	8f 0d       	add	r24, r15
    4780:	a8 01       	movw	r20, r16
    4782:	be 01       	movw	r22, r28
    4784:	80 62       	ori	r24, 0x20	; 32
    4786:	b6 df       	rcall	.-148    	; 0x46f4 <NRF24L01_L_WriteRegBuf>
    4788:	df 91       	pop	r29
    478a:	cf 91       	pop	r28
    478c:	1f 91       	pop	r17
    478e:	0f 91       	pop	r16
    4790:	ff 90       	pop	r15
    4792:	ef 90       	pop	r14
    4794:	08 95       	ret

00004796 <NRF24L01_L_Set_TX_Address>:
    4796:	ab 01       	movw	r20, r22
    4798:	bc 01       	movw	r22, r24
    479a:	80 e3       	ldi	r24, 0x30	; 48
    479c:	ab cf       	rjmp	.-170    	; 0x46f4 <NRF24L01_L_WriteRegBuf>
    479e:	08 95       	ret

000047a0 <NRF24L01_L_Init_milad>:
    47a0:	cf 92       	push	r12
    47a2:	df 92       	push	r13
    47a4:	ef 92       	push	r14
    47a6:	ff 92       	push	r15
    47a8:	0f 93       	push	r16
    47aa:	1f 93       	push	r17
    47ac:	cf 93       	push	r28
    47ae:	df 93       	push	r29
    47b0:	f8 2e       	mov	r15, r24
    47b2:	d6 2e       	mov	r13, r22
    47b4:	14 2f       	mov	r17, r20
    47b6:	e9 01       	movw	r28, r18
    47b8:	80 e0       	ldi	r24, 0x00	; 0
    47ba:	5d df       	rcall	.-326    	; 0x4676 <NRF24L01_L_Set_ShockBurst>
    47bc:	61 e0       	ldi	r22, 0x01	; 1
    47be:	81 e2       	ldi	r24, 0x21	; 33
    47c0:	3f df       	rcall	.-386    	; 0x4640 <NRF24L01_L_WriteReg>
    47c2:	6f e4       	ldi	r22, 0x4F	; 79
    47c4:	84 e2       	ldi	r24, 0x24	; 36
    47c6:	3c df       	rcall	.-392    	; 0x4640 <NRF24L01_L_WriteReg>
    47c8:	11 60       	ori	r17, 0x01	; 1
    47ca:	61 2f       	mov	r22, r17
    47cc:	6c 29       	or	r22, r12
    47ce:	86 e2       	ldi	r24, 0x26	; 38
    47d0:	37 df       	rcall	.-402    	; 0x4640 <NRF24L01_L_WriteReg>
    47d2:	80 2f       	mov	r24, r16
    47d4:	5a df       	rcall	.-332    	; 0x468a <NRF24L01_L_Set_Address_Width>
    47d6:	11 27       	eor	r17, r17
    47d8:	07 fd       	sbrc	r16, 7
    47da:	10 95       	com	r17
    47dc:	2e 2d       	mov	r18, r14
    47de:	a8 01       	movw	r20, r16
    47e0:	be 01       	movw	r22, r28
    47e2:	80 e0       	ldi	r24, 0x00	; 0
    47e4:	ae df       	rcall	.-164    	; 0x4742 <NRF24L01_L_Set_RX_Pipe>
    47e6:	8d 2d       	mov	r24, r13
    47e8:	41 df       	rcall	.-382    	; 0x466c <NRF24L01_L_Set_CH>
    47ea:	b8 01       	movw	r22, r16
    47ec:	ce 01       	movw	r24, r28
    47ee:	d3 df       	rcall	.-90     	; 0x4796 <NRF24L01_L_Set_TX_Address>
    47f0:	6f 2d       	mov	r22, r15
    47f2:	6a 60       	ori	r22, 0x0A	; 10
    47f4:	80 e2       	ldi	r24, 0x20	; 32
    47f6:	24 df       	rcall	.-440    	; 0x4640 <NRF24L01_L_WriteReg>
    47f8:	8f ed       	ldi	r24, 0xDF	; 223
    47fa:	9e e2       	ldi	r25, 0x2E	; 46
    47fc:	01 97       	sbiw	r24, 0x01	; 1
    47fe:	f1 f7       	brne	.-4      	; 0x47fc <NRF24L01_L_Init_milad+0x5c>
    4800:	00 c0       	rjmp	.+0      	; 0x4802 <NRF24L01_L_Init_milad+0x62>
    4802:	00 00       	nop
    4804:	df 91       	pop	r29
    4806:	cf 91       	pop	r28
    4808:	1f 91       	pop	r17
    480a:	0f 91       	pop	r16
    480c:	ff 90       	pop	r15
    480e:	ef 90       	pop	r14
    4810:	df 90       	pop	r13
    4812:	cf 90       	pop	r12
    4814:	08 95       	ret

00004816 <NRF24L01_L_Write_TX_Buf>:
    4816:	ab 01       	movw	r20, r22
    4818:	bc 01       	movw	r22, r24
    481a:	80 ea       	ldi	r24, 0xA0	; 160
    481c:	6b cf       	rjmp	.-298    	; 0x46f4 <NRF24L01_L_WriteRegBuf>
    481e:	08 95       	ret

00004820 <NRF24L01_L_Flush_TX>:
    4820:	1f 93       	push	r17
    4822:	cf 93       	push	r28
    4824:	df 93       	push	r29
    4826:	c0 e8       	ldi	r28, 0x80	; 128
    4828:	d6 e0       	ldi	r29, 0x06	; 6
    482a:	10 e1       	ldi	r17, 0x10	; 16
    482c:	1e 83       	std	Y+6, r17	; 0x06
    482e:	81 ee       	ldi	r24, 0xE1	; 225
    4830:	ee de       	rcall	.-548    	; 0x460e <SPI_L>
    4832:	1d 83       	std	Y+5, r17	; 0x05
    4834:	df 91       	pop	r29
    4836:	cf 91       	pop	r28
    4838:	1f 91       	pop	r17
    483a:	08 95       	ret

0000483c <NRF24L01_L_Flush_RX>:
    483c:	1f 93       	push	r17
    483e:	cf 93       	push	r28
    4840:	df 93       	push	r29
    4842:	c0 e8       	ldi	r28, 0x80	; 128
    4844:	d6 e0       	ldi	r29, 0x06	; 6
    4846:	10 e1       	ldi	r17, 0x10	; 16
    4848:	1e 83       	std	Y+6, r17	; 0x06
    484a:	82 ee       	ldi	r24, 0xE2	; 226
    484c:	e0 de       	rcall	.-576    	; 0x460e <SPI_L>
    484e:	1d 83       	std	Y+5, r17	; 0x05
    4850:	df 91       	pop	r29
    4852:	cf 91       	pop	r28
    4854:	1f 91       	pop	r17
    4856:	08 95       	ret

00004858 <__udivmodsi4>:
    4858:	a1 e2       	ldi	r26, 0x21	; 33
    485a:	1a 2e       	mov	r1, r26
    485c:	aa 1b       	sub	r26, r26
    485e:	bb 1b       	sub	r27, r27
    4860:	fd 01       	movw	r30, r26
    4862:	0d c0       	rjmp	.+26     	; 0x487e <__udivmodsi4_ep>

00004864 <__udivmodsi4_loop>:
    4864:	aa 1f       	adc	r26, r26
    4866:	bb 1f       	adc	r27, r27
    4868:	ee 1f       	adc	r30, r30
    486a:	ff 1f       	adc	r31, r31
    486c:	a2 17       	cp	r26, r18
    486e:	b3 07       	cpc	r27, r19
    4870:	e4 07       	cpc	r30, r20
    4872:	f5 07       	cpc	r31, r21
    4874:	20 f0       	brcs	.+8      	; 0x487e <__udivmodsi4_ep>
    4876:	a2 1b       	sub	r26, r18
    4878:	b3 0b       	sbc	r27, r19
    487a:	e4 0b       	sbc	r30, r20
    487c:	f5 0b       	sbc	r31, r21

0000487e <__udivmodsi4_ep>:
    487e:	66 1f       	adc	r22, r22
    4880:	77 1f       	adc	r23, r23
    4882:	88 1f       	adc	r24, r24
    4884:	99 1f       	adc	r25, r25
    4886:	1a 94       	dec	r1
    4888:	69 f7       	brne	.-38     	; 0x4864 <__udivmodsi4_loop>
    488a:	60 95       	com	r22
    488c:	70 95       	com	r23
    488e:	80 95       	com	r24
    4890:	90 95       	com	r25
    4892:	9b 01       	movw	r18, r22
    4894:	ac 01       	movw	r20, r24
    4896:	bd 01       	movw	r22, r26
    4898:	cf 01       	movw	r24, r30
    489a:	08 95       	ret

0000489c <__subsf3>:
    489c:	50 58       	subi	r21, 0x80	; 128

0000489e <__addsf3>:
    489e:	bb 27       	eor	r27, r27
    48a0:	aa 27       	eor	r26, r26
    48a2:	0e d0       	rcall	.+28     	; 0x48c0 <__addsf3x>
    48a4:	e5 c0       	rjmp	.+458    	; 0x4a70 <__fp_round>
    48a6:	d6 d0       	rcall	.+428    	; 0x4a54 <__fp_pscA>
    48a8:	30 f0       	brcs	.+12     	; 0x48b6 <__addsf3+0x18>
    48aa:	db d0       	rcall	.+438    	; 0x4a62 <__fp_pscB>
    48ac:	20 f0       	brcs	.+8      	; 0x48b6 <__addsf3+0x18>
    48ae:	31 f4       	brne	.+12     	; 0x48bc <__addsf3+0x1e>
    48b0:	9f 3f       	cpi	r25, 0xFF	; 255
    48b2:	11 f4       	brne	.+4      	; 0x48b8 <__addsf3+0x1a>
    48b4:	1e f4       	brtc	.+6      	; 0x48bc <__addsf3+0x1e>
    48b6:	cb c0       	rjmp	.+406    	; 0x4a4e <__fp_nan>
    48b8:	0e f4       	brtc	.+2      	; 0x48bc <__addsf3+0x1e>
    48ba:	e0 95       	com	r30
    48bc:	e7 fb       	bst	r30, 7
    48be:	c1 c0       	rjmp	.+386    	; 0x4a42 <__fp_inf>

000048c0 <__addsf3x>:
    48c0:	e9 2f       	mov	r30, r25
    48c2:	e7 d0       	rcall	.+462    	; 0x4a92 <__fp_split3>
    48c4:	80 f3       	brcs	.-32     	; 0x48a6 <__addsf3+0x8>
    48c6:	ba 17       	cp	r27, r26
    48c8:	62 07       	cpc	r22, r18
    48ca:	73 07       	cpc	r23, r19
    48cc:	84 07       	cpc	r24, r20
    48ce:	95 07       	cpc	r25, r21
    48d0:	18 f0       	brcs	.+6      	; 0x48d8 <__addsf3x+0x18>
    48d2:	71 f4       	brne	.+28     	; 0x48f0 <__addsf3x+0x30>
    48d4:	9e f5       	brtc	.+102    	; 0x493c <__addsf3x+0x7c>
    48d6:	ff c0       	rjmp	.+510    	; 0x4ad6 <__fp_zero>
    48d8:	0e f4       	brtc	.+2      	; 0x48dc <__addsf3x+0x1c>
    48da:	e0 95       	com	r30
    48dc:	0b 2e       	mov	r0, r27
    48de:	ba 2f       	mov	r27, r26
    48e0:	a0 2d       	mov	r26, r0
    48e2:	0b 01       	movw	r0, r22
    48e4:	b9 01       	movw	r22, r18
    48e6:	90 01       	movw	r18, r0
    48e8:	0c 01       	movw	r0, r24
    48ea:	ca 01       	movw	r24, r20
    48ec:	a0 01       	movw	r20, r0
    48ee:	11 24       	eor	r1, r1
    48f0:	ff 27       	eor	r31, r31
    48f2:	59 1b       	sub	r21, r25
    48f4:	99 f0       	breq	.+38     	; 0x491c <__addsf3x+0x5c>
    48f6:	59 3f       	cpi	r21, 0xF9	; 249
    48f8:	50 f4       	brcc	.+20     	; 0x490e <__addsf3x+0x4e>
    48fa:	50 3e       	cpi	r21, 0xE0	; 224
    48fc:	68 f1       	brcs	.+90     	; 0x4958 <__addsf3x+0x98>
    48fe:	1a 16       	cp	r1, r26
    4900:	f0 40       	sbci	r31, 0x00	; 0
    4902:	a2 2f       	mov	r26, r18
    4904:	23 2f       	mov	r18, r19
    4906:	34 2f       	mov	r19, r20
    4908:	44 27       	eor	r20, r20
    490a:	58 5f       	subi	r21, 0xF8	; 248
    490c:	f3 cf       	rjmp	.-26     	; 0x48f4 <__addsf3x+0x34>
    490e:	46 95       	lsr	r20
    4910:	37 95       	ror	r19
    4912:	27 95       	ror	r18
    4914:	a7 95       	ror	r26
    4916:	f0 40       	sbci	r31, 0x00	; 0
    4918:	53 95       	inc	r21
    491a:	c9 f7       	brne	.-14     	; 0x490e <__addsf3x+0x4e>
    491c:	7e f4       	brtc	.+30     	; 0x493c <__addsf3x+0x7c>
    491e:	1f 16       	cp	r1, r31
    4920:	ba 0b       	sbc	r27, r26
    4922:	62 0b       	sbc	r22, r18
    4924:	73 0b       	sbc	r23, r19
    4926:	84 0b       	sbc	r24, r20
    4928:	ba f0       	brmi	.+46     	; 0x4958 <__addsf3x+0x98>
    492a:	91 50       	subi	r25, 0x01	; 1
    492c:	a1 f0       	breq	.+40     	; 0x4956 <__addsf3x+0x96>
    492e:	ff 0f       	add	r31, r31
    4930:	bb 1f       	adc	r27, r27
    4932:	66 1f       	adc	r22, r22
    4934:	77 1f       	adc	r23, r23
    4936:	88 1f       	adc	r24, r24
    4938:	c2 f7       	brpl	.-16     	; 0x492a <__addsf3x+0x6a>
    493a:	0e c0       	rjmp	.+28     	; 0x4958 <__addsf3x+0x98>
    493c:	ba 0f       	add	r27, r26
    493e:	62 1f       	adc	r22, r18
    4940:	73 1f       	adc	r23, r19
    4942:	84 1f       	adc	r24, r20
    4944:	48 f4       	brcc	.+18     	; 0x4958 <__addsf3x+0x98>
    4946:	87 95       	ror	r24
    4948:	77 95       	ror	r23
    494a:	67 95       	ror	r22
    494c:	b7 95       	ror	r27
    494e:	f7 95       	ror	r31
    4950:	9e 3f       	cpi	r25, 0xFE	; 254
    4952:	08 f0       	brcs	.+2      	; 0x4956 <__addsf3x+0x96>
    4954:	b3 cf       	rjmp	.-154    	; 0x48bc <__addsf3+0x1e>
    4956:	93 95       	inc	r25
    4958:	88 0f       	add	r24, r24
    495a:	08 f0       	brcs	.+2      	; 0x495e <__addsf3x+0x9e>
    495c:	99 27       	eor	r25, r25
    495e:	ee 0f       	add	r30, r30
    4960:	97 95       	ror	r25
    4962:	87 95       	ror	r24
    4964:	08 95       	ret

00004966 <__fixsfsi>:
    4966:	04 d0       	rcall	.+8      	; 0x4970 <__fixunssfsi>
    4968:	68 94       	set
    496a:	b1 11       	cpse	r27, r1
    496c:	b5 c0       	rjmp	.+362    	; 0x4ad8 <__fp_szero>
    496e:	08 95       	ret

00004970 <__fixunssfsi>:
    4970:	98 d0       	rcall	.+304    	; 0x4aa2 <__fp_splitA>
    4972:	88 f0       	brcs	.+34     	; 0x4996 <__fixunssfsi+0x26>
    4974:	9f 57       	subi	r25, 0x7F	; 127
    4976:	90 f0       	brcs	.+36     	; 0x499c <__fixunssfsi+0x2c>
    4978:	b9 2f       	mov	r27, r25
    497a:	99 27       	eor	r25, r25
    497c:	b7 51       	subi	r27, 0x17	; 23
    497e:	a0 f0       	brcs	.+40     	; 0x49a8 <__fixunssfsi+0x38>
    4980:	d1 f0       	breq	.+52     	; 0x49b6 <__fixunssfsi+0x46>
    4982:	66 0f       	add	r22, r22
    4984:	77 1f       	adc	r23, r23
    4986:	88 1f       	adc	r24, r24
    4988:	99 1f       	adc	r25, r25
    498a:	1a f0       	brmi	.+6      	; 0x4992 <__fixunssfsi+0x22>
    498c:	ba 95       	dec	r27
    498e:	c9 f7       	brne	.-14     	; 0x4982 <__fixunssfsi+0x12>
    4990:	12 c0       	rjmp	.+36     	; 0x49b6 <__fixunssfsi+0x46>
    4992:	b1 30       	cpi	r27, 0x01	; 1
    4994:	81 f0       	breq	.+32     	; 0x49b6 <__fixunssfsi+0x46>
    4996:	9f d0       	rcall	.+318    	; 0x4ad6 <__fp_zero>
    4998:	b1 e0       	ldi	r27, 0x01	; 1
    499a:	08 95       	ret
    499c:	9c c0       	rjmp	.+312    	; 0x4ad6 <__fp_zero>
    499e:	67 2f       	mov	r22, r23
    49a0:	78 2f       	mov	r23, r24
    49a2:	88 27       	eor	r24, r24
    49a4:	b8 5f       	subi	r27, 0xF8	; 248
    49a6:	39 f0       	breq	.+14     	; 0x49b6 <__fixunssfsi+0x46>
    49a8:	b9 3f       	cpi	r27, 0xF9	; 249
    49aa:	cc f3       	brlt	.-14     	; 0x499e <__fixunssfsi+0x2e>
    49ac:	86 95       	lsr	r24
    49ae:	77 95       	ror	r23
    49b0:	67 95       	ror	r22
    49b2:	b3 95       	inc	r27
    49b4:	d9 f7       	brne	.-10     	; 0x49ac <__fixunssfsi+0x3c>
    49b6:	3e f4       	brtc	.+14     	; 0x49c6 <__fixunssfsi+0x56>
    49b8:	90 95       	com	r25
    49ba:	80 95       	com	r24
    49bc:	70 95       	com	r23
    49be:	61 95       	neg	r22
    49c0:	7f 4f       	sbci	r23, 0xFF	; 255
    49c2:	8f 4f       	sbci	r24, 0xFF	; 255
    49c4:	9f 4f       	sbci	r25, 0xFF	; 255
    49c6:	08 95       	ret

000049c8 <__floatunsisf>:
    49c8:	e8 94       	clt
    49ca:	09 c0       	rjmp	.+18     	; 0x49de <__floatsisf+0x12>

000049cc <__floatsisf>:
    49cc:	97 fb       	bst	r25, 7
    49ce:	3e f4       	brtc	.+14     	; 0x49de <__floatsisf+0x12>
    49d0:	90 95       	com	r25
    49d2:	80 95       	com	r24
    49d4:	70 95       	com	r23
    49d6:	61 95       	neg	r22
    49d8:	7f 4f       	sbci	r23, 0xFF	; 255
    49da:	8f 4f       	sbci	r24, 0xFF	; 255
    49dc:	9f 4f       	sbci	r25, 0xFF	; 255
    49de:	99 23       	and	r25, r25
    49e0:	a9 f0       	breq	.+42     	; 0x4a0c <__floatsisf+0x40>
    49e2:	f9 2f       	mov	r31, r25
    49e4:	96 e9       	ldi	r25, 0x96	; 150
    49e6:	bb 27       	eor	r27, r27
    49e8:	93 95       	inc	r25
    49ea:	f6 95       	lsr	r31
    49ec:	87 95       	ror	r24
    49ee:	77 95       	ror	r23
    49f0:	67 95       	ror	r22
    49f2:	b7 95       	ror	r27
    49f4:	f1 11       	cpse	r31, r1
    49f6:	f8 cf       	rjmp	.-16     	; 0x49e8 <__floatsisf+0x1c>
    49f8:	fa f4       	brpl	.+62     	; 0x4a38 <__floatsisf+0x6c>
    49fa:	bb 0f       	add	r27, r27
    49fc:	11 f4       	brne	.+4      	; 0x4a02 <__floatsisf+0x36>
    49fe:	60 ff       	sbrs	r22, 0
    4a00:	1b c0       	rjmp	.+54     	; 0x4a38 <__floatsisf+0x6c>
    4a02:	6f 5f       	subi	r22, 0xFF	; 255
    4a04:	7f 4f       	sbci	r23, 0xFF	; 255
    4a06:	8f 4f       	sbci	r24, 0xFF	; 255
    4a08:	9f 4f       	sbci	r25, 0xFF	; 255
    4a0a:	16 c0       	rjmp	.+44     	; 0x4a38 <__floatsisf+0x6c>
    4a0c:	88 23       	and	r24, r24
    4a0e:	11 f0       	breq	.+4      	; 0x4a14 <__floatsisf+0x48>
    4a10:	96 e9       	ldi	r25, 0x96	; 150
    4a12:	11 c0       	rjmp	.+34     	; 0x4a36 <__floatsisf+0x6a>
    4a14:	77 23       	and	r23, r23
    4a16:	21 f0       	breq	.+8      	; 0x4a20 <__floatsisf+0x54>
    4a18:	9e e8       	ldi	r25, 0x8E	; 142
    4a1a:	87 2f       	mov	r24, r23
    4a1c:	76 2f       	mov	r23, r22
    4a1e:	05 c0       	rjmp	.+10     	; 0x4a2a <__floatsisf+0x5e>
    4a20:	66 23       	and	r22, r22
    4a22:	71 f0       	breq	.+28     	; 0x4a40 <__floatsisf+0x74>
    4a24:	96 e8       	ldi	r25, 0x86	; 134
    4a26:	86 2f       	mov	r24, r22
    4a28:	70 e0       	ldi	r23, 0x00	; 0
    4a2a:	60 e0       	ldi	r22, 0x00	; 0
    4a2c:	2a f0       	brmi	.+10     	; 0x4a38 <__floatsisf+0x6c>
    4a2e:	9a 95       	dec	r25
    4a30:	66 0f       	add	r22, r22
    4a32:	77 1f       	adc	r23, r23
    4a34:	88 1f       	adc	r24, r24
    4a36:	da f7       	brpl	.-10     	; 0x4a2e <__floatsisf+0x62>
    4a38:	88 0f       	add	r24, r24
    4a3a:	96 95       	lsr	r25
    4a3c:	87 95       	ror	r24
    4a3e:	97 f9       	bld	r25, 7
    4a40:	08 95       	ret

00004a42 <__fp_inf>:
    4a42:	97 f9       	bld	r25, 7
    4a44:	9f 67       	ori	r25, 0x7F	; 127
    4a46:	80 e8       	ldi	r24, 0x80	; 128
    4a48:	70 e0       	ldi	r23, 0x00	; 0
    4a4a:	60 e0       	ldi	r22, 0x00	; 0
    4a4c:	08 95       	ret

00004a4e <__fp_nan>:
    4a4e:	9f ef       	ldi	r25, 0xFF	; 255
    4a50:	80 ec       	ldi	r24, 0xC0	; 192
    4a52:	08 95       	ret

00004a54 <__fp_pscA>:
    4a54:	00 24       	eor	r0, r0
    4a56:	0a 94       	dec	r0
    4a58:	16 16       	cp	r1, r22
    4a5a:	17 06       	cpc	r1, r23
    4a5c:	18 06       	cpc	r1, r24
    4a5e:	09 06       	cpc	r0, r25
    4a60:	08 95       	ret

00004a62 <__fp_pscB>:
    4a62:	00 24       	eor	r0, r0
    4a64:	0a 94       	dec	r0
    4a66:	12 16       	cp	r1, r18
    4a68:	13 06       	cpc	r1, r19
    4a6a:	14 06       	cpc	r1, r20
    4a6c:	05 06       	cpc	r0, r21
    4a6e:	08 95       	ret

00004a70 <__fp_round>:
    4a70:	09 2e       	mov	r0, r25
    4a72:	03 94       	inc	r0
    4a74:	00 0c       	add	r0, r0
    4a76:	11 f4       	brne	.+4      	; 0x4a7c <__fp_round+0xc>
    4a78:	88 23       	and	r24, r24
    4a7a:	52 f0       	brmi	.+20     	; 0x4a90 <__fp_round+0x20>
    4a7c:	bb 0f       	add	r27, r27
    4a7e:	40 f4       	brcc	.+16     	; 0x4a90 <__fp_round+0x20>
    4a80:	bf 2b       	or	r27, r31
    4a82:	11 f4       	brne	.+4      	; 0x4a88 <__fp_round+0x18>
    4a84:	60 ff       	sbrs	r22, 0
    4a86:	04 c0       	rjmp	.+8      	; 0x4a90 <__fp_round+0x20>
    4a88:	6f 5f       	subi	r22, 0xFF	; 255
    4a8a:	7f 4f       	sbci	r23, 0xFF	; 255
    4a8c:	8f 4f       	sbci	r24, 0xFF	; 255
    4a8e:	9f 4f       	sbci	r25, 0xFF	; 255
    4a90:	08 95       	ret

00004a92 <__fp_split3>:
    4a92:	57 fd       	sbrc	r21, 7
    4a94:	90 58       	subi	r25, 0x80	; 128
    4a96:	44 0f       	add	r20, r20
    4a98:	55 1f       	adc	r21, r21
    4a9a:	59 f0       	breq	.+22     	; 0x4ab2 <__fp_splitA+0x10>
    4a9c:	5f 3f       	cpi	r21, 0xFF	; 255
    4a9e:	71 f0       	breq	.+28     	; 0x4abc <__fp_splitA+0x1a>
    4aa0:	47 95       	ror	r20

00004aa2 <__fp_splitA>:
    4aa2:	88 0f       	add	r24, r24
    4aa4:	97 fb       	bst	r25, 7
    4aa6:	99 1f       	adc	r25, r25
    4aa8:	61 f0       	breq	.+24     	; 0x4ac2 <__fp_splitA+0x20>
    4aaa:	9f 3f       	cpi	r25, 0xFF	; 255
    4aac:	79 f0       	breq	.+30     	; 0x4acc <__fp_splitA+0x2a>
    4aae:	87 95       	ror	r24
    4ab0:	08 95       	ret
    4ab2:	12 16       	cp	r1, r18
    4ab4:	13 06       	cpc	r1, r19
    4ab6:	14 06       	cpc	r1, r20
    4ab8:	55 1f       	adc	r21, r21
    4aba:	f2 cf       	rjmp	.-28     	; 0x4aa0 <__fp_split3+0xe>
    4abc:	46 95       	lsr	r20
    4abe:	f1 df       	rcall	.-30     	; 0x4aa2 <__fp_splitA>
    4ac0:	08 c0       	rjmp	.+16     	; 0x4ad2 <__fp_splitA+0x30>
    4ac2:	16 16       	cp	r1, r22
    4ac4:	17 06       	cpc	r1, r23
    4ac6:	18 06       	cpc	r1, r24
    4ac8:	99 1f       	adc	r25, r25
    4aca:	f1 cf       	rjmp	.-30     	; 0x4aae <__fp_splitA+0xc>
    4acc:	86 95       	lsr	r24
    4ace:	71 05       	cpc	r23, r1
    4ad0:	61 05       	cpc	r22, r1
    4ad2:	08 94       	sec
    4ad4:	08 95       	ret

00004ad6 <__fp_zero>:
    4ad6:	e8 94       	clt

00004ad8 <__fp_szero>:
    4ad8:	bb 27       	eor	r27, r27
    4ada:	66 27       	eor	r22, r22
    4adc:	77 27       	eor	r23, r23
    4ade:	cb 01       	movw	r24, r22
    4ae0:	97 f9       	bld	r25, 7
    4ae2:	08 95       	ret

00004ae4 <__mulsf3>:
    4ae4:	0b d0       	rcall	.+22     	; 0x4afc <__mulsf3x>
    4ae6:	c4 cf       	rjmp	.-120    	; 0x4a70 <__fp_round>
    4ae8:	b5 df       	rcall	.-150    	; 0x4a54 <__fp_pscA>
    4aea:	28 f0       	brcs	.+10     	; 0x4af6 <__mulsf3+0x12>
    4aec:	ba df       	rcall	.-140    	; 0x4a62 <__fp_pscB>
    4aee:	18 f0       	brcs	.+6      	; 0x4af6 <__mulsf3+0x12>
    4af0:	95 23       	and	r25, r21
    4af2:	09 f0       	breq	.+2      	; 0x4af6 <__mulsf3+0x12>
    4af4:	a6 cf       	rjmp	.-180    	; 0x4a42 <__fp_inf>
    4af6:	ab cf       	rjmp	.-170    	; 0x4a4e <__fp_nan>
    4af8:	11 24       	eor	r1, r1
    4afa:	ee cf       	rjmp	.-36     	; 0x4ad8 <__fp_szero>

00004afc <__mulsf3x>:
    4afc:	ca df       	rcall	.-108    	; 0x4a92 <__fp_split3>
    4afe:	a0 f3       	brcs	.-24     	; 0x4ae8 <__mulsf3+0x4>

00004b00 <__mulsf3_pse>:
    4b00:	95 9f       	mul	r25, r21
    4b02:	d1 f3       	breq	.-12     	; 0x4af8 <__mulsf3+0x14>
    4b04:	95 0f       	add	r25, r21
    4b06:	50 e0       	ldi	r21, 0x00	; 0
    4b08:	55 1f       	adc	r21, r21
    4b0a:	62 9f       	mul	r22, r18
    4b0c:	f0 01       	movw	r30, r0
    4b0e:	72 9f       	mul	r23, r18
    4b10:	bb 27       	eor	r27, r27
    4b12:	f0 0d       	add	r31, r0
    4b14:	b1 1d       	adc	r27, r1
    4b16:	63 9f       	mul	r22, r19
    4b18:	aa 27       	eor	r26, r26
    4b1a:	f0 0d       	add	r31, r0
    4b1c:	b1 1d       	adc	r27, r1
    4b1e:	aa 1f       	adc	r26, r26
    4b20:	64 9f       	mul	r22, r20
    4b22:	66 27       	eor	r22, r22
    4b24:	b0 0d       	add	r27, r0
    4b26:	a1 1d       	adc	r26, r1
    4b28:	66 1f       	adc	r22, r22
    4b2a:	82 9f       	mul	r24, r18
    4b2c:	22 27       	eor	r18, r18
    4b2e:	b0 0d       	add	r27, r0
    4b30:	a1 1d       	adc	r26, r1
    4b32:	62 1f       	adc	r22, r18
    4b34:	73 9f       	mul	r23, r19
    4b36:	b0 0d       	add	r27, r0
    4b38:	a1 1d       	adc	r26, r1
    4b3a:	62 1f       	adc	r22, r18
    4b3c:	83 9f       	mul	r24, r19
    4b3e:	a0 0d       	add	r26, r0
    4b40:	61 1d       	adc	r22, r1
    4b42:	22 1f       	adc	r18, r18
    4b44:	74 9f       	mul	r23, r20
    4b46:	33 27       	eor	r19, r19
    4b48:	a0 0d       	add	r26, r0
    4b4a:	61 1d       	adc	r22, r1
    4b4c:	23 1f       	adc	r18, r19
    4b4e:	84 9f       	mul	r24, r20
    4b50:	60 0d       	add	r22, r0
    4b52:	21 1d       	adc	r18, r1
    4b54:	82 2f       	mov	r24, r18
    4b56:	76 2f       	mov	r23, r22
    4b58:	6a 2f       	mov	r22, r26
    4b5a:	11 24       	eor	r1, r1
    4b5c:	9f 57       	subi	r25, 0x7F	; 127
    4b5e:	50 40       	sbci	r21, 0x00	; 0
    4b60:	8a f0       	brmi	.+34     	; 0x4b84 <__mulsf3_pse+0x84>
    4b62:	e1 f0       	breq	.+56     	; 0x4b9c <__mulsf3_pse+0x9c>
    4b64:	88 23       	and	r24, r24
    4b66:	4a f0       	brmi	.+18     	; 0x4b7a <__mulsf3_pse+0x7a>
    4b68:	ee 0f       	add	r30, r30
    4b6a:	ff 1f       	adc	r31, r31
    4b6c:	bb 1f       	adc	r27, r27
    4b6e:	66 1f       	adc	r22, r22
    4b70:	77 1f       	adc	r23, r23
    4b72:	88 1f       	adc	r24, r24
    4b74:	91 50       	subi	r25, 0x01	; 1
    4b76:	50 40       	sbci	r21, 0x00	; 0
    4b78:	a9 f7       	brne	.-22     	; 0x4b64 <__mulsf3_pse+0x64>
    4b7a:	9e 3f       	cpi	r25, 0xFE	; 254
    4b7c:	51 05       	cpc	r21, r1
    4b7e:	70 f0       	brcs	.+28     	; 0x4b9c <__mulsf3_pse+0x9c>
    4b80:	60 cf       	rjmp	.-320    	; 0x4a42 <__fp_inf>
    4b82:	aa cf       	rjmp	.-172    	; 0x4ad8 <__fp_szero>
    4b84:	5f 3f       	cpi	r21, 0xFF	; 255
    4b86:	ec f3       	brlt	.-6      	; 0x4b82 <__mulsf3_pse+0x82>
    4b88:	98 3e       	cpi	r25, 0xE8	; 232
    4b8a:	dc f3       	brlt	.-10     	; 0x4b82 <__mulsf3_pse+0x82>
    4b8c:	86 95       	lsr	r24
    4b8e:	77 95       	ror	r23
    4b90:	67 95       	ror	r22
    4b92:	b7 95       	ror	r27
    4b94:	f7 95       	ror	r31
    4b96:	e7 95       	ror	r30
    4b98:	9f 5f       	subi	r25, 0xFF	; 255
    4b9a:	c1 f7       	brne	.-16     	; 0x4b8c <__mulsf3_pse+0x8c>
    4b9c:	fe 2b       	or	r31, r30
    4b9e:	88 0f       	add	r24, r24
    4ba0:	91 1d       	adc	r25, r1
    4ba2:	96 95       	lsr	r25
    4ba4:	87 95       	ror	r24
    4ba6:	97 f9       	bld	r25, 7
    4ba8:	08 95       	ret

00004baa <sprintf>:
    4baa:	0f 93       	push	r16
    4bac:	1f 93       	push	r17
    4bae:	cf 93       	push	r28
    4bb0:	df 93       	push	r29
    4bb2:	cd b7       	in	r28, 0x3d	; 61
    4bb4:	de b7       	in	r29, 0x3e	; 62
    4bb6:	2e 97       	sbiw	r28, 0x0e	; 14
    4bb8:	cd bf       	out	0x3d, r28	; 61
    4bba:	de bf       	out	0x3e, r29	; 62
    4bbc:	0e 89       	ldd	r16, Y+22	; 0x16
    4bbe:	1f 89       	ldd	r17, Y+23	; 0x17
    4bc0:	86 e0       	ldi	r24, 0x06	; 6
    4bc2:	8c 83       	std	Y+4, r24	; 0x04
    4bc4:	09 83       	std	Y+1, r16	; 0x01
    4bc6:	1a 83       	std	Y+2, r17	; 0x02
    4bc8:	8f ef       	ldi	r24, 0xFF	; 255
    4bca:	9f e7       	ldi	r25, 0x7F	; 127
    4bcc:	8d 83       	std	Y+5, r24	; 0x05
    4bce:	9e 83       	std	Y+6, r25	; 0x06
    4bd0:	ae 01       	movw	r20, r28
    4bd2:	46 5e       	subi	r20, 0xE6	; 230
    4bd4:	5f 4f       	sbci	r21, 0xFF	; 255
    4bd6:	68 8d       	ldd	r22, Y+24	; 0x18
    4bd8:	79 8d       	ldd	r23, Y+25	; 0x19
    4bda:	ce 01       	movw	r24, r28
    4bdc:	01 96       	adiw	r24, 0x01	; 1
    4bde:	0d d0       	rcall	.+26     	; 0x4bfa <vfprintf>
    4be0:	ef 81       	ldd	r30, Y+7	; 0x07
    4be2:	f8 85       	ldd	r31, Y+8	; 0x08
    4be4:	e0 0f       	add	r30, r16
    4be6:	f1 1f       	adc	r31, r17
    4be8:	10 82       	st	Z, r1
    4bea:	2e 96       	adiw	r28, 0x0e	; 14
    4bec:	cd bf       	out	0x3d, r28	; 61
    4bee:	de bf       	out	0x3e, r29	; 62
    4bf0:	df 91       	pop	r29
    4bf2:	cf 91       	pop	r28
    4bf4:	1f 91       	pop	r17
    4bf6:	0f 91       	pop	r16
    4bf8:	08 95       	ret

00004bfa <vfprintf>:
    4bfa:	2f 92       	push	r2
    4bfc:	3f 92       	push	r3
    4bfe:	4f 92       	push	r4
    4c00:	5f 92       	push	r5
    4c02:	6f 92       	push	r6
    4c04:	7f 92       	push	r7
    4c06:	8f 92       	push	r8
    4c08:	9f 92       	push	r9
    4c0a:	af 92       	push	r10
    4c0c:	bf 92       	push	r11
    4c0e:	cf 92       	push	r12
    4c10:	df 92       	push	r13
    4c12:	ef 92       	push	r14
    4c14:	ff 92       	push	r15
    4c16:	0f 93       	push	r16
    4c18:	1f 93       	push	r17
    4c1a:	cf 93       	push	r28
    4c1c:	df 93       	push	r29
    4c1e:	cd b7       	in	r28, 0x3d	; 61
    4c20:	de b7       	in	r29, 0x3e	; 62
    4c22:	2c 97       	sbiw	r28, 0x0c	; 12
    4c24:	cd bf       	out	0x3d, r28	; 61
    4c26:	de bf       	out	0x3e, r29	; 62
    4c28:	7c 01       	movw	r14, r24
    4c2a:	6b 01       	movw	r12, r22
    4c2c:	8a 01       	movw	r16, r20
    4c2e:	fc 01       	movw	r30, r24
    4c30:	16 82       	std	Z+6, r1	; 0x06
    4c32:	17 82       	std	Z+7, r1	; 0x07
    4c34:	83 81       	ldd	r24, Z+3	; 0x03
    4c36:	81 ff       	sbrs	r24, 1
    4c38:	b0 c1       	rjmp	.+864    	; 0x4f9a <vfprintf+0x3a0>
    4c3a:	ce 01       	movw	r24, r28
    4c3c:	01 96       	adiw	r24, 0x01	; 1
    4c3e:	4c 01       	movw	r8, r24
    4c40:	f7 01       	movw	r30, r14
    4c42:	93 81       	ldd	r25, Z+3	; 0x03
    4c44:	f6 01       	movw	r30, r12
    4c46:	93 fd       	sbrc	r25, 3
    4c48:	85 91       	lpm	r24, Z+
    4c4a:	93 ff       	sbrs	r25, 3
    4c4c:	81 91       	ld	r24, Z+
    4c4e:	6f 01       	movw	r12, r30
    4c50:	88 23       	and	r24, r24
    4c52:	09 f4       	brne	.+2      	; 0x4c56 <vfprintf+0x5c>
    4c54:	9e c1       	rjmp	.+828    	; 0x4f92 <vfprintf+0x398>
    4c56:	85 32       	cpi	r24, 0x25	; 37
    4c58:	39 f4       	brne	.+14     	; 0x4c68 <vfprintf+0x6e>
    4c5a:	93 fd       	sbrc	r25, 3
    4c5c:	85 91       	lpm	r24, Z+
    4c5e:	93 ff       	sbrs	r25, 3
    4c60:	81 91       	ld	r24, Z+
    4c62:	6f 01       	movw	r12, r30
    4c64:	85 32       	cpi	r24, 0x25	; 37
    4c66:	21 f4       	brne	.+8      	; 0x4c70 <vfprintf+0x76>
    4c68:	b7 01       	movw	r22, r14
    4c6a:	90 e0       	ldi	r25, 0x00	; 0
    4c6c:	c4 d1       	rcall	.+904    	; 0x4ff6 <fputc>
    4c6e:	e8 cf       	rjmp	.-48     	; 0x4c40 <vfprintf+0x46>
    4c70:	51 2c       	mov	r5, r1
    4c72:	31 2c       	mov	r3, r1
    4c74:	20 e0       	ldi	r18, 0x00	; 0
    4c76:	20 32       	cpi	r18, 0x20	; 32
    4c78:	a0 f4       	brcc	.+40     	; 0x4ca2 <vfprintf+0xa8>
    4c7a:	8b 32       	cpi	r24, 0x2B	; 43
    4c7c:	69 f0       	breq	.+26     	; 0x4c98 <vfprintf+0x9e>
    4c7e:	30 f4       	brcc	.+12     	; 0x4c8c <vfprintf+0x92>
    4c80:	80 32       	cpi	r24, 0x20	; 32
    4c82:	59 f0       	breq	.+22     	; 0x4c9a <vfprintf+0xa0>
    4c84:	83 32       	cpi	r24, 0x23	; 35
    4c86:	69 f4       	brne	.+26     	; 0x4ca2 <vfprintf+0xa8>
    4c88:	20 61       	ori	r18, 0x10	; 16
    4c8a:	2c c0       	rjmp	.+88     	; 0x4ce4 <vfprintf+0xea>
    4c8c:	8d 32       	cpi	r24, 0x2D	; 45
    4c8e:	39 f0       	breq	.+14     	; 0x4c9e <vfprintf+0xa4>
    4c90:	80 33       	cpi	r24, 0x30	; 48
    4c92:	39 f4       	brne	.+14     	; 0x4ca2 <vfprintf+0xa8>
    4c94:	21 60       	ori	r18, 0x01	; 1
    4c96:	26 c0       	rjmp	.+76     	; 0x4ce4 <vfprintf+0xea>
    4c98:	22 60       	ori	r18, 0x02	; 2
    4c9a:	24 60       	ori	r18, 0x04	; 4
    4c9c:	23 c0       	rjmp	.+70     	; 0x4ce4 <vfprintf+0xea>
    4c9e:	28 60       	ori	r18, 0x08	; 8
    4ca0:	21 c0       	rjmp	.+66     	; 0x4ce4 <vfprintf+0xea>
    4ca2:	27 fd       	sbrc	r18, 7
    4ca4:	27 c0       	rjmp	.+78     	; 0x4cf4 <vfprintf+0xfa>
    4ca6:	30 ed       	ldi	r19, 0xD0	; 208
    4ca8:	38 0f       	add	r19, r24
    4caa:	3a 30       	cpi	r19, 0x0A	; 10
    4cac:	78 f4       	brcc	.+30     	; 0x4ccc <vfprintf+0xd2>
    4cae:	26 ff       	sbrs	r18, 6
    4cb0:	06 c0       	rjmp	.+12     	; 0x4cbe <vfprintf+0xc4>
    4cb2:	fa e0       	ldi	r31, 0x0A	; 10
    4cb4:	5f 9e       	mul	r5, r31
    4cb6:	30 0d       	add	r19, r0
    4cb8:	11 24       	eor	r1, r1
    4cba:	53 2e       	mov	r5, r19
    4cbc:	13 c0       	rjmp	.+38     	; 0x4ce4 <vfprintf+0xea>
    4cbe:	8a e0       	ldi	r24, 0x0A	; 10
    4cc0:	38 9e       	mul	r3, r24
    4cc2:	30 0d       	add	r19, r0
    4cc4:	11 24       	eor	r1, r1
    4cc6:	33 2e       	mov	r3, r19
    4cc8:	20 62       	ori	r18, 0x20	; 32
    4cca:	0c c0       	rjmp	.+24     	; 0x4ce4 <vfprintf+0xea>
    4ccc:	8e 32       	cpi	r24, 0x2E	; 46
    4cce:	21 f4       	brne	.+8      	; 0x4cd8 <vfprintf+0xde>
    4cd0:	26 fd       	sbrc	r18, 6
    4cd2:	5f c1       	rjmp	.+702    	; 0x4f92 <vfprintf+0x398>
    4cd4:	20 64       	ori	r18, 0x40	; 64
    4cd6:	06 c0       	rjmp	.+12     	; 0x4ce4 <vfprintf+0xea>
    4cd8:	8c 36       	cpi	r24, 0x6C	; 108
    4cda:	11 f4       	brne	.+4      	; 0x4ce0 <vfprintf+0xe6>
    4cdc:	20 68       	ori	r18, 0x80	; 128
    4cde:	02 c0       	rjmp	.+4      	; 0x4ce4 <vfprintf+0xea>
    4ce0:	88 36       	cpi	r24, 0x68	; 104
    4ce2:	41 f4       	brne	.+16     	; 0x4cf4 <vfprintf+0xfa>
    4ce4:	f6 01       	movw	r30, r12
    4ce6:	93 fd       	sbrc	r25, 3
    4ce8:	85 91       	lpm	r24, Z+
    4cea:	93 ff       	sbrs	r25, 3
    4cec:	81 91       	ld	r24, Z+
    4cee:	6f 01       	movw	r12, r30
    4cf0:	81 11       	cpse	r24, r1
    4cf2:	c1 cf       	rjmp	.-126    	; 0x4c76 <vfprintf+0x7c>
    4cf4:	98 2f       	mov	r25, r24
    4cf6:	9f 7d       	andi	r25, 0xDF	; 223
    4cf8:	95 54       	subi	r25, 0x45	; 69
    4cfa:	93 30       	cpi	r25, 0x03	; 3
    4cfc:	28 f4       	brcc	.+10     	; 0x4d08 <vfprintf+0x10e>
    4cfe:	0c 5f       	subi	r16, 0xFC	; 252
    4d00:	1f 4f       	sbci	r17, 0xFF	; 255
    4d02:	ff e3       	ldi	r31, 0x3F	; 63
    4d04:	f9 83       	std	Y+1, r31	; 0x01
    4d06:	0d c0       	rjmp	.+26     	; 0x4d22 <vfprintf+0x128>
    4d08:	83 36       	cpi	r24, 0x63	; 99
    4d0a:	31 f0       	breq	.+12     	; 0x4d18 <vfprintf+0x11e>
    4d0c:	83 37       	cpi	r24, 0x73	; 115
    4d0e:	71 f0       	breq	.+28     	; 0x4d2c <vfprintf+0x132>
    4d10:	83 35       	cpi	r24, 0x53	; 83
    4d12:	09 f0       	breq	.+2      	; 0x4d16 <vfprintf+0x11c>
    4d14:	57 c0       	rjmp	.+174    	; 0x4dc4 <vfprintf+0x1ca>
    4d16:	21 c0       	rjmp	.+66     	; 0x4d5a <vfprintf+0x160>
    4d18:	f8 01       	movw	r30, r16
    4d1a:	80 81       	ld	r24, Z
    4d1c:	89 83       	std	Y+1, r24	; 0x01
    4d1e:	0e 5f       	subi	r16, 0xFE	; 254
    4d20:	1f 4f       	sbci	r17, 0xFF	; 255
    4d22:	44 24       	eor	r4, r4
    4d24:	43 94       	inc	r4
    4d26:	51 2c       	mov	r5, r1
    4d28:	54 01       	movw	r10, r8
    4d2a:	14 c0       	rjmp	.+40     	; 0x4d54 <vfprintf+0x15a>
    4d2c:	38 01       	movw	r6, r16
    4d2e:	f2 e0       	ldi	r31, 0x02	; 2
    4d30:	6f 0e       	add	r6, r31
    4d32:	71 1c       	adc	r7, r1
    4d34:	f8 01       	movw	r30, r16
    4d36:	a0 80       	ld	r10, Z
    4d38:	b1 80       	ldd	r11, Z+1	; 0x01
    4d3a:	26 ff       	sbrs	r18, 6
    4d3c:	03 c0       	rjmp	.+6      	; 0x4d44 <vfprintf+0x14a>
    4d3e:	65 2d       	mov	r22, r5
    4d40:	70 e0       	ldi	r23, 0x00	; 0
    4d42:	02 c0       	rjmp	.+4      	; 0x4d48 <vfprintf+0x14e>
    4d44:	6f ef       	ldi	r22, 0xFF	; 255
    4d46:	7f ef       	ldi	r23, 0xFF	; 255
    4d48:	c5 01       	movw	r24, r10
    4d4a:	2c 87       	std	Y+12, r18	; 0x0c
    4d4c:	49 d1       	rcall	.+658    	; 0x4fe0 <strnlen>
    4d4e:	2c 01       	movw	r4, r24
    4d50:	83 01       	movw	r16, r6
    4d52:	2c 85       	ldd	r18, Y+12	; 0x0c
    4d54:	2f 77       	andi	r18, 0x7F	; 127
    4d56:	22 2e       	mov	r2, r18
    4d58:	16 c0       	rjmp	.+44     	; 0x4d86 <vfprintf+0x18c>
    4d5a:	38 01       	movw	r6, r16
    4d5c:	f2 e0       	ldi	r31, 0x02	; 2
    4d5e:	6f 0e       	add	r6, r31
    4d60:	71 1c       	adc	r7, r1
    4d62:	f8 01       	movw	r30, r16
    4d64:	a0 80       	ld	r10, Z
    4d66:	b1 80       	ldd	r11, Z+1	; 0x01
    4d68:	26 ff       	sbrs	r18, 6
    4d6a:	03 c0       	rjmp	.+6      	; 0x4d72 <vfprintf+0x178>
    4d6c:	65 2d       	mov	r22, r5
    4d6e:	70 e0       	ldi	r23, 0x00	; 0
    4d70:	02 c0       	rjmp	.+4      	; 0x4d76 <vfprintf+0x17c>
    4d72:	6f ef       	ldi	r22, 0xFF	; 255
    4d74:	7f ef       	ldi	r23, 0xFF	; 255
    4d76:	c5 01       	movw	r24, r10
    4d78:	2c 87       	std	Y+12, r18	; 0x0c
    4d7a:	27 d1       	rcall	.+590    	; 0x4fca <strnlen_P>
    4d7c:	2c 01       	movw	r4, r24
    4d7e:	2c 85       	ldd	r18, Y+12	; 0x0c
    4d80:	20 68       	ori	r18, 0x80	; 128
    4d82:	22 2e       	mov	r2, r18
    4d84:	83 01       	movw	r16, r6
    4d86:	23 fc       	sbrc	r2, 3
    4d88:	19 c0       	rjmp	.+50     	; 0x4dbc <vfprintf+0x1c2>
    4d8a:	83 2d       	mov	r24, r3
    4d8c:	90 e0       	ldi	r25, 0x00	; 0
    4d8e:	48 16       	cp	r4, r24
    4d90:	59 06       	cpc	r5, r25
    4d92:	a0 f4       	brcc	.+40     	; 0x4dbc <vfprintf+0x1c2>
    4d94:	b7 01       	movw	r22, r14
    4d96:	80 e2       	ldi	r24, 0x20	; 32
    4d98:	90 e0       	ldi	r25, 0x00	; 0
    4d9a:	2d d1       	rcall	.+602    	; 0x4ff6 <fputc>
    4d9c:	3a 94       	dec	r3
    4d9e:	f5 cf       	rjmp	.-22     	; 0x4d8a <vfprintf+0x190>
    4da0:	f5 01       	movw	r30, r10
    4da2:	27 fc       	sbrc	r2, 7
    4da4:	85 91       	lpm	r24, Z+
    4da6:	27 fe       	sbrs	r2, 7
    4da8:	81 91       	ld	r24, Z+
    4daa:	5f 01       	movw	r10, r30
    4dac:	b7 01       	movw	r22, r14
    4dae:	90 e0       	ldi	r25, 0x00	; 0
    4db0:	22 d1       	rcall	.+580    	; 0x4ff6 <fputc>
    4db2:	31 10       	cpse	r3, r1
    4db4:	3a 94       	dec	r3
    4db6:	f1 e0       	ldi	r31, 0x01	; 1
    4db8:	4f 1a       	sub	r4, r31
    4dba:	51 08       	sbc	r5, r1
    4dbc:	41 14       	cp	r4, r1
    4dbe:	51 04       	cpc	r5, r1
    4dc0:	79 f7       	brne	.-34     	; 0x4da0 <vfprintf+0x1a6>
    4dc2:	de c0       	rjmp	.+444    	; 0x4f80 <vfprintf+0x386>
    4dc4:	84 36       	cpi	r24, 0x64	; 100
    4dc6:	11 f0       	breq	.+4      	; 0x4dcc <vfprintf+0x1d2>
    4dc8:	89 36       	cpi	r24, 0x69	; 105
    4dca:	31 f5       	brne	.+76     	; 0x4e18 <vfprintf+0x21e>
    4dcc:	f8 01       	movw	r30, r16
    4dce:	27 ff       	sbrs	r18, 7
    4dd0:	07 c0       	rjmp	.+14     	; 0x4de0 <vfprintf+0x1e6>
    4dd2:	60 81       	ld	r22, Z
    4dd4:	71 81       	ldd	r23, Z+1	; 0x01
    4dd6:	82 81       	ldd	r24, Z+2	; 0x02
    4dd8:	93 81       	ldd	r25, Z+3	; 0x03
    4dda:	0c 5f       	subi	r16, 0xFC	; 252
    4ddc:	1f 4f       	sbci	r17, 0xFF	; 255
    4dde:	08 c0       	rjmp	.+16     	; 0x4df0 <vfprintf+0x1f6>
    4de0:	60 81       	ld	r22, Z
    4de2:	71 81       	ldd	r23, Z+1	; 0x01
    4de4:	88 27       	eor	r24, r24
    4de6:	77 fd       	sbrc	r23, 7
    4de8:	80 95       	com	r24
    4dea:	98 2f       	mov	r25, r24
    4dec:	0e 5f       	subi	r16, 0xFE	; 254
    4dee:	1f 4f       	sbci	r17, 0xFF	; 255
    4df0:	2f 76       	andi	r18, 0x6F	; 111
    4df2:	b2 2e       	mov	r11, r18
    4df4:	97 ff       	sbrs	r25, 7
    4df6:	09 c0       	rjmp	.+18     	; 0x4e0a <vfprintf+0x210>
    4df8:	90 95       	com	r25
    4dfa:	80 95       	com	r24
    4dfc:	70 95       	com	r23
    4dfe:	61 95       	neg	r22
    4e00:	7f 4f       	sbci	r23, 0xFF	; 255
    4e02:	8f 4f       	sbci	r24, 0xFF	; 255
    4e04:	9f 4f       	sbci	r25, 0xFF	; 255
    4e06:	20 68       	ori	r18, 0x80	; 128
    4e08:	b2 2e       	mov	r11, r18
    4e0a:	2a e0       	ldi	r18, 0x0A	; 10
    4e0c:	30 e0       	ldi	r19, 0x00	; 0
    4e0e:	a4 01       	movw	r20, r8
    4e10:	24 d1       	rcall	.+584    	; 0x505a <__ultoa_invert>
    4e12:	a8 2e       	mov	r10, r24
    4e14:	a8 18       	sub	r10, r8
    4e16:	43 c0       	rjmp	.+134    	; 0x4e9e <vfprintf+0x2a4>
    4e18:	85 37       	cpi	r24, 0x75	; 117
    4e1a:	29 f4       	brne	.+10     	; 0x4e26 <vfprintf+0x22c>
    4e1c:	2f 7e       	andi	r18, 0xEF	; 239
    4e1e:	b2 2e       	mov	r11, r18
    4e20:	2a e0       	ldi	r18, 0x0A	; 10
    4e22:	30 e0       	ldi	r19, 0x00	; 0
    4e24:	25 c0       	rjmp	.+74     	; 0x4e70 <vfprintf+0x276>
    4e26:	f2 2f       	mov	r31, r18
    4e28:	f9 7f       	andi	r31, 0xF9	; 249
    4e2a:	bf 2e       	mov	r11, r31
    4e2c:	8f 36       	cpi	r24, 0x6F	; 111
    4e2e:	c1 f0       	breq	.+48     	; 0x4e60 <vfprintf+0x266>
    4e30:	18 f4       	brcc	.+6      	; 0x4e38 <vfprintf+0x23e>
    4e32:	88 35       	cpi	r24, 0x58	; 88
    4e34:	79 f0       	breq	.+30     	; 0x4e54 <vfprintf+0x25a>
    4e36:	ad c0       	rjmp	.+346    	; 0x4f92 <vfprintf+0x398>
    4e38:	80 37       	cpi	r24, 0x70	; 112
    4e3a:	19 f0       	breq	.+6      	; 0x4e42 <vfprintf+0x248>
    4e3c:	88 37       	cpi	r24, 0x78	; 120
    4e3e:	21 f0       	breq	.+8      	; 0x4e48 <vfprintf+0x24e>
    4e40:	a8 c0       	rjmp	.+336    	; 0x4f92 <vfprintf+0x398>
    4e42:	2f 2f       	mov	r18, r31
    4e44:	20 61       	ori	r18, 0x10	; 16
    4e46:	b2 2e       	mov	r11, r18
    4e48:	b4 fe       	sbrs	r11, 4
    4e4a:	0d c0       	rjmp	.+26     	; 0x4e66 <vfprintf+0x26c>
    4e4c:	8b 2d       	mov	r24, r11
    4e4e:	84 60       	ori	r24, 0x04	; 4
    4e50:	b8 2e       	mov	r11, r24
    4e52:	09 c0       	rjmp	.+18     	; 0x4e66 <vfprintf+0x26c>
    4e54:	24 ff       	sbrs	r18, 4
    4e56:	0a c0       	rjmp	.+20     	; 0x4e6c <vfprintf+0x272>
    4e58:	9f 2f       	mov	r25, r31
    4e5a:	96 60       	ori	r25, 0x06	; 6
    4e5c:	b9 2e       	mov	r11, r25
    4e5e:	06 c0       	rjmp	.+12     	; 0x4e6c <vfprintf+0x272>
    4e60:	28 e0       	ldi	r18, 0x08	; 8
    4e62:	30 e0       	ldi	r19, 0x00	; 0
    4e64:	05 c0       	rjmp	.+10     	; 0x4e70 <vfprintf+0x276>
    4e66:	20 e1       	ldi	r18, 0x10	; 16
    4e68:	30 e0       	ldi	r19, 0x00	; 0
    4e6a:	02 c0       	rjmp	.+4      	; 0x4e70 <vfprintf+0x276>
    4e6c:	20 e1       	ldi	r18, 0x10	; 16
    4e6e:	32 e0       	ldi	r19, 0x02	; 2
    4e70:	f8 01       	movw	r30, r16
    4e72:	b7 fe       	sbrs	r11, 7
    4e74:	07 c0       	rjmp	.+14     	; 0x4e84 <vfprintf+0x28a>
    4e76:	60 81       	ld	r22, Z
    4e78:	71 81       	ldd	r23, Z+1	; 0x01
    4e7a:	82 81       	ldd	r24, Z+2	; 0x02
    4e7c:	93 81       	ldd	r25, Z+3	; 0x03
    4e7e:	0c 5f       	subi	r16, 0xFC	; 252
    4e80:	1f 4f       	sbci	r17, 0xFF	; 255
    4e82:	06 c0       	rjmp	.+12     	; 0x4e90 <vfprintf+0x296>
    4e84:	60 81       	ld	r22, Z
    4e86:	71 81       	ldd	r23, Z+1	; 0x01
    4e88:	80 e0       	ldi	r24, 0x00	; 0
    4e8a:	90 e0       	ldi	r25, 0x00	; 0
    4e8c:	0e 5f       	subi	r16, 0xFE	; 254
    4e8e:	1f 4f       	sbci	r17, 0xFF	; 255
    4e90:	a4 01       	movw	r20, r8
    4e92:	e3 d0       	rcall	.+454    	; 0x505a <__ultoa_invert>
    4e94:	a8 2e       	mov	r10, r24
    4e96:	a8 18       	sub	r10, r8
    4e98:	fb 2d       	mov	r31, r11
    4e9a:	ff 77       	andi	r31, 0x7F	; 127
    4e9c:	bf 2e       	mov	r11, r31
    4e9e:	b6 fe       	sbrs	r11, 6
    4ea0:	0b c0       	rjmp	.+22     	; 0x4eb8 <vfprintf+0x2be>
    4ea2:	2b 2d       	mov	r18, r11
    4ea4:	2e 7f       	andi	r18, 0xFE	; 254
    4ea6:	a5 14       	cp	r10, r5
    4ea8:	50 f4       	brcc	.+20     	; 0x4ebe <vfprintf+0x2c4>
    4eaa:	b4 fe       	sbrs	r11, 4
    4eac:	0a c0       	rjmp	.+20     	; 0x4ec2 <vfprintf+0x2c8>
    4eae:	b2 fc       	sbrc	r11, 2
    4eb0:	08 c0       	rjmp	.+16     	; 0x4ec2 <vfprintf+0x2c8>
    4eb2:	2b 2d       	mov	r18, r11
    4eb4:	2e 7e       	andi	r18, 0xEE	; 238
    4eb6:	05 c0       	rjmp	.+10     	; 0x4ec2 <vfprintf+0x2c8>
    4eb8:	7a 2c       	mov	r7, r10
    4eba:	2b 2d       	mov	r18, r11
    4ebc:	03 c0       	rjmp	.+6      	; 0x4ec4 <vfprintf+0x2ca>
    4ebe:	7a 2c       	mov	r7, r10
    4ec0:	01 c0       	rjmp	.+2      	; 0x4ec4 <vfprintf+0x2ca>
    4ec2:	75 2c       	mov	r7, r5
    4ec4:	24 ff       	sbrs	r18, 4
    4ec6:	0d c0       	rjmp	.+26     	; 0x4ee2 <vfprintf+0x2e8>
    4ec8:	fe 01       	movw	r30, r28
    4eca:	ea 0d       	add	r30, r10
    4ecc:	f1 1d       	adc	r31, r1
    4ece:	80 81       	ld	r24, Z
    4ed0:	80 33       	cpi	r24, 0x30	; 48
    4ed2:	11 f4       	brne	.+4      	; 0x4ed8 <vfprintf+0x2de>
    4ed4:	29 7e       	andi	r18, 0xE9	; 233
    4ed6:	09 c0       	rjmp	.+18     	; 0x4eea <vfprintf+0x2f0>
    4ed8:	22 ff       	sbrs	r18, 2
    4eda:	06 c0       	rjmp	.+12     	; 0x4ee8 <vfprintf+0x2ee>
    4edc:	73 94       	inc	r7
    4ede:	73 94       	inc	r7
    4ee0:	04 c0       	rjmp	.+8      	; 0x4eea <vfprintf+0x2f0>
    4ee2:	82 2f       	mov	r24, r18
    4ee4:	86 78       	andi	r24, 0x86	; 134
    4ee6:	09 f0       	breq	.+2      	; 0x4eea <vfprintf+0x2f0>
    4ee8:	73 94       	inc	r7
    4eea:	23 fd       	sbrc	r18, 3
    4eec:	12 c0       	rjmp	.+36     	; 0x4f12 <vfprintf+0x318>
    4eee:	20 ff       	sbrs	r18, 0
    4ef0:	06 c0       	rjmp	.+12     	; 0x4efe <vfprintf+0x304>
    4ef2:	5a 2c       	mov	r5, r10
    4ef4:	73 14       	cp	r7, r3
    4ef6:	18 f4       	brcc	.+6      	; 0x4efe <vfprintf+0x304>
    4ef8:	53 0c       	add	r5, r3
    4efa:	57 18       	sub	r5, r7
    4efc:	73 2c       	mov	r7, r3
    4efe:	73 14       	cp	r7, r3
    4f00:	60 f4       	brcc	.+24     	; 0x4f1a <vfprintf+0x320>
    4f02:	b7 01       	movw	r22, r14
    4f04:	80 e2       	ldi	r24, 0x20	; 32
    4f06:	90 e0       	ldi	r25, 0x00	; 0
    4f08:	2c 87       	std	Y+12, r18	; 0x0c
    4f0a:	75 d0       	rcall	.+234    	; 0x4ff6 <fputc>
    4f0c:	73 94       	inc	r7
    4f0e:	2c 85       	ldd	r18, Y+12	; 0x0c
    4f10:	f6 cf       	rjmp	.-20     	; 0x4efe <vfprintf+0x304>
    4f12:	73 14       	cp	r7, r3
    4f14:	10 f4       	brcc	.+4      	; 0x4f1a <vfprintf+0x320>
    4f16:	37 18       	sub	r3, r7
    4f18:	01 c0       	rjmp	.+2      	; 0x4f1c <vfprintf+0x322>
    4f1a:	31 2c       	mov	r3, r1
    4f1c:	24 ff       	sbrs	r18, 4
    4f1e:	11 c0       	rjmp	.+34     	; 0x4f42 <vfprintf+0x348>
    4f20:	b7 01       	movw	r22, r14
    4f22:	80 e3       	ldi	r24, 0x30	; 48
    4f24:	90 e0       	ldi	r25, 0x00	; 0
    4f26:	2c 87       	std	Y+12, r18	; 0x0c
    4f28:	66 d0       	rcall	.+204    	; 0x4ff6 <fputc>
    4f2a:	2c 85       	ldd	r18, Y+12	; 0x0c
    4f2c:	22 ff       	sbrs	r18, 2
    4f2e:	16 c0       	rjmp	.+44     	; 0x4f5c <vfprintf+0x362>
    4f30:	21 ff       	sbrs	r18, 1
    4f32:	03 c0       	rjmp	.+6      	; 0x4f3a <vfprintf+0x340>
    4f34:	88 e5       	ldi	r24, 0x58	; 88
    4f36:	90 e0       	ldi	r25, 0x00	; 0
    4f38:	02 c0       	rjmp	.+4      	; 0x4f3e <vfprintf+0x344>
    4f3a:	88 e7       	ldi	r24, 0x78	; 120
    4f3c:	90 e0       	ldi	r25, 0x00	; 0
    4f3e:	b7 01       	movw	r22, r14
    4f40:	0c c0       	rjmp	.+24     	; 0x4f5a <vfprintf+0x360>
    4f42:	82 2f       	mov	r24, r18
    4f44:	86 78       	andi	r24, 0x86	; 134
    4f46:	51 f0       	breq	.+20     	; 0x4f5c <vfprintf+0x362>
    4f48:	21 fd       	sbrc	r18, 1
    4f4a:	02 c0       	rjmp	.+4      	; 0x4f50 <vfprintf+0x356>
    4f4c:	80 e2       	ldi	r24, 0x20	; 32
    4f4e:	01 c0       	rjmp	.+2      	; 0x4f52 <vfprintf+0x358>
    4f50:	8b e2       	ldi	r24, 0x2B	; 43
    4f52:	27 fd       	sbrc	r18, 7
    4f54:	8d e2       	ldi	r24, 0x2D	; 45
    4f56:	b7 01       	movw	r22, r14
    4f58:	90 e0       	ldi	r25, 0x00	; 0
    4f5a:	4d d0       	rcall	.+154    	; 0x4ff6 <fputc>
    4f5c:	a5 14       	cp	r10, r5
    4f5e:	30 f4       	brcc	.+12     	; 0x4f6c <vfprintf+0x372>
    4f60:	b7 01       	movw	r22, r14
    4f62:	80 e3       	ldi	r24, 0x30	; 48
    4f64:	90 e0       	ldi	r25, 0x00	; 0
    4f66:	47 d0       	rcall	.+142    	; 0x4ff6 <fputc>
    4f68:	5a 94       	dec	r5
    4f6a:	f8 cf       	rjmp	.-16     	; 0x4f5c <vfprintf+0x362>
    4f6c:	aa 94       	dec	r10
    4f6e:	f4 01       	movw	r30, r8
    4f70:	ea 0d       	add	r30, r10
    4f72:	f1 1d       	adc	r31, r1
    4f74:	80 81       	ld	r24, Z
    4f76:	b7 01       	movw	r22, r14
    4f78:	90 e0       	ldi	r25, 0x00	; 0
    4f7a:	3d d0       	rcall	.+122    	; 0x4ff6 <fputc>
    4f7c:	a1 10       	cpse	r10, r1
    4f7e:	f6 cf       	rjmp	.-20     	; 0x4f6c <vfprintf+0x372>
    4f80:	33 20       	and	r3, r3
    4f82:	09 f4       	brne	.+2      	; 0x4f86 <vfprintf+0x38c>
    4f84:	5d ce       	rjmp	.-838    	; 0x4c40 <vfprintf+0x46>
    4f86:	b7 01       	movw	r22, r14
    4f88:	80 e2       	ldi	r24, 0x20	; 32
    4f8a:	90 e0       	ldi	r25, 0x00	; 0
    4f8c:	34 d0       	rcall	.+104    	; 0x4ff6 <fputc>
    4f8e:	3a 94       	dec	r3
    4f90:	f7 cf       	rjmp	.-18     	; 0x4f80 <vfprintf+0x386>
    4f92:	f7 01       	movw	r30, r14
    4f94:	86 81       	ldd	r24, Z+6	; 0x06
    4f96:	97 81       	ldd	r25, Z+7	; 0x07
    4f98:	02 c0       	rjmp	.+4      	; 0x4f9e <vfprintf+0x3a4>
    4f9a:	8f ef       	ldi	r24, 0xFF	; 255
    4f9c:	9f ef       	ldi	r25, 0xFF	; 255
    4f9e:	2c 96       	adiw	r28, 0x0c	; 12
    4fa0:	cd bf       	out	0x3d, r28	; 61
    4fa2:	de bf       	out	0x3e, r29	; 62
    4fa4:	df 91       	pop	r29
    4fa6:	cf 91       	pop	r28
    4fa8:	1f 91       	pop	r17
    4faa:	0f 91       	pop	r16
    4fac:	ff 90       	pop	r15
    4fae:	ef 90       	pop	r14
    4fb0:	df 90       	pop	r13
    4fb2:	cf 90       	pop	r12
    4fb4:	bf 90       	pop	r11
    4fb6:	af 90       	pop	r10
    4fb8:	9f 90       	pop	r9
    4fba:	8f 90       	pop	r8
    4fbc:	7f 90       	pop	r7
    4fbe:	6f 90       	pop	r6
    4fc0:	5f 90       	pop	r5
    4fc2:	4f 90       	pop	r4
    4fc4:	3f 90       	pop	r3
    4fc6:	2f 90       	pop	r2
    4fc8:	08 95       	ret

00004fca <strnlen_P>:
    4fca:	fc 01       	movw	r30, r24
    4fcc:	05 90       	lpm	r0, Z+
    4fce:	61 50       	subi	r22, 0x01	; 1
    4fd0:	70 40       	sbci	r23, 0x00	; 0
    4fd2:	01 10       	cpse	r0, r1
    4fd4:	d8 f7       	brcc	.-10     	; 0x4fcc <strnlen_P+0x2>
    4fd6:	80 95       	com	r24
    4fd8:	90 95       	com	r25
    4fda:	8e 0f       	add	r24, r30
    4fdc:	9f 1f       	adc	r25, r31
    4fde:	08 95       	ret

00004fe0 <strnlen>:
    4fe0:	fc 01       	movw	r30, r24
    4fe2:	61 50       	subi	r22, 0x01	; 1
    4fe4:	70 40       	sbci	r23, 0x00	; 0
    4fe6:	01 90       	ld	r0, Z+
    4fe8:	01 10       	cpse	r0, r1
    4fea:	d8 f7       	brcc	.-10     	; 0x4fe2 <strnlen+0x2>
    4fec:	80 95       	com	r24
    4fee:	90 95       	com	r25
    4ff0:	8e 0f       	add	r24, r30
    4ff2:	9f 1f       	adc	r25, r31
    4ff4:	08 95       	ret

00004ff6 <fputc>:
    4ff6:	0f 93       	push	r16
    4ff8:	1f 93       	push	r17
    4ffa:	cf 93       	push	r28
    4ffc:	df 93       	push	r29
    4ffe:	18 2f       	mov	r17, r24
    5000:	09 2f       	mov	r16, r25
    5002:	eb 01       	movw	r28, r22
    5004:	8b 81       	ldd	r24, Y+3	; 0x03
    5006:	81 fd       	sbrc	r24, 1
    5008:	03 c0       	rjmp	.+6      	; 0x5010 <fputc+0x1a>
    500a:	8f ef       	ldi	r24, 0xFF	; 255
    500c:	9f ef       	ldi	r25, 0xFF	; 255
    500e:	20 c0       	rjmp	.+64     	; 0x5050 <fputc+0x5a>
    5010:	82 ff       	sbrs	r24, 2
    5012:	10 c0       	rjmp	.+32     	; 0x5034 <fputc+0x3e>
    5014:	4e 81       	ldd	r20, Y+6	; 0x06
    5016:	5f 81       	ldd	r21, Y+7	; 0x07
    5018:	2c 81       	ldd	r18, Y+4	; 0x04
    501a:	3d 81       	ldd	r19, Y+5	; 0x05
    501c:	42 17       	cp	r20, r18
    501e:	53 07       	cpc	r21, r19
    5020:	7c f4       	brge	.+30     	; 0x5040 <fputc+0x4a>
    5022:	e8 81       	ld	r30, Y
    5024:	f9 81       	ldd	r31, Y+1	; 0x01
    5026:	9f 01       	movw	r18, r30
    5028:	2f 5f       	subi	r18, 0xFF	; 255
    502a:	3f 4f       	sbci	r19, 0xFF	; 255
    502c:	28 83       	st	Y, r18
    502e:	39 83       	std	Y+1, r19	; 0x01
    5030:	10 83       	st	Z, r17
    5032:	06 c0       	rjmp	.+12     	; 0x5040 <fputc+0x4a>
    5034:	e8 85       	ldd	r30, Y+8	; 0x08
    5036:	f9 85       	ldd	r31, Y+9	; 0x09
    5038:	81 2f       	mov	r24, r17
    503a:	19 95       	eicall
    503c:	89 2b       	or	r24, r25
    503e:	29 f7       	brne	.-54     	; 0x500a <fputc+0x14>
    5040:	2e 81       	ldd	r18, Y+6	; 0x06
    5042:	3f 81       	ldd	r19, Y+7	; 0x07
    5044:	2f 5f       	subi	r18, 0xFF	; 255
    5046:	3f 4f       	sbci	r19, 0xFF	; 255
    5048:	2e 83       	std	Y+6, r18	; 0x06
    504a:	3f 83       	std	Y+7, r19	; 0x07
    504c:	81 2f       	mov	r24, r17
    504e:	90 2f       	mov	r25, r16
    5050:	df 91       	pop	r29
    5052:	cf 91       	pop	r28
    5054:	1f 91       	pop	r17
    5056:	0f 91       	pop	r16
    5058:	08 95       	ret

0000505a <__ultoa_invert>:
    505a:	fa 01       	movw	r30, r20
    505c:	aa 27       	eor	r26, r26
    505e:	28 30       	cpi	r18, 0x08	; 8
    5060:	51 f1       	breq	.+84     	; 0x50b6 <__ultoa_invert+0x5c>
    5062:	20 31       	cpi	r18, 0x10	; 16
    5064:	81 f1       	breq	.+96     	; 0x50c6 <__ultoa_invert+0x6c>
    5066:	e8 94       	clt
    5068:	6f 93       	push	r22
    506a:	6e 7f       	andi	r22, 0xFE	; 254
    506c:	6e 5f       	subi	r22, 0xFE	; 254
    506e:	7f 4f       	sbci	r23, 0xFF	; 255
    5070:	8f 4f       	sbci	r24, 0xFF	; 255
    5072:	9f 4f       	sbci	r25, 0xFF	; 255
    5074:	af 4f       	sbci	r26, 0xFF	; 255
    5076:	b1 e0       	ldi	r27, 0x01	; 1
    5078:	3e d0       	rcall	.+124    	; 0x50f6 <__ultoa_invert+0x9c>
    507a:	b4 e0       	ldi	r27, 0x04	; 4
    507c:	3c d0       	rcall	.+120    	; 0x50f6 <__ultoa_invert+0x9c>
    507e:	67 0f       	add	r22, r23
    5080:	78 1f       	adc	r23, r24
    5082:	89 1f       	adc	r24, r25
    5084:	9a 1f       	adc	r25, r26
    5086:	a1 1d       	adc	r26, r1
    5088:	68 0f       	add	r22, r24
    508a:	79 1f       	adc	r23, r25
    508c:	8a 1f       	adc	r24, r26
    508e:	91 1d       	adc	r25, r1
    5090:	a1 1d       	adc	r26, r1
    5092:	6a 0f       	add	r22, r26
    5094:	71 1d       	adc	r23, r1
    5096:	81 1d       	adc	r24, r1
    5098:	91 1d       	adc	r25, r1
    509a:	a1 1d       	adc	r26, r1
    509c:	20 d0       	rcall	.+64     	; 0x50de <__ultoa_invert+0x84>
    509e:	09 f4       	brne	.+2      	; 0x50a2 <__ultoa_invert+0x48>
    50a0:	68 94       	set
    50a2:	3f 91       	pop	r19
    50a4:	2a e0       	ldi	r18, 0x0A	; 10
    50a6:	26 9f       	mul	r18, r22
    50a8:	11 24       	eor	r1, r1
    50aa:	30 19       	sub	r19, r0
    50ac:	30 5d       	subi	r19, 0xD0	; 208
    50ae:	31 93       	st	Z+, r19
    50b0:	de f6       	brtc	.-74     	; 0x5068 <__ultoa_invert+0xe>
    50b2:	cf 01       	movw	r24, r30
    50b4:	08 95       	ret
    50b6:	46 2f       	mov	r20, r22
    50b8:	47 70       	andi	r20, 0x07	; 7
    50ba:	40 5d       	subi	r20, 0xD0	; 208
    50bc:	41 93       	st	Z+, r20
    50be:	b3 e0       	ldi	r27, 0x03	; 3
    50c0:	0f d0       	rcall	.+30     	; 0x50e0 <__ultoa_invert+0x86>
    50c2:	c9 f7       	brne	.-14     	; 0x50b6 <__ultoa_invert+0x5c>
    50c4:	f6 cf       	rjmp	.-20     	; 0x50b2 <__ultoa_invert+0x58>
    50c6:	46 2f       	mov	r20, r22
    50c8:	4f 70       	andi	r20, 0x0F	; 15
    50ca:	40 5d       	subi	r20, 0xD0	; 208
    50cc:	4a 33       	cpi	r20, 0x3A	; 58
    50ce:	18 f0       	brcs	.+6      	; 0x50d6 <__ultoa_invert+0x7c>
    50d0:	49 5d       	subi	r20, 0xD9	; 217
    50d2:	31 fd       	sbrc	r19, 1
    50d4:	40 52       	subi	r20, 0x20	; 32
    50d6:	41 93       	st	Z+, r20
    50d8:	02 d0       	rcall	.+4      	; 0x50de <__ultoa_invert+0x84>
    50da:	a9 f7       	brne	.-22     	; 0x50c6 <__ultoa_invert+0x6c>
    50dc:	ea cf       	rjmp	.-44     	; 0x50b2 <__ultoa_invert+0x58>
    50de:	b4 e0       	ldi	r27, 0x04	; 4
    50e0:	a6 95       	lsr	r26
    50e2:	97 95       	ror	r25
    50e4:	87 95       	ror	r24
    50e6:	77 95       	ror	r23
    50e8:	67 95       	ror	r22
    50ea:	ba 95       	dec	r27
    50ec:	c9 f7       	brne	.-14     	; 0x50e0 <__ultoa_invert+0x86>
    50ee:	00 97       	sbiw	r24, 0x00	; 0
    50f0:	61 05       	cpc	r22, r1
    50f2:	71 05       	cpc	r23, r1
    50f4:	08 95       	ret
    50f6:	9b 01       	movw	r18, r22
    50f8:	ac 01       	movw	r20, r24
    50fa:	0a 2e       	mov	r0, r26
    50fc:	06 94       	lsr	r0
    50fe:	57 95       	ror	r21
    5100:	47 95       	ror	r20
    5102:	37 95       	ror	r19
    5104:	27 95       	ror	r18
    5106:	ba 95       	dec	r27
    5108:	c9 f7       	brne	.-14     	; 0x50fc <__ultoa_invert+0xa2>
    510a:	62 0f       	add	r22, r18
    510c:	73 1f       	adc	r23, r19
    510e:	84 1f       	adc	r24, r20
    5110:	95 1f       	adc	r25, r21
    5112:	a0 1d       	adc	r26, r0
    5114:	08 95       	ret

00005116 <_exit>:
    5116:	f8 94       	cli

00005118 <__stop_program>:
    5118:	ff cf       	rjmp	.-2      	; 0x5118 <__stop_program>
