
base1.elf:     file format elf32-avr

Sections:
Idx Name          Size      VMA       LMA       File off  Algn
  0 .text         00005472  00000000  00000000  00000094  2**1
                  CONTENTS, ALLOC, LOAD, READONLY, CODE
  1 .data         00000048  00802000  00005472  00005506  2**0
                  CONTENTS, ALLOC, LOAD, DATA
  2 .bss          000003de  00802048  00802048  0000554e  2**0
                  ALLOC
  3 .comment      0000005c  00000000  00000000  0000554e  2**0
                  CONTENTS, READONLY
  4 .debug_aranges 000007c8  00000000  00000000  000055b0  2**3
                  CONTENTS, READONLY, DEBUGGING
  5 .debug_info   0000c3ef  00000000  00000000  00005d78  2**0
                  CONTENTS, READONLY, DEBUGGING
  6 .debug_abbrev 000020fa  00000000  00000000  00012167  2**0
                  CONTENTS, READONLY, DEBUGGING
  7 .debug_line   00008681  00000000  00000000  00014261  2**0
                  CONTENTS, READONLY, DEBUGGING
  8 .debug_frame  00002090  00000000  00000000  0001c8e4  2**2
                  CONTENTS, READONLY, DEBUGGING
  9 .debug_str    00026593  00000000  00000000  0001e974  2**0
                  CONTENTS, READONLY, DEBUGGING
 10 .debug_loc    000072b2  00000000  00000000  00044f07  2**0
                  CONTENTS, READONLY, DEBUGGING
 11 .debug_ranges 000006a8  00000000  00000000  0004c1c0  2**3
                  CONTENTS, READONLY, DEBUGGING
 12 .debug_macro  0000ad84  00000000  00000000  0004c868  2**0
                  CONTENTS, READONLY, DEBUGGING

Disassembly of section .text:

00000000 <__vectors>:
       0:	f9 c0       	rjmp	.+498    	; 0x1f4 <__ctors_end>
       2:	00 00       	nop
       4:	1d c1       	rjmp	.+570    	; 0x240 <__bad_interrupt>
       6:	00 00       	nop
       8:	0c 94 22 17 	jmp	0x2e44	; 0x2e44 <__vector_2>
       c:	19 c1       	rjmp	.+562    	; 0x240 <__bad_interrupt>
       e:	00 00       	nop
      10:	17 c1       	rjmp	.+558    	; 0x240 <__bad_interrupt>
      12:	00 00       	nop
      14:	15 c1       	rjmp	.+554    	; 0x240 <__bad_interrupt>
      16:	00 00       	nop
      18:	13 c1       	rjmp	.+550    	; 0x240 <__bad_interrupt>
      1a:	00 00       	nop
      1c:	11 c1       	rjmp	.+546    	; 0x240 <__bad_interrupt>
      1e:	00 00       	nop
      20:	0f c1       	rjmp	.+542    	; 0x240 <__bad_interrupt>
      22:	00 00       	nop
      24:	0d c1       	rjmp	.+538    	; 0x240 <__bad_interrupt>
      26:	00 00       	nop
      28:	0b c1       	rjmp	.+534    	; 0x240 <__bad_interrupt>
      2a:	00 00       	nop
      2c:	09 c1       	rjmp	.+530    	; 0x240 <__bad_interrupt>
      2e:	00 00       	nop
      30:	07 c1       	rjmp	.+526    	; 0x240 <__bad_interrupt>
      32:	00 00       	nop
      34:	05 c1       	rjmp	.+522    	; 0x240 <__bad_interrupt>
      36:	00 00       	nop
      38:	44 c5       	rjmp	.+2696   	; 0xac2 <__vector_14>
      3a:	00 00       	nop
      3c:	7a c5       	rjmp	.+2804   	; 0xb32 <__vector_15>
      3e:	00 00       	nop
      40:	b0 c5       	rjmp	.+2912   	; 0xba2 <__vector_16>
      42:	00 00       	nop
      44:	e6 c5       	rjmp	.+3020   	; 0xc12 <__vector_17>
      46:	00 00       	nop
      48:	1c c6       	rjmp	.+3128   	; 0xc82 <__vector_18>
      4a:	00 00       	nop
      4c:	52 c6       	rjmp	.+3236   	; 0xcf2 <__vector_19>
      4e:	00 00       	nop
      50:	88 c6       	rjmp	.+3344   	; 0xd62 <__vector_20>
      52:	00 00       	nop
      54:	be c6       	rjmp	.+3452   	; 0xdd2 <__vector_21>
      56:	00 00       	nop
      58:	f4 c6       	rjmp	.+3560   	; 0xe42 <__vector_22>
      5a:	00 00       	nop
      5c:	2a c7       	rjmp	.+3668   	; 0xeb2 <__vector_23>
      5e:	00 00       	nop
      60:	ef c0       	rjmp	.+478    	; 0x240 <__bad_interrupt>
      62:	00 00       	nop
      64:	ed c0       	rjmp	.+474    	; 0x240 <__bad_interrupt>
      66:	00 00       	nop
      68:	eb c0       	rjmp	.+470    	; 0x240 <__bad_interrupt>
      6a:	00 00       	nop
      6c:	e9 c0       	rjmp	.+466    	; 0x240 <__bad_interrupt>
      6e:	00 00       	nop
      70:	e7 c0       	rjmp	.+462    	; 0x240 <__bad_interrupt>
      72:	00 00       	nop
      74:	e5 c0       	rjmp	.+458    	; 0x240 <__bad_interrupt>
      76:	00 00       	nop
      78:	e3 c0       	rjmp	.+454    	; 0x240 <__bad_interrupt>
      7a:	00 00       	nop
      7c:	e1 c0       	rjmp	.+450    	; 0x240 <__bad_interrupt>
      7e:	00 00       	nop
      80:	df c0       	rjmp	.+446    	; 0x240 <__bad_interrupt>
      82:	00 00       	nop
      84:	dd c0       	rjmp	.+442    	; 0x240 <__bad_interrupt>
      86:	00 00       	nop
      88:	db c0       	rjmp	.+438    	; 0x240 <__bad_interrupt>
      8a:	00 00       	nop
      8c:	d9 c0       	rjmp	.+434    	; 0x240 <__bad_interrupt>
      8e:	00 00       	nop
      90:	d7 c0       	rjmp	.+430    	; 0x240 <__bad_interrupt>
      92:	00 00       	nop
      94:	d5 c0       	rjmp	.+426    	; 0x240 <__bad_interrupt>
      96:	00 00       	nop
      98:	d3 c0       	rjmp	.+422    	; 0x240 <__bad_interrupt>
      9a:	00 00       	nop
      9c:	d1 c0       	rjmp	.+418    	; 0x240 <__bad_interrupt>
      9e:	00 00       	nop
      a0:	cf c0       	rjmp	.+414    	; 0x240 <__bad_interrupt>
      a2:	00 00       	nop
      a4:	cd c0       	rjmp	.+410    	; 0x240 <__bad_interrupt>
      a6:	00 00       	nop
      a8:	cb c0       	rjmp	.+406    	; 0x240 <__bad_interrupt>
      aa:	00 00       	nop
      ac:	0c 94 d9 10 	jmp	0x21b2	; 0x21b2 <__vector_43>
      b0:	c7 c0       	rjmp	.+398    	; 0x240 <__bad_interrupt>
      b2:	00 00       	nop
      b4:	c5 c0       	rjmp	.+394    	; 0x240 <__bad_interrupt>
      b6:	00 00       	nop
      b8:	c3 c0       	rjmp	.+390    	; 0x240 <__bad_interrupt>
      ba:	00 00       	nop
      bc:	0c 94 89 09 	jmp	0x1312	; 0x1312 <__vector_47>
      c0:	0c 94 c1 09 	jmp	0x1382	; 0x1382 <__vector_48>
      c4:	0c 94 f9 09 	jmp	0x13f2	; 0x13f2 <__vector_49>
      c8:	0c 94 31 0a 	jmp	0x1462	; 0x1462 <__vector_50>
      cc:	0c 94 69 0a 	jmp	0x14d2	; 0x14d2 <__vector_51>
      d0:	0c 94 a1 0a 	jmp	0x1542	; 0x1542 <__vector_52>
      d4:	0c 94 d9 0a 	jmp	0x15b2	; 0x15b2 <__vector_53>
      d8:	0c 94 11 0b 	jmp	0x1622	; 0x1622 <__vector_54>
      dc:	0c 94 49 0b 	jmp	0x1692	; 0x1692 <__vector_55>
      e0:	0c 94 81 0b 	jmp	0x1702	; 0x1702 <__vector_56>
      e4:	ad c0       	rjmp	.+346    	; 0x240 <__bad_interrupt>
      e6:	00 00       	nop
      e8:	ab c0       	rjmp	.+342    	; 0x240 <__bad_interrupt>
      ea:	00 00       	nop
      ec:	a9 c0       	rjmp	.+338    	; 0x240 <__bad_interrupt>
      ee:	00 00       	nop
      f0:	a7 c0       	rjmp	.+334    	; 0x240 <__bad_interrupt>
      f2:	00 00       	nop
      f4:	a5 c0       	rjmp	.+330    	; 0x240 <__bad_interrupt>
      f6:	00 00       	nop
      f8:	a3 c0       	rjmp	.+326    	; 0x240 <__bad_interrupt>
      fa:	00 00       	nop
      fc:	a1 c0       	rjmp	.+322    	; 0x240 <__bad_interrupt>
      fe:	00 00       	nop
     100:	9f c0       	rjmp	.+318    	; 0x240 <__bad_interrupt>
     102:	00 00       	nop
     104:	9d c0       	rjmp	.+314    	; 0x240 <__bad_interrupt>
     106:	00 00       	nop
     108:	9b c0       	rjmp	.+310    	; 0x240 <__bad_interrupt>
     10a:	00 00       	nop
     10c:	99 c0       	rjmp	.+306    	; 0x240 <__bad_interrupt>
     10e:	00 00       	nop
     110:	97 c0       	rjmp	.+302    	; 0x240 <__bad_interrupt>
     112:	00 00       	nop
     114:	95 c0       	rjmp	.+298    	; 0x240 <__bad_interrupt>
     116:	00 00       	nop
     118:	93 c0       	rjmp	.+294    	; 0x240 <__bad_interrupt>
     11a:	00 00       	nop
     11c:	91 c0       	rjmp	.+290    	; 0x240 <__bad_interrupt>
     11e:	00 00       	nop
     120:	8f c0       	rjmp	.+286    	; 0x240 <__bad_interrupt>
     122:	00 00       	nop
     124:	8d c0       	rjmp	.+282    	; 0x240 <__bad_interrupt>
     126:	00 00       	nop
     128:	8b c0       	rjmp	.+278    	; 0x240 <__bad_interrupt>
     12a:	00 00       	nop
     12c:	89 c0       	rjmp	.+274    	; 0x240 <__bad_interrupt>
     12e:	00 00       	nop
     130:	87 c0       	rjmp	.+270    	; 0x240 <__bad_interrupt>
     132:	00 00       	nop
     134:	0c 94 43 15 	jmp	0x2a86	; 0x2a86 <__vector_77>
     138:	f4 c6       	rjmp	.+3560   	; 0xf22 <__vector_78>
     13a:	00 00       	nop
     13c:	2a c7       	rjmp	.+3668   	; 0xf92 <__vector_79>
     13e:	00 00       	nop
     140:	60 c7       	rjmp	.+3776   	; 0x1002 <__vector_80>
     142:	00 00       	nop
     144:	96 c7       	rjmp	.+3884   	; 0x1072 <__vector_81>
     146:	00 00       	nop
     148:	cc c7       	rjmp	.+3992   	; 0x10e2 <__vector_82>
     14a:	00 00       	nop
     14c:	0c 94 a9 08 	jmp	0x1152	; 0x1152 <__vector_83>
     150:	0c 94 e1 08 	jmp	0x11c2	; 0x11c2 <__vector_84>
     154:	0c 94 19 09 	jmp	0x1232	; 0x1232 <__vector_85>
     158:	0c 94 51 09 	jmp	0x12a2	; 0x12a2 <__vector_86>
     15c:	71 c0       	rjmp	.+226    	; 0x240 <__bad_interrupt>
     15e:	00 00       	nop
     160:	6f c0       	rjmp	.+222    	; 0x240 <__bad_interrupt>
     162:	00 00       	nop
     164:	6d c0       	rjmp	.+218    	; 0x240 <__bad_interrupt>
     166:	00 00       	nop
     168:	6b c0       	rjmp	.+214    	; 0x240 <__bad_interrupt>
     16a:	00 00       	nop
     16c:	69 c0       	rjmp	.+210    	; 0x240 <__bad_interrupt>
     16e:	00 00       	nop
     170:	67 c0       	rjmp	.+206    	; 0x240 <__bad_interrupt>
     172:	00 00       	nop
     174:	65 c0       	rjmp	.+202    	; 0x240 <__bad_interrupt>
     176:	00 00       	nop
     178:	0c 94 ce 16 	jmp	0x2d9c	; 0x2d9c <__vector_94>
     17c:	0c 94 4c 17 	jmp	0x2e98	; 0x2e98 <__vector_95>
     180:	0c 94 f8 16 	jmp	0x2df0	; 0x2df0 <__vector_96>
     184:	0c 94 76 17 	jmp	0x2eec	; 0x2eec <__vector_97>
     188:	5b c0       	rjmp	.+182    	; 0x240 <__bad_interrupt>
     18a:	00 00       	nop
     18c:	59 c0       	rjmp	.+178    	; 0x240 <__bad_interrupt>
     18e:	00 00       	nop
     190:	0c 94 85 17 	jmp	0x2f0a	; 0x2f0a <__vector_100>
     194:	55 c0       	rjmp	.+170    	; 0x240 <__bad_interrupt>
     196:	00 00       	nop
     198:	53 c0       	rjmp	.+166    	; 0x240 <__bad_interrupt>
     19a:	00 00       	nop
     19c:	51 c0       	rjmp	.+162    	; 0x240 <__bad_interrupt>
     19e:	00 00       	nop
     1a0:	0c 94 bf 16 	jmp	0x2d7e	; 0x2d7e <__vector_104>
     1a4:	4d c0       	rjmp	.+154    	; 0x240 <__bad_interrupt>
     1a6:	00 00       	nop
     1a8:	4b c0       	rjmp	.+150    	; 0x240 <__bad_interrupt>
     1aa:	00 00       	nop
     1ac:	49 c0       	rjmp	.+146    	; 0x240 <__bad_interrupt>
     1ae:	00 00       	nop
     1b0:	0c 94 b9 0b 	jmp	0x1772	; 0x1772 <__vector_108>
     1b4:	0c 94 f1 0b 	jmp	0x17e2	; 0x17e2 <__vector_109>
     1b8:	0c 94 29 0c 	jmp	0x1852	; 0x1852 <__vector_110>
     1bc:	0c 94 61 0c 	jmp	0x18c2	; 0x18c2 <__vector_111>
     1c0:	0c 94 99 0c 	jmp	0x1932	; 0x1932 <__vector_112>
     1c4:	0c 94 d1 0c 	jmp	0x19a2	; 0x19a2 <__vector_113>
     1c8:	0c 94 09 0d 	jmp	0x1a12	; 0x1a12 <__vector_114>
     1cc:	0c 94 41 0d 	jmp	0x1a82	; 0x1a82 <__vector_115>
     1d0:	0c 94 79 0d 	jmp	0x1af2	; 0x1af2 <__vector_116>
     1d4:	0c 94 b1 0d 	jmp	0x1b62	; 0x1b62 <__vector_117>
     1d8:	33 c0       	rjmp	.+102    	; 0x240 <__bad_interrupt>
     1da:	00 00       	nop
     1dc:	0c 94 3b 23 	jmp	0x4676	; 0x4676 <__vector_119>
     1e0:	2f c0       	rjmp	.+94     	; 0x240 <__bad_interrupt>
     1e2:	00 00       	nop
     1e4:	2d c0       	rjmp	.+90     	; 0x240 <__bad_interrupt>
     1e6:	00 00       	nop
     1e8:	0c 94 a7 23 	jmp	0x474e	; 0x474e <__vector_122>
     1ec:	29 c0       	rjmp	.+82     	; 0x240 <__bad_interrupt>
     1ee:	00 00       	nop
     1f0:	27 c0       	rjmp	.+78     	; 0x240 <__bad_interrupt>
	...

000001f4 <__ctors_end>:
     1f4:	11 24       	eor	r1, r1
     1f6:	1f be       	out	0x3f, r1	; 63
     1f8:	cf ef       	ldi	r28, 0xFF	; 255
     1fa:	cd bf       	out	0x3d, r28	; 61
     1fc:	df e3       	ldi	r29, 0x3F	; 63
     1fe:	de bf       	out	0x3e, r29	; 62
     200:	00 e0       	ldi	r16, 0x00	; 0
     202:	0c bf       	out	0x3c, r16	; 60
     204:	18 be       	out	0x38, r1	; 56
     206:	19 be       	out	0x39, r1	; 57
     208:	1a be       	out	0x3a, r1	; 58
     20a:	1b be       	out	0x3b, r1	; 59

0000020c <__do_copy_data>:
     20c:	10 e2       	ldi	r17, 0x20	; 32
     20e:	a0 e0       	ldi	r26, 0x00	; 0
     210:	b0 e2       	ldi	r27, 0x20	; 32
     212:	e2 e7       	ldi	r30, 0x72	; 114
     214:	f4 e5       	ldi	r31, 0x54	; 84
     216:	00 e0       	ldi	r16, 0x00	; 0
     218:	0b bf       	out	0x3b, r16	; 59
     21a:	02 c0       	rjmp	.+4      	; 0x220 <__do_copy_data+0x14>
     21c:	07 90       	elpm	r0, Z+
     21e:	0d 92       	st	X+, r0
     220:	a8 34       	cpi	r26, 0x48	; 72
     222:	b1 07       	cpc	r27, r17
     224:	d9 f7       	brne	.-10     	; 0x21c <__do_copy_data+0x10>
     226:	1b be       	out	0x3b, r1	; 59

00000228 <__do_clear_bss>:
     228:	24 e2       	ldi	r18, 0x24	; 36
     22a:	a8 e4       	ldi	r26, 0x48	; 72
     22c:	b0 e2       	ldi	r27, 0x20	; 32
     22e:	01 c0       	rjmp	.+2      	; 0x232 <.do_clear_bss_start>

00000230 <.do_clear_bss_loop>:
     230:	1d 92       	st	X+, r1

00000232 <.do_clear_bss_start>:
     232:	a6 32       	cpi	r26, 0x26	; 38
     234:	b2 07       	cpc	r27, r18
     236:	e1 f7       	brne	.-8      	; 0x230 <.do_clear_bss_loop>
     238:	0e 94 fe 17 	call	0x2ffc	; 0x2ffc <main>
     23c:	0c 94 37 2a 	jmp	0x546e	; 0x546e <_exit>

00000240 <__bad_interrupt>:
     240:	df ce       	rjmp	.-578    	; 0x0 <__vectors>

00000242 <LCDDataLines>:
}
void LCDStringFlash(char *data)	
{ 
 char k;
 while (k=*data++) LCDSendData(k);
}
     242:	e4 e2       	ldi	r30, 0x24	; 36
     244:	f6 e0       	ldi	r31, 0x06	; 6
     246:	90 81       	ld	r25, Z
     248:	a8 2f       	mov	r26, r24
     24a:	a1 70       	andi	r26, 0x01	; 1
     24c:	b0 e0       	ldi	r27, 0x00	; 0
     24e:	aa 0f       	add	r26, r26
     250:	bb 1f       	adc	r27, r27
     252:	aa 0f       	add	r26, r26
     254:	bb 1f       	adc	r27, r27
     256:	9b 7f       	andi	r25, 0xFB	; 251
     258:	a9 2b       	or	r26, r25
     25a:	a0 83       	st	Z, r26
     25c:	90 81       	ld	r25, Z
     25e:	81 fb       	bst	r24, 1
     260:	66 27       	eor	r22, r22
     262:	60 f9       	bld	r22, 0
     264:	70 e0       	ldi	r23, 0x00	; 0
     266:	66 0f       	add	r22, r22
     268:	77 1f       	adc	r23, r23
     26a:	62 95       	swap	r22
     26c:	72 95       	swap	r23
     26e:	70 7f       	andi	r23, 0xF0	; 240
     270:	76 27       	eor	r23, r22
     272:	60 7f       	andi	r22, 0xF0	; 240
     274:	76 27       	eor	r23, r22
     276:	9f 7d       	andi	r25, 0xDF	; 223
     278:	69 2b       	or	r22, r25
     27a:	60 83       	st	Z, r22
     27c:	90 81       	ld	r25, Z
     27e:	82 fb       	bst	r24, 2
     280:	44 27       	eor	r20, r20
     282:	40 f9       	bld	r20, 0
     284:	50 e0       	ldi	r21, 0x00	; 0
     286:	42 95       	swap	r20
     288:	52 95       	swap	r21
     28a:	50 7f       	andi	r21, 0xF0	; 240
     28c:	54 27       	eor	r21, r20
     28e:	40 7f       	andi	r20, 0xF0	; 240
     290:	54 27       	eor	r21, r20
     292:	9f 7e       	andi	r25, 0xEF	; 239
     294:	49 2b       	or	r20, r25
     296:	40 83       	st	Z, r20
     298:	e4 e4       	ldi	r30, 0x44	; 68
     29a:	f6 e0       	ldi	r31, 0x06	; 6
     29c:	90 81       	ld	r25, Z
     29e:	83 fb       	bst	r24, 3
     2a0:	22 27       	eor	r18, r18
     2a2:	20 f9       	bld	r18, 0
     2a4:	30 e0       	ldi	r19, 0x00	; 0
     2a6:	22 0f       	add	r18, r18
     2a8:	33 1f       	adc	r19, r19
     2aa:	22 95       	swap	r18
     2ac:	32 95       	swap	r19
     2ae:	30 7f       	andi	r19, 0xF0	; 240
     2b0:	32 27       	eor	r19, r18
     2b2:	20 7f       	andi	r18, 0xF0	; 240
     2b4:	32 27       	eor	r19, r18
     2b6:	89 2f       	mov	r24, r25
     2b8:	8f 7d       	andi	r24, 0xDF	; 223
     2ba:	28 2b       	or	r18, r24
     2bc:	20 83       	st	Z, r18
     2be:	08 95       	ret

000002c0 <LCDDirOut>:
     2c0:	e0 e2       	ldi	r30, 0x20	; 32
     2c2:	f6 e0       	ldi	r31, 0x06	; 6
     2c4:	80 81       	ld	r24, Z
     2c6:	84 60       	ori	r24, 0x04	; 4
     2c8:	80 83       	st	Z, r24
     2ca:	80 81       	ld	r24, Z
     2cc:	80 62       	ori	r24, 0x20	; 32
     2ce:	80 83       	st	Z, r24
     2d0:	80 81       	ld	r24, Z
     2d2:	80 61       	ori	r24, 0x10	; 16
     2d4:	80 83       	st	Z, r24
     2d6:	e0 e4       	ldi	r30, 0x40	; 64
     2d8:	f6 e0       	ldi	r31, 0x06	; 6
     2da:	80 81       	ld	r24, Z
     2dc:	80 62       	ori	r24, 0x20	; 32
     2de:	80 83       	st	Z, r24
     2e0:	08 95       	ret

000002e2 <LCDDirIn>:
     2e2:	e0 e2       	ldi	r30, 0x20	; 32
     2e4:	f6 e0       	ldi	r31, 0x06	; 6
     2e6:	80 81       	ld	r24, Z
     2e8:	8b 7f       	andi	r24, 0xFB	; 251
     2ea:	80 83       	st	Z, r24
     2ec:	80 81       	ld	r24, Z
     2ee:	8f 7d       	andi	r24, 0xDF	; 223
     2f0:	80 83       	st	Z, r24
     2f2:	80 81       	ld	r24, Z
     2f4:	8f 7e       	andi	r24, 0xEF	; 239
     2f6:	80 83       	st	Z, r24
     2f8:	e0 e4       	ldi	r30, 0x40	; 64
     2fa:	f6 e0       	ldi	r31, 0x06	; 6
     2fc:	80 81       	ld	r24, Z
     2fe:	8f 7d       	andi	r24, 0xDF	; 223
     300:	80 83       	st	Z, r24
     302:	08 95       	ret

00000304 <LCDSendData>:
     304:	cf 93       	push	r28
     306:	c8 2f       	mov	r28, r24
     308:	8f e1       	ldi	r24, 0x1F	; 31
     30a:	93 e0       	ldi	r25, 0x03	; 3
     30c:	01 97       	sbiw	r24, 0x01	; 1
     30e:	f1 f7       	brne	.-4      	; 0x30c <LCDSendData+0x8>
     310:	00 c0       	rjmp	.+0      	; 0x312 <LCDSendData+0xe>
     312:	00 00       	nop
     314:	8c 2f       	mov	r24, r28
     316:	82 95       	swap	r24
     318:	8f 70       	andi	r24, 0x0F	; 15
     31a:	93 df       	rcall	.-218    	; 0x242 <LCDDataLines>
     31c:	e4 e2       	ldi	r30, 0x24	; 36
     31e:	f6 e0       	ldi	r31, 0x06	; 6
     320:	80 81       	ld	r24, Z
     322:	82 60       	ori	r24, 0x02	; 2
     324:	80 83       	st	Z, r24
     326:	80 81       	ld	r24, Z
     328:	88 60       	ori	r24, 0x08	; 8
     32a:	80 83       	st	Z, r24
     32c:	95 ed       	ldi	r25, 0xD5	; 213
     32e:	9a 95       	dec	r25
     330:	f1 f7       	brne	.-4      	; 0x32e <LCDSendData+0x2a>
     332:	00 00       	nop
     334:	80 81       	ld	r24, Z
     336:	87 7f       	andi	r24, 0xF7	; 247
     338:	80 83       	st	Z, r24
     33a:	85 ed       	ldi	r24, 0xD5	; 213
     33c:	8a 95       	dec	r24
     33e:	f1 f7       	brne	.-4      	; 0x33c <LCDSendData+0x38>
     340:	00 00       	nop
     342:	8c 2f       	mov	r24, r28
     344:	7e df       	rcall	.-260    	; 0x242 <LCDDataLines>
     346:	e4 e2       	ldi	r30, 0x24	; 36
     348:	f6 e0       	ldi	r31, 0x06	; 6
     34a:	80 81       	ld	r24, Z
     34c:	88 60       	ori	r24, 0x08	; 8
     34e:	80 83       	st	Z, r24
     350:	95 ed       	ldi	r25, 0xD5	; 213
     352:	9a 95       	dec	r25
     354:	f1 f7       	brne	.-4      	; 0x352 <LCDSendData+0x4e>
     356:	00 00       	nop
     358:	80 81       	ld	r24, Z
     35a:	87 7f       	andi	r24, 0xF7	; 247
     35c:	80 83       	st	Z, r24
     35e:	cf 91       	pop	r28
     360:	08 95       	ret

00000362 <LCDSendCommand>:
     362:	cf 93       	push	r28
     364:	c8 2f       	mov	r28, r24
     366:	8f ef       	ldi	r24, 0xFF	; 255
     368:	8c 0f       	add	r24, r28
     36a:	82 30       	cpi	r24, 0x02	; 2
     36c:	38 f4       	brcc	.+14     	; 0x37c <LCDSendCommand+0x1a>
     36e:	8f e3       	ldi	r24, 0x3F	; 63
     370:	9c e9       	ldi	r25, 0x9C	; 156
     372:	01 97       	sbiw	r24, 0x01	; 1
     374:	f1 f7       	brne	.-4      	; 0x372 <LCDSendCommand+0x10>
     376:	00 c0       	rjmp	.+0      	; 0x378 <LCDSendCommand+0x16>
     378:	00 00       	nop
     37a:	06 c0       	rjmp	.+12     	; 0x388 <LCDSendCommand+0x26>
     37c:	8f e3       	ldi	r24, 0x3F	; 63
     37e:	9f e1       	ldi	r25, 0x1F	; 31
     380:	01 97       	sbiw	r24, 0x01	; 1
     382:	f1 f7       	brne	.-4      	; 0x380 <LCDSendCommand+0x1e>
     384:	00 c0       	rjmp	.+0      	; 0x386 <LCDSendCommand+0x24>
     386:	00 00       	nop
     388:	8c 2f       	mov	r24, r28
     38a:	82 95       	swap	r24
     38c:	8f 70       	andi	r24, 0x0F	; 15
     38e:	59 df       	rcall	.-334    	; 0x242 <LCDDataLines>
     390:	e4 e2       	ldi	r30, 0x24	; 36
     392:	f6 e0       	ldi	r31, 0x06	; 6
     394:	80 81       	ld	r24, Z
     396:	8d 7f       	andi	r24, 0xFD	; 253
     398:	80 83       	st	Z, r24
     39a:	80 81       	ld	r24, Z
     39c:	88 60       	ori	r24, 0x08	; 8
     39e:	80 83       	st	Z, r24
     3a0:	95 ed       	ldi	r25, 0xD5	; 213
     3a2:	9a 95       	dec	r25
     3a4:	f1 f7       	brne	.-4      	; 0x3a2 <LCDSendCommand+0x40>
     3a6:	00 00       	nop
     3a8:	80 81       	ld	r24, Z
     3aa:	87 7f       	andi	r24, 0xF7	; 247
     3ac:	80 83       	st	Z, r24
     3ae:	85 ed       	ldi	r24, 0xD5	; 213
     3b0:	8a 95       	dec	r24
     3b2:	f1 f7       	brne	.-4      	; 0x3b0 <LCDSendCommand+0x4e>
     3b4:	00 00       	nop
     3b6:	8c 2f       	mov	r24, r28
     3b8:	44 df       	rcall	.-376    	; 0x242 <LCDDataLines>
     3ba:	e4 e2       	ldi	r30, 0x24	; 36
     3bc:	f6 e0       	ldi	r31, 0x06	; 6
     3be:	80 81       	ld	r24, Z
     3c0:	88 60       	ori	r24, 0x08	; 8
     3c2:	80 83       	st	Z, r24
     3c4:	95 ed       	ldi	r25, 0xD5	; 213
     3c6:	9a 95       	dec	r25
     3c8:	f1 f7       	brne	.-4      	; 0x3c6 <LCDSendCommand+0x64>
     3ca:	00 00       	nop
     3cc:	80 81       	ld	r24, Z
     3ce:	87 7f       	andi	r24, 0xF7	; 247
     3d0:	80 83       	st	Z, r24
     3d2:	cf 91       	pop	r28
     3d4:	08 95       	ret

000003d6 <LCDInit>:
     3d6:	e4 e2       	ldi	r30, 0x24	; 36
     3d8:	f6 e0       	ldi	r31, 0x06	; 6
     3da:	80 81       	ld	r24, Z
     3dc:	87 7f       	andi	r24, 0xF7	; 247
     3de:	80 83       	st	Z, r24
     3e0:	80 df       	rcall	.-256    	; 0x2e2 <LCDDirIn>
     3e2:	2f ef       	ldi	r18, 0xFF	; 255
     3e4:	87 ee       	ldi	r24, 0xE7	; 231
     3e6:	93 e0       	ldi	r25, 0x03	; 3
     3e8:	21 50       	subi	r18, 0x01	; 1
     3ea:	80 40       	sbci	r24, 0x00	; 0
     3ec:	90 40       	sbci	r25, 0x00	; 0
     3ee:	e1 f7       	brne	.-8      	; 0x3e8 <LCDInit+0x12>
     3f0:	00 c0       	rjmp	.+0      	; 0x3f2 <LCDInit+0x1c>
     3f2:	00 00       	nop
     3f4:	65 df       	rcall	.-310    	; 0x2c0 <LCDDirOut>
     3f6:	83 e0       	ldi	r24, 0x03	; 3
     3f8:	24 df       	rcall	.-440    	; 0x242 <LCDDataLines>
     3fa:	e0 e2       	ldi	r30, 0x20	; 32
     3fc:	f6 e0       	ldi	r31, 0x06	; 6
     3fe:	80 81       	ld	r24, Z
     400:	82 60       	ori	r24, 0x02	; 2
     402:	80 83       	st	Z, r24
     404:	80 81       	ld	r24, Z
     406:	81 60       	ori	r24, 0x01	; 1
     408:	80 83       	st	Z, r24
     40a:	a4 e2       	ldi	r26, 0x24	; 36
     40c:	b6 e0       	ldi	r27, 0x06	; 6
     40e:	8c 91       	ld	r24, X
     410:	8d 7f       	andi	r24, 0xFD	; 253
     412:	8c 93       	st	X, r24
     414:	8c 91       	ld	r24, X
     416:	8e 7f       	andi	r24, 0xFE	; 254
     418:	8c 93       	st	X, r24
     41a:	80 81       	ld	r24, Z
     41c:	88 60       	ori	r24, 0x08	; 8
     41e:	80 83       	st	Z, r24
     420:	25 ed       	ldi	r18, 0xD5	; 213
     422:	2a 95       	dec	r18
     424:	f1 f7       	brne	.-4      	; 0x422 <LCDInit+0x4c>
     426:	00 00       	nop
     428:	e4 e2       	ldi	r30, 0x24	; 36
     42a:	f6 e0       	ldi	r31, 0x06	; 6
     42c:	80 81       	ld	r24, Z
     42e:	88 60       	ori	r24, 0x08	; 8
     430:	80 83       	st	Z, r24
     432:	85 ed       	ldi	r24, 0xD5	; 213
     434:	8a 95       	dec	r24
     436:	f1 f7       	brne	.-4      	; 0x434 <LCDInit+0x5e>
     438:	00 00       	nop
     43a:	80 81       	ld	r24, Z
     43c:	87 7f       	andi	r24, 0xF7	; 247
     43e:	80 83       	st	Z, r24
     440:	9f ef       	ldi	r25, 0xFF	; 255
     442:	23 ef       	ldi	r18, 0xF3	; 243
     444:	81 e0       	ldi	r24, 0x01	; 1
     446:	91 50       	subi	r25, 0x01	; 1
     448:	20 40       	sbci	r18, 0x00	; 0
     44a:	80 40       	sbci	r24, 0x00	; 0
     44c:	e1 f7       	brne	.-8      	; 0x446 <LCDInit+0x70>
     44e:	00 c0       	rjmp	.+0      	; 0x450 <LCDInit+0x7a>
     450:	00 00       	nop
     452:	80 81       	ld	r24, Z
     454:	88 60       	ori	r24, 0x08	; 8
     456:	80 83       	st	Z, r24
     458:	95 ed       	ldi	r25, 0xD5	; 213
     45a:	9a 95       	dec	r25
     45c:	f1 f7       	brne	.-4      	; 0x45a <LCDInit+0x84>
     45e:	00 00       	nop
     460:	80 81       	ld	r24, Z
     462:	87 7f       	andi	r24, 0xF7	; 247
     464:	80 83       	st	Z, r24
     466:	8f e1       	ldi	r24, 0x1F	; 31
     468:	93 e0       	ldi	r25, 0x03	; 3
     46a:	01 97       	sbiw	r24, 0x01	; 1
     46c:	f1 f7       	brne	.-4      	; 0x46a <LCDInit+0x94>
     46e:	00 c0       	rjmp	.+0      	; 0x470 <LCDInit+0x9a>
     470:	00 00       	nop
     472:	80 81       	ld	r24, Z
     474:	88 60       	ori	r24, 0x08	; 8
     476:	80 83       	st	Z, r24
     478:	95 ed       	ldi	r25, 0xD5	; 213
     47a:	9a 95       	dec	r25
     47c:	f1 f7       	brne	.-4      	; 0x47a <LCDInit+0xa4>
     47e:	00 00       	nop
     480:	80 81       	ld	r24, Z
     482:	87 7f       	andi	r24, 0xF7	; 247
     484:	80 83       	st	Z, r24
     486:	8f e1       	ldi	r24, 0x1F	; 31
     488:	93 e0       	ldi	r25, 0x03	; 3
     48a:	01 97       	sbiw	r24, 0x01	; 1
     48c:	f1 f7       	brne	.-4      	; 0x48a <LCDInit+0xb4>
     48e:	00 c0       	rjmp	.+0      	; 0x490 <LCDInit+0xba>
     490:	00 00       	nop
     492:	82 e0       	ldi	r24, 0x02	; 2
     494:	d6 de       	rcall	.-596    	; 0x242 <LCDDataLines>
     496:	95 ed       	ldi	r25, 0xD5	; 213
     498:	9a 95       	dec	r25
     49a:	f1 f7       	brne	.-4      	; 0x498 <LCDInit+0xc2>
     49c:	00 00       	nop
     49e:	e4 e2       	ldi	r30, 0x24	; 36
     4a0:	f6 e0       	ldi	r31, 0x06	; 6
     4a2:	80 81       	ld	r24, Z
     4a4:	88 60       	ori	r24, 0x08	; 8
     4a6:	80 83       	st	Z, r24
     4a8:	25 ed       	ldi	r18, 0xD5	; 213
     4aa:	2a 95       	dec	r18
     4ac:	f1 f7       	brne	.-4      	; 0x4aa <LCDInit+0xd4>
     4ae:	00 00       	nop
     4b0:	80 81       	ld	r24, Z
     4b2:	87 7f       	andi	r24, 0xF7	; 247
     4b4:	80 83       	st	Z, r24
     4b6:	8f e1       	ldi	r24, 0x1F	; 31
     4b8:	93 e0       	ldi	r25, 0x03	; 3
     4ba:	01 97       	sbiw	r24, 0x01	; 1
     4bc:	f1 f7       	brne	.-4      	; 0x4ba <LCDInit+0xe4>
     4be:	00 c0       	rjmp	.+0      	; 0x4c0 <LCDInit+0xea>
     4c0:	00 00       	nop
     4c2:	88 e2       	ldi	r24, 0x28	; 40
     4c4:	4e df       	rcall	.-356    	; 0x362 <LCDSendCommand>
     4c6:	88 e0       	ldi	r24, 0x08	; 8
     4c8:	4c df       	rcall	.-360    	; 0x362 <LCDSendCommand>
     4ca:	81 e0       	ldi	r24, 0x01	; 1
     4cc:	4a df       	rcall	.-364    	; 0x362 <LCDSendCommand>
     4ce:	86 e0       	ldi	r24, 0x06	; 6
     4d0:	48 df       	rcall	.-368    	; 0x362 <LCDSendCommand>
     4d2:	8c e0       	ldi	r24, 0x0C	; 12
     4d4:	46 cf       	rjmp	.-372    	; 0x362 <LCDSendCommand>
     4d6:	08 95       	ret

000004d8 <LCDStringRam>:
     4d8:	cf 93       	push	r28
     4da:	df 93       	push	r29
     4dc:	ec 01       	movw	r28, r24
     4de:	21 96       	adiw	r28, 0x01	; 1
     4e0:	fc 01       	movw	r30, r24
     4e2:	80 81       	ld	r24, Z
     4e4:	88 23       	and	r24, r24
     4e6:	21 f0       	breq	.+8      	; 0x4f0 <LCDStringRam+0x18>
     4e8:	0d df       	rcall	.-486    	; 0x304 <LCDSendData>
     4ea:	89 91       	ld	r24, Y+
     4ec:	81 11       	cpse	r24, r1
     4ee:	fc cf       	rjmp	.-8      	; 0x4e8 <LCDStringRam+0x10>
     4f0:	df 91       	pop	r29
     4f2:	cf 91       	pop	r28
     4f4:	08 95       	ret

000004f6 <LCDGotoXY>:
void LCDGotoXY(unsigned char x, unsigned char y)	//Cursor to X Y position
{
 unsigned char DDRAMAddr;	
 switch(y)
     4f6:	62 30       	cpi	r22, 0x02	; 2
     4f8:	31 f0       	breq	.+12     	; 0x506 <LCDGotoXY+0x10>
     4fa:	63 30       	cpi	r22, 0x03	; 3
     4fc:	31 f0       	breq	.+12     	; 0x50a <LCDGotoXY+0x14>
     4fe:	61 30       	cpi	r22, 0x01	; 1
     500:	29 f4       	brne	.+10     	; 0x50c <LCDGotoXY+0x16>
 {
  case 0: DDRAMAddr = LCD_LINE0_DDRAMADDR+x; break;
  case 1: DDRAMAddr = LCD_LINE1_DDRAMADDR+x; break;
     502:	80 5c       	subi	r24, 0xC0	; 192
     504:	03 c0       	rjmp	.+6      	; 0x50c <LCDGotoXY+0x16>
  case 2: DDRAMAddr = LCD_LINE2_DDRAMADDR+x; break;
     506:	8c 5e       	subi	r24, 0xEC	; 236
     508:	01 c0       	rjmp	.+2      	; 0x50c <LCDGotoXY+0x16>
  case 3: DDRAMAddr = LCD_LINE3_DDRAMADDR+x; break;
     50a:	8c 5a       	subi	r24, 0xAC	; 172
  default: DDRAMAddr = LCD_LINE0_DDRAMADDR+x;
 }	
 LCDSendCommand(1<<LCD_DDRAM | DDRAMAddr);	
     50c:	80 68       	ori	r24, 0x80	; 128
     50e:	29 cf       	rjmp	.-430    	; 0x362 <LCDSendCommand>
     510:	08 95       	ret

00000512 <menu_check_sw>:
    menu_index[2] = 0;
}

bool menu_check_sw(uint8_t SW,uint8_t *SW_Flag)
{
    if(SW && !(*SW_Flag))
     512:	88 23       	and	r24, r24
     514:	39 f0       	breq	.+14     	; 0x524 <menu_check_sw+0x12>
     516:	fb 01       	movw	r30, r22
     518:	80 81       	ld	r24, Z
     51a:	81 11       	cpse	r24, r1
     51c:	07 c0       	rjmp	.+14     	; 0x52c <menu_check_sw+0x1a>
    {
        *SW_Flag = true;
     51e:	81 e0       	ldi	r24, 0x01	; 1
     520:	80 83       	st	Z, r24
        return 1;
     522:	08 95       	ret
    }
    else if(SW == 0)
        *SW_Flag = false;
     524:	fb 01       	movw	r30, r22
     526:	10 82       	st	Z, r1
    return 0;
     528:	80 e0       	ldi	r24, 0x00	; 0
     52a:	08 95       	ret
     52c:	80 e0       	ldi	r24, 0x00	; 0
}
     52e:	08 95       	ret

00000530 <Menu_Display>:
	}
}

void Menu_Display(void)
{
    Disp_R(menu_index[0]);
     530:	e0 e0       	ldi	r30, 0x00	; 0
     532:	f7 e0       	ldi	r31, 0x07	; 7
     534:	94 81       	ldd	r25, Z+4	; 0x04
     536:	80 91 ab 20 	lds	r24, 0x20AB
     53a:	a0 91 00 20 	lds	r26, 0x2000
     53e:	b0 e0       	ldi	r27, 0x00	; 0
     540:	aa 0f       	add	r26, r26
     542:	bb 1f       	adc	r27, r27
     544:	a8 5f       	subi	r26, 0xF8	; 248
     546:	bf 4d       	sbci	r27, 0xDF	; 223
     548:	90 78       	andi	r25, 0x80	; 128
     54a:	2c 91       	ld	r18, X
     54c:	92 2b       	or	r25, r18
     54e:	98 23       	and	r25, r24
     550:	94 83       	std	Z+4, r25	; 0x04
    Disp_L(menu_index[1]);
     552:	e0 ee       	ldi	r30, 0xE0	; 224
     554:	f6 e0       	ldi	r31, 0x06	; 6
     556:	94 81       	ldd	r25, Z+4	; 0x04
     558:	a0 91 01 20 	lds	r26, 0x2001
     55c:	b0 e0       	ldi	r27, 0x00	; 0
     55e:	aa 0f       	add	r26, r26
     560:	bb 1f       	adc	r27, r27
     562:	a8 5f       	subi	r26, 0xF8	; 248
     564:	bf 4d       	sbci	r27, 0xDF	; 223
     566:	90 78       	andi	r25, 0x80	; 128
     568:	2c 91       	ld	r18, X
     56a:	92 2b       	or	r25, r18
     56c:	89 23       	and	r24, r25
     56e:	84 83       	std	Z+4, r24	; 0x04
     570:	08 95       	ret

00000572 <menu_table>:
}

void menu_table(void)
{

    switch(menu_index[1])
     572:	80 91 01 20 	lds	r24, 0x2001
     576:	8e 30       	cpi	r24, 0x0E	; 14
     578:	31 f4       	brne	.+12     	; 0x586 <menu_table+0x14>
			break;
			
		}
		break;
	case 0xE:
		switch(menu_index[0])
     57a:	80 91 00 20 	lds	r24, 0x2000
     57e:	8f 30       	cpi	r24, 0x0F	; 15
     580:	11 f4       	brne	.+4      	; 0x586 <menu_table+0x14>
		{
		case 0xF:
			wdt_reset_mcu();
     582:	0c 94 84 0f 	jmp	0x1f08	; 0x1f08 <wdt_reset_mcu>
     586:	08 95       	ret

00000588 <Menu_Reset>:
uint8_t menu_index[3]={Menu_Clear,Menu_Clear,0};
uint8_t disp;
uint16_t menu_time = 0;

void Menu_Reset(void)
{
     588:	ef 92       	push	r14
     58a:	ff 92       	push	r15
     58c:	0f 93       	push	r16
     58e:	1f 93       	push	r17
     590:	cf 93       	push	r28
     592:	df 93       	push	r29
    uint8_t i=0;
    for (i=0;i<16;i++)
     594:	f1 2c       	mov	r15, r1
    {
        menu_index[1] = i;
     596:	01 e0       	ldi	r16, 0x01	; 1
     598:	10 e2       	ldi	r17, 0x20	; 32
        menu_index[0] = Menu_Default;
     59a:	c0 e0       	ldi	r28, 0x00	; 0
     59c:	d0 e2       	ldi	r29, 0x20	; 32
     59e:	0f 2e       	mov	r0, r31
     5a0:	f1 e1       	ldi	r31, 0x11	; 17
     5a2:	ef 2e       	mov	r14, r31
     5a4:	f0 2d       	mov	r31, r0
void Menu_Reset(void)
{
    uint8_t i=0;
    for (i=0;i<16;i++)
    {
        menu_index[1] = i;
     5a6:	f8 01       	movw	r30, r16
     5a8:	f0 82       	st	Z, r15
        menu_index[0] = Menu_Default;
     5aa:	e8 82       	st	Y, r14
        menu_table();
     5ac:	e2 df       	rcall	.-60     	; 0x572 <menu_table>
uint16_t menu_time = 0;

void Menu_Reset(void)
{
    uint8_t i=0;
    for (i=0;i<16;i++)
     5ae:	f3 94       	inc	r15
     5b0:	f0 e1       	ldi	r31, 0x10	; 16
     5b2:	ff 12       	cpse	r15, r31
     5b4:	f8 cf       	rjmp	.-16     	; 0x5a6 <Menu_Reset+0x1e>
    {
        menu_index[1] = i;
        menu_index[0] = Menu_Default;
        menu_table();
    }
    menu_index[0] = Menu_Clear;
     5b6:	80 e1       	ldi	r24, 0x10	; 16
     5b8:	80 93 00 20 	sts	0x2000, r24
    menu_index[1] = Menu_Clear;
     5bc:	80 93 01 20 	sts	0x2001, r24
    menu_index[2] = 0;
     5c0:	10 92 02 20 	sts	0x2002, r1
}
     5c4:	df 91       	pop	r29
     5c6:	cf 91       	pop	r28
     5c8:	1f 91       	pop	r17
     5ca:	0f 91       	pop	r16
     5cc:	ff 90       	pop	r15
     5ce:	ef 90       	pop	r14
     5d0:	08 95       	ret

000005d2 <menu_check_status>:
        *SW_Flag = false;
    return 0;
}

void menu_check_status(void)
{
     5d2:	8f 92       	push	r8
     5d4:	9f 92       	push	r9
     5d6:	af 92       	push	r10
     5d8:	bf 92       	push	r11
     5da:	cf 92       	push	r12
     5dc:	df 92       	push	r13
     5de:	ef 92       	push	r14
     5e0:	ff 92       	push	r15
     5e2:	0f 93       	push	r16
     5e4:	1f 93       	push	r17
     5e6:	cf 93       	push	r28
     5e8:	df 93       	push	r29
	switch(menu_index[2])
     5ea:	80 91 02 20 	lds	r24, 0x2002
     5ee:	81 30       	cpi	r24, 0x01	; 1
     5f0:	09 f4       	brne	.+2      	; 0x5f4 <menu_check_status+0x22>
     5f2:	65 c0       	rjmp	.+202    	; 0x6be <menu_check_status+0xec>
     5f4:	20 f0       	brcs	.+8      	; 0x5fe <menu_check_status+0x2c>
     5f6:	82 30       	cpi	r24, 0x02	; 2
     5f8:	09 f4       	brne	.+2      	; 0x5fc <menu_check_status+0x2a>
     5fa:	c2 c0       	rjmp	.+388    	; 0x780 <menu_check_status+0x1ae>
     5fc:	df c0       	rjmp	.+446    	; 0x7bc <menu_check_status+0x1ea>
	{
		case 0://Wait for Index0
		Disp_L_PORT.OUT = (Disp_L_PORT.OUT & ~(1<<Segment_DP_bp)) | (((time_ms / 100) & 1) << Segment_DP_bp);
     5fe:	c0 ee       	ldi	r28, 0xE0	; 224
     600:	d6 e0       	ldi	r29, 0x06	; 6
     602:	1c 81       	ldd	r17, Y+4	; 0x04
     604:	60 91 9f 20 	lds	r22, 0x209F
     608:	70 91 a0 20 	lds	r23, 0x20A0
     60c:	80 91 a1 20 	lds	r24, 0x20A1
     610:	90 91 a2 20 	lds	r25, 0x20A2
     614:	24 e6       	ldi	r18, 0x64	; 100
     616:	30 e0       	ldi	r19, 0x00	; 0
     618:	40 e0       	ldi	r20, 0x00	; 0
     61a:	50 e0       	ldi	r21, 0x00	; 0
     61c:	0e 94 44 25 	call	0x4a88	; 0x4a88 <__udivmodsi4>
     620:	20 fb       	bst	r18, 0
     622:	17 f9       	bld	r17, 7
     624:	1c 83       	std	Y+4, r17	; 0x04
		Disp_R_PORT.OUTCLR = Segment_DP_bm;
     626:	80 e8       	ldi	r24, 0x80	; 128
     628:	e0 e0       	ldi	r30, 0x00	; 0
     62a:	f7 e0       	ldi	r31, 0x07	; 7
     62c:	86 83       	std	Z+6, r24	; 0x06
		menu_index[1] = Menu_Num;
     62e:	98 85       	ldd	r25, Y+8	; 0x08
     630:	28 85       	ldd	r18, Y+8	; 0x08
     632:	88 85       	ldd	r24, Y+8	; 0x08
     634:	38 85       	ldd	r19, Y+8	; 0x08
     636:	30 fb       	bst	r19, 0
     638:	88 24       	eor	r8, r8
     63a:	80 f8       	bld	r8, 0
     63c:	91 2c       	mov	r9, r1
     63e:	88 0c       	add	r8, r8
     640:	99 1c       	adc	r9, r9
     642:	22 fb       	bst	r18, 2
     644:	22 27       	eor	r18, r18
     646:	20 f9       	bld	r18, 0
     648:	82 2a       	or	r8, r18
     64a:	93 fb       	bst	r25, 3
     64c:	aa 24       	eor	r10, r10
     64e:	a0 f8       	bld	r10, 0
     650:	b1 2c       	mov	r11, r1
     652:	aa 0c       	add	r10, r10
     654:	bb 1c       	adc	r11, r11
     656:	aa 0c       	add	r10, r10
     658:	bb 1c       	adc	r11, r11
     65a:	a8 28       	or	r10, r8
     65c:	81 fb       	bst	r24, 1
     65e:	cc 24       	eor	r12, r12
     660:	c0 f8       	bld	r12, 0
     662:	d1 2c       	mov	r13, r1
     664:	cc 0c       	add	r12, r12
     666:	dd 1c       	adc	r13, r13
     668:	cc 0c       	add	r12, r12
     66a:	dd 1c       	adc	r13, r13
     66c:	cc 0c       	add	r12, r12
     66e:	dd 1c       	adc	r13, r13
     670:	ca 28       	or	r12, r10
     672:	c0 92 01 20 	sts	0x2001, r12
		menu_index[0] = Menu_Clear;
     676:	80 e1       	ldi	r24, 0x10	; 16
     678:	80 93 00 20 	sts	0x2000, r24
		Menu_Display();
     67c:	59 df       	rcall	.-334    	; 0x530 <Menu_Display>
		if(menu_check_sw(Menu_Set,&Menu_Set_flg))
     67e:	80 91 e8 06 	lds	r24, 0x06E8
     682:	6b e4       	ldi	r22, 0x4B	; 75
     684:	70 e2       	ldi	r23, 0x20	; 32
     686:	88 1f       	adc	r24, r24
     688:	88 27       	eor	r24, r24
     68a:	88 1f       	adc	r24, r24
     68c:	42 df       	rcall	.-380    	; 0x512 <menu_check_sw>
     68e:	88 23       	and	r24, r24
     690:	29 f0       	breq	.+10     	; 0x69c <menu_check_status+0xca>
		{
			menu_index[2]++;
     692:	e2 e0       	ldi	r30, 0x02	; 2
     694:	f0 e2       	ldi	r31, 0x20	; 32
     696:	80 81       	ld	r24, Z
     698:	8f 5f       	subi	r24, 0xFF	; 255
     69a:	80 83       	st	Z, r24
		}
		if(menu_check_sw(Menu_Cancel,&Menu_Cancel_flg))
     69c:	80 91 a8 06 	lds	r24, 0x06A8
     6a0:	6a e4       	ldi	r22, 0x4A	; 74
     6a2:	70 e2       	ldi	r23, 0x20	; 32
     6a4:	82 95       	swap	r24
     6a6:	81 70       	andi	r24, 0x01	; 1
     6a8:	34 df       	rcall	.-408    	; 0x512 <menu_check_sw>
     6aa:	88 23       	and	r24, r24
     6ac:	09 f4       	brne	.+2      	; 0x6b0 <menu_check_status+0xde>
     6ae:	86 c0       	rjmp	.+268    	; 0x7bc <menu_check_status+0x1ea>
		{
			 menu_time=100;
     6b0:	84 e6       	ldi	r24, 0x64	; 100
     6b2:	90 e0       	ldi	r25, 0x00	; 0
     6b4:	80 93 48 20 	sts	0x2048, r24
     6b8:	90 93 49 20 	sts	0x2049, r25
     6bc:	7f c0       	rjmp	.+254    	; 0x7bc <menu_check_status+0x1ea>
		}
		break;
		case 1://Wait for Index1
		Disp_R_PORT.OUT = (Disp_R_PORT.OUT & ~(1<<Segment_DP_bp)) | (((time_ms / 100) & 1) << Segment_DP_bp);
     6be:	0f 2e       	mov	r0, r31
     6c0:	c1 2c       	mov	r12, r1
     6c2:	f7 e0       	ldi	r31, 0x07	; 7
     6c4:	df 2e       	mov	r13, r31
     6c6:	f0 2d       	mov	r31, r0
     6c8:	f6 01       	movw	r30, r12
     6ca:	b4 80       	ldd	r11, Z+4	; 0x04
     6cc:	60 91 9f 20 	lds	r22, 0x209F
     6d0:	70 91 a0 20 	lds	r23, 0x20A0
     6d4:	80 91 a1 20 	lds	r24, 0x20A1
     6d8:	90 91 a2 20 	lds	r25, 0x20A2
     6dc:	24 e6       	ldi	r18, 0x64	; 100
     6de:	30 e0       	ldi	r19, 0x00	; 0
     6e0:	40 e0       	ldi	r20, 0x00	; 0
     6e2:	50 e0       	ldi	r21, 0x00	; 0
     6e4:	0e 94 44 25 	call	0x4a88	; 0x4a88 <__udivmodsi4>
     6e8:	20 fb       	bst	r18, 0
     6ea:	b7 f8       	bld	r11, 7
     6ec:	f6 01       	movw	r30, r12
     6ee:	b4 82       	std	Z+4, r11	; 0x04
		Disp_L_PORT.OUTSET = Segment_DP_bm;
     6f0:	e0 ee       	ldi	r30, 0xE0	; 224
     6f2:	f6 e0       	ldi	r31, 0x06	; 6
     6f4:	80 e8       	ldi	r24, 0x80	; 128
     6f6:	85 83       	std	Z+5, r24	; 0x05
		menu_index[0] = Menu_Num;
     6f8:	90 85       	ldd	r25, Z+8	; 0x08
     6fa:	20 85       	ldd	r18, Z+8	; 0x08
     6fc:	80 85       	ldd	r24, Z+8	; 0x08
     6fe:	30 85       	ldd	r19, Z+8	; 0x08
     700:	30 fb       	bst	r19, 0
     702:	ee 24       	eor	r14, r14
     704:	e0 f8       	bld	r14, 0
     706:	f1 2c       	mov	r15, r1
     708:	ee 0c       	add	r14, r14
     70a:	ff 1c       	adc	r15, r15
     70c:	22 fb       	bst	r18, 2
     70e:	22 27       	eor	r18, r18
     710:	20 f9       	bld	r18, 0
     712:	e2 2a       	or	r14, r18
     714:	93 fb       	bst	r25, 3
     716:	00 27       	eor	r16, r16
     718:	00 f9       	bld	r16, 0
     71a:	10 e0       	ldi	r17, 0x00	; 0
     71c:	00 0f       	add	r16, r16
     71e:	11 1f       	adc	r17, r17
     720:	00 0f       	add	r16, r16
     722:	11 1f       	adc	r17, r17
     724:	0e 29       	or	r16, r14
     726:	86 95       	lsr	r24
     728:	81 70       	andi	r24, 0x01	; 1
     72a:	c8 2f       	mov	r28, r24
     72c:	f0 e0       	ldi	r31, 0x00	; 0
     72e:	df 2f       	mov	r29, r31
     730:	cc 0f       	add	r28, r28
     732:	dd 1f       	adc	r29, r29
     734:	cc 0f       	add	r28, r28
     736:	dd 1f       	adc	r29, r29
     738:	cc 0f       	add	r28, r28
     73a:	dd 1f       	adc	r29, r29
     73c:	c0 2b       	or	r28, r16
     73e:	c0 93 00 20 	sts	0x2000, r28
		Menu_Display();
     742:	f6 de       	rcall	.-532    	; 0x530 <Menu_Display>
		if(menu_check_sw(Menu_Set,&Menu_Set_flg))
     744:	80 91 e8 06 	lds	r24, 0x06E8
     748:	6b e4       	ldi	r22, 0x4B	; 75
     74a:	70 e2       	ldi	r23, 0x20	; 32
     74c:	88 1f       	adc	r24, r24
     74e:	88 27       	eor	r24, r24
     750:	88 1f       	adc	r24, r24
     752:	df de       	rcall	.-578    	; 0x512 <menu_check_sw>
     754:	88 23       	and	r24, r24
     756:	29 f0       	breq	.+10     	; 0x762 <menu_check_status+0x190>
		{
			menu_index[2]++;
     758:	e2 e0       	ldi	r30, 0x02	; 2
     75a:	f0 e2       	ldi	r31, 0x20	; 32
     75c:	80 81       	ld	r24, Z
     75e:	8f 5f       	subi	r24, 0xFF	; 255
     760:	80 83       	st	Z, r24
		}
		if(menu_check_sw(Menu_Cancel,&Menu_Cancel_flg))
     762:	80 91 a8 06 	lds	r24, 0x06A8
     766:	6a e4       	ldi	r22, 0x4A	; 74
     768:	70 e2       	ldi	r23, 0x20	; 32
     76a:	82 95       	swap	r24
     76c:	81 70       	andi	r24, 0x01	; 1
     76e:	d1 de       	rcall	.-606    	; 0x512 <menu_check_sw>
     770:	88 23       	and	r24, r24
     772:	21 f1       	breq	.+72     	; 0x7bc <menu_check_status+0x1ea>
		{
			menu_index[2]--;
     774:	e2 e0       	ldi	r30, 0x02	; 2
     776:	f0 e2       	ldi	r31, 0x20	; 32
     778:	80 81       	ld	r24, Z
     77a:	81 50       	subi	r24, 0x01	; 1
     77c:	80 83       	st	Z, r24
     77e:	1e c0       	rjmp	.+60     	; 0x7bc <menu_check_status+0x1ea>
		}
		break;
		case 2:
		Disp_R_PORT.OUTSET = Segment_DP_bm;
     780:	80 e8       	ldi	r24, 0x80	; 128
     782:	e0 e0       	ldi	r30, 0x00	; 0
     784:	f7 e0       	ldi	r31, 0x07	; 7
     786:	85 83       	std	Z+5, r24	; 0x05
		Disp_L_PORT.OUTSET = Segment_DP_bm;
     788:	e0 ee       	ldi	r30, 0xE0	; 224
     78a:	f6 e0       	ldi	r31, 0x06	; 6
     78c:	85 83       	std	Z+5, r24	; 0x05
		menu_table();
     78e:	f1 de       	rcall	.-542    	; 0x572 <menu_table>
		if(menu_check_sw(Menu_Cancel,&Menu_Cancel_flg))
     790:	80 91 a8 06 	lds	r24, 0x06A8
     794:	6a e4       	ldi	r22, 0x4A	; 74
     796:	70 e2       	ldi	r23, 0x20	; 32
     798:	82 95       	swap	r24
     79a:	81 70       	andi	r24, 0x01	; 1
     79c:	ba de       	rcall	.-652    	; 0x512 <menu_check_sw>
     79e:	88 23       	and	r24, r24
     7a0:	69 f0       	breq	.+26     	; 0x7bc <menu_check_status+0x1ea>
		{
			menu_index[2]--;
     7a2:	e2 e0       	ldi	r30, 0x02	; 2
     7a4:	f0 e2       	ldi	r31, 0x20	; 32
     7a6:	80 81       	ld	r24, Z
     7a8:	81 50       	subi	r24, 0x01	; 1
     7aa:	80 83       	st	Z, r24
			menu_index[0] = Menu_Default;
     7ac:	c0 e0       	ldi	r28, 0x00	; 0
     7ae:	d0 e2       	ldi	r29, 0x20	; 32
     7b0:	81 e1       	ldi	r24, 0x11	; 17
     7b2:	88 83       	st	Y, r24
			menu_table();
     7b4:	de de       	rcall	.-580    	; 0x572 <menu_table>
			menu_index[0] = Menu_Clear;
     7b6:	80 e1       	ldi	r24, 0x10	; 16
     7b8:	88 83       	st	Y, r24
			Menu_Display();
     7ba:	ba de       	rcall	.-652    	; 0x530 <Menu_Display>
		}

		break;
	}
}
     7bc:	df 91       	pop	r29
     7be:	cf 91       	pop	r28
     7c0:	1f 91       	pop	r17
     7c2:	0f 91       	pop	r16
     7c4:	ff 90       	pop	r15
     7c6:	ef 90       	pop	r14
     7c8:	df 90       	pop	r13
     7ca:	cf 90       	pop	r12
     7cc:	bf 90       	pop	r11
     7ce:	af 90       	pop	r10
     7d0:	9f 90       	pop	r9
     7d2:	8f 90       	pop	r8
     7d4:	08 95       	ret

000007d6 <sysclk_enable_module>:
     7d6:	2f b7       	in	r18, 0x3f	; 63
     7d8:	f8 94       	cli
     7da:	fc 01       	movw	r30, r24
     7dc:	e0 59       	subi	r30, 0x90	; 144
     7de:	ff 4f       	sbci	r31, 0xFF	; 255
     7e0:	60 95       	com	r22
     7e2:	80 81       	ld	r24, Z
     7e4:	68 23       	and	r22, r24
     7e6:	60 83       	st	Z, r22
     7e8:	2f bf       	out	0x3f, r18	; 63
     7ea:	08 95       	ret

000007ec <sysclk_disable_module>:
     7ec:	2f b7       	in	r18, 0x3f	; 63
     7ee:	f8 94       	cli
     7f0:	fc 01       	movw	r30, r24
     7f2:	e0 59       	subi	r30, 0x90	; 144
     7f4:	ff 4f       	sbci	r31, 0xFF	; 255
     7f6:	80 81       	ld	r24, Z
     7f8:	68 2b       	or	r22, r24
     7fa:	60 83       	st	Z, r22
     7fc:	2f bf       	out	0x3f, r18	; 63
     7fe:	08 95       	ret

00000800 <adc_enable_clock>:
     800:	81 15       	cp	r24, r1
     802:	22 e0       	ldi	r18, 0x02	; 2
     804:	92 07       	cpc	r25, r18
     806:	69 f4       	brne	.+26     	; 0x822 <adc_enable_clock+0x22>
     808:	80 91 4d 20 	lds	r24, 0x204D
     80c:	91 e0       	ldi	r25, 0x01	; 1
     80e:	98 0f       	add	r25, r24
     810:	90 93 4d 20 	sts	0x204D, r25
     814:	81 11       	cpse	r24, r1
     816:	14 c0       	rjmp	.+40     	; 0x840 <adc_enable_clock+0x40>
     818:	62 e0       	ldi	r22, 0x02	; 2
     81a:	81 e0       	ldi	r24, 0x01	; 1
     81c:	90 e0       	ldi	r25, 0x00	; 0
     81e:	db cf       	rjmp	.-74     	; 0x7d6 <sysclk_enable_module>
     820:	08 95       	ret
     822:	80 34       	cpi	r24, 0x40	; 64
     824:	92 40       	sbci	r25, 0x02	; 2
     826:	61 f4       	brne	.+24     	; 0x840 <adc_enable_clock+0x40>
     828:	80 91 4c 20 	lds	r24, 0x204C
     82c:	91 e0       	ldi	r25, 0x01	; 1
     82e:	98 0f       	add	r25, r24
     830:	90 93 4c 20 	sts	0x204C, r25
     834:	81 11       	cpse	r24, r1
     836:	04 c0       	rjmp	.+8      	; 0x840 <adc_enable_clock+0x40>
     838:	62 e0       	ldi	r22, 0x02	; 2
     83a:	82 e0       	ldi	r24, 0x02	; 2
     83c:	90 e0       	ldi	r25, 0x00	; 0
     83e:	cb cf       	rjmp	.-106    	; 0x7d6 <sysclk_enable_module>
     840:	08 95       	ret

00000842 <adc_disable_clock>:
     842:	81 15       	cp	r24, r1
     844:	22 e0       	ldi	r18, 0x02	; 2
     846:	92 07       	cpc	r25, r18
     848:	61 f4       	brne	.+24     	; 0x862 <adc_disable_clock+0x20>
     84a:	80 91 4d 20 	lds	r24, 0x204D
     84e:	81 50       	subi	r24, 0x01	; 1
     850:	80 93 4d 20 	sts	0x204D, r24
     854:	81 11       	cpse	r24, r1
     856:	13 c0       	rjmp	.+38     	; 0x87e <adc_disable_clock+0x3c>
     858:	62 e0       	ldi	r22, 0x02	; 2
     85a:	81 e0       	ldi	r24, 0x01	; 1
     85c:	90 e0       	ldi	r25, 0x00	; 0
     85e:	c6 cf       	rjmp	.-116    	; 0x7ec <sysclk_disable_module>
     860:	08 95       	ret
     862:	80 34       	cpi	r24, 0x40	; 64
     864:	92 40       	sbci	r25, 0x02	; 2
     866:	59 f4       	brne	.+22     	; 0x87e <adc_disable_clock+0x3c>
     868:	80 91 4c 20 	lds	r24, 0x204C
     86c:	81 50       	subi	r24, 0x01	; 1
     86e:	80 93 4c 20 	sts	0x204C, r24
     872:	81 11       	cpse	r24, r1
     874:	04 c0       	rjmp	.+8      	; 0x87e <adc_disable_clock+0x3c>
     876:	62 e0       	ldi	r22, 0x02	; 2
     878:	82 e0       	ldi	r24, 0x02	; 2
     87a:	90 e0       	ldi	r25, 0x00	; 0
     87c:	b7 cf       	rjmp	.-146    	; 0x7ec <sysclk_disable_module>
     87e:	08 95       	ret

00000880 <adc_enable>:
     880:	1f 93       	push	r17
     882:	cf 93       	push	r28
     884:	df 93       	push	r29
     886:	ec 01       	movw	r28, r24
     888:	1f b7       	in	r17, 0x3f	; 63
     88a:	f8 94       	cli
     88c:	b9 df       	rcall	.-142    	; 0x800 <adc_enable_clock>
     88e:	88 81       	ld	r24, Y
     890:	81 60       	ori	r24, 0x01	; 1
     892:	88 83       	st	Y, r24
     894:	1f bf       	out	0x3f, r17	; 63
     896:	8f b7       	in	r24, 0x3f	; 63
     898:	f8 94       	cli
     89a:	ed ea       	ldi	r30, 0xAD	; 173
     89c:	f0 e2       	ldi	r31, 0x20	; 32
     89e:	90 81       	ld	r25, Z
     8a0:	9f 5f       	subi	r25, 0xFF	; 255
     8a2:	90 83       	st	Z, r25
     8a4:	8f bf       	out	0x3f, r24	; 63
     8a6:	df 91       	pop	r29
     8a8:	cf 91       	pop	r28
     8aa:	1f 91       	pop	r17
     8ac:	08 95       	ret

000008ae <adc_write_configuration>:
     8ae:	df 92       	push	r13
     8b0:	ef 92       	push	r14
     8b2:	ff 92       	push	r15
     8b4:	0f 93       	push	r16
     8b6:	1f 93       	push	r17
     8b8:	cf 93       	push	r28
     8ba:	df 93       	push	r29
     8bc:	ec 01       	movw	r28, r24
     8be:	8b 01       	movw	r16, r22
     8c0:	c1 15       	cp	r28, r1
     8c2:	22 e0       	ldi	r18, 0x02	; 2
     8c4:	d2 07       	cpc	r29, r18
     8c6:	71 f4       	brne	.+28     	; 0x8e4 <adc_write_configuration+0x36>
     8c8:	61 e2       	ldi	r22, 0x21	; 33
     8ca:	70 e0       	ldi	r23, 0x00	; 0
     8cc:	82 e0       	ldi	r24, 0x02	; 2
     8ce:	a7 d0       	rcall	.+334    	; 0xa1e <nvm_read_byte>
     8d0:	e8 2e       	mov	r14, r24
     8d2:	f1 2c       	mov	r15, r1
     8d4:	60 e2       	ldi	r22, 0x20	; 32
     8d6:	70 e0       	ldi	r23, 0x00	; 0
     8d8:	82 e0       	ldi	r24, 0x02	; 2
     8da:	a1 d0       	rcall	.+322    	; 0xa1e <nvm_read_byte>
     8dc:	fe 2c       	mov	r15, r14
     8de:	ee 24       	eor	r14, r14
     8e0:	e8 2a       	or	r14, r24
     8e2:	10 c0       	rjmp	.+32     	; 0x904 <adc_write_configuration+0x56>
     8e4:	80 34       	cpi	r24, 0x40	; 64
     8e6:	92 40       	sbci	r25, 0x02	; 2
     8e8:	59 f5       	brne	.+86     	; 0x940 <adc_write_configuration+0x92>
     8ea:	65 e2       	ldi	r22, 0x25	; 37
     8ec:	70 e0       	ldi	r23, 0x00	; 0
     8ee:	82 e0       	ldi	r24, 0x02	; 2
     8f0:	96 d0       	rcall	.+300    	; 0xa1e <nvm_read_byte>
     8f2:	e8 2e       	mov	r14, r24
     8f4:	f1 2c       	mov	r15, r1
     8f6:	64 e2       	ldi	r22, 0x24	; 36
     8f8:	70 e0       	ldi	r23, 0x00	; 0
     8fa:	82 e0       	ldi	r24, 0x02	; 2
     8fc:	90 d0       	rcall	.+288    	; 0xa1e <nvm_read_byte>
     8fe:	fe 2c       	mov	r15, r14
     900:	ee 24       	eor	r14, r14
     902:	e8 2a       	or	r14, r24
     904:	df b6       	in	r13, 0x3f	; 63
     906:	f8 94       	cli
     908:	ce 01       	movw	r24, r28
     90a:	7a df       	rcall	.-268    	; 0x800 <adc_enable_clock>
     90c:	28 81       	ld	r18, Y
     90e:	82 e0       	ldi	r24, 0x02	; 2
     910:	88 83       	st	Y, r24
     912:	ec 86       	std	Y+12, r14	; 0x0c
     914:	fd 86       	std	Y+13, r15	; 0x0d
     916:	f8 01       	movw	r30, r16
     918:	85 81       	ldd	r24, Z+5	; 0x05
     91a:	96 81       	ldd	r25, Z+6	; 0x06
     91c:	88 8f       	std	Y+24, r24	; 0x18
     91e:	99 8f       	std	Y+25, r25	; 0x19
     920:	82 81       	ldd	r24, Z+2	; 0x02
     922:	8a 83       	std	Y+2, r24	; 0x02
     924:	84 81       	ldd	r24, Z+4	; 0x04
     926:	8c 83       	std	Y+4, r24	; 0x04
     928:	83 81       	ldd	r24, Z+3	; 0x03
     92a:	8b 83       	std	Y+3, r24	; 0x03
     92c:	81 81       	ldd	r24, Z+1	; 0x01
     92e:	89 83       	std	Y+1, r24	; 0x01
     930:	82 2f       	mov	r24, r18
     932:	81 70       	andi	r24, 0x01	; 1
     934:	90 81       	ld	r25, Z
     936:	89 2b       	or	r24, r25
     938:	88 83       	st	Y, r24
     93a:	ce 01       	movw	r24, r28
     93c:	82 df       	rcall	.-252    	; 0x842 <adc_disable_clock>
     93e:	df be       	out	0x3f, r13	; 63
     940:	df 91       	pop	r29
     942:	cf 91       	pop	r28
     944:	1f 91       	pop	r17
     946:	0f 91       	pop	r16
     948:	ff 90       	pop	r15
     94a:	ef 90       	pop	r14
     94c:	df 90       	pop	r13
     94e:	08 95       	ret

00000950 <adcch_write_configuration>:
     950:	df 92       	push	r13
     952:	ef 92       	push	r14
     954:	ff 92       	push	r15
     956:	0f 93       	push	r16
     958:	1f 93       	push	r17
     95a:	cf 93       	push	r28
     95c:	df 93       	push	r29
     95e:	7c 01       	movw	r14, r24
     960:	8a 01       	movw	r16, r20
     962:	86 2f       	mov	r24, r22
     964:	83 70       	andi	r24, 0x03	; 3
     966:	21 f4       	brne	.+8      	; 0x970 <adcch_write_configuration+0x20>
     968:	66 95       	lsr	r22
     96a:	66 95       	lsr	r22
     96c:	82 e0       	ldi	r24, 0x02	; 2
     96e:	01 c0       	rjmp	.+2      	; 0x972 <adcch_write_configuration+0x22>
     970:	80 e0       	ldi	r24, 0x00	; 0
     972:	60 ff       	sbrs	r22, 0
     974:	8f 5f       	subi	r24, 0xFF	; 255
     976:	e7 01       	movw	r28, r14
     978:	a0 96       	adiw	r28, 0x20	; 32
     97a:	98 e0       	ldi	r25, 0x08	; 8
     97c:	89 9f       	mul	r24, r25
     97e:	c0 0d       	add	r28, r0
     980:	d1 1d       	adc	r29, r1
     982:	11 24       	eor	r1, r1
     984:	df b6       	in	r13, 0x3f	; 63
     986:	f8 94       	cli
     988:	c7 01       	movw	r24, r14
     98a:	3a df       	rcall	.-396    	; 0x800 <adc_enable_clock>
     98c:	f8 01       	movw	r30, r16
     98e:	80 81       	ld	r24, Z
     990:	88 83       	st	Y, r24
     992:	82 81       	ldd	r24, Z+2	; 0x02
     994:	8a 83       	std	Y+2, r24	; 0x02
     996:	81 81       	ldd	r24, Z+1	; 0x01
     998:	89 83       	std	Y+1, r24	; 0x01
     99a:	c7 01       	movw	r24, r14
     99c:	52 df       	rcall	.-348    	; 0x842 <adc_disable_clock>
     99e:	df be       	out	0x3f, r13	; 63
     9a0:	df 91       	pop	r29
     9a2:	cf 91       	pop	r28
     9a4:	1f 91       	pop	r17
     9a6:	0f 91       	pop	r16
     9a8:	ff 90       	pop	r15
     9aa:	ef 90       	pop	r14
     9ac:	df 90       	pop	r13
     9ae:	08 95       	ret

000009b0 <adcch_read_configuration>:
     9b0:	df 92       	push	r13
     9b2:	ef 92       	push	r14
     9b4:	ff 92       	push	r15
     9b6:	0f 93       	push	r16
     9b8:	1f 93       	push	r17
     9ba:	cf 93       	push	r28
     9bc:	df 93       	push	r29
     9be:	7c 01       	movw	r14, r24
     9c0:	ea 01       	movw	r28, r20
     9c2:	86 2f       	mov	r24, r22
     9c4:	83 70       	andi	r24, 0x03	; 3
     9c6:	21 f4       	brne	.+8      	; 0x9d0 <adcch_read_configuration+0x20>
     9c8:	66 95       	lsr	r22
     9ca:	66 95       	lsr	r22
     9cc:	82 e0       	ldi	r24, 0x02	; 2
     9ce:	01 c0       	rjmp	.+2      	; 0x9d2 <adcch_read_configuration+0x22>
     9d0:	80 e0       	ldi	r24, 0x00	; 0
     9d2:	60 ff       	sbrs	r22, 0
     9d4:	8f 5f       	subi	r24, 0xFF	; 255
     9d6:	87 01       	movw	r16, r14
     9d8:	00 5e       	subi	r16, 0xE0	; 224
     9da:	1f 4f       	sbci	r17, 0xFF	; 255
     9dc:	98 e0       	ldi	r25, 0x08	; 8
     9de:	89 9f       	mul	r24, r25
     9e0:	00 0d       	add	r16, r0
     9e2:	11 1d       	adc	r17, r1
     9e4:	11 24       	eor	r1, r1
     9e6:	df b6       	in	r13, 0x3f	; 63
     9e8:	f8 94       	cli
     9ea:	c7 01       	movw	r24, r14
     9ec:	09 df       	rcall	.-494    	; 0x800 <adc_enable_clock>
     9ee:	f8 01       	movw	r30, r16
     9f0:	80 81       	ld	r24, Z
     9f2:	88 83       	st	Y, r24
     9f4:	82 81       	ldd	r24, Z+2	; 0x02
     9f6:	8a 83       	std	Y+2, r24	; 0x02
     9f8:	81 81       	ldd	r24, Z+1	; 0x01
     9fa:	89 83       	std	Y+1, r24	; 0x01
     9fc:	c7 01       	movw	r24, r14
     9fe:	21 df       	rcall	.-446    	; 0x842 <adc_disable_clock>
     a00:	df be       	out	0x3f, r13	; 63
     a02:	df 91       	pop	r29
     a04:	cf 91       	pop	r28
     a06:	1f 91       	pop	r17
     a08:	0f 91       	pop	r16
     a0a:	ff 90       	pop	r15
     a0c:	ef 90       	pop	r14
     a0e:	df 90       	pop	r13
     a10:	08 95       	ret

00000a12 <ccp_write_io>:
     a12:	1b be       	out	0x3b, r1	; 59
     a14:	fc 01       	movw	r30, r24
     a16:	28 ed       	ldi	r18, 0xD8	; 216
     a18:	24 bf       	out	0x34, r18	; 52
     a1a:	60 83       	st	Z, r22
     a1c:	08 95       	ret

00000a1e <nvm_read_byte>:
     a1e:	40 91 ca 01 	lds	r20, 0x01CA
     a22:	e6 2f       	mov	r30, r22
     a24:	f7 2f       	mov	r31, r23
     a26:	80 93 ca 01 	sts	0x01CA, r24
     a2a:	84 91       	lpm	r24, Z
     a2c:	40 93 ca 01 	sts	0x01CA, r20
     a30:	08 95       	ret

00000a32 <spi_xmega_set_baud_div>:
     a32:	cf 92       	push	r12
     a34:	df 92       	push	r13
     a36:	ef 92       	push	r14
     a38:	ff 92       	push	r15
     a3a:	0f 93       	push	r16
     a3c:	1f 93       	push	r17
     a3e:	cf 93       	push	r28
     a40:	df 93       	push	r29
     a42:	ec 01       	movw	r28, r24
     a44:	6a 01       	movw	r12, r20
     a46:	7b 01       	movw	r14, r22
     a48:	db 01       	movw	r26, r22
     a4a:	ca 01       	movw	r24, r20
     a4c:	01 97       	sbiw	r24, 0x01	; 1
     a4e:	a1 09       	sbc	r26, r1
     a50:	b1 09       	sbc	r27, r1
     a52:	bc 01       	movw	r22, r24
     a54:	cd 01       	movw	r24, r26
     a56:	60 0f       	add	r22, r16
     a58:	71 1f       	adc	r23, r17
     a5a:	82 1f       	adc	r24, r18
     a5c:	93 1f       	adc	r25, r19
     a5e:	a7 01       	movw	r20, r14
     a60:	96 01       	movw	r18, r12
     a62:	0e 94 44 25 	call	0x4a88	; 0x4a88 <__udivmodsi4>
     a66:	21 38       	cpi	r18, 0x81	; 129
     a68:	31 05       	cpc	r19, r1
     a6a:	41 05       	cpc	r20, r1
     a6c:	51 05       	cpc	r21, r1
     a6e:	f8 f4       	brcc	.+62     	; 0xaae <spi_xmega_set_baud_div+0x7c>
     a70:	21 34       	cpi	r18, 0x41	; 65
     a72:	60 f4       	brcc	.+24     	; 0xa8c <spi_xmega_set_baud_div+0x5a>
     a74:	21 32       	cpi	r18, 0x21	; 33
     a76:	60 f4       	brcc	.+24     	; 0xa90 <spi_xmega_set_baud_div+0x5e>
     a78:	21 31       	cpi	r18, 0x11	; 17
     a7a:	60 f4       	brcc	.+24     	; 0xa94 <spi_xmega_set_baud_div+0x62>
     a7c:	29 30       	cpi	r18, 0x09	; 9
     a7e:	60 f4       	brcc	.+24     	; 0xa98 <spi_xmega_set_baud_div+0x66>
     a80:	25 30       	cpi	r18, 0x05	; 5
     a82:	60 f4       	brcc	.+24     	; 0xa9c <spi_xmega_set_baud_div+0x6a>
     a84:	23 30       	cpi	r18, 0x03	; 3
     a86:	60 f0       	brcs	.+24     	; 0xaa0 <spi_xmega_set_baud_div+0x6e>
     a88:	90 e0       	ldi	r25, 0x00	; 0
     a8a:	0b c0       	rjmp	.+22     	; 0xaa2 <spi_xmega_set_baud_div+0x70>
     a8c:	93 e0       	ldi	r25, 0x03	; 3
     a8e:	09 c0       	rjmp	.+18     	; 0xaa2 <spi_xmega_set_baud_div+0x70>
     a90:	92 e0       	ldi	r25, 0x02	; 2
     a92:	07 c0       	rjmp	.+14     	; 0xaa2 <spi_xmega_set_baud_div+0x70>
     a94:	92 e8       	ldi	r25, 0x82	; 130
     a96:	05 c0       	rjmp	.+10     	; 0xaa2 <spi_xmega_set_baud_div+0x70>
     a98:	91 e0       	ldi	r25, 0x01	; 1
     a9a:	03 c0       	rjmp	.+6      	; 0xaa2 <spi_xmega_set_baud_div+0x70>
     a9c:	91 e8       	ldi	r25, 0x81	; 129
     a9e:	01 c0       	rjmp	.+2      	; 0xaa2 <spi_xmega_set_baud_div+0x70>
     aa0:	90 e8       	ldi	r25, 0x80	; 128
     aa2:	88 81       	ld	r24, Y
     aa4:	8c 77       	andi	r24, 0x7C	; 124
     aa6:	89 2b       	or	r24, r25
     aa8:	88 83       	st	Y, r24
     aaa:	81 e0       	ldi	r24, 0x01	; 1
     aac:	01 c0       	rjmp	.+2      	; 0xab0 <spi_xmega_set_baud_div+0x7e>
     aae:	8f ef       	ldi	r24, 0xFF	; 255
     ab0:	df 91       	pop	r29
     ab2:	cf 91       	pop	r28
     ab4:	1f 91       	pop	r17
     ab6:	0f 91       	pop	r16
     ab8:	ff 90       	pop	r15
     aba:	ef 90       	pop	r14
     abc:	df 90       	pop	r13
     abe:	cf 90       	pop	r12
     ac0:	08 95       	ret

00000ac2 <__vector_14>:
     ac2:	1f 92       	push	r1
     ac4:	0f 92       	push	r0
     ac6:	0f b6       	in	r0, 0x3f	; 63
     ac8:	0f 92       	push	r0
     aca:	11 24       	eor	r1, r1
     acc:	08 b6       	in	r0, 0x38	; 56
     ace:	0f 92       	push	r0
     ad0:	18 be       	out	0x38, r1	; 56
     ad2:	09 b6       	in	r0, 0x39	; 57
     ad4:	0f 92       	push	r0
     ad6:	19 be       	out	0x39, r1	; 57
     ad8:	0b b6       	in	r0, 0x3b	; 59
     ada:	0f 92       	push	r0
     adc:	1b be       	out	0x3b, r1	; 59
     ade:	2f 93       	push	r18
     ae0:	3f 93       	push	r19
     ae2:	4f 93       	push	r20
     ae4:	5f 93       	push	r21
     ae6:	6f 93       	push	r22
     ae8:	7f 93       	push	r23
     aea:	8f 93       	push	r24
     aec:	9f 93       	push	r25
     aee:	af 93       	push	r26
     af0:	bf 93       	push	r27
     af2:	ef 93       	push	r30
     af4:	ff 93       	push	r31
     af6:	e0 91 9a 20 	lds	r30, 0x209A
     afa:	f0 91 9b 20 	lds	r31, 0x209B
     afe:	30 97       	sbiw	r30, 0x00	; 0
     b00:	09 f0       	breq	.+2      	; 0xb04 <__vector_14+0x42>
     b02:	19 95       	eicall
     b04:	ff 91       	pop	r31
     b06:	ef 91       	pop	r30
     b08:	bf 91       	pop	r27
     b0a:	af 91       	pop	r26
     b0c:	9f 91       	pop	r25
     b0e:	8f 91       	pop	r24
     b10:	7f 91       	pop	r23
     b12:	6f 91       	pop	r22
     b14:	5f 91       	pop	r21
     b16:	4f 91       	pop	r20
     b18:	3f 91       	pop	r19
     b1a:	2f 91       	pop	r18
     b1c:	0f 90       	pop	r0
     b1e:	0b be       	out	0x3b, r0	; 59
     b20:	0f 90       	pop	r0
     b22:	09 be       	out	0x39, r0	; 57
     b24:	0f 90       	pop	r0
     b26:	08 be       	out	0x38, r0	; 56
     b28:	0f 90       	pop	r0
     b2a:	0f be       	out	0x3f, r0	; 63
     b2c:	0f 90       	pop	r0
     b2e:	1f 90       	pop	r1
     b30:	18 95       	reti

00000b32 <__vector_15>:
     b32:	1f 92       	push	r1
     b34:	0f 92       	push	r0
     b36:	0f b6       	in	r0, 0x3f	; 63
     b38:	0f 92       	push	r0
     b3a:	11 24       	eor	r1, r1
     b3c:	08 b6       	in	r0, 0x38	; 56
     b3e:	0f 92       	push	r0
     b40:	18 be       	out	0x38, r1	; 56
     b42:	09 b6       	in	r0, 0x39	; 57
     b44:	0f 92       	push	r0
     b46:	19 be       	out	0x39, r1	; 57
     b48:	0b b6       	in	r0, 0x3b	; 59
     b4a:	0f 92       	push	r0
     b4c:	1b be       	out	0x3b, r1	; 59
     b4e:	2f 93       	push	r18
     b50:	3f 93       	push	r19
     b52:	4f 93       	push	r20
     b54:	5f 93       	push	r21
     b56:	6f 93       	push	r22
     b58:	7f 93       	push	r23
     b5a:	8f 93       	push	r24
     b5c:	9f 93       	push	r25
     b5e:	af 93       	push	r26
     b60:	bf 93       	push	r27
     b62:	ef 93       	push	r30
     b64:	ff 93       	push	r31
     b66:	e0 91 98 20 	lds	r30, 0x2098
     b6a:	f0 91 99 20 	lds	r31, 0x2099
     b6e:	30 97       	sbiw	r30, 0x00	; 0
     b70:	09 f0       	breq	.+2      	; 0xb74 <__vector_15+0x42>
     b72:	19 95       	eicall
     b74:	ff 91       	pop	r31
     b76:	ef 91       	pop	r30
     b78:	bf 91       	pop	r27
     b7a:	af 91       	pop	r26
     b7c:	9f 91       	pop	r25
     b7e:	8f 91       	pop	r24
     b80:	7f 91       	pop	r23
     b82:	6f 91       	pop	r22
     b84:	5f 91       	pop	r21
     b86:	4f 91       	pop	r20
     b88:	3f 91       	pop	r19
     b8a:	2f 91       	pop	r18
     b8c:	0f 90       	pop	r0
     b8e:	0b be       	out	0x3b, r0	; 59
     b90:	0f 90       	pop	r0
     b92:	09 be       	out	0x39, r0	; 57
     b94:	0f 90       	pop	r0
     b96:	08 be       	out	0x38, r0	; 56
     b98:	0f 90       	pop	r0
     b9a:	0f be       	out	0x3f, r0	; 63
     b9c:	0f 90       	pop	r0
     b9e:	1f 90       	pop	r1
     ba0:	18 95       	reti

00000ba2 <__vector_16>:
     ba2:	1f 92       	push	r1
     ba4:	0f 92       	push	r0
     ba6:	0f b6       	in	r0, 0x3f	; 63
     ba8:	0f 92       	push	r0
     baa:	11 24       	eor	r1, r1
     bac:	08 b6       	in	r0, 0x38	; 56
     bae:	0f 92       	push	r0
     bb0:	18 be       	out	0x38, r1	; 56
     bb2:	09 b6       	in	r0, 0x39	; 57
     bb4:	0f 92       	push	r0
     bb6:	19 be       	out	0x39, r1	; 57
     bb8:	0b b6       	in	r0, 0x3b	; 59
     bba:	0f 92       	push	r0
     bbc:	1b be       	out	0x3b, r1	; 59
     bbe:	2f 93       	push	r18
     bc0:	3f 93       	push	r19
     bc2:	4f 93       	push	r20
     bc4:	5f 93       	push	r21
     bc6:	6f 93       	push	r22
     bc8:	7f 93       	push	r23
     bca:	8f 93       	push	r24
     bcc:	9f 93       	push	r25
     bce:	af 93       	push	r26
     bd0:	bf 93       	push	r27
     bd2:	ef 93       	push	r30
     bd4:	ff 93       	push	r31
     bd6:	e0 91 96 20 	lds	r30, 0x2096
     bda:	f0 91 97 20 	lds	r31, 0x2097
     bde:	30 97       	sbiw	r30, 0x00	; 0
     be0:	09 f0       	breq	.+2      	; 0xbe4 <__vector_16+0x42>
     be2:	19 95       	eicall
     be4:	ff 91       	pop	r31
     be6:	ef 91       	pop	r30
     be8:	bf 91       	pop	r27
     bea:	af 91       	pop	r26
     bec:	9f 91       	pop	r25
     bee:	8f 91       	pop	r24
     bf0:	7f 91       	pop	r23
     bf2:	6f 91       	pop	r22
     bf4:	5f 91       	pop	r21
     bf6:	4f 91       	pop	r20
     bf8:	3f 91       	pop	r19
     bfa:	2f 91       	pop	r18
     bfc:	0f 90       	pop	r0
     bfe:	0b be       	out	0x3b, r0	; 59
     c00:	0f 90       	pop	r0
     c02:	09 be       	out	0x39, r0	; 57
     c04:	0f 90       	pop	r0
     c06:	08 be       	out	0x38, r0	; 56
     c08:	0f 90       	pop	r0
     c0a:	0f be       	out	0x3f, r0	; 63
     c0c:	0f 90       	pop	r0
     c0e:	1f 90       	pop	r1
     c10:	18 95       	reti

00000c12 <__vector_17>:
     c12:	1f 92       	push	r1
     c14:	0f 92       	push	r0
     c16:	0f b6       	in	r0, 0x3f	; 63
     c18:	0f 92       	push	r0
     c1a:	11 24       	eor	r1, r1
     c1c:	08 b6       	in	r0, 0x38	; 56
     c1e:	0f 92       	push	r0
     c20:	18 be       	out	0x38, r1	; 56
     c22:	09 b6       	in	r0, 0x39	; 57
     c24:	0f 92       	push	r0
     c26:	19 be       	out	0x39, r1	; 57
     c28:	0b b6       	in	r0, 0x3b	; 59
     c2a:	0f 92       	push	r0
     c2c:	1b be       	out	0x3b, r1	; 59
     c2e:	2f 93       	push	r18
     c30:	3f 93       	push	r19
     c32:	4f 93       	push	r20
     c34:	5f 93       	push	r21
     c36:	6f 93       	push	r22
     c38:	7f 93       	push	r23
     c3a:	8f 93       	push	r24
     c3c:	9f 93       	push	r25
     c3e:	af 93       	push	r26
     c40:	bf 93       	push	r27
     c42:	ef 93       	push	r30
     c44:	ff 93       	push	r31
     c46:	e0 91 94 20 	lds	r30, 0x2094
     c4a:	f0 91 95 20 	lds	r31, 0x2095
     c4e:	30 97       	sbiw	r30, 0x00	; 0
     c50:	09 f0       	breq	.+2      	; 0xc54 <__vector_17+0x42>
     c52:	19 95       	eicall
     c54:	ff 91       	pop	r31
     c56:	ef 91       	pop	r30
     c58:	bf 91       	pop	r27
     c5a:	af 91       	pop	r26
     c5c:	9f 91       	pop	r25
     c5e:	8f 91       	pop	r24
     c60:	7f 91       	pop	r23
     c62:	6f 91       	pop	r22
     c64:	5f 91       	pop	r21
     c66:	4f 91       	pop	r20
     c68:	3f 91       	pop	r19
     c6a:	2f 91       	pop	r18
     c6c:	0f 90       	pop	r0
     c6e:	0b be       	out	0x3b, r0	; 59
     c70:	0f 90       	pop	r0
     c72:	09 be       	out	0x39, r0	; 57
     c74:	0f 90       	pop	r0
     c76:	08 be       	out	0x38, r0	; 56
     c78:	0f 90       	pop	r0
     c7a:	0f be       	out	0x3f, r0	; 63
     c7c:	0f 90       	pop	r0
     c7e:	1f 90       	pop	r1
     c80:	18 95       	reti

00000c82 <__vector_18>:
     c82:	1f 92       	push	r1
     c84:	0f 92       	push	r0
     c86:	0f b6       	in	r0, 0x3f	; 63
     c88:	0f 92       	push	r0
     c8a:	11 24       	eor	r1, r1
     c8c:	08 b6       	in	r0, 0x38	; 56
     c8e:	0f 92       	push	r0
     c90:	18 be       	out	0x38, r1	; 56
     c92:	09 b6       	in	r0, 0x39	; 57
     c94:	0f 92       	push	r0
     c96:	19 be       	out	0x39, r1	; 57
     c98:	0b b6       	in	r0, 0x3b	; 59
     c9a:	0f 92       	push	r0
     c9c:	1b be       	out	0x3b, r1	; 59
     c9e:	2f 93       	push	r18
     ca0:	3f 93       	push	r19
     ca2:	4f 93       	push	r20
     ca4:	5f 93       	push	r21
     ca6:	6f 93       	push	r22
     ca8:	7f 93       	push	r23
     caa:	8f 93       	push	r24
     cac:	9f 93       	push	r25
     cae:	af 93       	push	r26
     cb0:	bf 93       	push	r27
     cb2:	ef 93       	push	r30
     cb4:	ff 93       	push	r31
     cb6:	e0 91 92 20 	lds	r30, 0x2092
     cba:	f0 91 93 20 	lds	r31, 0x2093
     cbe:	30 97       	sbiw	r30, 0x00	; 0
     cc0:	09 f0       	breq	.+2      	; 0xcc4 <__vector_18+0x42>
     cc2:	19 95       	eicall
     cc4:	ff 91       	pop	r31
     cc6:	ef 91       	pop	r30
     cc8:	bf 91       	pop	r27
     cca:	af 91       	pop	r26
     ccc:	9f 91       	pop	r25
     cce:	8f 91       	pop	r24
     cd0:	7f 91       	pop	r23
     cd2:	6f 91       	pop	r22
     cd4:	5f 91       	pop	r21
     cd6:	4f 91       	pop	r20
     cd8:	3f 91       	pop	r19
     cda:	2f 91       	pop	r18
     cdc:	0f 90       	pop	r0
     cde:	0b be       	out	0x3b, r0	; 59
     ce0:	0f 90       	pop	r0
     ce2:	09 be       	out	0x39, r0	; 57
     ce4:	0f 90       	pop	r0
     ce6:	08 be       	out	0x38, r0	; 56
     ce8:	0f 90       	pop	r0
     cea:	0f be       	out	0x3f, r0	; 63
     cec:	0f 90       	pop	r0
     cee:	1f 90       	pop	r1
     cf0:	18 95       	reti

00000cf2 <__vector_19>:
     cf2:	1f 92       	push	r1
     cf4:	0f 92       	push	r0
     cf6:	0f b6       	in	r0, 0x3f	; 63
     cf8:	0f 92       	push	r0
     cfa:	11 24       	eor	r1, r1
     cfc:	08 b6       	in	r0, 0x38	; 56
     cfe:	0f 92       	push	r0
     d00:	18 be       	out	0x38, r1	; 56
     d02:	09 b6       	in	r0, 0x39	; 57
     d04:	0f 92       	push	r0
     d06:	19 be       	out	0x39, r1	; 57
     d08:	0b b6       	in	r0, 0x3b	; 59
     d0a:	0f 92       	push	r0
     d0c:	1b be       	out	0x3b, r1	; 59
     d0e:	2f 93       	push	r18
     d10:	3f 93       	push	r19
     d12:	4f 93       	push	r20
     d14:	5f 93       	push	r21
     d16:	6f 93       	push	r22
     d18:	7f 93       	push	r23
     d1a:	8f 93       	push	r24
     d1c:	9f 93       	push	r25
     d1e:	af 93       	push	r26
     d20:	bf 93       	push	r27
     d22:	ef 93       	push	r30
     d24:	ff 93       	push	r31
     d26:	e0 91 90 20 	lds	r30, 0x2090
     d2a:	f0 91 91 20 	lds	r31, 0x2091
     d2e:	30 97       	sbiw	r30, 0x00	; 0
     d30:	09 f0       	breq	.+2      	; 0xd34 <__vector_19+0x42>
     d32:	19 95       	eicall
     d34:	ff 91       	pop	r31
     d36:	ef 91       	pop	r30
     d38:	bf 91       	pop	r27
     d3a:	af 91       	pop	r26
     d3c:	9f 91       	pop	r25
     d3e:	8f 91       	pop	r24
     d40:	7f 91       	pop	r23
     d42:	6f 91       	pop	r22
     d44:	5f 91       	pop	r21
     d46:	4f 91       	pop	r20
     d48:	3f 91       	pop	r19
     d4a:	2f 91       	pop	r18
     d4c:	0f 90       	pop	r0
     d4e:	0b be       	out	0x3b, r0	; 59
     d50:	0f 90       	pop	r0
     d52:	09 be       	out	0x39, r0	; 57
     d54:	0f 90       	pop	r0
     d56:	08 be       	out	0x38, r0	; 56
     d58:	0f 90       	pop	r0
     d5a:	0f be       	out	0x3f, r0	; 63
     d5c:	0f 90       	pop	r0
     d5e:	1f 90       	pop	r1
     d60:	18 95       	reti

00000d62 <__vector_20>:
     d62:	1f 92       	push	r1
     d64:	0f 92       	push	r0
     d66:	0f b6       	in	r0, 0x3f	; 63
     d68:	0f 92       	push	r0
     d6a:	11 24       	eor	r1, r1
     d6c:	08 b6       	in	r0, 0x38	; 56
     d6e:	0f 92       	push	r0
     d70:	18 be       	out	0x38, r1	; 56
     d72:	09 b6       	in	r0, 0x39	; 57
     d74:	0f 92       	push	r0
     d76:	19 be       	out	0x39, r1	; 57
     d78:	0b b6       	in	r0, 0x3b	; 59
     d7a:	0f 92       	push	r0
     d7c:	1b be       	out	0x3b, r1	; 59
     d7e:	2f 93       	push	r18
     d80:	3f 93       	push	r19
     d82:	4f 93       	push	r20
     d84:	5f 93       	push	r21
     d86:	6f 93       	push	r22
     d88:	7f 93       	push	r23
     d8a:	8f 93       	push	r24
     d8c:	9f 93       	push	r25
     d8e:	af 93       	push	r26
     d90:	bf 93       	push	r27
     d92:	ef 93       	push	r30
     d94:	ff 93       	push	r31
     d96:	e0 91 8e 20 	lds	r30, 0x208E
     d9a:	f0 91 8f 20 	lds	r31, 0x208F
     d9e:	30 97       	sbiw	r30, 0x00	; 0
     da0:	09 f0       	breq	.+2      	; 0xda4 <__vector_20+0x42>
     da2:	19 95       	eicall
     da4:	ff 91       	pop	r31
     da6:	ef 91       	pop	r30
     da8:	bf 91       	pop	r27
     daa:	af 91       	pop	r26
     dac:	9f 91       	pop	r25
     dae:	8f 91       	pop	r24
     db0:	7f 91       	pop	r23
     db2:	6f 91       	pop	r22
     db4:	5f 91       	pop	r21
     db6:	4f 91       	pop	r20
     db8:	3f 91       	pop	r19
     dba:	2f 91       	pop	r18
     dbc:	0f 90       	pop	r0
     dbe:	0b be       	out	0x3b, r0	; 59
     dc0:	0f 90       	pop	r0
     dc2:	09 be       	out	0x39, r0	; 57
     dc4:	0f 90       	pop	r0
     dc6:	08 be       	out	0x38, r0	; 56
     dc8:	0f 90       	pop	r0
     dca:	0f be       	out	0x3f, r0	; 63
     dcc:	0f 90       	pop	r0
     dce:	1f 90       	pop	r1
     dd0:	18 95       	reti

00000dd2 <__vector_21>:
     dd2:	1f 92       	push	r1
     dd4:	0f 92       	push	r0
     dd6:	0f b6       	in	r0, 0x3f	; 63
     dd8:	0f 92       	push	r0
     dda:	11 24       	eor	r1, r1
     ddc:	08 b6       	in	r0, 0x38	; 56
     dde:	0f 92       	push	r0
     de0:	18 be       	out	0x38, r1	; 56
     de2:	09 b6       	in	r0, 0x39	; 57
     de4:	0f 92       	push	r0
     de6:	19 be       	out	0x39, r1	; 57
     de8:	0b b6       	in	r0, 0x3b	; 59
     dea:	0f 92       	push	r0
     dec:	1b be       	out	0x3b, r1	; 59
     dee:	2f 93       	push	r18
     df0:	3f 93       	push	r19
     df2:	4f 93       	push	r20
     df4:	5f 93       	push	r21
     df6:	6f 93       	push	r22
     df8:	7f 93       	push	r23
     dfa:	8f 93       	push	r24
     dfc:	9f 93       	push	r25
     dfe:	af 93       	push	r26
     e00:	bf 93       	push	r27
     e02:	ef 93       	push	r30
     e04:	ff 93       	push	r31
     e06:	e0 91 8c 20 	lds	r30, 0x208C
     e0a:	f0 91 8d 20 	lds	r31, 0x208D
     e0e:	30 97       	sbiw	r30, 0x00	; 0
     e10:	09 f0       	breq	.+2      	; 0xe14 <__vector_21+0x42>
     e12:	19 95       	eicall
     e14:	ff 91       	pop	r31
     e16:	ef 91       	pop	r30
     e18:	bf 91       	pop	r27
     e1a:	af 91       	pop	r26
     e1c:	9f 91       	pop	r25
     e1e:	8f 91       	pop	r24
     e20:	7f 91       	pop	r23
     e22:	6f 91       	pop	r22
     e24:	5f 91       	pop	r21
     e26:	4f 91       	pop	r20
     e28:	3f 91       	pop	r19
     e2a:	2f 91       	pop	r18
     e2c:	0f 90       	pop	r0
     e2e:	0b be       	out	0x3b, r0	; 59
     e30:	0f 90       	pop	r0
     e32:	09 be       	out	0x39, r0	; 57
     e34:	0f 90       	pop	r0
     e36:	08 be       	out	0x38, r0	; 56
     e38:	0f 90       	pop	r0
     e3a:	0f be       	out	0x3f, r0	; 63
     e3c:	0f 90       	pop	r0
     e3e:	1f 90       	pop	r1
     e40:	18 95       	reti

00000e42 <__vector_22>:
     e42:	1f 92       	push	r1
     e44:	0f 92       	push	r0
     e46:	0f b6       	in	r0, 0x3f	; 63
     e48:	0f 92       	push	r0
     e4a:	11 24       	eor	r1, r1
     e4c:	08 b6       	in	r0, 0x38	; 56
     e4e:	0f 92       	push	r0
     e50:	18 be       	out	0x38, r1	; 56
     e52:	09 b6       	in	r0, 0x39	; 57
     e54:	0f 92       	push	r0
     e56:	19 be       	out	0x39, r1	; 57
     e58:	0b b6       	in	r0, 0x3b	; 59
     e5a:	0f 92       	push	r0
     e5c:	1b be       	out	0x3b, r1	; 59
     e5e:	2f 93       	push	r18
     e60:	3f 93       	push	r19
     e62:	4f 93       	push	r20
     e64:	5f 93       	push	r21
     e66:	6f 93       	push	r22
     e68:	7f 93       	push	r23
     e6a:	8f 93       	push	r24
     e6c:	9f 93       	push	r25
     e6e:	af 93       	push	r26
     e70:	bf 93       	push	r27
     e72:	ef 93       	push	r30
     e74:	ff 93       	push	r31
     e76:	e0 91 8a 20 	lds	r30, 0x208A
     e7a:	f0 91 8b 20 	lds	r31, 0x208B
     e7e:	30 97       	sbiw	r30, 0x00	; 0
     e80:	09 f0       	breq	.+2      	; 0xe84 <__vector_22+0x42>
     e82:	19 95       	eicall
     e84:	ff 91       	pop	r31
     e86:	ef 91       	pop	r30
     e88:	bf 91       	pop	r27
     e8a:	af 91       	pop	r26
     e8c:	9f 91       	pop	r25
     e8e:	8f 91       	pop	r24
     e90:	7f 91       	pop	r23
     e92:	6f 91       	pop	r22
     e94:	5f 91       	pop	r21
     e96:	4f 91       	pop	r20
     e98:	3f 91       	pop	r19
     e9a:	2f 91       	pop	r18
     e9c:	0f 90       	pop	r0
     e9e:	0b be       	out	0x3b, r0	; 59
     ea0:	0f 90       	pop	r0
     ea2:	09 be       	out	0x39, r0	; 57
     ea4:	0f 90       	pop	r0
     ea6:	08 be       	out	0x38, r0	; 56
     ea8:	0f 90       	pop	r0
     eaa:	0f be       	out	0x3f, r0	; 63
     eac:	0f 90       	pop	r0
     eae:	1f 90       	pop	r1
     eb0:	18 95       	reti

00000eb2 <__vector_23>:
     eb2:	1f 92       	push	r1
     eb4:	0f 92       	push	r0
     eb6:	0f b6       	in	r0, 0x3f	; 63
     eb8:	0f 92       	push	r0
     eba:	11 24       	eor	r1, r1
     ebc:	08 b6       	in	r0, 0x38	; 56
     ebe:	0f 92       	push	r0
     ec0:	18 be       	out	0x38, r1	; 56
     ec2:	09 b6       	in	r0, 0x39	; 57
     ec4:	0f 92       	push	r0
     ec6:	19 be       	out	0x39, r1	; 57
     ec8:	0b b6       	in	r0, 0x3b	; 59
     eca:	0f 92       	push	r0
     ecc:	1b be       	out	0x3b, r1	; 59
     ece:	2f 93       	push	r18
     ed0:	3f 93       	push	r19
     ed2:	4f 93       	push	r20
     ed4:	5f 93       	push	r21
     ed6:	6f 93       	push	r22
     ed8:	7f 93       	push	r23
     eda:	8f 93       	push	r24
     edc:	9f 93       	push	r25
     ede:	af 93       	push	r26
     ee0:	bf 93       	push	r27
     ee2:	ef 93       	push	r30
     ee4:	ff 93       	push	r31
     ee6:	e0 91 88 20 	lds	r30, 0x2088
     eea:	f0 91 89 20 	lds	r31, 0x2089
     eee:	30 97       	sbiw	r30, 0x00	; 0
     ef0:	09 f0       	breq	.+2      	; 0xef4 <__vector_23+0x42>
     ef2:	19 95       	eicall
     ef4:	ff 91       	pop	r31
     ef6:	ef 91       	pop	r30
     ef8:	bf 91       	pop	r27
     efa:	af 91       	pop	r26
     efc:	9f 91       	pop	r25
     efe:	8f 91       	pop	r24
     f00:	7f 91       	pop	r23
     f02:	6f 91       	pop	r22
     f04:	5f 91       	pop	r21
     f06:	4f 91       	pop	r20
     f08:	3f 91       	pop	r19
     f0a:	2f 91       	pop	r18
     f0c:	0f 90       	pop	r0
     f0e:	0b be       	out	0x3b, r0	; 59
     f10:	0f 90       	pop	r0
     f12:	09 be       	out	0x39, r0	; 57
     f14:	0f 90       	pop	r0
     f16:	08 be       	out	0x38, r0	; 56
     f18:	0f 90       	pop	r0
     f1a:	0f be       	out	0x3f, r0	; 63
     f1c:	0f 90       	pop	r0
     f1e:	1f 90       	pop	r1
     f20:	18 95       	reti

00000f22 <__vector_78>:
     f22:	1f 92       	push	r1
     f24:	0f 92       	push	r0
     f26:	0f b6       	in	r0, 0x3f	; 63
     f28:	0f 92       	push	r0
     f2a:	11 24       	eor	r1, r1
     f2c:	08 b6       	in	r0, 0x38	; 56
     f2e:	0f 92       	push	r0
     f30:	18 be       	out	0x38, r1	; 56
     f32:	09 b6       	in	r0, 0x39	; 57
     f34:	0f 92       	push	r0
     f36:	19 be       	out	0x39, r1	; 57
     f38:	0b b6       	in	r0, 0x3b	; 59
     f3a:	0f 92       	push	r0
     f3c:	1b be       	out	0x3b, r1	; 59
     f3e:	2f 93       	push	r18
     f40:	3f 93       	push	r19
     f42:	4f 93       	push	r20
     f44:	5f 93       	push	r21
     f46:	6f 93       	push	r22
     f48:	7f 93       	push	r23
     f4a:	8f 93       	push	r24
     f4c:	9f 93       	push	r25
     f4e:	af 93       	push	r26
     f50:	bf 93       	push	r27
     f52:	ef 93       	push	r30
     f54:	ff 93       	push	r31
     f56:	e0 91 86 20 	lds	r30, 0x2086
     f5a:	f0 91 87 20 	lds	r31, 0x2087
     f5e:	30 97       	sbiw	r30, 0x00	; 0
     f60:	09 f0       	breq	.+2      	; 0xf64 <__vector_78+0x42>
     f62:	19 95       	eicall
     f64:	ff 91       	pop	r31
     f66:	ef 91       	pop	r30
     f68:	bf 91       	pop	r27
     f6a:	af 91       	pop	r26
     f6c:	9f 91       	pop	r25
     f6e:	8f 91       	pop	r24
     f70:	7f 91       	pop	r23
     f72:	6f 91       	pop	r22
     f74:	5f 91       	pop	r21
     f76:	4f 91       	pop	r20
     f78:	3f 91       	pop	r19
     f7a:	2f 91       	pop	r18
     f7c:	0f 90       	pop	r0
     f7e:	0b be       	out	0x3b, r0	; 59
     f80:	0f 90       	pop	r0
     f82:	09 be       	out	0x39, r0	; 57
     f84:	0f 90       	pop	r0
     f86:	08 be       	out	0x38, r0	; 56
     f88:	0f 90       	pop	r0
     f8a:	0f be       	out	0x3f, r0	; 63
     f8c:	0f 90       	pop	r0
     f8e:	1f 90       	pop	r1
     f90:	18 95       	reti

00000f92 <__vector_79>:
     f92:	1f 92       	push	r1
     f94:	0f 92       	push	r0
     f96:	0f b6       	in	r0, 0x3f	; 63
     f98:	0f 92       	push	r0
     f9a:	11 24       	eor	r1, r1
     f9c:	08 b6       	in	r0, 0x38	; 56
     f9e:	0f 92       	push	r0
     fa0:	18 be       	out	0x38, r1	; 56
     fa2:	09 b6       	in	r0, 0x39	; 57
     fa4:	0f 92       	push	r0
     fa6:	19 be       	out	0x39, r1	; 57
     fa8:	0b b6       	in	r0, 0x3b	; 59
     faa:	0f 92       	push	r0
     fac:	1b be       	out	0x3b, r1	; 59
     fae:	2f 93       	push	r18
     fb0:	3f 93       	push	r19
     fb2:	4f 93       	push	r20
     fb4:	5f 93       	push	r21
     fb6:	6f 93       	push	r22
     fb8:	7f 93       	push	r23
     fba:	8f 93       	push	r24
     fbc:	9f 93       	push	r25
     fbe:	af 93       	push	r26
     fc0:	bf 93       	push	r27
     fc2:	ef 93       	push	r30
     fc4:	ff 93       	push	r31
     fc6:	e0 91 84 20 	lds	r30, 0x2084
     fca:	f0 91 85 20 	lds	r31, 0x2085
     fce:	30 97       	sbiw	r30, 0x00	; 0
     fd0:	09 f0       	breq	.+2      	; 0xfd4 <__vector_79+0x42>
     fd2:	19 95       	eicall
     fd4:	ff 91       	pop	r31
     fd6:	ef 91       	pop	r30
     fd8:	bf 91       	pop	r27
     fda:	af 91       	pop	r26
     fdc:	9f 91       	pop	r25
     fde:	8f 91       	pop	r24
     fe0:	7f 91       	pop	r23
     fe2:	6f 91       	pop	r22
     fe4:	5f 91       	pop	r21
     fe6:	4f 91       	pop	r20
     fe8:	3f 91       	pop	r19
     fea:	2f 91       	pop	r18
     fec:	0f 90       	pop	r0
     fee:	0b be       	out	0x3b, r0	; 59
     ff0:	0f 90       	pop	r0
     ff2:	09 be       	out	0x39, r0	; 57
     ff4:	0f 90       	pop	r0
     ff6:	08 be       	out	0x38, r0	; 56
     ff8:	0f 90       	pop	r0
     ffa:	0f be       	out	0x3f, r0	; 63
     ffc:	0f 90       	pop	r0
     ffe:	1f 90       	pop	r1
    1000:	18 95       	reti

00001002 <__vector_80>:
    1002:	1f 92       	push	r1
    1004:	0f 92       	push	r0
    1006:	0f b6       	in	r0, 0x3f	; 63
    1008:	0f 92       	push	r0
    100a:	11 24       	eor	r1, r1
    100c:	08 b6       	in	r0, 0x38	; 56
    100e:	0f 92       	push	r0
    1010:	18 be       	out	0x38, r1	; 56
    1012:	09 b6       	in	r0, 0x39	; 57
    1014:	0f 92       	push	r0
    1016:	19 be       	out	0x39, r1	; 57
    1018:	0b b6       	in	r0, 0x3b	; 59
    101a:	0f 92       	push	r0
    101c:	1b be       	out	0x3b, r1	; 59
    101e:	2f 93       	push	r18
    1020:	3f 93       	push	r19
    1022:	4f 93       	push	r20
    1024:	5f 93       	push	r21
    1026:	6f 93       	push	r22
    1028:	7f 93       	push	r23
    102a:	8f 93       	push	r24
    102c:	9f 93       	push	r25
    102e:	af 93       	push	r26
    1030:	bf 93       	push	r27
    1032:	ef 93       	push	r30
    1034:	ff 93       	push	r31
    1036:	e0 91 82 20 	lds	r30, 0x2082
    103a:	f0 91 83 20 	lds	r31, 0x2083
    103e:	30 97       	sbiw	r30, 0x00	; 0
    1040:	09 f0       	breq	.+2      	; 0x1044 <__vector_80+0x42>
    1042:	19 95       	eicall
    1044:	ff 91       	pop	r31
    1046:	ef 91       	pop	r30
    1048:	bf 91       	pop	r27
    104a:	af 91       	pop	r26
    104c:	9f 91       	pop	r25
    104e:	8f 91       	pop	r24
    1050:	7f 91       	pop	r23
    1052:	6f 91       	pop	r22
    1054:	5f 91       	pop	r21
    1056:	4f 91       	pop	r20
    1058:	3f 91       	pop	r19
    105a:	2f 91       	pop	r18
    105c:	0f 90       	pop	r0
    105e:	0b be       	out	0x3b, r0	; 59
    1060:	0f 90       	pop	r0
    1062:	09 be       	out	0x39, r0	; 57
    1064:	0f 90       	pop	r0
    1066:	08 be       	out	0x38, r0	; 56
    1068:	0f 90       	pop	r0
    106a:	0f be       	out	0x3f, r0	; 63
    106c:	0f 90       	pop	r0
    106e:	1f 90       	pop	r1
    1070:	18 95       	reti

00001072 <__vector_81>:
    1072:	1f 92       	push	r1
    1074:	0f 92       	push	r0
    1076:	0f b6       	in	r0, 0x3f	; 63
    1078:	0f 92       	push	r0
    107a:	11 24       	eor	r1, r1
    107c:	08 b6       	in	r0, 0x38	; 56
    107e:	0f 92       	push	r0
    1080:	18 be       	out	0x38, r1	; 56
    1082:	09 b6       	in	r0, 0x39	; 57
    1084:	0f 92       	push	r0
    1086:	19 be       	out	0x39, r1	; 57
    1088:	0b b6       	in	r0, 0x3b	; 59
    108a:	0f 92       	push	r0
    108c:	1b be       	out	0x3b, r1	; 59
    108e:	2f 93       	push	r18
    1090:	3f 93       	push	r19
    1092:	4f 93       	push	r20
    1094:	5f 93       	push	r21
    1096:	6f 93       	push	r22
    1098:	7f 93       	push	r23
    109a:	8f 93       	push	r24
    109c:	9f 93       	push	r25
    109e:	af 93       	push	r26
    10a0:	bf 93       	push	r27
    10a2:	ef 93       	push	r30
    10a4:	ff 93       	push	r31
    10a6:	e0 91 80 20 	lds	r30, 0x2080
    10aa:	f0 91 81 20 	lds	r31, 0x2081
    10ae:	30 97       	sbiw	r30, 0x00	; 0
    10b0:	09 f0       	breq	.+2      	; 0x10b4 <__vector_81+0x42>
    10b2:	19 95       	eicall
    10b4:	ff 91       	pop	r31
    10b6:	ef 91       	pop	r30
    10b8:	bf 91       	pop	r27
    10ba:	af 91       	pop	r26
    10bc:	9f 91       	pop	r25
    10be:	8f 91       	pop	r24
    10c0:	7f 91       	pop	r23
    10c2:	6f 91       	pop	r22
    10c4:	5f 91       	pop	r21
    10c6:	4f 91       	pop	r20
    10c8:	3f 91       	pop	r19
    10ca:	2f 91       	pop	r18
    10cc:	0f 90       	pop	r0
    10ce:	0b be       	out	0x3b, r0	; 59
    10d0:	0f 90       	pop	r0
    10d2:	09 be       	out	0x39, r0	; 57
    10d4:	0f 90       	pop	r0
    10d6:	08 be       	out	0x38, r0	; 56
    10d8:	0f 90       	pop	r0
    10da:	0f be       	out	0x3f, r0	; 63
    10dc:	0f 90       	pop	r0
    10de:	1f 90       	pop	r1
    10e0:	18 95       	reti

000010e2 <__vector_82>:
    10e2:	1f 92       	push	r1
    10e4:	0f 92       	push	r0
    10e6:	0f b6       	in	r0, 0x3f	; 63
    10e8:	0f 92       	push	r0
    10ea:	11 24       	eor	r1, r1
    10ec:	08 b6       	in	r0, 0x38	; 56
    10ee:	0f 92       	push	r0
    10f0:	18 be       	out	0x38, r1	; 56
    10f2:	09 b6       	in	r0, 0x39	; 57
    10f4:	0f 92       	push	r0
    10f6:	19 be       	out	0x39, r1	; 57
    10f8:	0b b6       	in	r0, 0x3b	; 59
    10fa:	0f 92       	push	r0
    10fc:	1b be       	out	0x3b, r1	; 59
    10fe:	2f 93       	push	r18
    1100:	3f 93       	push	r19
    1102:	4f 93       	push	r20
    1104:	5f 93       	push	r21
    1106:	6f 93       	push	r22
    1108:	7f 93       	push	r23
    110a:	8f 93       	push	r24
    110c:	9f 93       	push	r25
    110e:	af 93       	push	r26
    1110:	bf 93       	push	r27
    1112:	ef 93       	push	r30
    1114:	ff 93       	push	r31
    1116:	e0 91 7e 20 	lds	r30, 0x207E
    111a:	f0 91 7f 20 	lds	r31, 0x207F
    111e:	30 97       	sbiw	r30, 0x00	; 0
    1120:	09 f0       	breq	.+2      	; 0x1124 <__vector_82+0x42>
    1122:	19 95       	eicall
    1124:	ff 91       	pop	r31
    1126:	ef 91       	pop	r30
    1128:	bf 91       	pop	r27
    112a:	af 91       	pop	r26
    112c:	9f 91       	pop	r25
    112e:	8f 91       	pop	r24
    1130:	7f 91       	pop	r23
    1132:	6f 91       	pop	r22
    1134:	5f 91       	pop	r21
    1136:	4f 91       	pop	r20
    1138:	3f 91       	pop	r19
    113a:	2f 91       	pop	r18
    113c:	0f 90       	pop	r0
    113e:	0b be       	out	0x3b, r0	; 59
    1140:	0f 90       	pop	r0
    1142:	09 be       	out	0x39, r0	; 57
    1144:	0f 90       	pop	r0
    1146:	08 be       	out	0x38, r0	; 56
    1148:	0f 90       	pop	r0
    114a:	0f be       	out	0x3f, r0	; 63
    114c:	0f 90       	pop	r0
    114e:	1f 90       	pop	r1
    1150:	18 95       	reti

00001152 <__vector_83>:
    1152:	1f 92       	push	r1
    1154:	0f 92       	push	r0
    1156:	0f b6       	in	r0, 0x3f	; 63
    1158:	0f 92       	push	r0
    115a:	11 24       	eor	r1, r1
    115c:	08 b6       	in	r0, 0x38	; 56
    115e:	0f 92       	push	r0
    1160:	18 be       	out	0x38, r1	; 56
    1162:	09 b6       	in	r0, 0x39	; 57
    1164:	0f 92       	push	r0
    1166:	19 be       	out	0x39, r1	; 57
    1168:	0b b6       	in	r0, 0x3b	; 59
    116a:	0f 92       	push	r0
    116c:	1b be       	out	0x3b, r1	; 59
    116e:	2f 93       	push	r18
    1170:	3f 93       	push	r19
    1172:	4f 93       	push	r20
    1174:	5f 93       	push	r21
    1176:	6f 93       	push	r22
    1178:	7f 93       	push	r23
    117a:	8f 93       	push	r24
    117c:	9f 93       	push	r25
    117e:	af 93       	push	r26
    1180:	bf 93       	push	r27
    1182:	ef 93       	push	r30
    1184:	ff 93       	push	r31
    1186:	e0 91 7c 20 	lds	r30, 0x207C
    118a:	f0 91 7d 20 	lds	r31, 0x207D
    118e:	30 97       	sbiw	r30, 0x00	; 0
    1190:	09 f0       	breq	.+2      	; 0x1194 <__vector_83+0x42>
    1192:	19 95       	eicall
    1194:	ff 91       	pop	r31
    1196:	ef 91       	pop	r30
    1198:	bf 91       	pop	r27
    119a:	af 91       	pop	r26
    119c:	9f 91       	pop	r25
    119e:	8f 91       	pop	r24
    11a0:	7f 91       	pop	r23
    11a2:	6f 91       	pop	r22
    11a4:	5f 91       	pop	r21
    11a6:	4f 91       	pop	r20
    11a8:	3f 91       	pop	r19
    11aa:	2f 91       	pop	r18
    11ac:	0f 90       	pop	r0
    11ae:	0b be       	out	0x3b, r0	; 59
    11b0:	0f 90       	pop	r0
    11b2:	09 be       	out	0x39, r0	; 57
    11b4:	0f 90       	pop	r0
    11b6:	08 be       	out	0x38, r0	; 56
    11b8:	0f 90       	pop	r0
    11ba:	0f be       	out	0x3f, r0	; 63
    11bc:	0f 90       	pop	r0
    11be:	1f 90       	pop	r1
    11c0:	18 95       	reti

000011c2 <__vector_84>:
    11c2:	1f 92       	push	r1
    11c4:	0f 92       	push	r0
    11c6:	0f b6       	in	r0, 0x3f	; 63
    11c8:	0f 92       	push	r0
    11ca:	11 24       	eor	r1, r1
    11cc:	08 b6       	in	r0, 0x38	; 56
    11ce:	0f 92       	push	r0
    11d0:	18 be       	out	0x38, r1	; 56
    11d2:	09 b6       	in	r0, 0x39	; 57
    11d4:	0f 92       	push	r0
    11d6:	19 be       	out	0x39, r1	; 57
    11d8:	0b b6       	in	r0, 0x3b	; 59
    11da:	0f 92       	push	r0
    11dc:	1b be       	out	0x3b, r1	; 59
    11de:	2f 93       	push	r18
    11e0:	3f 93       	push	r19
    11e2:	4f 93       	push	r20
    11e4:	5f 93       	push	r21
    11e6:	6f 93       	push	r22
    11e8:	7f 93       	push	r23
    11ea:	8f 93       	push	r24
    11ec:	9f 93       	push	r25
    11ee:	af 93       	push	r26
    11f0:	bf 93       	push	r27
    11f2:	ef 93       	push	r30
    11f4:	ff 93       	push	r31
    11f6:	e0 91 7a 20 	lds	r30, 0x207A
    11fa:	f0 91 7b 20 	lds	r31, 0x207B
    11fe:	30 97       	sbiw	r30, 0x00	; 0
    1200:	09 f0       	breq	.+2      	; 0x1204 <__vector_84+0x42>
    1202:	19 95       	eicall
    1204:	ff 91       	pop	r31
    1206:	ef 91       	pop	r30
    1208:	bf 91       	pop	r27
    120a:	af 91       	pop	r26
    120c:	9f 91       	pop	r25
    120e:	8f 91       	pop	r24
    1210:	7f 91       	pop	r23
    1212:	6f 91       	pop	r22
    1214:	5f 91       	pop	r21
    1216:	4f 91       	pop	r20
    1218:	3f 91       	pop	r19
    121a:	2f 91       	pop	r18
    121c:	0f 90       	pop	r0
    121e:	0b be       	out	0x3b, r0	; 59
    1220:	0f 90       	pop	r0
    1222:	09 be       	out	0x39, r0	; 57
    1224:	0f 90       	pop	r0
    1226:	08 be       	out	0x38, r0	; 56
    1228:	0f 90       	pop	r0
    122a:	0f be       	out	0x3f, r0	; 63
    122c:	0f 90       	pop	r0
    122e:	1f 90       	pop	r1
    1230:	18 95       	reti

00001232 <__vector_85>:
    1232:	1f 92       	push	r1
    1234:	0f 92       	push	r0
    1236:	0f b6       	in	r0, 0x3f	; 63
    1238:	0f 92       	push	r0
    123a:	11 24       	eor	r1, r1
    123c:	08 b6       	in	r0, 0x38	; 56
    123e:	0f 92       	push	r0
    1240:	18 be       	out	0x38, r1	; 56
    1242:	09 b6       	in	r0, 0x39	; 57
    1244:	0f 92       	push	r0
    1246:	19 be       	out	0x39, r1	; 57
    1248:	0b b6       	in	r0, 0x3b	; 59
    124a:	0f 92       	push	r0
    124c:	1b be       	out	0x3b, r1	; 59
    124e:	2f 93       	push	r18
    1250:	3f 93       	push	r19
    1252:	4f 93       	push	r20
    1254:	5f 93       	push	r21
    1256:	6f 93       	push	r22
    1258:	7f 93       	push	r23
    125a:	8f 93       	push	r24
    125c:	9f 93       	push	r25
    125e:	af 93       	push	r26
    1260:	bf 93       	push	r27
    1262:	ef 93       	push	r30
    1264:	ff 93       	push	r31
    1266:	e0 91 78 20 	lds	r30, 0x2078
    126a:	f0 91 79 20 	lds	r31, 0x2079
    126e:	30 97       	sbiw	r30, 0x00	; 0
    1270:	09 f0       	breq	.+2      	; 0x1274 <__vector_85+0x42>
    1272:	19 95       	eicall
    1274:	ff 91       	pop	r31
    1276:	ef 91       	pop	r30
    1278:	bf 91       	pop	r27
    127a:	af 91       	pop	r26
    127c:	9f 91       	pop	r25
    127e:	8f 91       	pop	r24
    1280:	7f 91       	pop	r23
    1282:	6f 91       	pop	r22
    1284:	5f 91       	pop	r21
    1286:	4f 91       	pop	r20
    1288:	3f 91       	pop	r19
    128a:	2f 91       	pop	r18
    128c:	0f 90       	pop	r0
    128e:	0b be       	out	0x3b, r0	; 59
    1290:	0f 90       	pop	r0
    1292:	09 be       	out	0x39, r0	; 57
    1294:	0f 90       	pop	r0
    1296:	08 be       	out	0x38, r0	; 56
    1298:	0f 90       	pop	r0
    129a:	0f be       	out	0x3f, r0	; 63
    129c:	0f 90       	pop	r0
    129e:	1f 90       	pop	r1
    12a0:	18 95       	reti

000012a2 <__vector_86>:
    12a2:	1f 92       	push	r1
    12a4:	0f 92       	push	r0
    12a6:	0f b6       	in	r0, 0x3f	; 63
    12a8:	0f 92       	push	r0
    12aa:	11 24       	eor	r1, r1
    12ac:	08 b6       	in	r0, 0x38	; 56
    12ae:	0f 92       	push	r0
    12b0:	18 be       	out	0x38, r1	; 56
    12b2:	09 b6       	in	r0, 0x39	; 57
    12b4:	0f 92       	push	r0
    12b6:	19 be       	out	0x39, r1	; 57
    12b8:	0b b6       	in	r0, 0x3b	; 59
    12ba:	0f 92       	push	r0
    12bc:	1b be       	out	0x3b, r1	; 59
    12be:	2f 93       	push	r18
    12c0:	3f 93       	push	r19
    12c2:	4f 93       	push	r20
    12c4:	5f 93       	push	r21
    12c6:	6f 93       	push	r22
    12c8:	7f 93       	push	r23
    12ca:	8f 93       	push	r24
    12cc:	9f 93       	push	r25
    12ce:	af 93       	push	r26
    12d0:	bf 93       	push	r27
    12d2:	ef 93       	push	r30
    12d4:	ff 93       	push	r31
    12d6:	e0 91 76 20 	lds	r30, 0x2076
    12da:	f0 91 77 20 	lds	r31, 0x2077
    12de:	30 97       	sbiw	r30, 0x00	; 0
    12e0:	09 f0       	breq	.+2      	; 0x12e4 <__vector_86+0x42>
    12e2:	19 95       	eicall
    12e4:	ff 91       	pop	r31
    12e6:	ef 91       	pop	r30
    12e8:	bf 91       	pop	r27
    12ea:	af 91       	pop	r26
    12ec:	9f 91       	pop	r25
    12ee:	8f 91       	pop	r24
    12f0:	7f 91       	pop	r23
    12f2:	6f 91       	pop	r22
    12f4:	5f 91       	pop	r21
    12f6:	4f 91       	pop	r20
    12f8:	3f 91       	pop	r19
    12fa:	2f 91       	pop	r18
    12fc:	0f 90       	pop	r0
    12fe:	0b be       	out	0x3b, r0	; 59
    1300:	0f 90       	pop	r0
    1302:	09 be       	out	0x39, r0	; 57
    1304:	0f 90       	pop	r0
    1306:	08 be       	out	0x38, r0	; 56
    1308:	0f 90       	pop	r0
    130a:	0f be       	out	0x3f, r0	; 63
    130c:	0f 90       	pop	r0
    130e:	1f 90       	pop	r1
    1310:	18 95       	reti

00001312 <__vector_47>:
    1312:	1f 92       	push	r1
    1314:	0f 92       	push	r0
    1316:	0f b6       	in	r0, 0x3f	; 63
    1318:	0f 92       	push	r0
    131a:	11 24       	eor	r1, r1
    131c:	08 b6       	in	r0, 0x38	; 56
    131e:	0f 92       	push	r0
    1320:	18 be       	out	0x38, r1	; 56
    1322:	09 b6       	in	r0, 0x39	; 57
    1324:	0f 92       	push	r0
    1326:	19 be       	out	0x39, r1	; 57
    1328:	0b b6       	in	r0, 0x3b	; 59
    132a:	0f 92       	push	r0
    132c:	1b be       	out	0x3b, r1	; 59
    132e:	2f 93       	push	r18
    1330:	3f 93       	push	r19
    1332:	4f 93       	push	r20
    1334:	5f 93       	push	r21
    1336:	6f 93       	push	r22
    1338:	7f 93       	push	r23
    133a:	8f 93       	push	r24
    133c:	9f 93       	push	r25
    133e:	af 93       	push	r26
    1340:	bf 93       	push	r27
    1342:	ef 93       	push	r30
    1344:	ff 93       	push	r31
    1346:	e0 91 74 20 	lds	r30, 0x2074
    134a:	f0 91 75 20 	lds	r31, 0x2075
    134e:	30 97       	sbiw	r30, 0x00	; 0
    1350:	09 f0       	breq	.+2      	; 0x1354 <__vector_47+0x42>
    1352:	19 95       	eicall
    1354:	ff 91       	pop	r31
    1356:	ef 91       	pop	r30
    1358:	bf 91       	pop	r27
    135a:	af 91       	pop	r26
    135c:	9f 91       	pop	r25
    135e:	8f 91       	pop	r24
    1360:	7f 91       	pop	r23
    1362:	6f 91       	pop	r22
    1364:	5f 91       	pop	r21
    1366:	4f 91       	pop	r20
    1368:	3f 91       	pop	r19
    136a:	2f 91       	pop	r18
    136c:	0f 90       	pop	r0
    136e:	0b be       	out	0x3b, r0	; 59
    1370:	0f 90       	pop	r0
    1372:	09 be       	out	0x39, r0	; 57
    1374:	0f 90       	pop	r0
    1376:	08 be       	out	0x38, r0	; 56
    1378:	0f 90       	pop	r0
    137a:	0f be       	out	0x3f, r0	; 63
    137c:	0f 90       	pop	r0
    137e:	1f 90       	pop	r1
    1380:	18 95       	reti

00001382 <__vector_48>:
    1382:	1f 92       	push	r1
    1384:	0f 92       	push	r0
    1386:	0f b6       	in	r0, 0x3f	; 63
    1388:	0f 92       	push	r0
    138a:	11 24       	eor	r1, r1
    138c:	08 b6       	in	r0, 0x38	; 56
    138e:	0f 92       	push	r0
    1390:	18 be       	out	0x38, r1	; 56
    1392:	09 b6       	in	r0, 0x39	; 57
    1394:	0f 92       	push	r0
    1396:	19 be       	out	0x39, r1	; 57
    1398:	0b b6       	in	r0, 0x3b	; 59
    139a:	0f 92       	push	r0
    139c:	1b be       	out	0x3b, r1	; 59
    139e:	2f 93       	push	r18
    13a0:	3f 93       	push	r19
    13a2:	4f 93       	push	r20
    13a4:	5f 93       	push	r21
    13a6:	6f 93       	push	r22
    13a8:	7f 93       	push	r23
    13aa:	8f 93       	push	r24
    13ac:	9f 93       	push	r25
    13ae:	af 93       	push	r26
    13b0:	bf 93       	push	r27
    13b2:	ef 93       	push	r30
    13b4:	ff 93       	push	r31
    13b6:	e0 91 72 20 	lds	r30, 0x2072
    13ba:	f0 91 73 20 	lds	r31, 0x2073
    13be:	30 97       	sbiw	r30, 0x00	; 0
    13c0:	09 f0       	breq	.+2      	; 0x13c4 <__vector_48+0x42>
    13c2:	19 95       	eicall
    13c4:	ff 91       	pop	r31
    13c6:	ef 91       	pop	r30
    13c8:	bf 91       	pop	r27
    13ca:	af 91       	pop	r26
    13cc:	9f 91       	pop	r25
    13ce:	8f 91       	pop	r24
    13d0:	7f 91       	pop	r23
    13d2:	6f 91       	pop	r22
    13d4:	5f 91       	pop	r21
    13d6:	4f 91       	pop	r20
    13d8:	3f 91       	pop	r19
    13da:	2f 91       	pop	r18
    13dc:	0f 90       	pop	r0
    13de:	0b be       	out	0x3b, r0	; 59
    13e0:	0f 90       	pop	r0
    13e2:	09 be       	out	0x39, r0	; 57
    13e4:	0f 90       	pop	r0
    13e6:	08 be       	out	0x38, r0	; 56
    13e8:	0f 90       	pop	r0
    13ea:	0f be       	out	0x3f, r0	; 63
    13ec:	0f 90       	pop	r0
    13ee:	1f 90       	pop	r1
    13f0:	18 95       	reti

000013f2 <__vector_49>:
    13f2:	1f 92       	push	r1
    13f4:	0f 92       	push	r0
    13f6:	0f b6       	in	r0, 0x3f	; 63
    13f8:	0f 92       	push	r0
    13fa:	11 24       	eor	r1, r1
    13fc:	08 b6       	in	r0, 0x38	; 56
    13fe:	0f 92       	push	r0
    1400:	18 be       	out	0x38, r1	; 56
    1402:	09 b6       	in	r0, 0x39	; 57
    1404:	0f 92       	push	r0
    1406:	19 be       	out	0x39, r1	; 57
    1408:	0b b6       	in	r0, 0x3b	; 59
    140a:	0f 92       	push	r0
    140c:	1b be       	out	0x3b, r1	; 59
    140e:	2f 93       	push	r18
    1410:	3f 93       	push	r19
    1412:	4f 93       	push	r20
    1414:	5f 93       	push	r21
    1416:	6f 93       	push	r22
    1418:	7f 93       	push	r23
    141a:	8f 93       	push	r24
    141c:	9f 93       	push	r25
    141e:	af 93       	push	r26
    1420:	bf 93       	push	r27
    1422:	ef 93       	push	r30
    1424:	ff 93       	push	r31
    1426:	e0 91 70 20 	lds	r30, 0x2070
    142a:	f0 91 71 20 	lds	r31, 0x2071
    142e:	30 97       	sbiw	r30, 0x00	; 0
    1430:	09 f0       	breq	.+2      	; 0x1434 <__vector_49+0x42>
    1432:	19 95       	eicall
    1434:	ff 91       	pop	r31
    1436:	ef 91       	pop	r30
    1438:	bf 91       	pop	r27
    143a:	af 91       	pop	r26
    143c:	9f 91       	pop	r25
    143e:	8f 91       	pop	r24
    1440:	7f 91       	pop	r23
    1442:	6f 91       	pop	r22
    1444:	5f 91       	pop	r21
    1446:	4f 91       	pop	r20
    1448:	3f 91       	pop	r19
    144a:	2f 91       	pop	r18
    144c:	0f 90       	pop	r0
    144e:	0b be       	out	0x3b, r0	; 59
    1450:	0f 90       	pop	r0
    1452:	09 be       	out	0x39, r0	; 57
    1454:	0f 90       	pop	r0
    1456:	08 be       	out	0x38, r0	; 56
    1458:	0f 90       	pop	r0
    145a:	0f be       	out	0x3f, r0	; 63
    145c:	0f 90       	pop	r0
    145e:	1f 90       	pop	r1
    1460:	18 95       	reti

00001462 <__vector_50>:
    1462:	1f 92       	push	r1
    1464:	0f 92       	push	r0
    1466:	0f b6       	in	r0, 0x3f	; 63
    1468:	0f 92       	push	r0
    146a:	11 24       	eor	r1, r1
    146c:	08 b6       	in	r0, 0x38	; 56
    146e:	0f 92       	push	r0
    1470:	18 be       	out	0x38, r1	; 56
    1472:	09 b6       	in	r0, 0x39	; 57
    1474:	0f 92       	push	r0
    1476:	19 be       	out	0x39, r1	; 57
    1478:	0b b6       	in	r0, 0x3b	; 59
    147a:	0f 92       	push	r0
    147c:	1b be       	out	0x3b, r1	; 59
    147e:	2f 93       	push	r18
    1480:	3f 93       	push	r19
    1482:	4f 93       	push	r20
    1484:	5f 93       	push	r21
    1486:	6f 93       	push	r22
    1488:	7f 93       	push	r23
    148a:	8f 93       	push	r24
    148c:	9f 93       	push	r25
    148e:	af 93       	push	r26
    1490:	bf 93       	push	r27
    1492:	ef 93       	push	r30
    1494:	ff 93       	push	r31
    1496:	e0 91 6e 20 	lds	r30, 0x206E
    149a:	f0 91 6f 20 	lds	r31, 0x206F
    149e:	30 97       	sbiw	r30, 0x00	; 0
    14a0:	09 f0       	breq	.+2      	; 0x14a4 <__vector_50+0x42>
    14a2:	19 95       	eicall
    14a4:	ff 91       	pop	r31
    14a6:	ef 91       	pop	r30
    14a8:	bf 91       	pop	r27
    14aa:	af 91       	pop	r26
    14ac:	9f 91       	pop	r25
    14ae:	8f 91       	pop	r24
    14b0:	7f 91       	pop	r23
    14b2:	6f 91       	pop	r22
    14b4:	5f 91       	pop	r21
    14b6:	4f 91       	pop	r20
    14b8:	3f 91       	pop	r19
    14ba:	2f 91       	pop	r18
    14bc:	0f 90       	pop	r0
    14be:	0b be       	out	0x3b, r0	; 59
    14c0:	0f 90       	pop	r0
    14c2:	09 be       	out	0x39, r0	; 57
    14c4:	0f 90       	pop	r0
    14c6:	08 be       	out	0x38, r0	; 56
    14c8:	0f 90       	pop	r0
    14ca:	0f be       	out	0x3f, r0	; 63
    14cc:	0f 90       	pop	r0
    14ce:	1f 90       	pop	r1
    14d0:	18 95       	reti

000014d2 <__vector_51>:
    14d2:	1f 92       	push	r1
    14d4:	0f 92       	push	r0
    14d6:	0f b6       	in	r0, 0x3f	; 63
    14d8:	0f 92       	push	r0
    14da:	11 24       	eor	r1, r1
    14dc:	08 b6       	in	r0, 0x38	; 56
    14de:	0f 92       	push	r0
    14e0:	18 be       	out	0x38, r1	; 56
    14e2:	09 b6       	in	r0, 0x39	; 57
    14e4:	0f 92       	push	r0
    14e6:	19 be       	out	0x39, r1	; 57
    14e8:	0b b6       	in	r0, 0x3b	; 59
    14ea:	0f 92       	push	r0
    14ec:	1b be       	out	0x3b, r1	; 59
    14ee:	2f 93       	push	r18
    14f0:	3f 93       	push	r19
    14f2:	4f 93       	push	r20
    14f4:	5f 93       	push	r21
    14f6:	6f 93       	push	r22
    14f8:	7f 93       	push	r23
    14fa:	8f 93       	push	r24
    14fc:	9f 93       	push	r25
    14fe:	af 93       	push	r26
    1500:	bf 93       	push	r27
    1502:	ef 93       	push	r30
    1504:	ff 93       	push	r31
    1506:	e0 91 6c 20 	lds	r30, 0x206C
    150a:	f0 91 6d 20 	lds	r31, 0x206D
    150e:	30 97       	sbiw	r30, 0x00	; 0
    1510:	09 f0       	breq	.+2      	; 0x1514 <__vector_51+0x42>
    1512:	19 95       	eicall
    1514:	ff 91       	pop	r31
    1516:	ef 91       	pop	r30
    1518:	bf 91       	pop	r27
    151a:	af 91       	pop	r26
    151c:	9f 91       	pop	r25
    151e:	8f 91       	pop	r24
    1520:	7f 91       	pop	r23
    1522:	6f 91       	pop	r22
    1524:	5f 91       	pop	r21
    1526:	4f 91       	pop	r20
    1528:	3f 91       	pop	r19
    152a:	2f 91       	pop	r18
    152c:	0f 90       	pop	r0
    152e:	0b be       	out	0x3b, r0	; 59
    1530:	0f 90       	pop	r0
    1532:	09 be       	out	0x39, r0	; 57
    1534:	0f 90       	pop	r0
    1536:	08 be       	out	0x38, r0	; 56
    1538:	0f 90       	pop	r0
    153a:	0f be       	out	0x3f, r0	; 63
    153c:	0f 90       	pop	r0
    153e:	1f 90       	pop	r1
    1540:	18 95       	reti

00001542 <__vector_52>:
    1542:	1f 92       	push	r1
    1544:	0f 92       	push	r0
    1546:	0f b6       	in	r0, 0x3f	; 63
    1548:	0f 92       	push	r0
    154a:	11 24       	eor	r1, r1
    154c:	08 b6       	in	r0, 0x38	; 56
    154e:	0f 92       	push	r0
    1550:	18 be       	out	0x38, r1	; 56
    1552:	09 b6       	in	r0, 0x39	; 57
    1554:	0f 92       	push	r0
    1556:	19 be       	out	0x39, r1	; 57
    1558:	0b b6       	in	r0, 0x3b	; 59
    155a:	0f 92       	push	r0
    155c:	1b be       	out	0x3b, r1	; 59
    155e:	2f 93       	push	r18
    1560:	3f 93       	push	r19
    1562:	4f 93       	push	r20
    1564:	5f 93       	push	r21
    1566:	6f 93       	push	r22
    1568:	7f 93       	push	r23
    156a:	8f 93       	push	r24
    156c:	9f 93       	push	r25
    156e:	af 93       	push	r26
    1570:	bf 93       	push	r27
    1572:	ef 93       	push	r30
    1574:	ff 93       	push	r31
    1576:	e0 91 6a 20 	lds	r30, 0x206A
    157a:	f0 91 6b 20 	lds	r31, 0x206B
    157e:	30 97       	sbiw	r30, 0x00	; 0
    1580:	09 f0       	breq	.+2      	; 0x1584 <__vector_52+0x42>
    1582:	19 95       	eicall
    1584:	ff 91       	pop	r31
    1586:	ef 91       	pop	r30
    1588:	bf 91       	pop	r27
    158a:	af 91       	pop	r26
    158c:	9f 91       	pop	r25
    158e:	8f 91       	pop	r24
    1590:	7f 91       	pop	r23
    1592:	6f 91       	pop	r22
    1594:	5f 91       	pop	r21
    1596:	4f 91       	pop	r20
    1598:	3f 91       	pop	r19
    159a:	2f 91       	pop	r18
    159c:	0f 90       	pop	r0
    159e:	0b be       	out	0x3b, r0	; 59
    15a0:	0f 90       	pop	r0
    15a2:	09 be       	out	0x39, r0	; 57
    15a4:	0f 90       	pop	r0
    15a6:	08 be       	out	0x38, r0	; 56
    15a8:	0f 90       	pop	r0
    15aa:	0f be       	out	0x3f, r0	; 63
    15ac:	0f 90       	pop	r0
    15ae:	1f 90       	pop	r1
    15b0:	18 95       	reti

000015b2 <__vector_53>:
    15b2:	1f 92       	push	r1
    15b4:	0f 92       	push	r0
    15b6:	0f b6       	in	r0, 0x3f	; 63
    15b8:	0f 92       	push	r0
    15ba:	11 24       	eor	r1, r1
    15bc:	08 b6       	in	r0, 0x38	; 56
    15be:	0f 92       	push	r0
    15c0:	18 be       	out	0x38, r1	; 56
    15c2:	09 b6       	in	r0, 0x39	; 57
    15c4:	0f 92       	push	r0
    15c6:	19 be       	out	0x39, r1	; 57
    15c8:	0b b6       	in	r0, 0x3b	; 59
    15ca:	0f 92       	push	r0
    15cc:	1b be       	out	0x3b, r1	; 59
    15ce:	2f 93       	push	r18
    15d0:	3f 93       	push	r19
    15d2:	4f 93       	push	r20
    15d4:	5f 93       	push	r21
    15d6:	6f 93       	push	r22
    15d8:	7f 93       	push	r23
    15da:	8f 93       	push	r24
    15dc:	9f 93       	push	r25
    15de:	af 93       	push	r26
    15e0:	bf 93       	push	r27
    15e2:	ef 93       	push	r30
    15e4:	ff 93       	push	r31
    15e6:	e0 91 68 20 	lds	r30, 0x2068
    15ea:	f0 91 69 20 	lds	r31, 0x2069
    15ee:	30 97       	sbiw	r30, 0x00	; 0
    15f0:	09 f0       	breq	.+2      	; 0x15f4 <__vector_53+0x42>
    15f2:	19 95       	eicall
    15f4:	ff 91       	pop	r31
    15f6:	ef 91       	pop	r30
    15f8:	bf 91       	pop	r27
    15fa:	af 91       	pop	r26
    15fc:	9f 91       	pop	r25
    15fe:	8f 91       	pop	r24
    1600:	7f 91       	pop	r23
    1602:	6f 91       	pop	r22
    1604:	5f 91       	pop	r21
    1606:	4f 91       	pop	r20
    1608:	3f 91       	pop	r19
    160a:	2f 91       	pop	r18
    160c:	0f 90       	pop	r0
    160e:	0b be       	out	0x3b, r0	; 59
    1610:	0f 90       	pop	r0
    1612:	09 be       	out	0x39, r0	; 57
    1614:	0f 90       	pop	r0
    1616:	08 be       	out	0x38, r0	; 56
    1618:	0f 90       	pop	r0
    161a:	0f be       	out	0x3f, r0	; 63
    161c:	0f 90       	pop	r0
    161e:	1f 90       	pop	r1
    1620:	18 95       	reti

00001622 <__vector_54>:
    1622:	1f 92       	push	r1
    1624:	0f 92       	push	r0
    1626:	0f b6       	in	r0, 0x3f	; 63
    1628:	0f 92       	push	r0
    162a:	11 24       	eor	r1, r1
    162c:	08 b6       	in	r0, 0x38	; 56
    162e:	0f 92       	push	r0
    1630:	18 be       	out	0x38, r1	; 56
    1632:	09 b6       	in	r0, 0x39	; 57
    1634:	0f 92       	push	r0
    1636:	19 be       	out	0x39, r1	; 57
    1638:	0b b6       	in	r0, 0x3b	; 59
    163a:	0f 92       	push	r0
    163c:	1b be       	out	0x3b, r1	; 59
    163e:	2f 93       	push	r18
    1640:	3f 93       	push	r19
    1642:	4f 93       	push	r20
    1644:	5f 93       	push	r21
    1646:	6f 93       	push	r22
    1648:	7f 93       	push	r23
    164a:	8f 93       	push	r24
    164c:	9f 93       	push	r25
    164e:	af 93       	push	r26
    1650:	bf 93       	push	r27
    1652:	ef 93       	push	r30
    1654:	ff 93       	push	r31
    1656:	e0 91 66 20 	lds	r30, 0x2066
    165a:	f0 91 67 20 	lds	r31, 0x2067
    165e:	30 97       	sbiw	r30, 0x00	; 0
    1660:	09 f0       	breq	.+2      	; 0x1664 <__vector_54+0x42>
    1662:	19 95       	eicall
    1664:	ff 91       	pop	r31
    1666:	ef 91       	pop	r30
    1668:	bf 91       	pop	r27
    166a:	af 91       	pop	r26
    166c:	9f 91       	pop	r25
    166e:	8f 91       	pop	r24
    1670:	7f 91       	pop	r23
    1672:	6f 91       	pop	r22
    1674:	5f 91       	pop	r21
    1676:	4f 91       	pop	r20
    1678:	3f 91       	pop	r19
    167a:	2f 91       	pop	r18
    167c:	0f 90       	pop	r0
    167e:	0b be       	out	0x3b, r0	; 59
    1680:	0f 90       	pop	r0
    1682:	09 be       	out	0x39, r0	; 57
    1684:	0f 90       	pop	r0
    1686:	08 be       	out	0x38, r0	; 56
    1688:	0f 90       	pop	r0
    168a:	0f be       	out	0x3f, r0	; 63
    168c:	0f 90       	pop	r0
    168e:	1f 90       	pop	r1
    1690:	18 95       	reti

00001692 <__vector_55>:
    1692:	1f 92       	push	r1
    1694:	0f 92       	push	r0
    1696:	0f b6       	in	r0, 0x3f	; 63
    1698:	0f 92       	push	r0
    169a:	11 24       	eor	r1, r1
    169c:	08 b6       	in	r0, 0x38	; 56
    169e:	0f 92       	push	r0
    16a0:	18 be       	out	0x38, r1	; 56
    16a2:	09 b6       	in	r0, 0x39	; 57
    16a4:	0f 92       	push	r0
    16a6:	19 be       	out	0x39, r1	; 57
    16a8:	0b b6       	in	r0, 0x3b	; 59
    16aa:	0f 92       	push	r0
    16ac:	1b be       	out	0x3b, r1	; 59
    16ae:	2f 93       	push	r18
    16b0:	3f 93       	push	r19
    16b2:	4f 93       	push	r20
    16b4:	5f 93       	push	r21
    16b6:	6f 93       	push	r22
    16b8:	7f 93       	push	r23
    16ba:	8f 93       	push	r24
    16bc:	9f 93       	push	r25
    16be:	af 93       	push	r26
    16c0:	bf 93       	push	r27
    16c2:	ef 93       	push	r30
    16c4:	ff 93       	push	r31
    16c6:	e0 91 64 20 	lds	r30, 0x2064
    16ca:	f0 91 65 20 	lds	r31, 0x2065
    16ce:	30 97       	sbiw	r30, 0x00	; 0
    16d0:	09 f0       	breq	.+2      	; 0x16d4 <__vector_55+0x42>
    16d2:	19 95       	eicall
    16d4:	ff 91       	pop	r31
    16d6:	ef 91       	pop	r30
    16d8:	bf 91       	pop	r27
    16da:	af 91       	pop	r26
    16dc:	9f 91       	pop	r25
    16de:	8f 91       	pop	r24
    16e0:	7f 91       	pop	r23
    16e2:	6f 91       	pop	r22
    16e4:	5f 91       	pop	r21
    16e6:	4f 91       	pop	r20
    16e8:	3f 91       	pop	r19
    16ea:	2f 91       	pop	r18
    16ec:	0f 90       	pop	r0
    16ee:	0b be       	out	0x3b, r0	; 59
    16f0:	0f 90       	pop	r0
    16f2:	09 be       	out	0x39, r0	; 57
    16f4:	0f 90       	pop	r0
    16f6:	08 be       	out	0x38, r0	; 56
    16f8:	0f 90       	pop	r0
    16fa:	0f be       	out	0x3f, r0	; 63
    16fc:	0f 90       	pop	r0
    16fe:	1f 90       	pop	r1
    1700:	18 95       	reti

00001702 <__vector_56>:
    1702:	1f 92       	push	r1
    1704:	0f 92       	push	r0
    1706:	0f b6       	in	r0, 0x3f	; 63
    1708:	0f 92       	push	r0
    170a:	11 24       	eor	r1, r1
    170c:	08 b6       	in	r0, 0x38	; 56
    170e:	0f 92       	push	r0
    1710:	18 be       	out	0x38, r1	; 56
    1712:	09 b6       	in	r0, 0x39	; 57
    1714:	0f 92       	push	r0
    1716:	19 be       	out	0x39, r1	; 57
    1718:	0b b6       	in	r0, 0x3b	; 59
    171a:	0f 92       	push	r0
    171c:	1b be       	out	0x3b, r1	; 59
    171e:	2f 93       	push	r18
    1720:	3f 93       	push	r19
    1722:	4f 93       	push	r20
    1724:	5f 93       	push	r21
    1726:	6f 93       	push	r22
    1728:	7f 93       	push	r23
    172a:	8f 93       	push	r24
    172c:	9f 93       	push	r25
    172e:	af 93       	push	r26
    1730:	bf 93       	push	r27
    1732:	ef 93       	push	r30
    1734:	ff 93       	push	r31
    1736:	e0 91 62 20 	lds	r30, 0x2062
    173a:	f0 91 63 20 	lds	r31, 0x2063
    173e:	30 97       	sbiw	r30, 0x00	; 0
    1740:	09 f0       	breq	.+2      	; 0x1744 <__vector_56+0x42>
    1742:	19 95       	eicall
    1744:	ff 91       	pop	r31
    1746:	ef 91       	pop	r30
    1748:	bf 91       	pop	r27
    174a:	af 91       	pop	r26
    174c:	9f 91       	pop	r25
    174e:	8f 91       	pop	r24
    1750:	7f 91       	pop	r23
    1752:	6f 91       	pop	r22
    1754:	5f 91       	pop	r21
    1756:	4f 91       	pop	r20
    1758:	3f 91       	pop	r19
    175a:	2f 91       	pop	r18
    175c:	0f 90       	pop	r0
    175e:	0b be       	out	0x3b, r0	; 59
    1760:	0f 90       	pop	r0
    1762:	09 be       	out	0x39, r0	; 57
    1764:	0f 90       	pop	r0
    1766:	08 be       	out	0x38, r0	; 56
    1768:	0f 90       	pop	r0
    176a:	0f be       	out	0x3f, r0	; 63
    176c:	0f 90       	pop	r0
    176e:	1f 90       	pop	r1
    1770:	18 95       	reti

00001772 <__vector_108>:
    1772:	1f 92       	push	r1
    1774:	0f 92       	push	r0
    1776:	0f b6       	in	r0, 0x3f	; 63
    1778:	0f 92       	push	r0
    177a:	11 24       	eor	r1, r1
    177c:	08 b6       	in	r0, 0x38	; 56
    177e:	0f 92       	push	r0
    1780:	18 be       	out	0x38, r1	; 56
    1782:	09 b6       	in	r0, 0x39	; 57
    1784:	0f 92       	push	r0
    1786:	19 be       	out	0x39, r1	; 57
    1788:	0b b6       	in	r0, 0x3b	; 59
    178a:	0f 92       	push	r0
    178c:	1b be       	out	0x3b, r1	; 59
    178e:	2f 93       	push	r18
    1790:	3f 93       	push	r19
    1792:	4f 93       	push	r20
    1794:	5f 93       	push	r21
    1796:	6f 93       	push	r22
    1798:	7f 93       	push	r23
    179a:	8f 93       	push	r24
    179c:	9f 93       	push	r25
    179e:	af 93       	push	r26
    17a0:	bf 93       	push	r27
    17a2:	ef 93       	push	r30
    17a4:	ff 93       	push	r31
    17a6:	e0 91 60 20 	lds	r30, 0x2060
    17aa:	f0 91 61 20 	lds	r31, 0x2061
    17ae:	30 97       	sbiw	r30, 0x00	; 0
    17b0:	09 f0       	breq	.+2      	; 0x17b4 <__vector_108+0x42>
    17b2:	19 95       	eicall
    17b4:	ff 91       	pop	r31
    17b6:	ef 91       	pop	r30
    17b8:	bf 91       	pop	r27
    17ba:	af 91       	pop	r26
    17bc:	9f 91       	pop	r25
    17be:	8f 91       	pop	r24
    17c0:	7f 91       	pop	r23
    17c2:	6f 91       	pop	r22
    17c4:	5f 91       	pop	r21
    17c6:	4f 91       	pop	r20
    17c8:	3f 91       	pop	r19
    17ca:	2f 91       	pop	r18
    17cc:	0f 90       	pop	r0
    17ce:	0b be       	out	0x3b, r0	; 59
    17d0:	0f 90       	pop	r0
    17d2:	09 be       	out	0x39, r0	; 57
    17d4:	0f 90       	pop	r0
    17d6:	08 be       	out	0x38, r0	; 56
    17d8:	0f 90       	pop	r0
    17da:	0f be       	out	0x3f, r0	; 63
    17dc:	0f 90       	pop	r0
    17de:	1f 90       	pop	r1
    17e0:	18 95       	reti

000017e2 <__vector_109>:
    17e2:	1f 92       	push	r1
    17e4:	0f 92       	push	r0
    17e6:	0f b6       	in	r0, 0x3f	; 63
    17e8:	0f 92       	push	r0
    17ea:	11 24       	eor	r1, r1
    17ec:	08 b6       	in	r0, 0x38	; 56
    17ee:	0f 92       	push	r0
    17f0:	18 be       	out	0x38, r1	; 56
    17f2:	09 b6       	in	r0, 0x39	; 57
    17f4:	0f 92       	push	r0
    17f6:	19 be       	out	0x39, r1	; 57
    17f8:	0b b6       	in	r0, 0x3b	; 59
    17fa:	0f 92       	push	r0
    17fc:	1b be       	out	0x3b, r1	; 59
    17fe:	2f 93       	push	r18
    1800:	3f 93       	push	r19
    1802:	4f 93       	push	r20
    1804:	5f 93       	push	r21
    1806:	6f 93       	push	r22
    1808:	7f 93       	push	r23
    180a:	8f 93       	push	r24
    180c:	9f 93       	push	r25
    180e:	af 93       	push	r26
    1810:	bf 93       	push	r27
    1812:	ef 93       	push	r30
    1814:	ff 93       	push	r31
    1816:	e0 91 5e 20 	lds	r30, 0x205E
    181a:	f0 91 5f 20 	lds	r31, 0x205F
    181e:	30 97       	sbiw	r30, 0x00	; 0
    1820:	09 f0       	breq	.+2      	; 0x1824 <__vector_109+0x42>
    1822:	19 95       	eicall
    1824:	ff 91       	pop	r31
    1826:	ef 91       	pop	r30
    1828:	bf 91       	pop	r27
    182a:	af 91       	pop	r26
    182c:	9f 91       	pop	r25
    182e:	8f 91       	pop	r24
    1830:	7f 91       	pop	r23
    1832:	6f 91       	pop	r22
    1834:	5f 91       	pop	r21
    1836:	4f 91       	pop	r20
    1838:	3f 91       	pop	r19
    183a:	2f 91       	pop	r18
    183c:	0f 90       	pop	r0
    183e:	0b be       	out	0x3b, r0	; 59
    1840:	0f 90       	pop	r0
    1842:	09 be       	out	0x39, r0	; 57
    1844:	0f 90       	pop	r0
    1846:	08 be       	out	0x38, r0	; 56
    1848:	0f 90       	pop	r0
    184a:	0f be       	out	0x3f, r0	; 63
    184c:	0f 90       	pop	r0
    184e:	1f 90       	pop	r1
    1850:	18 95       	reti

00001852 <__vector_110>:
    1852:	1f 92       	push	r1
    1854:	0f 92       	push	r0
    1856:	0f b6       	in	r0, 0x3f	; 63
    1858:	0f 92       	push	r0
    185a:	11 24       	eor	r1, r1
    185c:	08 b6       	in	r0, 0x38	; 56
    185e:	0f 92       	push	r0
    1860:	18 be       	out	0x38, r1	; 56
    1862:	09 b6       	in	r0, 0x39	; 57
    1864:	0f 92       	push	r0
    1866:	19 be       	out	0x39, r1	; 57
    1868:	0b b6       	in	r0, 0x3b	; 59
    186a:	0f 92       	push	r0
    186c:	1b be       	out	0x3b, r1	; 59
    186e:	2f 93       	push	r18
    1870:	3f 93       	push	r19
    1872:	4f 93       	push	r20
    1874:	5f 93       	push	r21
    1876:	6f 93       	push	r22
    1878:	7f 93       	push	r23
    187a:	8f 93       	push	r24
    187c:	9f 93       	push	r25
    187e:	af 93       	push	r26
    1880:	bf 93       	push	r27
    1882:	ef 93       	push	r30
    1884:	ff 93       	push	r31
    1886:	e0 91 5c 20 	lds	r30, 0x205C
    188a:	f0 91 5d 20 	lds	r31, 0x205D
    188e:	30 97       	sbiw	r30, 0x00	; 0
    1890:	09 f0       	breq	.+2      	; 0x1894 <__vector_110+0x42>
    1892:	19 95       	eicall
    1894:	ff 91       	pop	r31
    1896:	ef 91       	pop	r30
    1898:	bf 91       	pop	r27
    189a:	af 91       	pop	r26
    189c:	9f 91       	pop	r25
    189e:	8f 91       	pop	r24
    18a0:	7f 91       	pop	r23
    18a2:	6f 91       	pop	r22
    18a4:	5f 91       	pop	r21
    18a6:	4f 91       	pop	r20
    18a8:	3f 91       	pop	r19
    18aa:	2f 91       	pop	r18
    18ac:	0f 90       	pop	r0
    18ae:	0b be       	out	0x3b, r0	; 59
    18b0:	0f 90       	pop	r0
    18b2:	09 be       	out	0x39, r0	; 57
    18b4:	0f 90       	pop	r0
    18b6:	08 be       	out	0x38, r0	; 56
    18b8:	0f 90       	pop	r0
    18ba:	0f be       	out	0x3f, r0	; 63
    18bc:	0f 90       	pop	r0
    18be:	1f 90       	pop	r1
    18c0:	18 95       	reti

000018c2 <__vector_111>:
    18c2:	1f 92       	push	r1
    18c4:	0f 92       	push	r0
    18c6:	0f b6       	in	r0, 0x3f	; 63
    18c8:	0f 92       	push	r0
    18ca:	11 24       	eor	r1, r1
    18cc:	08 b6       	in	r0, 0x38	; 56
    18ce:	0f 92       	push	r0
    18d0:	18 be       	out	0x38, r1	; 56
    18d2:	09 b6       	in	r0, 0x39	; 57
    18d4:	0f 92       	push	r0
    18d6:	19 be       	out	0x39, r1	; 57
    18d8:	0b b6       	in	r0, 0x3b	; 59
    18da:	0f 92       	push	r0
    18dc:	1b be       	out	0x3b, r1	; 59
    18de:	2f 93       	push	r18
    18e0:	3f 93       	push	r19
    18e2:	4f 93       	push	r20
    18e4:	5f 93       	push	r21
    18e6:	6f 93       	push	r22
    18e8:	7f 93       	push	r23
    18ea:	8f 93       	push	r24
    18ec:	9f 93       	push	r25
    18ee:	af 93       	push	r26
    18f0:	bf 93       	push	r27
    18f2:	ef 93       	push	r30
    18f4:	ff 93       	push	r31
    18f6:	e0 91 5a 20 	lds	r30, 0x205A
    18fa:	f0 91 5b 20 	lds	r31, 0x205B
    18fe:	30 97       	sbiw	r30, 0x00	; 0
    1900:	09 f0       	breq	.+2      	; 0x1904 <__vector_111+0x42>
    1902:	19 95       	eicall
    1904:	ff 91       	pop	r31
    1906:	ef 91       	pop	r30
    1908:	bf 91       	pop	r27
    190a:	af 91       	pop	r26
    190c:	9f 91       	pop	r25
    190e:	8f 91       	pop	r24
    1910:	7f 91       	pop	r23
    1912:	6f 91       	pop	r22
    1914:	5f 91       	pop	r21
    1916:	4f 91       	pop	r20
    1918:	3f 91       	pop	r19
    191a:	2f 91       	pop	r18
    191c:	0f 90       	pop	r0
    191e:	0b be       	out	0x3b, r0	; 59
    1920:	0f 90       	pop	r0
    1922:	09 be       	out	0x39, r0	; 57
    1924:	0f 90       	pop	r0
    1926:	08 be       	out	0x38, r0	; 56
    1928:	0f 90       	pop	r0
    192a:	0f be       	out	0x3f, r0	; 63
    192c:	0f 90       	pop	r0
    192e:	1f 90       	pop	r1
    1930:	18 95       	reti

00001932 <__vector_112>:
    1932:	1f 92       	push	r1
    1934:	0f 92       	push	r0
    1936:	0f b6       	in	r0, 0x3f	; 63
    1938:	0f 92       	push	r0
    193a:	11 24       	eor	r1, r1
    193c:	08 b6       	in	r0, 0x38	; 56
    193e:	0f 92       	push	r0
    1940:	18 be       	out	0x38, r1	; 56
    1942:	09 b6       	in	r0, 0x39	; 57
    1944:	0f 92       	push	r0
    1946:	19 be       	out	0x39, r1	; 57
    1948:	0b b6       	in	r0, 0x3b	; 59
    194a:	0f 92       	push	r0
    194c:	1b be       	out	0x3b, r1	; 59
    194e:	2f 93       	push	r18
    1950:	3f 93       	push	r19
    1952:	4f 93       	push	r20
    1954:	5f 93       	push	r21
    1956:	6f 93       	push	r22
    1958:	7f 93       	push	r23
    195a:	8f 93       	push	r24
    195c:	9f 93       	push	r25
    195e:	af 93       	push	r26
    1960:	bf 93       	push	r27
    1962:	ef 93       	push	r30
    1964:	ff 93       	push	r31
    1966:	e0 91 58 20 	lds	r30, 0x2058
    196a:	f0 91 59 20 	lds	r31, 0x2059
    196e:	30 97       	sbiw	r30, 0x00	; 0
    1970:	09 f0       	breq	.+2      	; 0x1974 <__vector_112+0x42>
    1972:	19 95       	eicall
    1974:	ff 91       	pop	r31
    1976:	ef 91       	pop	r30
    1978:	bf 91       	pop	r27
    197a:	af 91       	pop	r26
    197c:	9f 91       	pop	r25
    197e:	8f 91       	pop	r24
    1980:	7f 91       	pop	r23
    1982:	6f 91       	pop	r22
    1984:	5f 91       	pop	r21
    1986:	4f 91       	pop	r20
    1988:	3f 91       	pop	r19
    198a:	2f 91       	pop	r18
    198c:	0f 90       	pop	r0
    198e:	0b be       	out	0x3b, r0	; 59
    1990:	0f 90       	pop	r0
    1992:	09 be       	out	0x39, r0	; 57
    1994:	0f 90       	pop	r0
    1996:	08 be       	out	0x38, r0	; 56
    1998:	0f 90       	pop	r0
    199a:	0f be       	out	0x3f, r0	; 63
    199c:	0f 90       	pop	r0
    199e:	1f 90       	pop	r1
    19a0:	18 95       	reti

000019a2 <__vector_113>:
    19a2:	1f 92       	push	r1
    19a4:	0f 92       	push	r0
    19a6:	0f b6       	in	r0, 0x3f	; 63
    19a8:	0f 92       	push	r0
    19aa:	11 24       	eor	r1, r1
    19ac:	08 b6       	in	r0, 0x38	; 56
    19ae:	0f 92       	push	r0
    19b0:	18 be       	out	0x38, r1	; 56
    19b2:	09 b6       	in	r0, 0x39	; 57
    19b4:	0f 92       	push	r0
    19b6:	19 be       	out	0x39, r1	; 57
    19b8:	0b b6       	in	r0, 0x3b	; 59
    19ba:	0f 92       	push	r0
    19bc:	1b be       	out	0x3b, r1	; 59
    19be:	2f 93       	push	r18
    19c0:	3f 93       	push	r19
    19c2:	4f 93       	push	r20
    19c4:	5f 93       	push	r21
    19c6:	6f 93       	push	r22
    19c8:	7f 93       	push	r23
    19ca:	8f 93       	push	r24
    19cc:	9f 93       	push	r25
    19ce:	af 93       	push	r26
    19d0:	bf 93       	push	r27
    19d2:	ef 93       	push	r30
    19d4:	ff 93       	push	r31
    19d6:	e0 91 56 20 	lds	r30, 0x2056
    19da:	f0 91 57 20 	lds	r31, 0x2057
    19de:	30 97       	sbiw	r30, 0x00	; 0
    19e0:	09 f0       	breq	.+2      	; 0x19e4 <__vector_113+0x42>
    19e2:	19 95       	eicall
    19e4:	ff 91       	pop	r31
    19e6:	ef 91       	pop	r30
    19e8:	bf 91       	pop	r27
    19ea:	af 91       	pop	r26
    19ec:	9f 91       	pop	r25
    19ee:	8f 91       	pop	r24
    19f0:	7f 91       	pop	r23
    19f2:	6f 91       	pop	r22
    19f4:	5f 91       	pop	r21
    19f6:	4f 91       	pop	r20
    19f8:	3f 91       	pop	r19
    19fa:	2f 91       	pop	r18
    19fc:	0f 90       	pop	r0
    19fe:	0b be       	out	0x3b, r0	; 59
    1a00:	0f 90       	pop	r0
    1a02:	09 be       	out	0x39, r0	; 57
    1a04:	0f 90       	pop	r0
    1a06:	08 be       	out	0x38, r0	; 56
    1a08:	0f 90       	pop	r0
    1a0a:	0f be       	out	0x3f, r0	; 63
    1a0c:	0f 90       	pop	r0
    1a0e:	1f 90       	pop	r1
    1a10:	18 95       	reti

00001a12 <__vector_114>:
    1a12:	1f 92       	push	r1
    1a14:	0f 92       	push	r0
    1a16:	0f b6       	in	r0, 0x3f	; 63
    1a18:	0f 92       	push	r0
    1a1a:	11 24       	eor	r1, r1
    1a1c:	08 b6       	in	r0, 0x38	; 56
    1a1e:	0f 92       	push	r0
    1a20:	18 be       	out	0x38, r1	; 56
    1a22:	09 b6       	in	r0, 0x39	; 57
    1a24:	0f 92       	push	r0
    1a26:	19 be       	out	0x39, r1	; 57
    1a28:	0b b6       	in	r0, 0x3b	; 59
    1a2a:	0f 92       	push	r0
    1a2c:	1b be       	out	0x3b, r1	; 59
    1a2e:	2f 93       	push	r18
    1a30:	3f 93       	push	r19
    1a32:	4f 93       	push	r20
    1a34:	5f 93       	push	r21
    1a36:	6f 93       	push	r22
    1a38:	7f 93       	push	r23
    1a3a:	8f 93       	push	r24
    1a3c:	9f 93       	push	r25
    1a3e:	af 93       	push	r26
    1a40:	bf 93       	push	r27
    1a42:	ef 93       	push	r30
    1a44:	ff 93       	push	r31
    1a46:	e0 91 54 20 	lds	r30, 0x2054
    1a4a:	f0 91 55 20 	lds	r31, 0x2055
    1a4e:	30 97       	sbiw	r30, 0x00	; 0
    1a50:	09 f0       	breq	.+2      	; 0x1a54 <__vector_114+0x42>
    1a52:	19 95       	eicall
    1a54:	ff 91       	pop	r31
    1a56:	ef 91       	pop	r30
    1a58:	bf 91       	pop	r27
    1a5a:	af 91       	pop	r26
    1a5c:	9f 91       	pop	r25
    1a5e:	8f 91       	pop	r24
    1a60:	7f 91       	pop	r23
    1a62:	6f 91       	pop	r22
    1a64:	5f 91       	pop	r21
    1a66:	4f 91       	pop	r20
    1a68:	3f 91       	pop	r19
    1a6a:	2f 91       	pop	r18
    1a6c:	0f 90       	pop	r0
    1a6e:	0b be       	out	0x3b, r0	; 59
    1a70:	0f 90       	pop	r0
    1a72:	09 be       	out	0x39, r0	; 57
    1a74:	0f 90       	pop	r0
    1a76:	08 be       	out	0x38, r0	; 56
    1a78:	0f 90       	pop	r0
    1a7a:	0f be       	out	0x3f, r0	; 63
    1a7c:	0f 90       	pop	r0
    1a7e:	1f 90       	pop	r1
    1a80:	18 95       	reti

00001a82 <__vector_115>:
    1a82:	1f 92       	push	r1
    1a84:	0f 92       	push	r0
    1a86:	0f b6       	in	r0, 0x3f	; 63
    1a88:	0f 92       	push	r0
    1a8a:	11 24       	eor	r1, r1
    1a8c:	08 b6       	in	r0, 0x38	; 56
    1a8e:	0f 92       	push	r0
    1a90:	18 be       	out	0x38, r1	; 56
    1a92:	09 b6       	in	r0, 0x39	; 57
    1a94:	0f 92       	push	r0
    1a96:	19 be       	out	0x39, r1	; 57
    1a98:	0b b6       	in	r0, 0x3b	; 59
    1a9a:	0f 92       	push	r0
    1a9c:	1b be       	out	0x3b, r1	; 59
    1a9e:	2f 93       	push	r18
    1aa0:	3f 93       	push	r19
    1aa2:	4f 93       	push	r20
    1aa4:	5f 93       	push	r21
    1aa6:	6f 93       	push	r22
    1aa8:	7f 93       	push	r23
    1aaa:	8f 93       	push	r24
    1aac:	9f 93       	push	r25
    1aae:	af 93       	push	r26
    1ab0:	bf 93       	push	r27
    1ab2:	ef 93       	push	r30
    1ab4:	ff 93       	push	r31
    1ab6:	e0 91 52 20 	lds	r30, 0x2052
    1aba:	f0 91 53 20 	lds	r31, 0x2053
    1abe:	30 97       	sbiw	r30, 0x00	; 0
    1ac0:	09 f0       	breq	.+2      	; 0x1ac4 <__vector_115+0x42>
    1ac2:	19 95       	eicall
    1ac4:	ff 91       	pop	r31
    1ac6:	ef 91       	pop	r30
    1ac8:	bf 91       	pop	r27
    1aca:	af 91       	pop	r26
    1acc:	9f 91       	pop	r25
    1ace:	8f 91       	pop	r24
    1ad0:	7f 91       	pop	r23
    1ad2:	6f 91       	pop	r22
    1ad4:	5f 91       	pop	r21
    1ad6:	4f 91       	pop	r20
    1ad8:	3f 91       	pop	r19
    1ada:	2f 91       	pop	r18
    1adc:	0f 90       	pop	r0
    1ade:	0b be       	out	0x3b, r0	; 59
    1ae0:	0f 90       	pop	r0
    1ae2:	09 be       	out	0x39, r0	; 57
    1ae4:	0f 90       	pop	r0
    1ae6:	08 be       	out	0x38, r0	; 56
    1ae8:	0f 90       	pop	r0
    1aea:	0f be       	out	0x3f, r0	; 63
    1aec:	0f 90       	pop	r0
    1aee:	1f 90       	pop	r1
    1af0:	18 95       	reti

00001af2 <__vector_116>:
    1af2:	1f 92       	push	r1
    1af4:	0f 92       	push	r0
    1af6:	0f b6       	in	r0, 0x3f	; 63
    1af8:	0f 92       	push	r0
    1afa:	11 24       	eor	r1, r1
    1afc:	08 b6       	in	r0, 0x38	; 56
    1afe:	0f 92       	push	r0
    1b00:	18 be       	out	0x38, r1	; 56
    1b02:	09 b6       	in	r0, 0x39	; 57
    1b04:	0f 92       	push	r0
    1b06:	19 be       	out	0x39, r1	; 57
    1b08:	0b b6       	in	r0, 0x3b	; 59
    1b0a:	0f 92       	push	r0
    1b0c:	1b be       	out	0x3b, r1	; 59
    1b0e:	2f 93       	push	r18
    1b10:	3f 93       	push	r19
    1b12:	4f 93       	push	r20
    1b14:	5f 93       	push	r21
    1b16:	6f 93       	push	r22
    1b18:	7f 93       	push	r23
    1b1a:	8f 93       	push	r24
    1b1c:	9f 93       	push	r25
    1b1e:	af 93       	push	r26
    1b20:	bf 93       	push	r27
    1b22:	ef 93       	push	r30
    1b24:	ff 93       	push	r31
    1b26:	e0 91 50 20 	lds	r30, 0x2050
    1b2a:	f0 91 51 20 	lds	r31, 0x2051
    1b2e:	30 97       	sbiw	r30, 0x00	; 0
    1b30:	09 f0       	breq	.+2      	; 0x1b34 <__vector_116+0x42>
    1b32:	19 95       	eicall
    1b34:	ff 91       	pop	r31
    1b36:	ef 91       	pop	r30
    1b38:	bf 91       	pop	r27
    1b3a:	af 91       	pop	r26
    1b3c:	9f 91       	pop	r25
    1b3e:	8f 91       	pop	r24
    1b40:	7f 91       	pop	r23
    1b42:	6f 91       	pop	r22
    1b44:	5f 91       	pop	r21
    1b46:	4f 91       	pop	r20
    1b48:	3f 91       	pop	r19
    1b4a:	2f 91       	pop	r18
    1b4c:	0f 90       	pop	r0
    1b4e:	0b be       	out	0x3b, r0	; 59
    1b50:	0f 90       	pop	r0
    1b52:	09 be       	out	0x39, r0	; 57
    1b54:	0f 90       	pop	r0
    1b56:	08 be       	out	0x38, r0	; 56
    1b58:	0f 90       	pop	r0
    1b5a:	0f be       	out	0x3f, r0	; 63
    1b5c:	0f 90       	pop	r0
    1b5e:	1f 90       	pop	r1
    1b60:	18 95       	reti

00001b62 <__vector_117>:
    1b62:	1f 92       	push	r1
    1b64:	0f 92       	push	r0
    1b66:	0f b6       	in	r0, 0x3f	; 63
    1b68:	0f 92       	push	r0
    1b6a:	11 24       	eor	r1, r1
    1b6c:	08 b6       	in	r0, 0x38	; 56
    1b6e:	0f 92       	push	r0
    1b70:	18 be       	out	0x38, r1	; 56
    1b72:	09 b6       	in	r0, 0x39	; 57
    1b74:	0f 92       	push	r0
    1b76:	19 be       	out	0x39, r1	; 57
    1b78:	0b b6       	in	r0, 0x3b	; 59
    1b7a:	0f 92       	push	r0
    1b7c:	1b be       	out	0x3b, r1	; 59
    1b7e:	2f 93       	push	r18
    1b80:	3f 93       	push	r19
    1b82:	4f 93       	push	r20
    1b84:	5f 93       	push	r21
    1b86:	6f 93       	push	r22
    1b88:	7f 93       	push	r23
    1b8a:	8f 93       	push	r24
    1b8c:	9f 93       	push	r25
    1b8e:	af 93       	push	r26
    1b90:	bf 93       	push	r27
    1b92:	ef 93       	push	r30
    1b94:	ff 93       	push	r31
    1b96:	e0 91 4e 20 	lds	r30, 0x204E
    1b9a:	f0 91 4f 20 	lds	r31, 0x204F
    1b9e:	30 97       	sbiw	r30, 0x00	; 0
    1ba0:	09 f0       	breq	.+2      	; 0x1ba4 <__vector_117+0x42>
    1ba2:	19 95       	eicall
    1ba4:	ff 91       	pop	r31
    1ba6:	ef 91       	pop	r30
    1ba8:	bf 91       	pop	r27
    1baa:	af 91       	pop	r26
    1bac:	9f 91       	pop	r25
    1bae:	8f 91       	pop	r24
    1bb0:	7f 91       	pop	r23
    1bb2:	6f 91       	pop	r22
    1bb4:	5f 91       	pop	r21
    1bb6:	4f 91       	pop	r20
    1bb8:	3f 91       	pop	r19
    1bba:	2f 91       	pop	r18
    1bbc:	0f 90       	pop	r0
    1bbe:	0b be       	out	0x3b, r0	; 59
    1bc0:	0f 90       	pop	r0
    1bc2:	09 be       	out	0x39, r0	; 57
    1bc4:	0f 90       	pop	r0
    1bc6:	08 be       	out	0x38, r0	; 56
    1bc8:	0f 90       	pop	r0
    1bca:	0f be       	out	0x3f, r0	; 63
    1bcc:	0f 90       	pop	r0
    1bce:	1f 90       	pop	r1
    1bd0:	18 95       	reti

00001bd2 <tc_enable>:
    1bd2:	cf 93       	push	r28
    1bd4:	cf b7       	in	r28, 0x3f	; 63
    1bd6:	f8 94       	cli
    1bd8:	28 2f       	mov	r18, r24
    1bda:	39 2f       	mov	r19, r25
    1bdc:	21 15       	cp	r18, r1
    1bde:	88 e0       	ldi	r24, 0x08	; 8
    1be0:	38 07       	cpc	r19, r24
    1be2:	59 f4       	brne	.+22     	; 0x1bfa <tc_enable+0x28>
    1be4:	61 e0       	ldi	r22, 0x01	; 1
    1be6:	83 e0       	ldi	r24, 0x03	; 3
    1be8:	90 e0       	ldi	r25, 0x00	; 0
    1bea:	0e 94 eb 03 	call	0x7d6	; 0x7d6 <sysclk_enable_module>
    1bee:	64 e0       	ldi	r22, 0x04	; 4
    1bf0:	83 e0       	ldi	r24, 0x03	; 3
    1bf2:	90 e0       	ldi	r25, 0x00	; 0
    1bf4:	0e 94 eb 03 	call	0x7d6	; 0x7d6 <sysclk_enable_module>
    1bf8:	6a c0       	rjmp	.+212    	; 0x1cce <tc_enable+0xfc>
    1bfa:	20 34       	cpi	r18, 0x40	; 64
    1bfc:	88 e0       	ldi	r24, 0x08	; 8
    1bfe:	38 07       	cpc	r19, r24
    1c00:	59 f4       	brne	.+22     	; 0x1c18 <tc_enable+0x46>
    1c02:	62 e0       	ldi	r22, 0x02	; 2
    1c04:	83 e0       	ldi	r24, 0x03	; 3
    1c06:	90 e0       	ldi	r25, 0x00	; 0
    1c08:	0e 94 eb 03 	call	0x7d6	; 0x7d6 <sysclk_enable_module>
    1c0c:	64 e0       	ldi	r22, 0x04	; 4
    1c0e:	83 e0       	ldi	r24, 0x03	; 3
    1c10:	90 e0       	ldi	r25, 0x00	; 0
    1c12:	0e 94 eb 03 	call	0x7d6	; 0x7d6 <sysclk_enable_module>
    1c16:	5b c0       	rjmp	.+182    	; 0x1cce <tc_enable+0xfc>
    1c18:	21 15       	cp	r18, r1
    1c1a:	89 e0       	ldi	r24, 0x09	; 9
    1c1c:	38 07       	cpc	r19, r24
    1c1e:	59 f4       	brne	.+22     	; 0x1c36 <tc_enable+0x64>
    1c20:	61 e0       	ldi	r22, 0x01	; 1
    1c22:	84 e0       	ldi	r24, 0x04	; 4
    1c24:	90 e0       	ldi	r25, 0x00	; 0
    1c26:	0e 94 eb 03 	call	0x7d6	; 0x7d6 <sysclk_enable_module>
    1c2a:	64 e0       	ldi	r22, 0x04	; 4
    1c2c:	84 e0       	ldi	r24, 0x04	; 4
    1c2e:	90 e0       	ldi	r25, 0x00	; 0
    1c30:	0e 94 eb 03 	call	0x7d6	; 0x7d6 <sysclk_enable_module>
    1c34:	4c c0       	rjmp	.+152    	; 0x1cce <tc_enable+0xfc>
    1c36:	20 34       	cpi	r18, 0x40	; 64
    1c38:	89 e0       	ldi	r24, 0x09	; 9
    1c3a:	38 07       	cpc	r19, r24
    1c3c:	59 f4       	brne	.+22     	; 0x1c54 <tc_enable+0x82>
    1c3e:	62 e0       	ldi	r22, 0x02	; 2
    1c40:	84 e0       	ldi	r24, 0x04	; 4
    1c42:	90 e0       	ldi	r25, 0x00	; 0
    1c44:	0e 94 eb 03 	call	0x7d6	; 0x7d6 <sysclk_enable_module>
    1c48:	64 e0       	ldi	r22, 0x04	; 4
    1c4a:	84 e0       	ldi	r24, 0x04	; 4
    1c4c:	90 e0       	ldi	r25, 0x00	; 0
    1c4e:	0e 94 eb 03 	call	0x7d6	; 0x7d6 <sysclk_enable_module>
    1c52:	3d c0       	rjmp	.+122    	; 0x1cce <tc_enable+0xfc>
    1c54:	21 15       	cp	r18, r1
    1c56:	8a e0       	ldi	r24, 0x0A	; 10
    1c58:	38 07       	cpc	r19, r24
    1c5a:	59 f4       	brne	.+22     	; 0x1c72 <tc_enable+0xa0>
    1c5c:	61 e0       	ldi	r22, 0x01	; 1
    1c5e:	85 e0       	ldi	r24, 0x05	; 5
    1c60:	90 e0       	ldi	r25, 0x00	; 0
    1c62:	0e 94 eb 03 	call	0x7d6	; 0x7d6 <sysclk_enable_module>
    1c66:	64 e0       	ldi	r22, 0x04	; 4
    1c68:	85 e0       	ldi	r24, 0x05	; 5
    1c6a:	90 e0       	ldi	r25, 0x00	; 0
    1c6c:	0e 94 eb 03 	call	0x7d6	; 0x7d6 <sysclk_enable_module>
    1c70:	2e c0       	rjmp	.+92     	; 0x1cce <tc_enable+0xfc>
    1c72:	20 34       	cpi	r18, 0x40	; 64
    1c74:	8a e0       	ldi	r24, 0x0A	; 10
    1c76:	38 07       	cpc	r19, r24
    1c78:	59 f4       	brne	.+22     	; 0x1c90 <tc_enable+0xbe>
    1c7a:	62 e0       	ldi	r22, 0x02	; 2
    1c7c:	85 e0       	ldi	r24, 0x05	; 5
    1c7e:	90 e0       	ldi	r25, 0x00	; 0
    1c80:	0e 94 eb 03 	call	0x7d6	; 0x7d6 <sysclk_enable_module>
    1c84:	64 e0       	ldi	r22, 0x04	; 4
    1c86:	85 e0       	ldi	r24, 0x05	; 5
    1c88:	90 e0       	ldi	r25, 0x00	; 0
    1c8a:	0e 94 eb 03 	call	0x7d6	; 0x7d6 <sysclk_enable_module>
    1c8e:	1f c0       	rjmp	.+62     	; 0x1cce <tc_enable+0xfc>
    1c90:	21 15       	cp	r18, r1
    1c92:	8b e0       	ldi	r24, 0x0B	; 11
    1c94:	38 07       	cpc	r19, r24
    1c96:	59 f4       	brne	.+22     	; 0x1cae <tc_enable+0xdc>
    1c98:	61 e0       	ldi	r22, 0x01	; 1
    1c9a:	86 e0       	ldi	r24, 0x06	; 6
    1c9c:	90 e0       	ldi	r25, 0x00	; 0
    1c9e:	0e 94 eb 03 	call	0x7d6	; 0x7d6 <sysclk_enable_module>
    1ca2:	64 e0       	ldi	r22, 0x04	; 4
    1ca4:	86 e0       	ldi	r24, 0x06	; 6
    1ca6:	90 e0       	ldi	r25, 0x00	; 0
    1ca8:	0e 94 eb 03 	call	0x7d6	; 0x7d6 <sysclk_enable_module>
    1cac:	10 c0       	rjmp	.+32     	; 0x1cce <tc_enable+0xfc>
    1cae:	20 34       	cpi	r18, 0x40	; 64
    1cb0:	3b 40       	sbci	r19, 0x0B	; 11
    1cb2:	59 f4       	brne	.+22     	; 0x1cca <tc_enable+0xf8>
    1cb4:	62 e0       	ldi	r22, 0x02	; 2
    1cb6:	86 e0       	ldi	r24, 0x06	; 6
    1cb8:	90 e0       	ldi	r25, 0x00	; 0
    1cba:	0e 94 eb 03 	call	0x7d6	; 0x7d6 <sysclk_enable_module>
    1cbe:	64 e0       	ldi	r22, 0x04	; 4
    1cc0:	86 e0       	ldi	r24, 0x06	; 6
    1cc2:	90 e0       	ldi	r25, 0x00	; 0
    1cc4:	0e 94 eb 03 	call	0x7d6	; 0x7d6 <sysclk_enable_module>
    1cc8:	02 c0       	rjmp	.+4      	; 0x1cce <tc_enable+0xfc>
    1cca:	cf bf       	out	0x3f, r28	; 63
    1ccc:	09 c0       	rjmp	.+18     	; 0x1ce0 <tc_enable+0x10e>
    1cce:	8f b7       	in	r24, 0x3f	; 63
    1cd0:	f8 94       	cli
    1cd2:	ed ea       	ldi	r30, 0xAD	; 173
    1cd4:	f0 e2       	ldi	r31, 0x20	; 32
    1cd6:	90 81       	ld	r25, Z
    1cd8:	9f 5f       	subi	r25, 0xFF	; 255
    1cda:	90 83       	st	Z, r25
    1cdc:	8f bf       	out	0x3f, r24	; 63
    1cde:	cf bf       	out	0x3f, r28	; 63
    1ce0:	cf 91       	pop	r28
    1ce2:	08 95       	ret

00001ce4 <usart_putchar>:
    1ce4:	fc 01       	movw	r30, r24
    1ce6:	81 81       	ldd	r24, Z+1	; 0x01
    1ce8:	85 ff       	sbrs	r24, 5
    1cea:	fd cf       	rjmp	.-6      	; 0x1ce6 <usart_putchar+0x2>
    1cec:	60 83       	st	Z, r22
    1cee:	80 e0       	ldi	r24, 0x00	; 0
    1cf0:	90 e0       	ldi	r25, 0x00	; 0
    1cf2:	08 95       	ret

00001cf4 <usart_set_baudrate>:
    1cf4:	4f 92       	push	r4
    1cf6:	5f 92       	push	r5
    1cf8:	6f 92       	push	r6
    1cfa:	7f 92       	push	r7
    1cfc:	8f 92       	push	r8
    1cfe:	9f 92       	push	r9
    1d00:	af 92       	push	r10
    1d02:	bf 92       	push	r11
    1d04:	cf 92       	push	r12
    1d06:	df 92       	push	r13
    1d08:	ef 92       	push	r14
    1d0a:	ff 92       	push	r15
    1d0c:	0f 93       	push	r16
    1d0e:	1f 93       	push	r17
    1d10:	cf 93       	push	r28
    1d12:	df 93       	push	r29
    1d14:	ec 01       	movw	r28, r24
    1d16:	4a 01       	movw	r8, r20
    1d18:	5b 01       	movw	r10, r22
    1d1a:	28 01       	movw	r4, r16
    1d1c:	39 01       	movw	r6, r18
    1d1e:	d9 01       	movw	r26, r18
    1d20:	c8 01       	movw	r24, r16
    1d22:	68 94       	set
    1d24:	12 f8       	bld	r1, 2
    1d26:	b6 95       	lsr	r27
    1d28:	a7 95       	ror	r26
    1d2a:	97 95       	ror	r25
    1d2c:	87 95       	ror	r24
    1d2e:	16 94       	lsr	r1
    1d30:	d1 f7       	brne	.-12     	; 0x1d26 <usart_set_baudrate+0x32>
    1d32:	b9 01       	movw	r22, r18
    1d34:	a8 01       	movw	r20, r16
    1d36:	03 2e       	mov	r0, r19
    1d38:	36 e1       	ldi	r19, 0x16	; 22
    1d3a:	76 95       	lsr	r23
    1d3c:	67 95       	ror	r22
    1d3e:	57 95       	ror	r21
    1d40:	47 95       	ror	r20
    1d42:	3a 95       	dec	r19
    1d44:	d1 f7       	brne	.-12     	; 0x1d3a <usart_set_baudrate+0x46>
    1d46:	30 2d       	mov	r19, r0
    1d48:	2c 81       	ldd	r18, Y+4	; 0x04
    1d4a:	22 fd       	sbrc	r18, 2
    1d4c:	08 c0       	rjmp	.+16     	; 0x1d5e <usart_set_baudrate+0x6a>
    1d4e:	b6 95       	lsr	r27
    1d50:	a7 95       	ror	r26
    1d52:	97 95       	ror	r25
    1d54:	87 95       	ror	r24
    1d56:	76 95       	lsr	r23
    1d58:	67 95       	ror	r22
    1d5a:	57 95       	ror	r21
    1d5c:	47 95       	ror	r20
    1d5e:	88 15       	cp	r24, r8
    1d60:	99 05       	cpc	r25, r9
    1d62:	aa 05       	cpc	r26, r10
    1d64:	bb 05       	cpc	r27, r11
    1d66:	08 f4       	brcc	.+2      	; 0x1d6a <usart_set_baudrate+0x76>
    1d68:	a6 c0       	rjmp	.+332    	; 0x1eb6 <usart_set_baudrate+0x1c2>
    1d6a:	84 16       	cp	r8, r20
    1d6c:	95 06       	cpc	r9, r21
    1d6e:	a6 06       	cpc	r10, r22
    1d70:	b7 06       	cpc	r11, r23
    1d72:	08 f4       	brcc	.+2      	; 0x1d76 <usart_set_baudrate+0x82>
    1d74:	a2 c0       	rjmp	.+324    	; 0x1eba <usart_set_baudrate+0x1c6>
    1d76:	8c 81       	ldd	r24, Y+4	; 0x04
    1d78:	82 fd       	sbrc	r24, 2
    1d7a:	04 c0       	rjmp	.+8      	; 0x1d84 <usart_set_baudrate+0x90>
    1d7c:	88 0c       	add	r8, r8
    1d7e:	99 1c       	adc	r9, r9
    1d80:	aa 1c       	adc	r10, r10
    1d82:	bb 1c       	adc	r11, r11
    1d84:	c3 01       	movw	r24, r6
    1d86:	b2 01       	movw	r22, r4
    1d88:	a5 01       	movw	r20, r10
    1d8a:	94 01       	movw	r18, r8
    1d8c:	0e 94 44 25 	call	0x4a88	; 0x4a88 <__udivmodsi4>
    1d90:	2f 3f       	cpi	r18, 0xFF	; 255
    1d92:	31 05       	cpc	r19, r1
    1d94:	41 05       	cpc	r20, r1
    1d96:	51 05       	cpc	r21, r1
    1d98:	08 f4       	brcc	.+2      	; 0x1d9c <usart_set_baudrate+0xa8>
    1d9a:	91 c0       	rjmp	.+290    	; 0x1ebe <usart_set_baudrate+0x1ca>
    1d9c:	c1 2c       	mov	r12, r1
    1d9e:	d1 2c       	mov	r13, r1
    1da0:	76 01       	movw	r14, r12
    1da2:	ca 94       	dec	r12
    1da4:	19 ef       	ldi	r17, 0xF9	; 249
    1da6:	05 c0       	rjmp	.+10     	; 0x1db2 <usart_set_baudrate+0xbe>
    1da8:	2c 15       	cp	r18, r12
    1daa:	3d 05       	cpc	r19, r13
    1dac:	4e 05       	cpc	r20, r14
    1dae:	5f 05       	cpc	r21, r15
    1db0:	68 f0       	brcs	.+26     	; 0x1dcc <usart_set_baudrate+0xd8>
    1db2:	cc 0c       	add	r12, r12
    1db4:	dd 1c       	adc	r13, r13
    1db6:	ee 1c       	adc	r14, r14
    1db8:	ff 1c       	adc	r15, r15
    1dba:	1d 3f       	cpi	r17, 0xFD	; 253
    1dbc:	14 f4       	brge	.+4      	; 0x1dc2 <usart_set_baudrate+0xce>
    1dbe:	68 94       	set
    1dc0:	c0 f8       	bld	r12, 0
    1dc2:	1f 5f       	subi	r17, 0xFF	; 255
    1dc4:	17 30       	cpi	r17, 0x07	; 7
    1dc6:	81 f7       	brne	.-32     	; 0x1da8 <usart_set_baudrate+0xb4>
    1dc8:	21 2f       	mov	r18, r17
    1dca:	50 c0       	rjmp	.+160    	; 0x1e6c <usart_set_baudrate+0x178>
    1dcc:	21 2f       	mov	r18, r17
    1dce:	11 23       	and	r17, r17
    1dd0:	0c f0       	brlt	.+2      	; 0x1dd4 <usart_set_baudrate+0xe0>
    1dd2:	4c c0       	rjmp	.+152    	; 0x1e6c <usart_set_baudrate+0x178>
    1dd4:	d5 01       	movw	r26, r10
    1dd6:	c4 01       	movw	r24, r8
    1dd8:	88 0f       	add	r24, r24
    1dda:	99 1f       	adc	r25, r25
    1ddc:	aa 1f       	adc	r26, r26
    1dde:	bb 1f       	adc	r27, r27
    1de0:	88 0f       	add	r24, r24
    1de2:	99 1f       	adc	r25, r25
    1de4:	aa 1f       	adc	r26, r26
    1de6:	bb 1f       	adc	r27, r27
    1de8:	88 0f       	add	r24, r24
    1dea:	99 1f       	adc	r25, r25
    1dec:	aa 1f       	adc	r26, r26
    1dee:	bb 1f       	adc	r27, r27
    1df0:	48 1a       	sub	r4, r24
    1df2:	59 0a       	sbc	r5, r25
    1df4:	6a 0a       	sbc	r6, r26
    1df6:	7b 0a       	sbc	r7, r27
    1df8:	1e 3f       	cpi	r17, 0xFE	; 254
    1dfa:	f4 f4       	brge	.+60     	; 0x1e38 <usart_set_baudrate+0x144>
    1dfc:	6d ef       	ldi	r22, 0xFD	; 253
    1dfe:	7f ef       	ldi	r23, 0xFF	; 255
    1e00:	61 1b       	sub	r22, r17
    1e02:	71 09       	sbc	r23, r1
    1e04:	17 fd       	sbrc	r17, 7
    1e06:	73 95       	inc	r23
    1e08:	04 c0       	rjmp	.+8      	; 0x1e12 <usart_set_baudrate+0x11e>
    1e0a:	44 0c       	add	r4, r4
    1e0c:	55 1c       	adc	r5, r5
    1e0e:	66 1c       	adc	r6, r6
    1e10:	77 1c       	adc	r7, r7
    1e12:	6a 95       	dec	r22
    1e14:	d2 f7       	brpl	.-12     	; 0x1e0a <usart_set_baudrate+0x116>
    1e16:	d5 01       	movw	r26, r10
    1e18:	c4 01       	movw	r24, r8
    1e1a:	b6 95       	lsr	r27
    1e1c:	a7 95       	ror	r26
    1e1e:	97 95       	ror	r25
    1e20:	87 95       	ror	r24
    1e22:	bc 01       	movw	r22, r24
    1e24:	cd 01       	movw	r24, r26
    1e26:	64 0d       	add	r22, r4
    1e28:	75 1d       	adc	r23, r5
    1e2a:	86 1d       	adc	r24, r6
    1e2c:	97 1d       	adc	r25, r7
    1e2e:	a5 01       	movw	r20, r10
    1e30:	94 01       	movw	r18, r8
    1e32:	0e 94 44 25 	call	0x4a88	; 0x4a88 <__udivmodsi4>
    1e36:	36 c0       	rjmp	.+108    	; 0x1ea4 <usart_set_baudrate+0x1b0>
    1e38:	23 e0       	ldi	r18, 0x03	; 3
    1e3a:	21 0f       	add	r18, r17
    1e3c:	d5 01       	movw	r26, r10
    1e3e:	c4 01       	movw	r24, r8
    1e40:	04 c0       	rjmp	.+8      	; 0x1e4a <usart_set_baudrate+0x156>
    1e42:	88 0f       	add	r24, r24
    1e44:	99 1f       	adc	r25, r25
    1e46:	aa 1f       	adc	r26, r26
    1e48:	bb 1f       	adc	r27, r27
    1e4a:	2a 95       	dec	r18
    1e4c:	d2 f7       	brpl	.-12     	; 0x1e42 <usart_set_baudrate+0x14e>
    1e4e:	9c 01       	movw	r18, r24
    1e50:	ad 01       	movw	r20, r26
    1e52:	b6 95       	lsr	r27
    1e54:	a7 95       	ror	r26
    1e56:	97 95       	ror	r25
    1e58:	87 95       	ror	r24
    1e5a:	bc 01       	movw	r22, r24
    1e5c:	cd 01       	movw	r24, r26
    1e5e:	64 0d       	add	r22, r4
    1e60:	75 1d       	adc	r23, r5
    1e62:	86 1d       	adc	r24, r6
    1e64:	97 1d       	adc	r25, r7
    1e66:	0e 94 44 25 	call	0x4a88	; 0x4a88 <__udivmodsi4>
    1e6a:	1c c0       	rjmp	.+56     	; 0x1ea4 <usart_set_baudrate+0x1b0>
    1e6c:	2d 5f       	subi	r18, 0xFD	; 253
    1e6e:	d5 01       	movw	r26, r10
    1e70:	c4 01       	movw	r24, r8
    1e72:	04 c0       	rjmp	.+8      	; 0x1e7c <usart_set_baudrate+0x188>
    1e74:	88 0f       	add	r24, r24
    1e76:	99 1f       	adc	r25, r25
    1e78:	aa 1f       	adc	r26, r26
    1e7a:	bb 1f       	adc	r27, r27
    1e7c:	2a 95       	dec	r18
    1e7e:	d2 f7       	brpl	.-12     	; 0x1e74 <usart_set_baudrate+0x180>
    1e80:	9c 01       	movw	r18, r24
    1e82:	ad 01       	movw	r20, r26
    1e84:	b6 95       	lsr	r27
    1e86:	a7 95       	ror	r26
    1e88:	97 95       	ror	r25
    1e8a:	87 95       	ror	r24
    1e8c:	bc 01       	movw	r22, r24
    1e8e:	cd 01       	movw	r24, r26
    1e90:	64 0d       	add	r22, r4
    1e92:	75 1d       	adc	r23, r5
    1e94:	86 1d       	adc	r24, r6
    1e96:	97 1d       	adc	r25, r7
    1e98:	0e 94 44 25 	call	0x4a88	; 0x4a88 <__udivmodsi4>
    1e9c:	21 50       	subi	r18, 0x01	; 1
    1e9e:	31 09       	sbc	r19, r1
    1ea0:	41 09       	sbc	r20, r1
    1ea2:	51 09       	sbc	r21, r1
    1ea4:	83 2f       	mov	r24, r19
    1ea6:	8f 70       	andi	r24, 0x0F	; 15
    1ea8:	12 95       	swap	r17
    1eaa:	10 7f       	andi	r17, 0xF0	; 240
    1eac:	18 2b       	or	r17, r24
    1eae:	1f 83       	std	Y+7, r17	; 0x07
    1eb0:	2e 83       	std	Y+6, r18	; 0x06
    1eb2:	81 e0       	ldi	r24, 0x01	; 1
    1eb4:	18 c0       	rjmp	.+48     	; 0x1ee6 <usart_set_baudrate+0x1f2>
    1eb6:	80 e0       	ldi	r24, 0x00	; 0
    1eb8:	16 c0       	rjmp	.+44     	; 0x1ee6 <usart_set_baudrate+0x1f2>
    1eba:	80 e0       	ldi	r24, 0x00	; 0
    1ebc:	14 c0       	rjmp	.+40     	; 0x1ee6 <usart_set_baudrate+0x1f2>
    1ebe:	d5 01       	movw	r26, r10
    1ec0:	c4 01       	movw	r24, r8
    1ec2:	88 0f       	add	r24, r24
    1ec4:	99 1f       	adc	r25, r25
    1ec6:	aa 1f       	adc	r26, r26
    1ec8:	bb 1f       	adc	r27, r27
    1eca:	88 0f       	add	r24, r24
    1ecc:	99 1f       	adc	r25, r25
    1ece:	aa 1f       	adc	r26, r26
    1ed0:	bb 1f       	adc	r27, r27
    1ed2:	88 0f       	add	r24, r24
    1ed4:	99 1f       	adc	r25, r25
    1ed6:	aa 1f       	adc	r26, r26
    1ed8:	bb 1f       	adc	r27, r27
    1eda:	48 1a       	sub	r4, r24
    1edc:	59 0a       	sbc	r5, r25
    1ede:	6a 0a       	sbc	r6, r26
    1ee0:	7b 0a       	sbc	r7, r27
    1ee2:	19 ef       	ldi	r17, 0xF9	; 249
    1ee4:	8b cf       	rjmp	.-234    	; 0x1dfc <usart_set_baudrate+0x108>
    1ee6:	df 91       	pop	r29
    1ee8:	cf 91       	pop	r28
    1eea:	1f 91       	pop	r17
    1eec:	0f 91       	pop	r16
    1eee:	ff 90       	pop	r15
    1ef0:	ef 90       	pop	r14
    1ef2:	df 90       	pop	r13
    1ef4:	cf 90       	pop	r12
    1ef6:	bf 90       	pop	r11
    1ef8:	af 90       	pop	r10
    1efa:	9f 90       	pop	r9
    1efc:	8f 90       	pop	r8
    1efe:	7f 90       	pop	r7
    1f00:	6f 90       	pop	r6
    1f02:	5f 90       	pop	r5
    1f04:	4f 90       	pop	r4
    1f06:	08 95       	ret

00001f08 <wdt_reset_mcu>:
    1f08:	63 e0       	ldi	r22, 0x03	; 3
    1f0a:	80 e8       	ldi	r24, 0x80	; 128
    1f0c:	90 e0       	ldi	r25, 0x00	; 0
    1f0e:	0e 94 09 05 	call	0xa12	; 0xa12 <ccp_write_io>
    1f12:	e0 e8       	ldi	r30, 0x80	; 128
    1f14:	f0 e0       	ldi	r31, 0x00	; 0
    1f16:	82 81       	ldd	r24, Z+2	; 0x02
    1f18:	80 fd       	sbrc	r24, 0
    1f1a:	fd cf       	rjmp	.-6      	; 0x1f16 <wdt_reset_mcu+0xe>
    1f1c:	6b e2       	ldi	r22, 0x2B	; 43
    1f1e:	81 e8       	ldi	r24, 0x81	; 129
    1f20:	90 e0       	ldi	r25, 0x00	; 0
    1f22:	0e 94 09 05 	call	0xa12	; 0xa12 <ccp_write_io>
    1f26:	e0 e8       	ldi	r30, 0x80	; 128
    1f28:	f0 e0       	ldi	r31, 0x00	; 0
    1f2a:	82 81       	ldd	r24, Z+2	; 0x02
    1f2c:	80 fd       	sbrc	r24, 0
    1f2e:	fd cf       	rjmp	.-6      	; 0x1f2a <wdt_reset_mcu+0x22>
    1f30:	a8 95       	wdr
    1f32:	ff cf       	rjmp	.-2      	; 0x1f32 <wdt_reset_mcu+0x2a>

00001f34 <En_RC32M>:
//Motor_Param M0,M1,M2,M3;

void En_RC32M(void)
{
    // Start RC32M OSC
    OSC_CTRL |= OSC_RC32MEN_bm;
    1f34:	e0 e5       	ldi	r30, 0x50	; 80
    1f36:	f0 e0       	ldi	r31, 0x00	; 0
    1f38:	80 81       	ld	r24, Z
    1f3a:	82 60       	ori	r24, 0x02	; 2
    1f3c:	80 83       	st	Z, r24
    while(!(OSC_STATUS & OSC_RC32MRDY_bm));
    1f3e:	e1 e5       	ldi	r30, 0x51	; 81
    1f40:	f0 e0       	ldi	r31, 0x00	; 0
    1f42:	80 81       	ld	r24, Z
    1f44:	81 ff       	sbrs	r24, 1
    1f46:	fd cf       	rjmp	.-6      	; 0x1f42 <En_RC32M+0xe>

    // Select the system clock source: 32 MHz Internal RC Osc.
    CCP = CCP_IOREG_gc;
    1f48:	88 ed       	ldi	r24, 0xD8	; 216
    1f4a:	84 bf       	out	0x34, r24	; 52
    CLK_CTRL = CLK_SCLKSEL_RC32M_gc;
    1f4c:	81 e0       	ldi	r24, 0x01	; 1
    1f4e:	80 93 40 00 	sts	0x0040, r24

    // Disable the unused oscillators: 2 MHz, internal 32 kHz, external clock/crystal oscillator, PLL
    OSC_CTRL &= ~(OSC_RC2MEN_bm | OSC_RC32KEN_bm | OSC_XOSCEN_bm | OSC_PLLEN_bm);
    1f52:	e0 e5       	ldi	r30, 0x50	; 80
    1f54:	f0 e0       	ldi	r31, 0x00	; 0
    1f56:	80 81       	ld	r24, Z
    1f58:	82 7e       	andi	r24, 0xE2	; 226
    1f5a:	80 83       	st	Z, r24
    1f5c:	08 95       	ret

00001f5e <PORT_init>:
};

void PORT_init(void)
{
	
	PORTB_DIRSET = KCK_Charge_PIN_bm;
    1f5e:	80 e4       	ldi	r24, 0x40	; 64
    1f60:	80 93 21 06 	sts	0x0621, r24
	PORTC_DIRSET = KCK_Chip_PIN_bm | KCK_DIR_PIN_bm | Buzzer_PIN_bm | PIN2_bm ;
    1f64:	87 e4       	ldi	r24, 0x47	; 71
    1f66:	80 93 41 06 	sts	0x0641, r24
	PORTC_PIN3CTRL=PORT_ISC_BOTHEDGES_gc;
    1f6a:	10 92 53 06 	sts	0x0653, r1
	PORTC_INTCTRL = PORT_INT0LVL_LO_gc;
    1f6e:	81 e0       	ldi	r24, 0x01	; 1
    1f70:	80 93 49 06 	sts	0x0649, r24
	PORTC_INT0MASK = PIN3_bm;
    1f74:	98 e0       	ldi	r25, 0x08	; 8
    1f76:	90 93 4a 06 	sts	0x064A, r25
	
	PORTD_DIRSET = Gyro_SCL_PIN_bm | LED_White_PIN_bm | LED_Red_PIN_bm | LED_Green_PIN_bm;  //SDA TWI tuye pin ctrl tanzimat mikhad?!
    1f7a:	2e e2       	ldi	r18, 0x2E	; 46
    1f7c:	20 93 61 06 	sts	0x0661, r18
	//PORTD_PIN2CTRL = PORT_ISC_RISING_gc;  PORTD_PIN3CTRL= PORT_ISC_RISING_gc;  //KCK Sens1 , 2
	//PORTD_INTCTRL = PORT_INT0LVL_LO_gc;
	//PORTD_INT0MASK = KCK_Sens1_PIN_bm | KCK_Sens2_PIN_bm;
		
	
	PORTE_DIRSET = NRF24L01_L_CE_LINE | NRF24L01_L_CS_LINE | NRF24L01_L_MOSI_LINE | NRF24L01_L_SCK_LINE | PIN3_bm; // wireless module & programmer data & usart test
    1f80:	2a eb       	ldi	r18, 0xBA	; 186
    1f82:	20 93 81 06 	sts	0x0681, r18
	PORTE_PIN0CTRL |= PORT_ISC_FALLING_gc;
    1f86:	e0 e9       	ldi	r30, 0x90	; 144
    1f88:	f6 e0       	ldi	r31, 0x06	; 6
    1f8a:	20 81       	ld	r18, Z
    1f8c:	22 60       	ori	r18, 0x02	; 2
    1f8e:	20 83       	st	Z, r18
	PORTE_INTCTRL |= PORT_INT0LVL_LO_gc;
    1f90:	e9 e8       	ldi	r30, 0x89	; 137
    1f92:	f6 e0       	ldi	r31, 0x06	; 6
    1f94:	20 81       	ld	r18, Z
    1f96:	21 60       	ori	r18, 0x01	; 1
    1f98:	20 83       	st	Z, r18
	PORTE_INT0MASK |= PIN0_bm;
    1f9a:	ea e8       	ldi	r30, 0x8A	; 138
    1f9c:	f6 e0       	ldi	r31, 0x06	; 6
    1f9e:	20 81       	ld	r18, Z
    1fa0:	21 60       	ori	r18, 0x01	; 1
    1fa2:	20 83       	st	Z, r18
	//PORTF_PIN4CTRL = PORT_ISC_BOTHEDGES_gc;
	//PORTF_PIN5CTRL = PORT_ISC_BOTHEDGES_gc;
	//PORTF_PIN6CTRL = PORT_ISC_BOTHEDGES_gc;
	//PORTF_INTCTRL |= PORT_INT0LVL_LO_gc;
	//PORTF_INT0MASK = Menu_Cancel_PIN_bm | Menu_PIN3_bm | Menu_PIN2_bm | Menu_PIN1_bm | Menu_PIN0_bm;
	PORTF_INT0MASK = Menu_Cancel_PIN_bm;
    1fa4:	20 e1       	ldi	r18, 0x10	; 16
    1fa6:	20 93 aa 06 	sts	0x06AA, r18
   
   PORTF_DIRSET = PIN3_bm;
    1faa:	90 93 a1 06 	sts	0x06A1, r25
   PORTF_OUTSET = PIN3_bm;
    1fae:	90 93 a5 06 	sts	0x06A5, r25
   
   PORTK_DIR = 0xFF;//SegL
    1fb2:	2f ef       	ldi	r18, 0xFF	; 255
    1fb4:	20 93 20 07 	sts	0x0720, r18
   PORTJ_DIR = 0xFF;//SegR
    1fb8:	20 93 00 07 	sts	0x0700, r18
   
   PORTK_PIN0CTRL = PORT_ISC_RISING_gc;
    1fbc:	80 93 30 07 	sts	0x0730, r24
   PORTK_INTCTRL = PORT_INT0LVL_LO_gc;
    1fc0:	80 93 29 07 	sts	0x0729, r24
   PORTK_INT0MASK = Menu_Set_PIN_bm;
    1fc4:	20 e8       	ldi	r18, 0x80	; 128
    1fc6:	20 93 2a 07 	sts	0x072A, r18
   
   PORTQ_PIN0CTRL = PORT_ISC_BOTHEDGES_gc;
    1fca:	10 92 d0 07 	sts	0x07D0, r1
   PORTQ_PIN3CTRL = PORT_ISC_BOTHEDGES_gc;
    1fce:	10 92 d3 07 	sts	0x07D3, r1
   PORTQ_INTCTRL  = PORT_INT0LVL_LO_gc|PORT_INT1LVL_LO_gc;
    1fd2:	25 e0       	ldi	r18, 0x05	; 5
    1fd4:	20 93 c9 07 	sts	0x07C9, r18
   PORTQ_INT0MASK = PIN0_bm;
    1fd8:	80 93 ca 07 	sts	0x07CA, r24
   PORTQ_INT1MASK = PIN3_bm;
    1fdc:	90 93 cb 07 	sts	0x07CB, r25
   
   PORTH_PIN5CTRL = PORT_ISC_RISING_gc;
    1fe0:	80 93 f5 06 	sts	0x06F5, r24
   PORTH_INTCTRL  = PORT_INT0LVL_LO_gc;
    1fe4:	80 93 e9 06 	sts	0x06E9, r24
   PORTH_INT0MASK = PIN5_bm;
    1fe8:	80 e2       	ldi	r24, 0x20	; 32
    1fea:	80 93 ea 06 	sts	0x06EA, r24
    1fee:	08 95       	ret

00001ff0 <TimerC0_init>:
 */
static inline void tc_write_clock_source(volatile void *tc,
		TC_CLKSEL_t TC_CLKSEL_enum)
{
	((TC0_t *)tc)->CTRLA =
			(((TC0_t *)tc)->CTRLA & ~TC0_CLKSEL_gm) |
    1ff0:	e0 e0       	ldi	r30, 0x00	; 0
    1ff2:	f8 e0       	ldi	r31, 0x08	; 8
    1ff4:	80 81       	ld	r24, Z
 * \note Configuring the clock starts alos the timer
 */
static inline void tc_write_clock_source(volatile void *tc,
		TC_CLKSEL_t TC_CLKSEL_enum)
{
	((TC0_t *)tc)->CTRLA =
    1ff6:	80 7f       	andi	r24, 0xF0	; 240
    1ff8:	86 60       	ori	r24, 0x06	; 6
    1ffa:	80 83       	st	Z, r24
 * \param tc Pointer to TC module.
 * \param wgm : waveform generator
 */
static inline void tc_set_wgm(volatile void *tc, enum tc_wg_mode_t wgm)
{
	((TC0_t *)tc)->CTRLB = (((TC0_t *)tc)->CTRLB & ~TC0_WGMODE_gm) | wgm;
    1ffc:	81 81       	ldd	r24, Z+1	; 0x01
    1ffe:	88 7f       	andi	r24, 0xF8	; 248
    2000:	83 60       	ori	r24, 0x03	; 3
    2002:	81 83       	std	Z+1, r24	; 0x01
 * \param tc Pointer to TC module.
 * \param per_value Period value : PER
 */
static inline void tc_write_period(volatile void *tc, uint16_t per_value)
{
	((TC0_t *)tc)->PER = per_value;
    2004:	8f ef       	ldi	r24, 0xFF	; 255
    2006:	90 e0       	ldi	r25, 0x00	; 0
    2008:	86 a3       	std	Z+38, r24	; 0x26
    200a:	97 a3       	std	Z+39, r25	; 0x27
 * \param dir Timer direction :
 */
static inline void tc_set_direction(volatile void *tc, enum tc_dir_t dir)
{
	if (dir == TC_UP) {
		((TC0_t *)tc)->CTRLFCLR |= ~TC0_DIR_bm;
    200c:	80 85       	ldd	r24, Z+8	; 0x08
    200e:	8e 6f       	ori	r24, 0xFE	; 254
    2010:	80 87       	std	Z+8, r24	; 0x08
 */
static inline void tc_enable_cc_channels(volatile void *tc,
		enum tc_cc_channel_mask_enable_t enablemask)
{
	if (tc_is_tc0(void *tc)) {
		((TC0_t *)tc)->CTRLB |= enablemask;
    2012:	81 81       	ldd	r24, Z+1	; 0x01
    2014:	80 61       	ori	r24, 0x10	; 16
    2016:	81 83       	std	Z+1, r24	; 0x01
    2018:	81 81       	ldd	r24, Z+1	; 0x01
    201a:	80 62       	ori	r24, 0x20	; 32
    201c:	81 83       	std	Z+1, r24	; 0x01
	tc_set_wgm(&TCC0,TC_WG_SS);
	tc_write_period(&TCC0,0x00FF);
	tc_set_direction(&TCC0,TC_UP);
	tc_enable_cc_channels(&TCC0,TC_CCAEN);
	tc_enable_cc_channels(&TCC0,TC_CCBEN);
	tc_enable(&TCC0);
    201e:	80 e0       	ldi	r24, 0x00	; 0
    2020:	98 e0       	ldi	r25, 0x08	; 8
    2022:	d7 cd       	rjmp	.-1106   	; 0x1bd2 <tc_enable>
    2024:	08 95       	ret

00002026 <TimerD0_init>:
 */
static inline void tc_write_clock_source(volatile void *tc,
		TC_CLKSEL_t TC_CLKSEL_enum)
{
	((TC0_t *)tc)->CTRLA =
			(((TC0_t *)tc)->CTRLA & ~TC0_CLKSEL_gm) |
    2026:	e0 e0       	ldi	r30, 0x00	; 0
    2028:	f9 e0       	ldi	r31, 0x09	; 9
    202a:	80 81       	ld	r24, Z
 * \note Configuring the clock starts alos the timer
 */
static inline void tc_write_clock_source(volatile void *tc,
		TC_CLKSEL_t TC_CLKSEL_enum)
{
	((TC0_t *)tc)->CTRLA =
    202c:	80 7f       	andi	r24, 0xF0	; 240
    202e:	86 60       	ori	r24, 0x06	; 6
    2030:	80 83       	st	Z, r24
 * \param tc Pointer to TC module.
 * \param wgm : waveform generator
 */
static inline void tc_set_wgm(volatile void *tc, enum tc_wg_mode_t wgm)
{
	((TC0_t *)tc)->CTRLB = (((TC0_t *)tc)->CTRLB & ~TC0_WGMODE_gm) | wgm;
    2032:	81 81       	ldd	r24, Z+1	; 0x01
    2034:	88 7f       	andi	r24, 0xF8	; 248
    2036:	81 83       	std	Z+1, r24	; 0x01
 * \note  Configures OVFINTLVL in INTCTRLA
 */
static inline void tc_set_overflow_interrupt_level(volatile void *tc,
		enum TC_INT_LEVEL_t level)
{
	((TC0_t *)tc)->INTCTRLA = ((TC0_t *)tc)->INTCTRLA & ~TC0_OVFINTLVL_gm;
    2038:	86 81       	ldd	r24, Z+6	; 0x06
    203a:	8c 7f       	andi	r24, 0xFC	; 252
    203c:	86 83       	std	Z+6, r24	; 0x06
	((TC0_t *)tc)->INTCTRLA =
			((TC0_t *)tc)->INTCTRLA | (level << TC0_OVFINTLVL_gp);
    203e:	86 81       	ldd	r24, Z+6	; 0x06
 */
static inline void tc_set_overflow_interrupt_level(volatile void *tc,
		enum TC_INT_LEVEL_t level)
{
	((TC0_t *)tc)->INTCTRLA = ((TC0_t *)tc)->INTCTRLA & ~TC0_OVFINTLVL_gm;
	((TC0_t *)tc)->INTCTRLA =
    2040:	82 60       	ori	r24, 0x02	; 2
    2042:	86 83       	std	Z+6, r24	; 0x06
 * \param tc Pointer to TC module.
 * \param per_value Period value : PER
 */
static inline void tc_write_period(volatile void *tc, uint16_t per_value)
{
	((TC0_t *)tc)->PER = per_value;
    2044:	8d e7       	ldi	r24, 0x7D	; 125
    2046:	90 e0       	ldi	r25, 0x00	; 0
    2048:	86 a3       	std	Z+38, r24	; 0x26
    204a:	97 a3       	std	Z+39, r25	; 0x27
 * \param dir Timer direction :
 */
static inline void tc_set_direction(volatile void *tc, enum tc_dir_t dir)
{
	if (dir == TC_UP) {
		((TC0_t *)tc)->CTRLFCLR |= ~TC0_DIR_bm;
    204c:	80 85       	ldd	r24, Z+8	; 0x08
    204e:	8e 6f       	ori	r24, 0xFE	; 254
    2050:	80 87       	std	Z+8, r24	; 0x08
	tc_write_clock_source(&TCD0,TC_CLKSEL_DIV256_gc);
	tc_set_wgm(&TCD0,TC_WG_NORMAL);
	tc_set_overflow_interrupt_level(&TCD0,TC_INT_LVL_MED);
	tc_write_period(&TCD0,TIMERD0_PER);
	tc_set_direction(&TCD0,TC_UP);
	tc_enable(&TCD0);
    2052:	80 e0       	ldi	r24, 0x00	; 0
    2054:	99 e0       	ldi	r25, 0x09	; 9
    2056:	bd cd       	rjmp	.-1158   	; 0x1bd2 <tc_enable>
    2058:	08 95       	ret

0000205a <SPI_Init>:
};

void SPI_Init(void)
{
    205a:	0f 93       	push	r16
    205c:	1f 93       	push	r17
	 spi_xmega_set_baud_div(&NRF24L01_L_SPI,8000000UL,F_CPU);
    205e:	00 e0       	ldi	r16, 0x00	; 0
    2060:	18 e4       	ldi	r17, 0x48	; 72
    2062:	28 ee       	ldi	r18, 0xE8	; 232
    2064:	31 e0       	ldi	r19, 0x01	; 1
    2066:	40 e0       	ldi	r20, 0x00	; 0
    2068:	52 e1       	ldi	r21, 0x12	; 18
    206a:	6a e7       	ldi	r22, 0x7A	; 122
    206c:	70 e0       	ldi	r23, 0x00	; 0
    206e:	80 ec       	ldi	r24, 0xC0	; 192
    2070:	9a e0       	ldi	r25, 0x0A	; 10
    2072:	0e 94 19 05 	call	0xa32	; 0xa32 <spi_xmega_set_baud_div>
 *
 * \warning This may cause data loss if used on a slave SPI.
 */
static inline void spi_enable_master_mode(SPI_t *spi)
{
	spi->CTRL |= SPI_MASTER_bm;
    2076:	e0 ec       	ldi	r30, 0xC0	; 192
    2078:	fa e0       	ldi	r31, 0x0A	; 10
    207a:	80 81       	ld	r24, Z
    207c:	80 61       	ori	r24, 0x10	; 16
    207e:	80 83       	st	Z, r24
 *
 * \param spi Base address of the SPI instance.
 */
static inline void spi_enable(SPI_t *spi)
{
	spi->CTRL |= SPI_ENABLE_bm;
    2080:	80 81       	ld	r24, Z
    2082:	80 64       	ori	r24, 0x40	; 64
    2084:	80 83       	st	Z, r24
	 spi_enable_master_mode(&NRF24L01_L_SPI);
	 spi_enable(&NRF24L01_L_SPI);
}
    2086:	1f 91       	pop	r17
    2088:	0f 91       	pop	r16
    208a:	08 95       	ret

0000208c <USARTF0_init>:


#define USARTF0_conf USARTF0
#define USARTF0_BUADRATE 9600
void USARTF0_init(void)
{
    208c:	0f 93       	push	r16
    208e:	1f 93       	push	r17
    2090:	cf 93       	push	r28
    2092:	df 93       	push	r29
 * - 0x2        : IrDA mode.
 * - 0x3        : Master SPI mode.
 */
static inline void usart_set_mode(USART_t *usart, USART_CMODE_t usartmode)
{
	(usart)->CTRLC = ((usart)->CTRLC & (~USART_CMODE_gm)) | usartmode;
    2094:	c0 ea       	ldi	r28, 0xA0	; 160
    2096:	db e0       	ldi	r29, 0x0B	; 11
    2098:	8d 81       	ldd	r24, Y+5	; 0x05
    209a:	8f 73       	andi	r24, 0x3F	; 63
    209c:	8d 83       	std	Y+5, r24	; 0x05
 *  \param twoStopBits Enable two stop bit mode. Use bool type.
 */
static inline void usart_format_set(USART_t *usart, USART_CHSIZE_t charSize,
		USART_PMODE_t parityMode, bool twoStopBits)
{
	(usart)->CTRLC = (uint8_t)charSize | parityMode
    209e:	83 e0       	ldi	r24, 0x03	; 3
    20a0:	8d 83       	std	Y+5, r24	; 0x05
 * \param level Interrupt level of the RXD interrupt.
 */
static inline void usart_set_rx_interrupt_level(USART_t *usart,
		enum usart_int_level_t level)
{
	(usart)->CTRLA = ((usart)->CTRLA & ~USART_RXCINTLVL_gm) |
    20a2:	8b 81       	ldd	r24, Y+3	; 0x03
    20a4:	8f 7c       	andi	r24, 0xCF	; 207
    20a6:	80 62       	ori	r24, 0x20	; 32
    20a8:	8b 83       	std	Y+3, r24	; 0x03
	usart_set_mode(&USARTF0_conf,USART_CMODE_ASYNCHRONOUS_gc);
	usart_format_set(&USARTF0_conf,USART_CHSIZE_8BIT_gc,USART_PMODE_DISABLED_gc,false);
	usart_set_rx_interrupt_level(&USARTF0_conf,USART_INT_LVL_MED);
	//usart_set_dre_interrupt_level(&USARTF0_conf,USART_INT_LVL_LO);
	usart_set_baudrate(&USARTF0_conf,USARTF0_BUADRATE,F_CPU);
    20aa:	00 e0       	ldi	r16, 0x00	; 0
    20ac:	18 e4       	ldi	r17, 0x48	; 72
    20ae:	28 ee       	ldi	r18, 0xE8	; 232
    20b0:	31 e0       	ldi	r19, 0x01	; 1
    20b2:	40 e8       	ldi	r20, 0x80	; 128
    20b4:	55 e2       	ldi	r21, 0x25	; 37
    20b6:	60 e0       	ldi	r22, 0x00	; 0
    20b8:	70 e0       	ldi	r23, 0x00	; 0
    20ba:	80 ea       	ldi	r24, 0xA0	; 160
    20bc:	9b e0       	ldi	r25, 0x0B	; 11
    20be:	1a de       	rcall	.-972    	; 0x1cf4 <usart_set_baudrate>
 *
 * \param usart Pointer to the USART module.
 */
static inline void usart_tx_enable(USART_t *usart)
{
	(usart)->CTRLB |= USART_TXEN_bm;
    20c0:	8c 81       	ldd	r24, Y+4	; 0x04
    20c2:	88 60       	ori	r24, 0x08	; 8
    20c4:	8c 83       	std	Y+4, r24	; 0x04
 *
 * \param usart Pointer to the USART module
 */
static inline void usart_rx_enable(USART_t *usart)
{
	(usart)->CTRLB |= USART_RXEN_bm;
    20c6:	8c 81       	ldd	r24, Y+4	; 0x04
    20c8:	80 61       	ori	r24, 0x10	; 16
    20ca:	8c 83       	std	Y+4, r24	; 0x04
	usart_tx_enable(&USARTF0_conf);
	usart_rx_enable(&USARTF0_conf);
}
    20cc:	df 91       	pop	r29
    20ce:	cf 91       	pop	r28
    20d0:	1f 91       	pop	r17
    20d2:	0f 91       	pop	r16
    20d4:	08 95       	ret

000020d6 <USARTF1_init>:

#define USARTF1_conf USARTF1
#define USARTF1_BUADRATE 9600
void USARTF1_init(void)
{
    20d6:	0f 93       	push	r16
    20d8:	1f 93       	push	r17
    20da:	cf 93       	push	r28
    20dc:	df 93       	push	r29
 * - 0x2        : IrDA mode.
 * - 0x3        : Master SPI mode.
 */
static inline void usart_set_mode(USART_t *usart, USART_CMODE_t usartmode)
{
	(usart)->CTRLC = ((usart)->CTRLC & (~USART_CMODE_gm)) | usartmode;
    20de:	c0 eb       	ldi	r28, 0xB0	; 176
    20e0:	db e0       	ldi	r29, 0x0B	; 11
    20e2:	8d 81       	ldd	r24, Y+5	; 0x05
    20e4:	8f 73       	andi	r24, 0x3F	; 63
    20e6:	8d 83       	std	Y+5, r24	; 0x05
 *  \param twoStopBits Enable two stop bit mode. Use bool type.
 */
static inline void usart_format_set(USART_t *usart, USART_CHSIZE_t charSize,
		USART_PMODE_t parityMode, bool twoStopBits)
{
	(usart)->CTRLC = (uint8_t)charSize | parityMode
    20e8:	83 e0       	ldi	r24, 0x03	; 3
    20ea:	8d 83       	std	Y+5, r24	; 0x05
 * \param level Interrupt level of the RXD interrupt.
 */
static inline void usart_set_rx_interrupt_level(USART_t *usart,
		enum usart_int_level_t level)
{
	(usart)->CTRLA = ((usart)->CTRLA & ~USART_RXCINTLVL_gm) |
    20ec:	8b 81       	ldd	r24, Y+3	; 0x03
    20ee:	8f 7c       	andi	r24, 0xCF	; 207
    20f0:	80 62       	ori	r24, 0x20	; 32
    20f2:	8b 83       	std	Y+3, r24	; 0x03
	usart_set_mode(&USARTF1_conf,USART_CMODE_ASYNCHRONOUS_gc);
	usart_format_set(&USARTF1_conf,USART_CHSIZE_8BIT_gc,USART_PMODE_DISABLED_gc,false);
	usart_set_rx_interrupt_level(&USARTF1_conf,USART_INT_LVL_MED);
	//usart_set_dre_interrupt_level(&USARTF1_conf,USART_INT_LVL_LO);
	usart_set_baudrate(&USARTF1_conf,USARTF1_BUADRATE,F_CPU);
    20f4:	00 e0       	ldi	r16, 0x00	; 0
    20f6:	18 e4       	ldi	r17, 0x48	; 72
    20f8:	28 ee       	ldi	r18, 0xE8	; 232
    20fa:	31 e0       	ldi	r19, 0x01	; 1
    20fc:	40 e8       	ldi	r20, 0x80	; 128
    20fe:	55 e2       	ldi	r21, 0x25	; 37
    2100:	60 e0       	ldi	r22, 0x00	; 0
    2102:	70 e0       	ldi	r23, 0x00	; 0
    2104:	80 eb       	ldi	r24, 0xB0	; 176
    2106:	9b e0       	ldi	r25, 0x0B	; 11
    2108:	f5 dd       	rcall	.-1046   	; 0x1cf4 <usart_set_baudrate>
 *
 * \param usart Pointer to the USART module.
 */
static inline void usart_tx_enable(USART_t *usart)
{
	(usart)->CTRLB |= USART_TXEN_bm;
    210a:	8c 81       	ldd	r24, Y+4	; 0x04
    210c:	88 60       	ori	r24, 0x08	; 8
    210e:	8c 83       	std	Y+4, r24	; 0x04
 *
 * \param usart Pointer to the USART module
 */
static inline void usart_rx_enable(USART_t *usart)
{
	(usart)->CTRLB |= USART_RXEN_bm;
    2110:	8c 81       	ldd	r24, Y+4	; 0x04
    2112:	80 61       	ori	r24, 0x10	; 16
    2114:	8c 83       	std	Y+4, r24	; 0x04
	usart_tx_enable(&USARTF1_conf);
	usart_rx_enable(&USARTF1_conf);
}
    2116:	df 91       	pop	r29
    2118:	cf 91       	pop	r28
    211a:	1f 91       	pop	r17
    211c:	0f 91       	pop	r16
    211e:	08 95       	ret

00002120 <ADCA_init>:

//KCK_CAP_VFB   -----> B7
#define CONFIG_ADC_INTLVL ADC_CH_INTLVL_LO_gc
void ADCA_init(void)
{
    2120:	cf 93       	push	r28
    2122:	df 93       	push	r29
    2124:	cd b7       	in	r28, 0x3d	; 61
    2126:	de b7       	in	r29, 0x3e	; 62
    2128:	2a 97       	sbiw	r28, 0x0a	; 10
    212a:	cd bf       	out	0x3d, r28	; 61
    212c:	de bf       	out	0x3e, r29	; 62
 *
 * \param address Byte offset into the signature row
 */
static inline uint8_t nvm_read_production_signature_row(uint8_t address)
{
	return nvm_read_byte(NVM_CMD_READ_CALIB_ROW_gc, address);
    212e:	61 e2       	ldi	r22, 0x21	; 33
    2130:	70 e0       	ldi	r23, 0x00	; 0
    2132:	82 e0       	ldi	r24, 0x02	; 2
    2134:	0e 94 0f 05 	call	0xa1e	; 0xa1e <nvm_read_byte>
    2138:	60 e2       	ldi	r22, 0x20	; 32
    213a:	70 e0       	ldi	r23, 0x00	; 0
    213c:	82 e0       	ldi	r24, 0x02	; 2
    213e:	0e 94 0f 05 	call	0xa1e	; 0xa1e <nvm_read_byte>
static inline void adc_set_conversion_parameters(struct adc_config *conf,
		enum adc_sign sign, enum adc_resolution res,
		enum adc_reference ref)
{
	// Preserve all but conversion and resolution config.
	conf->ctrlb &= ~(ADC_CONMODE_bm | ADC_RESOLUTION_gm);
    2142:	8a 81       	ldd	r24, Y+2	; 0x02
    2144:	89 7e       	andi	r24, 0xE9	; 233
	conf->ctrlb |= (uint8_t)res | (uint8_t)sign;

	conf->refctrl &= ~ADC_REFSEL_gm;
    2146:	9b 81       	ldd	r25, Y+3	; 0x03
    2148:	9f 7c       	andi	r25, 0xCF	; 207
	conf->refctrl |= ref;
    214a:	90 62       	ori	r25, 0x20	; 32
    214c:	9b 83       	std	Y+3, r25	; 0x03
		psc = ADC_PRESCALER_DIV256_gc;
	} else {
		psc = ADC_PRESCALER_DIV512_gc;
	}

	conf->prescaler = psc;
    214e:	92 e0       	ldi	r25, 0x02	; 2
    2150:	9d 83       	std	Y+5, r25	; 0x05
				(nr_of_ch << ADC_EVACT_gp);
		break;

#if XMEGA_A || XMEGA_AU
	case ADC_TRIG_FREERUN_SWEEP:
		conf->ctrlb |= ADC_FREERUN_bm;
    2152:	88 60       	ori	r24, 0x08	; 8
    2154:	8a 83       	std	Y+2, r24	; 0x02
		conf->evctrl = (nr_of_ch - 1) << ADC_SWEEP_gp;
    2156:	1c 82       	std	Y+4, r1	; 0x04
    adc_get_calibration_data(ADC_CAL_ADCA);
    adc_set_conversion_parameters(&adca_conf,ADC_SIGN_OFF,ADC_RES_12,ADC_REF_AREFA);
    adc_set_clock_rate(&adca_conf,125000UL);
    adc_set_conversion_trigger(&adca_conf,ADC_TRIG_FREERUN_SWEEP,1,0);
   // adc_set_config_compare_value(adcb_conf,KCK_MAX_CHARGE_AMP);
    adc_write_configuration(&ADCA,&adca_conf);
    2158:	be 01       	movw	r22, r28
    215a:	6f 5f       	subi	r22, 0xFF	; 255
    215c:	7f 4f       	sbci	r23, 0xFF	; 255
    215e:	80 e0       	ldi	r24, 0x00	; 0
    2160:	92 e0       	ldi	r25, 0x02	; 2
    2162:	0e 94 57 04 	call	0x8ae	; 0x8ae <adc_write_configuration>
    //
    ///* Configure ADC channel 0:
    //* - Input: ADCB4
    //* - interrupts disable
    //*/
    adcch_read_configuration(&ADCA,1, &adca_ch_conf);
    2166:	ae 01       	movw	r20, r28
    2168:	48 5f       	subi	r20, 0xF8	; 248
    216a:	5f 4f       	sbci	r21, 0xFF	; 255
    216c:	61 e0       	ldi	r22, 0x01	; 1
    216e:	80 e0       	ldi	r24, 0x00	; 0
    2170:	92 e0       	ldi	r25, 0x02	; 2
    2172:	0e 94 d8 04 	call	0x9b0	; 0x9b0 <adcch_read_configuration>

	// Configure for single-ended measurement.
	if (neg == ADCCH_NEG_NONE) {
		Assert(gain == 1);

		ch_conf->ctrl = ADC_CH_INPUTMODE_SINGLEENDED_gc;
    2176:	81 e0       	ldi	r24, 0x01	; 1
    2178:	88 87       	std	Y+8, r24	; 0x08
		ch_conf->muxctrl = pos << ADC_CH_MUXPOS_gp;
    217a:	88 e1       	ldi	r24, 0x18	; 24
    217c:	89 87       	std	Y+9, r24	; 0x09
    adcch_set_input(&adca_ch_conf,ADCCH_POS_PIN3,ADCCH_NEG_NONE,ADC_CH_GAIN_1X_gc);
    adcch_write_configuration(&ADCA,1,&adca_ch_conf);
    217e:	ae 01       	movw	r20, r28
    2180:	48 5f       	subi	r20, 0xF8	; 248
    2182:	5f 4f       	sbci	r21, 0xFF	; 255
    2184:	61 e0       	ldi	r22, 0x01	; 1
    2186:	80 e0       	ldi	r24, 0x00	; 0
    2188:	92 e0       	ldi	r25, 0x02	; 2
    218a:	0e 94 a8 04 	call	0x950	; 0x950 <adcch_write_configuration>
    //adcch_set_input(&adcb_ch_conf,ADCCH_POS_PIN7,ADCCH_NEG_NONE,ADC_CH_GAIN_1X_gc);
    //adcch_set_interrupt_mode(&adcb_ch_conf,ADCCH_MODE_ABOVE);
    //adcch_enable_interrupt(&adcb_ch_conf);
    //adcch_write_configuration(&ADCB,3,&adcb_ch_conf);
    //
    adc_enable(&ADCA);
    218e:	80 e0       	ldi	r24, 0x00	; 0
    2190:	92 e0       	ldi	r25, 0x02	; 2
    2192:	0e 94 40 04 	call	0x880	; 0x880 <adc_enable>

typedef uint8_t irqflags_t;

static inline irqflags_t cpu_irq_save(void)
{
	irqflags_t flags = SREG;
    2196:	8f b7       	in	r24, 0x3f	; 63
	cpu_irq_disable();
    2198:	f8 94       	cli
 * \note The ADC must be enabled for this function to have any effect.
 */
static inline void adc_start_conversion(ADC_t *adc, uint8_t ch_mask)
{
	irqflags_t flags = cpu_irq_save();
	adc->CTRLA |= ch_mask << ADC_CH0START_bp;
    219a:	e0 e0       	ldi	r30, 0x00	; 0
    219c:	f2 e0       	ldi	r31, 0x02	; 2
    219e:	90 81       	ld	r25, Z
    21a0:	94 60       	ori	r25, 0x04	; 4
    21a2:	90 83       	st	Z, r25
}

static inline void cpu_irq_restore(irqflags_t flags)
{
	barrier();
	SREG = flags;
    21a4:	8f bf       	out	0x3f, r24	; 63
    adc_start_conversion(&ADCA,ADC_CH0);
    //adc_start_conversion(&ADCB,ADC_CH1);
    //adc_start_conversion(&ADCB,ADC_CH2);
    ////adc_start_conversion(&ADCB,ADC_CH3);
}
    21a6:	2a 96       	adiw	r28, 0x0a	; 10
    21a8:	cd bf       	out	0x3d, r28	; 61
    21aa:	de bf       	out	0x3e, r29	; 62
    21ac:	df 91       	pop	r29
    21ae:	cf 91       	pop	r28
    21b0:	08 95       	ret

000021b2 <__vector_43>:
        break;
    };

}
void get_MS(char rx)
{
    21b2:	1f 92       	push	r1
    21b4:	0f 92       	push	r0
    21b6:	0f b6       	in	r0, 0x3f	; 63
    21b8:	0f 92       	push	r0
    21ba:	11 24       	eor	r1, r1
    21bc:	08 b6       	in	r0, 0x38	; 56
    21be:	0f 92       	push	r0
    21c0:	18 be       	out	0x38, r1	; 56
    21c2:	09 b6       	in	r0, 0x39	; 57
    21c4:	0f 92       	push	r0
    21c6:	19 be       	out	0x39, r1	; 57
    21c8:	0a b6       	in	r0, 0x3a	; 58
    21ca:	0f 92       	push	r0
    21cc:	1a be       	out	0x3a, r1	; 58
    21ce:	0b b6       	in	r0, 0x3b	; 59
    21d0:	0f 92       	push	r0
    21d2:	1b be       	out	0x3b, r1	; 59
    21d4:	2f 92       	push	r2
    21d6:	3f 92       	push	r3
    21d8:	4f 92       	push	r4
    21da:	5f 92       	push	r5
    21dc:	7f 92       	push	r7
    21de:	8f 92       	push	r8
    21e0:	9f 92       	push	r9
    21e2:	af 92       	push	r10
    21e4:	bf 92       	push	r11
    21e6:	cf 92       	push	r12
    21e8:	df 92       	push	r13
    21ea:	ef 92       	push	r14
    21ec:	ff 92       	push	r15
    21ee:	0f 93       	push	r16
    21f0:	1f 93       	push	r17
    21f2:	2f 93       	push	r18
    21f4:	3f 93       	push	r19
    21f6:	4f 93       	push	r20
    21f8:	5f 93       	push	r21
    21fa:	6f 93       	push	r22
    21fc:	7f 93       	push	r23
    21fe:	8f 93       	push	r24
    2200:	9f 93       	push	r25
    2202:	af 93       	push	r26
    2204:	bf 93       	push	r27
    2206:	ef 93       	push	r30
    2208:	ff 93       	push	r31
    220a:	cf 93       	push	r28
    220c:	df 93       	push	r29
    220e:	cd b7       	in	r28, 0x3d	; 61
    2210:	de b7       	in	r29, 0x3e	; 62
    2212:	c4 55       	subi	r28, 0x54	; 84
    2214:	d1 09       	sbc	r29, r1
    2216:	cd bf       	out	0x3d, r28	; 61
    2218:	de bf       	out	0x3e, r29	; 62
    221a:	60 e7       	ldi	r22, 0x70	; 112
    221c:	87 e2       	ldi	r24, 0x27	; 39
    221e:	0e 94 38 24 	call	0x4870	; 0x4870 <NRF24L01_L_WriteReg>
    2222:	78 2e       	mov	r7, r24
    2224:	86 ff       	sbrs	r24, 6
    2226:	f3 c3       	rjmp	.+2022   	; 0x2a0e <__vector_43+0x85c>
    2228:	88 e0       	ldi	r24, 0x08	; 8
    222a:	e0 e6       	ldi	r30, 0x60	; 96
    222c:	f6 e0       	ldi	r31, 0x06	; 6
    222e:	87 83       	std	Z+7, r24	; 0x07
    2230:	60 e2       	ldi	r22, 0x20	; 32
    2232:	70 e0       	ldi	r23, 0x00	; 0
    2234:	87 e4       	ldi	r24, 0x47	; 71
    2236:	93 e2       	ldi	r25, 0x23	; 35
    2238:	0e 94 8d 24 	call	0x491a	; 0x491a <NRF24L01_L_Read_RX_Buf>
    223c:	0f 2e       	mov	r0, r31
    223e:	f7 e4       	ldi	r31, 0x47	; 71
    2240:	8f 2e       	mov	r8, r31
    2242:	f3 e2       	ldi	r31, 0x23	; 35
    2244:	9f 2e       	mov	r9, r31
    2246:	f0 2d       	mov	r31, r0
    2248:	d4 01       	movw	r26, r8
    224a:	6d 91       	ld	r22, X+
    224c:	4d 01       	movw	r8, r26
    224e:	80 ea       	ldi	r24, 0xA0	; 160
    2250:	9a e0       	ldi	r25, 0x0A	; 10
    2252:	48 dd       	rcall	.-1392   	; 0x1ce4 <usart_putchar>
    2254:	b7 e6       	ldi	r27, 0x67	; 103
    2256:	8b 16       	cp	r8, r27
    2258:	b3 e2       	ldi	r27, 0x23	; 35
    225a:	9b 06       	cpc	r9, r27
    225c:	a9 f7       	brne	.-22     	; 0x2248 <__vector_43+0x96>
    225e:	40 91 47 23 	lds	r20, 0x2347
    2262:	e8 e0       	ldi	r30, 0x08	; 8
    2264:	f6 e0       	ldi	r31, 0x06	; 6
    2266:	70 81       	ld	r23, Z
    2268:	60 81       	ld	r22, Z
    226a:	20 81       	ld	r18, Z
    226c:	50 81       	ld	r21, Z
    226e:	84 2f       	mov	r24, r20
    2270:	90 e0       	ldi	r25, 0x00	; 0
    2272:	22 1f       	adc	r18, r18
    2274:	22 27       	eor	r18, r18
    2276:	22 1f       	adc	r18, r18
    2278:	30 e0       	ldi	r19, 0x00	; 0
    227a:	22 0f       	add	r18, r18
    227c:	33 1f       	adc	r19, r19
    227e:	22 0f       	add	r18, r18
    2280:	33 1f       	adc	r19, r19
    2282:	76 fb       	bst	r23, 6
    2284:	cc 24       	eor	r12, r12
    2286:	c0 f8       	bld	r12, 0
    2288:	d1 2c       	mov	r13, r1
    228a:	c2 2a       	or	r12, r18
    228c:	d3 2a       	or	r13, r19
    228e:	64 fb       	bst	r22, 4
    2290:	ee 24       	eor	r14, r14
    2292:	e0 f8       	bld	r14, 0
    2294:	f1 2c       	mov	r15, r1
    2296:	ee 0c       	add	r14, r14
    2298:	ff 1c       	adc	r15, r15
    229a:	ce 28       	or	r12, r14
    229c:	df 28       	or	r13, r15
    229e:	55 fb       	bst	r21, 5
    22a0:	00 27       	eor	r16, r16
    22a2:	00 f9       	bld	r16, 0
    22a4:	10 e0       	ldi	r17, 0x00	; 0
    22a6:	98 01       	movw	r18, r16
    22a8:	22 0f       	add	r18, r18
    22aa:	33 1f       	adc	r19, r19
    22ac:	22 0f       	add	r18, r18
    22ae:	33 1f       	adc	r19, r19
    22b0:	22 0f       	add	r18, r18
    22b2:	33 1f       	adc	r19, r19
    22b4:	86 01       	movw	r16, r12
    22b6:	02 2b       	or	r16, r18
    22b8:	13 2b       	or	r17, r19
    22ba:	80 17       	cp	r24, r16
    22bc:	91 07       	cpc	r25, r17
    22be:	09 f0       	breq	.+2      	; 0x22c2 <__vector_43+0x110>
    22c0:	a6 c3       	rjmp	.+1868   	; 0x2a0e <__vector_43+0x85c>
    22c2:	10 92 a9 20 	sts	0x20A9, r1
    22c6:	10 92 aa 20 	sts	0x20AA, r1
    22ca:	50 81       	ld	r21, Z
    22cc:	30 81       	ld	r19, Z
    22ce:	80 81       	ld	r24, Z
    22d0:	20 81       	ld	r18, Z
    22d2:	88 1f       	adc	r24, r24
    22d4:	88 27       	eor	r24, r24
    22d6:	88 1f       	adc	r24, r24
    22d8:	90 e0       	ldi	r25, 0x00	; 0
    22da:	88 0f       	add	r24, r24
    22dc:	99 1f       	adc	r25, r25
    22de:	88 0f       	add	r24, r24
    22e0:	99 1f       	adc	r25, r25
    22e2:	56 fb       	bst	r21, 6
    22e4:	aa 24       	eor	r10, r10
    22e6:	a0 f8       	bld	r10, 0
    22e8:	b1 2c       	mov	r11, r1
    22ea:	a8 2a       	or	r10, r24
    22ec:	b9 2a       	or	r11, r25
    22ee:	32 95       	swap	r19
    22f0:	31 70       	andi	r19, 0x01	; 1
    22f2:	39 83       	std	Y+1, r19	; 0x01
    22f4:	1a 82       	std	Y+2, r1	; 0x02
    22f6:	89 81       	ldd	r24, Y+1	; 0x01
    22f8:	9a 81       	ldd	r25, Y+2	; 0x02
    22fa:	88 0f       	add	r24, r24
    22fc:	99 1f       	adc	r25, r25
    22fe:	a8 2a       	or	r10, r24
    2300:	b9 2a       	or	r11, r25
    2302:	25 fb       	bst	r18, 5
    2304:	44 24       	eor	r4, r4
    2306:	40 f8       	bld	r4, 0
    2308:	51 2c       	mov	r5, r1
    230a:	c2 01       	movw	r24, r4
    230c:	88 0f       	add	r24, r24
    230e:	99 1f       	adc	r25, r25
    2310:	88 0f       	add	r24, r24
    2312:	99 1f       	adc	r25, r25
    2314:	88 0f       	add	r24, r24
    2316:	99 1f       	adc	r25, r25
    2318:	25 01       	movw	r4, r10
    231a:	48 2a       	or	r4, r24
    231c:	59 2a       	or	r5, r25
    231e:	57 e1       	ldi	r21, 0x17	; 23
    2320:	54 9d       	mul	r21, r4
    2322:	d0 01       	movw	r26, r0
    2324:	55 9d       	mul	r21, r5
    2326:	b0 0d       	add	r27, r0
    2328:	11 24       	eor	r1, r1
    232a:	ac 54       	subi	r26, 0x4C	; 76
    232c:	bf 4d       	sbci	r27, 0xDF	; 223
    232e:	4c 93       	st	X, r20
    2330:	40 81       	ld	r20, Z
    2332:	30 81       	ld	r19, Z
    2334:	80 81       	ld	r24, Z
    2336:	20 81       	ld	r18, Z
    2338:	88 1f       	adc	r24, r24
    233a:	88 27       	eor	r24, r24
    233c:	88 1f       	adc	r24, r24
    233e:	90 e0       	ldi	r25, 0x00	; 0
    2340:	88 0f       	add	r24, r24
    2342:	99 1f       	adc	r25, r25
    2344:	88 0f       	add	r24, r24
    2346:	99 1f       	adc	r25, r25
    2348:	46 fb       	bst	r20, 6
    234a:	22 24       	eor	r2, r2
    234c:	20 f8       	bld	r2, 0
    234e:	31 2c       	mov	r3, r1
    2350:	28 2a       	or	r2, r24
    2352:	39 2a       	or	r3, r25
    2354:	32 95       	swap	r19
    2356:	31 70       	andi	r19, 0x01	; 1
    2358:	3b 83       	std	Y+3, r19	; 0x03
    235a:	1c 82       	std	Y+4, r1	; 0x04
    235c:	8b 81       	ldd	r24, Y+3	; 0x03
    235e:	9c 81       	ldd	r25, Y+4	; 0x04
    2360:	88 0f       	add	r24, r24
    2362:	99 1f       	adc	r25, r25
    2364:	28 2a       	or	r2, r24
    2366:	39 2a       	or	r3, r25
    2368:	25 fb       	bst	r18, 5
    236a:	22 27       	eor	r18, r18
    236c:	20 f9       	bld	r18, 0
    236e:	2d 83       	std	Y+5, r18	; 0x05
    2370:	1e 82       	std	Y+6, r1	; 0x06
    2372:	8d 81       	ldd	r24, Y+5	; 0x05
    2374:	9e 81       	ldd	r25, Y+6	; 0x06
    2376:	88 0f       	add	r24, r24
    2378:	99 1f       	adc	r25, r25
    237a:	88 0f       	add	r24, r24
    237c:	99 1f       	adc	r25, r25
    237e:	88 0f       	add	r24, r24
    2380:	99 1f       	adc	r25, r25
    2382:	28 2a       	or	r2, r24
    2384:	39 2a       	or	r3, r25
    2386:	52 9d       	mul	r21, r2
    2388:	d0 01       	movw	r26, r0
    238a:	53 9d       	mul	r21, r3
    238c:	b0 0d       	add	r27, r0
    238e:	11 24       	eor	r1, r1
    2390:	ac 54       	subi	r26, 0x4C	; 76
    2392:	bf 4d       	sbci	r27, 0xDF	; 223
    2394:	80 91 48 23 	lds	r24, 0x2348
    2398:	90 e0       	ldi	r25, 0x00	; 0
    239a:	11 96       	adiw	r26, 0x01	; 1
    239c:	8d 93       	st	X+, r24
    239e:	9c 93       	st	X, r25
    23a0:	12 97       	sbiw	r26, 0x02	; 2
    23a2:	30 81       	ld	r19, Z
    23a4:	20 81       	ld	r18, Z
    23a6:	80 81       	ld	r24, Z
    23a8:	40 81       	ld	r20, Z
    23aa:	88 1f       	adc	r24, r24
    23ac:	88 27       	eor	r24, r24
    23ae:	88 1f       	adc	r24, r24
    23b0:	90 e0       	ldi	r25, 0x00	; 0
    23b2:	88 0f       	add	r24, r24
    23b4:	99 1f       	adc	r25, r25
    23b6:	88 0f       	add	r24, r24
    23b8:	99 1f       	adc	r25, r25
    23ba:	36 fb       	bst	r19, 6
    23bc:	33 27       	eor	r19, r19
    23be:	30 f9       	bld	r19, 0
    23c0:	3f 83       	std	Y+7, r19	; 0x07
    23c2:	18 86       	std	Y+8, r1	; 0x08
    23c4:	6f 81       	ldd	r22, Y+7	; 0x07
    23c6:	78 85       	ldd	r23, Y+8	; 0x08
    23c8:	86 2b       	or	r24, r22
    23ca:	97 2b       	or	r25, r23
    23cc:	22 95       	swap	r18
    23ce:	21 70       	andi	r18, 0x01	; 1
    23d0:	29 87       	std	Y+9, r18	; 0x09
    23d2:	1a 86       	std	Y+10, r1	; 0x0a
    23d4:	29 85       	ldd	r18, Y+9	; 0x09
    23d6:	3a 85       	ldd	r19, Y+10	; 0x0a
    23d8:	22 0f       	add	r18, r18
    23da:	33 1f       	adc	r19, r19
    23dc:	82 2b       	or	r24, r18
    23de:	93 2b       	or	r25, r19
    23e0:	45 fb       	bst	r20, 5
    23e2:	44 27       	eor	r20, r20
    23e4:	40 f9       	bld	r20, 0
    23e6:	4b 87       	std	Y+11, r20	; 0x0b
    23e8:	1c 86       	std	Y+12, r1	; 0x0c
    23ea:	2b 85       	ldd	r18, Y+11	; 0x0b
    23ec:	3c 85       	ldd	r19, Y+12	; 0x0c
    23ee:	22 0f       	add	r18, r18
    23f0:	33 1f       	adc	r19, r19
    23f2:	22 0f       	add	r18, r18
    23f4:	33 1f       	adc	r19, r19
    23f6:	22 0f       	add	r18, r18
    23f8:	33 1f       	adc	r19, r19
    23fa:	82 2b       	or	r24, r18
    23fc:	93 2b       	or	r25, r19
    23fe:	58 9f       	mul	r21, r24
    2400:	d0 01       	movw	r26, r0
    2402:	59 9f       	mul	r21, r25
    2404:	b0 0d       	add	r27, r0
    2406:	11 24       	eor	r1, r1
    2408:	ac 54       	subi	r26, 0x4C	; 76
    240a:	bf 4d       	sbci	r27, 0xDF	; 223
    240c:	80 91 49 23 	lds	r24, 0x2349
    2410:	90 e0       	ldi	r25, 0x00	; 0
    2412:	13 96       	adiw	r26, 0x03	; 3
    2414:	8d 93       	st	X+, r24
    2416:	9c 93       	st	X, r25
    2418:	14 97       	sbiw	r26, 0x04	; 4
    241a:	30 81       	ld	r19, Z
    241c:	20 81       	ld	r18, Z
    241e:	80 81       	ld	r24, Z
    2420:	40 81       	ld	r20, Z
    2422:	88 1f       	adc	r24, r24
    2424:	88 27       	eor	r24, r24
    2426:	88 1f       	adc	r24, r24
    2428:	90 e0       	ldi	r25, 0x00	; 0
    242a:	88 0f       	add	r24, r24
    242c:	99 1f       	adc	r25, r25
    242e:	88 0f       	add	r24, r24
    2430:	99 1f       	adc	r25, r25
    2432:	36 fb       	bst	r19, 6
    2434:	33 27       	eor	r19, r19
    2436:	30 f9       	bld	r19, 0
    2438:	3d 87       	std	Y+13, r19	; 0x0d
    243a:	1e 86       	std	Y+14, r1	; 0x0e
    243c:	ad 85       	ldd	r26, Y+13	; 0x0d
    243e:	be 85       	ldd	r27, Y+14	; 0x0e
    2440:	8a 2b       	or	r24, r26
    2442:	9b 2b       	or	r25, r27
    2444:	22 95       	swap	r18
    2446:	21 70       	andi	r18, 0x01	; 1
    2448:	2f 87       	std	Y+15, r18	; 0x0f
    244a:	18 8a       	std	Y+16, r1	; 0x10
    244c:	2f 85       	ldd	r18, Y+15	; 0x0f
    244e:	38 89       	ldd	r19, Y+16	; 0x10
    2450:	22 0f       	add	r18, r18
    2452:	33 1f       	adc	r19, r19
    2454:	82 2b       	or	r24, r18
    2456:	93 2b       	or	r25, r19
    2458:	45 fb       	bst	r20, 5
    245a:	44 27       	eor	r20, r20
    245c:	40 f9       	bld	r20, 0
    245e:	49 8b       	std	Y+17, r20	; 0x11
    2460:	1a 8a       	std	Y+18, r1	; 0x12
    2462:	29 89       	ldd	r18, Y+17	; 0x11
    2464:	3a 89       	ldd	r19, Y+18	; 0x12
    2466:	22 0f       	add	r18, r18
    2468:	33 1f       	adc	r19, r19
    246a:	22 0f       	add	r18, r18
    246c:	33 1f       	adc	r19, r19
    246e:	22 0f       	add	r18, r18
    2470:	33 1f       	adc	r19, r19
    2472:	82 2b       	or	r24, r18
    2474:	93 2b       	or	r25, r19
    2476:	58 9f       	mul	r21, r24
    2478:	d0 01       	movw	r26, r0
    247a:	59 9f       	mul	r21, r25
    247c:	b0 0d       	add	r27, r0
    247e:	11 24       	eor	r1, r1
    2480:	ac 54       	subi	r26, 0x4C	; 76
    2482:	bf 4d       	sbci	r27, 0xDF	; 223
    2484:	80 91 4a 23 	lds	r24, 0x234A
    2488:	90 e0       	ldi	r25, 0x00	; 0
    248a:	15 96       	adiw	r26, 0x05	; 5
    248c:	8d 93       	st	X+, r24
    248e:	9c 93       	st	X, r25
    2490:	16 97       	sbiw	r26, 0x06	; 6
    2492:	30 81       	ld	r19, Z
    2494:	20 81       	ld	r18, Z
    2496:	80 81       	ld	r24, Z
    2498:	40 81       	ld	r20, Z
    249a:	88 1f       	adc	r24, r24
    249c:	88 27       	eor	r24, r24
    249e:	88 1f       	adc	r24, r24
    24a0:	90 e0       	ldi	r25, 0x00	; 0
    24a2:	88 0f       	add	r24, r24
    24a4:	99 1f       	adc	r25, r25
    24a6:	88 0f       	add	r24, r24
    24a8:	99 1f       	adc	r25, r25
    24aa:	36 fb       	bst	r19, 6
    24ac:	33 27       	eor	r19, r19
    24ae:	30 f9       	bld	r19, 0
    24b0:	3b 8b       	std	Y+19, r19	; 0x13
    24b2:	1c 8a       	std	Y+20, r1	; 0x14
    24b4:	6b 89       	ldd	r22, Y+19	; 0x13
    24b6:	7c 89       	ldd	r23, Y+20	; 0x14
    24b8:	86 2b       	or	r24, r22
    24ba:	97 2b       	or	r25, r23
    24bc:	22 95       	swap	r18
    24be:	21 70       	andi	r18, 0x01	; 1
    24c0:	2d 8b       	std	Y+21, r18	; 0x15
    24c2:	1e 8a       	std	Y+22, r1	; 0x16
    24c4:	2d 89       	ldd	r18, Y+21	; 0x15
    24c6:	3e 89       	ldd	r19, Y+22	; 0x16
    24c8:	22 0f       	add	r18, r18
    24ca:	33 1f       	adc	r19, r19
    24cc:	82 2b       	or	r24, r18
    24ce:	93 2b       	or	r25, r19
    24d0:	45 fb       	bst	r20, 5
    24d2:	44 27       	eor	r20, r20
    24d4:	40 f9       	bld	r20, 0
    24d6:	4f 8b       	std	Y+23, r20	; 0x17
    24d8:	18 8e       	std	Y+24, r1	; 0x18
    24da:	2f 89       	ldd	r18, Y+23	; 0x17
    24dc:	38 8d       	ldd	r19, Y+24	; 0x18
    24de:	22 0f       	add	r18, r18
    24e0:	33 1f       	adc	r19, r19
    24e2:	22 0f       	add	r18, r18
    24e4:	33 1f       	adc	r19, r19
    24e6:	22 0f       	add	r18, r18
    24e8:	33 1f       	adc	r19, r19
    24ea:	82 2b       	or	r24, r18
    24ec:	93 2b       	or	r25, r19
    24ee:	58 9f       	mul	r21, r24
    24f0:	d0 01       	movw	r26, r0
    24f2:	59 9f       	mul	r21, r25
    24f4:	b0 0d       	add	r27, r0
    24f6:	11 24       	eor	r1, r1
    24f8:	ac 54       	subi	r26, 0x4C	; 76
    24fa:	bf 4d       	sbci	r27, 0xDF	; 223
    24fc:	80 91 4b 23 	lds	r24, 0x234B
    2500:	90 e0       	ldi	r25, 0x00	; 0
    2502:	17 96       	adiw	r26, 0x07	; 7
    2504:	8d 93       	st	X+, r24
    2506:	9c 93       	st	X, r25
    2508:	18 97       	sbiw	r26, 0x08	; 8
    250a:	30 81       	ld	r19, Z
    250c:	20 81       	ld	r18, Z
    250e:	80 81       	ld	r24, Z
    2510:	40 81       	ld	r20, Z
    2512:	88 1f       	adc	r24, r24
    2514:	88 27       	eor	r24, r24
    2516:	88 1f       	adc	r24, r24
    2518:	90 e0       	ldi	r25, 0x00	; 0
    251a:	88 0f       	add	r24, r24
    251c:	99 1f       	adc	r25, r25
    251e:	88 0f       	add	r24, r24
    2520:	99 1f       	adc	r25, r25
    2522:	36 fb       	bst	r19, 6
    2524:	33 27       	eor	r19, r19
    2526:	30 f9       	bld	r19, 0
    2528:	39 8f       	std	Y+25, r19	; 0x19
    252a:	1a 8e       	std	Y+26, r1	; 0x1a
    252c:	a9 8d       	ldd	r26, Y+25	; 0x19
    252e:	ba 8d       	ldd	r27, Y+26	; 0x1a
    2530:	8a 2b       	or	r24, r26
    2532:	9b 2b       	or	r25, r27
    2534:	22 95       	swap	r18
    2536:	21 70       	andi	r18, 0x01	; 1
    2538:	2b 8f       	std	Y+27, r18	; 0x1b
    253a:	1c 8e       	std	Y+28, r1	; 0x1c
    253c:	2b 8d       	ldd	r18, Y+27	; 0x1b
    253e:	3c 8d       	ldd	r19, Y+28	; 0x1c
    2540:	22 0f       	add	r18, r18
    2542:	33 1f       	adc	r19, r19
    2544:	82 2b       	or	r24, r18
    2546:	93 2b       	or	r25, r19
    2548:	45 fb       	bst	r20, 5
    254a:	44 27       	eor	r20, r20
    254c:	40 f9       	bld	r20, 0
    254e:	4d 8f       	std	Y+29, r20	; 0x1d
    2550:	1e 8e       	std	Y+30, r1	; 0x1e
    2552:	2d 8d       	ldd	r18, Y+29	; 0x1d
    2554:	3e 8d       	ldd	r19, Y+30	; 0x1e
    2556:	22 0f       	add	r18, r18
    2558:	33 1f       	adc	r19, r19
    255a:	22 0f       	add	r18, r18
    255c:	33 1f       	adc	r19, r19
    255e:	22 0f       	add	r18, r18
    2560:	33 1f       	adc	r19, r19
    2562:	82 2b       	or	r24, r18
    2564:	93 2b       	or	r25, r19
    2566:	58 9f       	mul	r21, r24
    2568:	d0 01       	movw	r26, r0
    256a:	59 9f       	mul	r21, r25
    256c:	b0 0d       	add	r27, r0
    256e:	11 24       	eor	r1, r1
    2570:	ac 54       	subi	r26, 0x4C	; 76
    2572:	bf 4d       	sbci	r27, 0xDF	; 223
    2574:	80 91 4c 23 	lds	r24, 0x234C
    2578:	90 e0       	ldi	r25, 0x00	; 0
    257a:	19 96       	adiw	r26, 0x09	; 9
    257c:	8d 93       	st	X+, r24
    257e:	9c 93       	st	X, r25
    2580:	1a 97       	sbiw	r26, 0x0a	; 10
    2582:	30 81       	ld	r19, Z
    2584:	20 81       	ld	r18, Z
    2586:	80 81       	ld	r24, Z
    2588:	40 81       	ld	r20, Z
    258a:	88 1f       	adc	r24, r24
    258c:	88 27       	eor	r24, r24
    258e:	88 1f       	adc	r24, r24
    2590:	90 e0       	ldi	r25, 0x00	; 0
    2592:	88 0f       	add	r24, r24
    2594:	99 1f       	adc	r25, r25
    2596:	88 0f       	add	r24, r24
    2598:	99 1f       	adc	r25, r25
    259a:	36 fb       	bst	r19, 6
    259c:	33 27       	eor	r19, r19
    259e:	30 f9       	bld	r19, 0
    25a0:	3f 8f       	std	Y+31, r19	; 0x1f
    25a2:	18 a2       	std	Y+32, r1	; 0x20
    25a4:	6f 8d       	ldd	r22, Y+31	; 0x1f
    25a6:	78 a1       	ldd	r23, Y+32	; 0x20
    25a8:	86 2b       	or	r24, r22
    25aa:	97 2b       	or	r25, r23
    25ac:	22 95       	swap	r18
    25ae:	21 70       	andi	r18, 0x01	; 1
    25b0:	29 a3       	std	Y+33, r18	; 0x21
    25b2:	1a a2       	std	Y+34, r1	; 0x22
    25b4:	29 a1       	ldd	r18, Y+33	; 0x21
    25b6:	3a a1       	ldd	r19, Y+34	; 0x22
    25b8:	22 0f       	add	r18, r18
    25ba:	33 1f       	adc	r19, r19
    25bc:	82 2b       	or	r24, r18
    25be:	93 2b       	or	r25, r19
    25c0:	45 fb       	bst	r20, 5
    25c2:	44 27       	eor	r20, r20
    25c4:	40 f9       	bld	r20, 0
    25c6:	4b a3       	std	Y+35, r20	; 0x23
    25c8:	1c a2       	std	Y+36, r1	; 0x24
    25ca:	2b a1       	ldd	r18, Y+35	; 0x23
    25cc:	3c a1       	ldd	r19, Y+36	; 0x24
    25ce:	22 0f       	add	r18, r18
    25d0:	33 1f       	adc	r19, r19
    25d2:	22 0f       	add	r18, r18
    25d4:	33 1f       	adc	r19, r19
    25d6:	22 0f       	add	r18, r18
    25d8:	33 1f       	adc	r19, r19
    25da:	82 2b       	or	r24, r18
    25dc:	93 2b       	or	r25, r19
    25de:	58 9f       	mul	r21, r24
    25e0:	d0 01       	movw	r26, r0
    25e2:	59 9f       	mul	r21, r25
    25e4:	b0 0d       	add	r27, r0
    25e6:	11 24       	eor	r1, r1
    25e8:	ac 54       	subi	r26, 0x4C	; 76
    25ea:	bf 4d       	sbci	r27, 0xDF	; 223
    25ec:	80 91 4d 23 	lds	r24, 0x234D
    25f0:	90 e0       	ldi	r25, 0x00	; 0
    25f2:	1b 96       	adiw	r26, 0x0b	; 11
    25f4:	8d 93       	st	X+, r24
    25f6:	9c 93       	st	X, r25
    25f8:	1c 97       	sbiw	r26, 0x0c	; 12
    25fa:	30 81       	ld	r19, Z
    25fc:	20 81       	ld	r18, Z
    25fe:	80 81       	ld	r24, Z
    2600:	40 81       	ld	r20, Z
    2602:	88 1f       	adc	r24, r24
    2604:	88 27       	eor	r24, r24
    2606:	88 1f       	adc	r24, r24
    2608:	90 e0       	ldi	r25, 0x00	; 0
    260a:	88 0f       	add	r24, r24
    260c:	99 1f       	adc	r25, r25
    260e:	88 0f       	add	r24, r24
    2610:	99 1f       	adc	r25, r25
    2612:	36 fb       	bst	r19, 6
    2614:	33 27       	eor	r19, r19
    2616:	30 f9       	bld	r19, 0
    2618:	3d a3       	std	Y+37, r19	; 0x25
    261a:	1e a2       	std	Y+38, r1	; 0x26
    261c:	ad a1       	ldd	r26, Y+37	; 0x25
    261e:	be a1       	ldd	r27, Y+38	; 0x26
    2620:	8a 2b       	or	r24, r26
    2622:	9b 2b       	or	r25, r27
    2624:	22 95       	swap	r18
    2626:	21 70       	andi	r18, 0x01	; 1
    2628:	2f a3       	std	Y+39, r18	; 0x27
    262a:	18 a6       	std	Y+40, r1	; 0x28
    262c:	2f a1       	ldd	r18, Y+39	; 0x27
    262e:	38 a5       	ldd	r19, Y+40	; 0x28
    2630:	22 0f       	add	r18, r18
    2632:	33 1f       	adc	r19, r19
    2634:	82 2b       	or	r24, r18
    2636:	93 2b       	or	r25, r19
    2638:	45 fb       	bst	r20, 5
    263a:	44 27       	eor	r20, r20
    263c:	40 f9       	bld	r20, 0
    263e:	49 a7       	std	Y+41, r20	; 0x29
    2640:	1a a6       	std	Y+42, r1	; 0x2a
    2642:	29 a5       	ldd	r18, Y+41	; 0x29
    2644:	3a a5       	ldd	r19, Y+42	; 0x2a
    2646:	22 0f       	add	r18, r18
    2648:	33 1f       	adc	r19, r19
    264a:	22 0f       	add	r18, r18
    264c:	33 1f       	adc	r19, r19
    264e:	22 0f       	add	r18, r18
    2650:	33 1f       	adc	r19, r19
    2652:	82 2b       	or	r24, r18
    2654:	93 2b       	or	r25, r19
    2656:	58 9f       	mul	r21, r24
    2658:	d0 01       	movw	r26, r0
    265a:	59 9f       	mul	r21, r25
    265c:	b0 0d       	add	r27, r0
    265e:	11 24       	eor	r1, r1
    2660:	ac 54       	subi	r26, 0x4C	; 76
    2662:	bf 4d       	sbci	r27, 0xDF	; 223
    2664:	80 91 4e 23 	lds	r24, 0x234E
    2668:	90 e0       	ldi	r25, 0x00	; 0
    266a:	1d 96       	adiw	r26, 0x0d	; 13
    266c:	8d 93       	st	X+, r24
    266e:	9c 93       	st	X, r25
    2670:	1e 97       	sbiw	r26, 0x0e	; 14
    2672:	30 81       	ld	r19, Z
    2674:	20 81       	ld	r18, Z
    2676:	80 81       	ld	r24, Z
    2678:	40 81       	ld	r20, Z
    267a:	88 1f       	adc	r24, r24
    267c:	88 27       	eor	r24, r24
    267e:	88 1f       	adc	r24, r24
    2680:	90 e0       	ldi	r25, 0x00	; 0
    2682:	88 0f       	add	r24, r24
    2684:	99 1f       	adc	r25, r25
    2686:	88 0f       	add	r24, r24
    2688:	99 1f       	adc	r25, r25
    268a:	36 fb       	bst	r19, 6
    268c:	33 27       	eor	r19, r19
    268e:	30 f9       	bld	r19, 0
    2690:	3b a7       	std	Y+43, r19	; 0x2b
    2692:	1c a6       	std	Y+44, r1	; 0x2c
    2694:	6b a5       	ldd	r22, Y+43	; 0x2b
    2696:	7c a5       	ldd	r23, Y+44	; 0x2c
    2698:	86 2b       	or	r24, r22
    269a:	97 2b       	or	r25, r23
    269c:	22 95       	swap	r18
    269e:	21 70       	andi	r18, 0x01	; 1
    26a0:	2d a7       	std	Y+45, r18	; 0x2d
    26a2:	1e a6       	std	Y+46, r1	; 0x2e
    26a4:	2d a5       	ldd	r18, Y+45	; 0x2d
    26a6:	3e a5       	ldd	r19, Y+46	; 0x2e
    26a8:	22 0f       	add	r18, r18
    26aa:	33 1f       	adc	r19, r19
    26ac:	82 2b       	or	r24, r18
    26ae:	93 2b       	or	r25, r19
    26b0:	45 fb       	bst	r20, 5
    26b2:	44 27       	eor	r20, r20
    26b4:	40 f9       	bld	r20, 0
    26b6:	4f a7       	std	Y+47, r20	; 0x2f
    26b8:	18 aa       	std	Y+48, r1	; 0x30
    26ba:	2f a5       	ldd	r18, Y+47	; 0x2f
    26bc:	38 a9       	ldd	r19, Y+48	; 0x30
    26be:	22 0f       	add	r18, r18
    26c0:	33 1f       	adc	r19, r19
    26c2:	22 0f       	add	r18, r18
    26c4:	33 1f       	adc	r19, r19
    26c6:	22 0f       	add	r18, r18
    26c8:	33 1f       	adc	r19, r19
    26ca:	82 2b       	or	r24, r18
    26cc:	93 2b       	or	r25, r19
    26ce:	58 9f       	mul	r21, r24
    26d0:	d0 01       	movw	r26, r0
    26d2:	59 9f       	mul	r21, r25
    26d4:	b0 0d       	add	r27, r0
    26d6:	11 24       	eor	r1, r1
    26d8:	ac 54       	subi	r26, 0x4C	; 76
    26da:	bf 4d       	sbci	r27, 0xDF	; 223
    26dc:	80 91 4f 23 	lds	r24, 0x234F
    26e0:	90 e0       	ldi	r25, 0x00	; 0
    26e2:	1f 96       	adiw	r26, 0x0f	; 15
    26e4:	8d 93       	st	X+, r24
    26e6:	9c 93       	st	X, r25
    26e8:	50 97       	sbiw	r26, 0x10	; 16
    26ea:	30 81       	ld	r19, Z
    26ec:	20 81       	ld	r18, Z
    26ee:	80 81       	ld	r24, Z
    26f0:	40 81       	ld	r20, Z
    26f2:	88 1f       	adc	r24, r24
    26f4:	88 27       	eor	r24, r24
    26f6:	88 1f       	adc	r24, r24
    26f8:	90 e0       	ldi	r25, 0x00	; 0
    26fa:	88 0f       	add	r24, r24
    26fc:	99 1f       	adc	r25, r25
    26fe:	88 0f       	add	r24, r24
    2700:	99 1f       	adc	r25, r25
    2702:	36 fb       	bst	r19, 6
    2704:	33 27       	eor	r19, r19
    2706:	30 f9       	bld	r19, 0
    2708:	39 ab       	std	Y+49, r19	; 0x31
    270a:	1a aa       	std	Y+50, r1	; 0x32
    270c:	a9 a9       	ldd	r26, Y+49	; 0x31
    270e:	ba a9       	ldd	r27, Y+50	; 0x32
    2710:	8a 2b       	or	r24, r26
    2712:	9b 2b       	or	r25, r27
    2714:	22 95       	swap	r18
    2716:	21 70       	andi	r18, 0x01	; 1
    2718:	2b ab       	std	Y+51, r18	; 0x33
    271a:	1c aa       	std	Y+52, r1	; 0x34
    271c:	2b a9       	ldd	r18, Y+51	; 0x33
    271e:	3c a9       	ldd	r19, Y+52	; 0x34
    2720:	22 0f       	add	r18, r18
    2722:	33 1f       	adc	r19, r19
    2724:	82 2b       	or	r24, r18
    2726:	93 2b       	or	r25, r19
    2728:	45 fb       	bst	r20, 5
    272a:	44 27       	eor	r20, r20
    272c:	40 f9       	bld	r20, 0
    272e:	4d ab       	std	Y+53, r20	; 0x35
    2730:	1e aa       	std	Y+54, r1	; 0x36
    2732:	2d a9       	ldd	r18, Y+53	; 0x35
    2734:	3e a9       	ldd	r19, Y+54	; 0x36
    2736:	22 0f       	add	r18, r18
    2738:	33 1f       	adc	r19, r19
    273a:	22 0f       	add	r18, r18
    273c:	33 1f       	adc	r19, r19
    273e:	22 0f       	add	r18, r18
    2740:	33 1f       	adc	r19, r19
    2742:	82 2b       	or	r24, r18
    2744:	93 2b       	or	r25, r19
    2746:	58 9f       	mul	r21, r24
    2748:	d0 01       	movw	r26, r0
    274a:	59 9f       	mul	r21, r25
    274c:	b0 0d       	add	r27, r0
    274e:	11 24       	eor	r1, r1
    2750:	ac 54       	subi	r26, 0x4C	; 76
    2752:	bf 4d       	sbci	r27, 0xDF	; 223
    2754:	80 91 50 23 	lds	r24, 0x2350
    2758:	51 96       	adiw	r26, 0x11	; 17
    275a:	8c 93       	st	X, r24
    275c:	30 81       	ld	r19, Z
    275e:	20 81       	ld	r18, Z
    2760:	80 81       	ld	r24, Z
    2762:	40 81       	ld	r20, Z
    2764:	88 1f       	adc	r24, r24
    2766:	88 27       	eor	r24, r24
    2768:	88 1f       	adc	r24, r24
    276a:	90 e0       	ldi	r25, 0x00	; 0
    276c:	88 0f       	add	r24, r24
    276e:	99 1f       	adc	r25, r25
    2770:	88 0f       	add	r24, r24
    2772:	99 1f       	adc	r25, r25
    2774:	36 fb       	bst	r19, 6
    2776:	33 27       	eor	r19, r19
    2778:	30 f9       	bld	r19, 0
    277a:	3f ab       	std	Y+55, r19	; 0x37
    277c:	18 ae       	std	Y+56, r1	; 0x38
    277e:	6f a9       	ldd	r22, Y+55	; 0x37
    2780:	78 ad       	ldd	r23, Y+56	; 0x38
    2782:	86 2b       	or	r24, r22
    2784:	97 2b       	or	r25, r23
    2786:	22 95       	swap	r18
    2788:	21 70       	andi	r18, 0x01	; 1
    278a:	29 af       	std	Y+57, r18	; 0x39
    278c:	1a ae       	std	Y+58, r1	; 0x3a
    278e:	29 ad       	ldd	r18, Y+57	; 0x39
    2790:	3a ad       	ldd	r19, Y+58	; 0x3a
    2792:	22 0f       	add	r18, r18
    2794:	33 1f       	adc	r19, r19
    2796:	82 2b       	or	r24, r18
    2798:	93 2b       	or	r25, r19
    279a:	45 fb       	bst	r20, 5
    279c:	44 27       	eor	r20, r20
    279e:	40 f9       	bld	r20, 0
    27a0:	4b af       	std	Y+59, r20	; 0x3b
    27a2:	1c ae       	std	Y+60, r1	; 0x3c
    27a4:	2b ad       	ldd	r18, Y+59	; 0x3b
    27a6:	3c ad       	ldd	r19, Y+60	; 0x3c
    27a8:	22 0f       	add	r18, r18
    27aa:	33 1f       	adc	r19, r19
    27ac:	22 0f       	add	r18, r18
    27ae:	33 1f       	adc	r19, r19
    27b0:	22 0f       	add	r18, r18
    27b2:	33 1f       	adc	r19, r19
    27b4:	82 2b       	or	r24, r18
    27b6:	93 2b       	or	r25, r19
    27b8:	58 9f       	mul	r21, r24
    27ba:	d0 01       	movw	r26, r0
    27bc:	59 9f       	mul	r21, r25
    27be:	b0 0d       	add	r27, r0
    27c0:	11 24       	eor	r1, r1
    27c2:	ac 54       	subi	r26, 0x4C	; 76
    27c4:	bf 4d       	sbci	r27, 0xDF	; 223
    27c6:	80 91 51 23 	lds	r24, 0x2351
    27ca:	52 96       	adiw	r26, 0x12	; 18
    27cc:	8c 93       	st	X, r24
    27ce:	30 81       	ld	r19, Z
    27d0:	20 81       	ld	r18, Z
    27d2:	80 81       	ld	r24, Z
    27d4:	40 81       	ld	r20, Z
    27d6:	88 1f       	adc	r24, r24
    27d8:	88 27       	eor	r24, r24
    27da:	88 1f       	adc	r24, r24
    27dc:	90 e0       	ldi	r25, 0x00	; 0
    27de:	88 0f       	add	r24, r24
    27e0:	99 1f       	adc	r25, r25
    27e2:	88 0f       	add	r24, r24
    27e4:	99 1f       	adc	r25, r25
    27e6:	36 fb       	bst	r19, 6
    27e8:	33 27       	eor	r19, r19
    27ea:	30 f9       	bld	r19, 0
    27ec:	3d af       	std	Y+61, r19	; 0x3d
    27ee:	1e ae       	std	Y+62, r1	; 0x3e
    27f0:	ad ad       	ldd	r26, Y+61	; 0x3d
    27f2:	be ad       	ldd	r27, Y+62	; 0x3e
    27f4:	8a 2b       	or	r24, r26
    27f6:	9b 2b       	or	r25, r27
    27f8:	22 95       	swap	r18
    27fa:	21 70       	andi	r18, 0x01	; 1
    27fc:	2f af       	std	Y+63, r18	; 0x3f
    27fe:	21 96       	adiw	r28, 0x01	; 1
    2800:	1f ae       	std	Y+63, r1	; 0x3f
    2802:	21 97       	sbiw	r28, 0x01	; 1
    2804:	21 96       	adiw	r28, 0x01	; 1
    2806:	2e ad       	ldd	r18, Y+62	; 0x3e
    2808:	3f ad       	ldd	r19, Y+63	; 0x3f
    280a:	21 97       	sbiw	r28, 0x01	; 1
    280c:	22 0f       	add	r18, r18
    280e:	33 1f       	adc	r19, r19
    2810:	82 2b       	or	r24, r18
    2812:	93 2b       	or	r25, r19
    2814:	45 fb       	bst	r20, 5
    2816:	44 27       	eor	r20, r20
    2818:	40 f9       	bld	r20, 0
    281a:	22 96       	adiw	r28, 0x02	; 2
    281c:	4f af       	std	Y+63, r20	; 0x3f
    281e:	22 97       	sbiw	r28, 0x02	; 2
    2820:	23 96       	adiw	r28, 0x03	; 3
    2822:	1f ae       	std	Y+63, r1	; 0x3f
    2824:	23 97       	sbiw	r28, 0x03	; 3
    2826:	23 96       	adiw	r28, 0x03	; 3
    2828:	2e ad       	ldd	r18, Y+62	; 0x3e
    282a:	3f ad       	ldd	r19, Y+63	; 0x3f
    282c:	23 97       	sbiw	r28, 0x03	; 3
    282e:	22 0f       	add	r18, r18
    2830:	33 1f       	adc	r19, r19
    2832:	22 0f       	add	r18, r18
    2834:	33 1f       	adc	r19, r19
    2836:	22 0f       	add	r18, r18
    2838:	33 1f       	adc	r19, r19
    283a:	82 2b       	or	r24, r18
    283c:	93 2b       	or	r25, r19
    283e:	58 9f       	mul	r21, r24
    2840:	d0 01       	movw	r26, r0
    2842:	59 9f       	mul	r21, r25
    2844:	b0 0d       	add	r27, r0
    2846:	11 24       	eor	r1, r1
    2848:	ac 54       	subi	r26, 0x4C	; 76
    284a:	bf 4d       	sbci	r27, 0xDF	; 223
    284c:	80 91 52 23 	lds	r24, 0x2352
    2850:	53 96       	adiw	r26, 0x13	; 19
    2852:	8c 93       	st	X, r24
    2854:	30 81       	ld	r19, Z
    2856:	20 81       	ld	r18, Z
    2858:	80 81       	ld	r24, Z
    285a:	40 81       	ld	r20, Z
    285c:	88 1f       	adc	r24, r24
    285e:	88 27       	eor	r24, r24
    2860:	88 1f       	adc	r24, r24
    2862:	90 e0       	ldi	r25, 0x00	; 0
    2864:	88 0f       	add	r24, r24
    2866:	99 1f       	adc	r25, r25
    2868:	88 0f       	add	r24, r24
    286a:	99 1f       	adc	r25, r25
    286c:	36 fb       	bst	r19, 6
    286e:	33 27       	eor	r19, r19
    2870:	30 f9       	bld	r19, 0
    2872:	24 96       	adiw	r28, 0x04	; 4
    2874:	3f af       	std	Y+63, r19	; 0x3f
    2876:	24 97       	sbiw	r28, 0x04	; 4
    2878:	25 96       	adiw	r28, 0x05	; 5
    287a:	1f ae       	std	Y+63, r1	; 0x3f
    287c:	25 97       	sbiw	r28, 0x05	; 5
    287e:	25 96       	adiw	r28, 0x05	; 5
    2880:	6e ad       	ldd	r22, Y+62	; 0x3e
    2882:	7f ad       	ldd	r23, Y+63	; 0x3f
    2884:	25 97       	sbiw	r28, 0x05	; 5
    2886:	86 2b       	or	r24, r22
    2888:	97 2b       	or	r25, r23
    288a:	22 95       	swap	r18
    288c:	21 70       	andi	r18, 0x01	; 1
    288e:	26 96       	adiw	r28, 0x06	; 6
    2890:	2f af       	std	Y+63, r18	; 0x3f
    2892:	26 97       	sbiw	r28, 0x06	; 6
    2894:	27 96       	adiw	r28, 0x07	; 7
    2896:	1f ae       	std	Y+63, r1	; 0x3f
    2898:	27 97       	sbiw	r28, 0x07	; 7
    289a:	27 96       	adiw	r28, 0x07	; 7
    289c:	2e ad       	ldd	r18, Y+62	; 0x3e
    289e:	3f ad       	ldd	r19, Y+63	; 0x3f
    28a0:	27 97       	sbiw	r28, 0x07	; 7
    28a2:	22 0f       	add	r18, r18
    28a4:	33 1f       	adc	r19, r19
    28a6:	82 2b       	or	r24, r18
    28a8:	93 2b       	or	r25, r19
    28aa:	45 fb       	bst	r20, 5
    28ac:	44 27       	eor	r20, r20
    28ae:	40 f9       	bld	r20, 0
    28b0:	28 96       	adiw	r28, 0x08	; 8
    28b2:	4f af       	std	Y+63, r20	; 0x3f
    28b4:	28 97       	sbiw	r28, 0x08	; 8
    28b6:	29 96       	adiw	r28, 0x09	; 9
    28b8:	1f ae       	std	Y+63, r1	; 0x3f
    28ba:	29 97       	sbiw	r28, 0x09	; 9
    28bc:	29 96       	adiw	r28, 0x09	; 9
    28be:	2e ad       	ldd	r18, Y+62	; 0x3e
    28c0:	3f ad       	ldd	r19, Y+63	; 0x3f
    28c2:	29 97       	sbiw	r28, 0x09	; 9
    28c4:	22 0f       	add	r18, r18
    28c6:	33 1f       	adc	r19, r19
    28c8:	22 0f       	add	r18, r18
    28ca:	33 1f       	adc	r19, r19
    28cc:	22 0f       	add	r18, r18
    28ce:	33 1f       	adc	r19, r19
    28d0:	82 2b       	or	r24, r18
    28d2:	93 2b       	or	r25, r19
    28d4:	58 9f       	mul	r21, r24
    28d6:	d0 01       	movw	r26, r0
    28d8:	59 9f       	mul	r21, r25
    28da:	b0 0d       	add	r27, r0
    28dc:	11 24       	eor	r1, r1
    28de:	ac 54       	subi	r26, 0x4C	; 76
    28e0:	bf 4d       	sbci	r27, 0xDF	; 223
    28e2:	8f e0       	ldi	r24, 0x0F	; 15
    28e4:	54 96       	adiw	r26, 0x14	; 20
    28e6:	8c 93       	st	X, r24
    28e8:	30 81       	ld	r19, Z
    28ea:	20 81       	ld	r18, Z
    28ec:	80 81       	ld	r24, Z
    28ee:	40 81       	ld	r20, Z
    28f0:	88 1f       	adc	r24, r24
    28f2:	88 27       	eor	r24, r24
    28f4:	88 1f       	adc	r24, r24
    28f6:	90 e0       	ldi	r25, 0x00	; 0
    28f8:	88 0f       	add	r24, r24
    28fa:	99 1f       	adc	r25, r25
    28fc:	88 0f       	add	r24, r24
    28fe:	99 1f       	adc	r25, r25
    2900:	36 fb       	bst	r19, 6
    2902:	33 27       	eor	r19, r19
    2904:	30 f9       	bld	r19, 0
    2906:	2a 96       	adiw	r28, 0x0a	; 10
    2908:	3f af       	std	Y+63, r19	; 0x3f
    290a:	2a 97       	sbiw	r28, 0x0a	; 10
    290c:	2b 96       	adiw	r28, 0x0b	; 11
    290e:	1f ae       	std	Y+63, r1	; 0x3f
    2910:	2b 97       	sbiw	r28, 0x0b	; 11
    2912:	2b 96       	adiw	r28, 0x0b	; 11
    2914:	ae ad       	ldd	r26, Y+62	; 0x3e
    2916:	bf ad       	ldd	r27, Y+63	; 0x3f
    2918:	2b 97       	sbiw	r28, 0x0b	; 11
    291a:	8a 2b       	or	r24, r26
    291c:	9b 2b       	or	r25, r27
    291e:	22 95       	swap	r18
    2920:	21 70       	andi	r18, 0x01	; 1
    2922:	2c 96       	adiw	r28, 0x0c	; 12
    2924:	2f af       	std	Y+63, r18	; 0x3f
    2926:	2c 97       	sbiw	r28, 0x0c	; 12
    2928:	2d 96       	adiw	r28, 0x0d	; 13
    292a:	1f ae       	std	Y+63, r1	; 0x3f
    292c:	2d 97       	sbiw	r28, 0x0d	; 13
    292e:	2d 96       	adiw	r28, 0x0d	; 13
    2930:	2e ad       	ldd	r18, Y+62	; 0x3e
    2932:	3f ad       	ldd	r19, Y+63	; 0x3f
    2934:	2d 97       	sbiw	r28, 0x0d	; 13
    2936:	22 0f       	add	r18, r18
    2938:	33 1f       	adc	r19, r19
    293a:	82 2b       	or	r24, r18
    293c:	93 2b       	or	r25, r19
    293e:	45 fb       	bst	r20, 5
    2940:	44 27       	eor	r20, r20
    2942:	40 f9       	bld	r20, 0
    2944:	2e 96       	adiw	r28, 0x0e	; 14
    2946:	4f af       	std	Y+63, r20	; 0x3f
    2948:	2e 97       	sbiw	r28, 0x0e	; 14
    294a:	2f 96       	adiw	r28, 0x0f	; 15
    294c:	1f ae       	std	Y+63, r1	; 0x3f
    294e:	2f 97       	sbiw	r28, 0x0f	; 15
    2950:	2f 96       	adiw	r28, 0x0f	; 15
    2952:	2e ad       	ldd	r18, Y+62	; 0x3e
    2954:	3f ad       	ldd	r19, Y+63	; 0x3f
    2956:	2f 97       	sbiw	r28, 0x0f	; 15
    2958:	22 0f       	add	r18, r18
    295a:	33 1f       	adc	r19, r19
    295c:	22 0f       	add	r18, r18
    295e:	33 1f       	adc	r19, r19
    2960:	22 0f       	add	r18, r18
    2962:	33 1f       	adc	r19, r19
    2964:	82 2b       	or	r24, r18
    2966:	93 2b       	or	r25, r19
    2968:	58 9f       	mul	r21, r24
    296a:	d0 01       	movw	r26, r0
    296c:	59 9f       	mul	r21, r25
    296e:	b0 0d       	add	r27, r0
    2970:	11 24       	eor	r1, r1
    2972:	ac 54       	subi	r26, 0x4C	; 76
    2974:	bf 4d       	sbci	r27, 0xDF	; 223
    2976:	81 e4       	ldi	r24, 0x41	; 65
    2978:	55 96       	adiw	r26, 0x15	; 21
    297a:	8c 93       	st	X, r24
    297c:	30 81       	ld	r19, Z
    297e:	20 81       	ld	r18, Z
    2980:	80 81       	ld	r24, Z
    2982:	40 81       	ld	r20, Z
    2984:	88 1f       	adc	r24, r24
    2986:	88 27       	eor	r24, r24
    2988:	88 1f       	adc	r24, r24
    298a:	90 e0       	ldi	r25, 0x00	; 0
    298c:	88 0f       	add	r24, r24
    298e:	99 1f       	adc	r25, r25
    2990:	88 0f       	add	r24, r24
    2992:	99 1f       	adc	r25, r25
    2994:	36 fb       	bst	r19, 6
    2996:	33 27       	eor	r19, r19
    2998:	30 f9       	bld	r19, 0
    299a:	60 96       	adiw	r28, 0x10	; 16
    299c:	3f af       	std	Y+63, r19	; 0x3f
    299e:	60 97       	sbiw	r28, 0x10	; 16
    29a0:	61 96       	adiw	r28, 0x11	; 17
    29a2:	1f ae       	std	Y+63, r1	; 0x3f
    29a4:	61 97       	sbiw	r28, 0x11	; 17
    29a6:	61 96       	adiw	r28, 0x11	; 17
    29a8:	ee ad       	ldd	r30, Y+62	; 0x3e
    29aa:	ff ad       	ldd	r31, Y+63	; 0x3f
    29ac:	61 97       	sbiw	r28, 0x11	; 17
    29ae:	8e 2b       	or	r24, r30
    29b0:	9f 2b       	or	r25, r31
    29b2:	22 95       	swap	r18
    29b4:	21 70       	andi	r18, 0x01	; 1
    29b6:	62 96       	adiw	r28, 0x12	; 18
    29b8:	2f af       	std	Y+63, r18	; 0x3f
    29ba:	62 97       	sbiw	r28, 0x12	; 18
    29bc:	63 96       	adiw	r28, 0x13	; 19
    29be:	1f ae       	std	Y+63, r1	; 0x3f
    29c0:	63 97       	sbiw	r28, 0x13	; 19
    29c2:	63 96       	adiw	r28, 0x13	; 19
    29c4:	2e ad       	ldd	r18, Y+62	; 0x3e
    29c6:	3f ad       	ldd	r19, Y+63	; 0x3f
    29c8:	63 97       	sbiw	r28, 0x13	; 19
    29ca:	22 0f       	add	r18, r18
    29cc:	33 1f       	adc	r19, r19
    29ce:	82 2b       	or	r24, r18
    29d0:	93 2b       	or	r25, r19
    29d2:	45 fb       	bst	r20, 5
    29d4:	44 27       	eor	r20, r20
    29d6:	40 f9       	bld	r20, 0
    29d8:	64 96       	adiw	r28, 0x14	; 20
    29da:	4f af       	std	Y+63, r20	; 0x3f
    29dc:	64 97       	sbiw	r28, 0x14	; 20
    29de:	65 96       	adiw	r28, 0x15	; 21
    29e0:	1f ae       	std	Y+63, r1	; 0x3f
    29e2:	65 97       	sbiw	r28, 0x15	; 21
    29e4:	65 96       	adiw	r28, 0x15	; 21
    29e6:	2e ad       	ldd	r18, Y+62	; 0x3e
    29e8:	3f ad       	ldd	r19, Y+63	; 0x3f
    29ea:	65 97       	sbiw	r28, 0x15	; 21
    29ec:	22 0f       	add	r18, r18
    29ee:	33 1f       	adc	r19, r19
    29f0:	22 0f       	add	r18, r18
    29f2:	33 1f       	adc	r19, r19
    29f4:	22 0f       	add	r18, r18
    29f6:	33 1f       	adc	r19, r19
    29f8:	82 2b       	or	r24, r18
    29fa:	93 2b       	or	r25, r19
    29fc:	58 9f       	mul	r21, r24
    29fe:	f0 01       	movw	r30, r0
    2a00:	59 9f       	mul	r21, r25
    2a02:	f0 0d       	add	r31, r0
    2a04:	11 24       	eor	r1, r1
    2a06:	ec 54       	subi	r30, 0x4C	; 76
    2a08:	ff 4d       	sbci	r31, 0xDF	; 223
    2a0a:	85 e0       	ldi	r24, 0x05	; 5
    2a0c:	86 8b       	std	Z+22, r24	; 0x16
    2a0e:	75 fe       	sbrs	r7, 5
    2a10:	04 c0       	rjmp	.+8      	; 0x2a1a <__vector_43+0x868>
    2a12:	80 e2       	ldi	r24, 0x20	; 32
    2a14:	e0 e6       	ldi	r30, 0x60	; 96
    2a16:	f6 e0       	ldi	r31, 0x06	; 6
    2a18:	87 83       	std	Z+7, r24	; 0x07
    2a1a:	74 fe       	sbrs	r7, 4
    2a1c:	06 c0       	rjmp	.+12     	; 0x2a2a <__vector_43+0x878>
    2a1e:	84 e0       	ldi	r24, 0x04	; 4
    2a20:	e0 e6       	ldi	r30, 0x60	; 96
    2a22:	f6 e0       	ldi	r31, 0x06	; 6
    2a24:	87 83       	std	Z+7, r24	; 0x07
    2a26:	0e 94 28 25 	call	0x4a50	; 0x4a50 <NRF24L01_L_Flush_TX>
    2a2a:	cc 5a       	subi	r28, 0xAC	; 172
    2a2c:	df 4f       	sbci	r29, 0xFF	; 255
    2a2e:	cd bf       	out	0x3d, r28	; 61
    2a30:	de bf       	out	0x3e, r29	; 62
    2a32:	df 91       	pop	r29
    2a34:	cf 91       	pop	r28
    2a36:	ff 91       	pop	r31
    2a38:	ef 91       	pop	r30
    2a3a:	bf 91       	pop	r27
    2a3c:	af 91       	pop	r26
    2a3e:	9f 91       	pop	r25
    2a40:	8f 91       	pop	r24
    2a42:	7f 91       	pop	r23
    2a44:	6f 91       	pop	r22
    2a46:	5f 91       	pop	r21
    2a48:	4f 91       	pop	r20
    2a4a:	3f 91       	pop	r19
    2a4c:	2f 91       	pop	r18
    2a4e:	1f 91       	pop	r17
    2a50:	0f 91       	pop	r16
    2a52:	ff 90       	pop	r15
    2a54:	ef 90       	pop	r14
    2a56:	df 90       	pop	r13
    2a58:	cf 90       	pop	r12
    2a5a:	bf 90       	pop	r11
    2a5c:	af 90       	pop	r10
    2a5e:	9f 90       	pop	r9
    2a60:	8f 90       	pop	r8
    2a62:	7f 90       	pop	r7
    2a64:	5f 90       	pop	r5
    2a66:	4f 90       	pop	r4
    2a68:	3f 90       	pop	r3
    2a6a:	2f 90       	pop	r2
    2a6c:	0f 90       	pop	r0
    2a6e:	0b be       	out	0x3b, r0	; 59
    2a70:	0f 90       	pop	r0
    2a72:	0a be       	out	0x3a, r0	; 58
    2a74:	0f 90       	pop	r0
    2a76:	09 be       	out	0x39, r0	; 57
    2a78:	0f 90       	pop	r0
    2a7a:	08 be       	out	0x38, r0	; 56
    2a7c:	0f 90       	pop	r0
    2a7e:	0f be       	out	0x3f, r0	; 63
    2a80:	0f 90       	pop	r0
    2a82:	1f 90       	pop	r1
    2a84:	18 95       	reti

00002a86 <__vector_77>:
    2a86:	1f 92       	push	r1
    2a88:	0f 92       	push	r0
    2a8a:	0f b6       	in	r0, 0x3f	; 63
    2a8c:	0f 92       	push	r0
    2a8e:	11 24       	eor	r1, r1
    2a90:	08 b6       	in	r0, 0x38	; 56
    2a92:	0f 92       	push	r0
    2a94:	18 be       	out	0x38, r1	; 56
    2a96:	09 b6       	in	r0, 0x39	; 57
    2a98:	0f 92       	push	r0
    2a9a:	19 be       	out	0x39, r1	; 57
    2a9c:	0a b6       	in	r0, 0x3a	; 58
    2a9e:	0f 92       	push	r0
    2aa0:	1a be       	out	0x3a, r1	; 58
    2aa2:	0b b6       	in	r0, 0x3b	; 59
    2aa4:	0f 92       	push	r0
    2aa6:	1b be       	out	0x3b, r1	; 59
    2aa8:	af 92       	push	r10
    2aaa:	bf 92       	push	r11
    2aac:	df 92       	push	r13
    2aae:	ef 92       	push	r14
    2ab0:	ff 92       	push	r15
    2ab2:	0f 93       	push	r16
    2ab4:	1f 93       	push	r17
    2ab6:	2f 93       	push	r18
    2ab8:	3f 93       	push	r19
    2aba:	4f 93       	push	r20
    2abc:	5f 93       	push	r21
    2abe:	6f 93       	push	r22
    2ac0:	7f 93       	push	r23
    2ac2:	8f 93       	push	r24
    2ac4:	9f 93       	push	r25
    2ac6:	af 93       	push	r26
    2ac8:	bf 93       	push	r27
    2aca:	cf 93       	push	r28
    2acc:	df 93       	push	r29
    2ace:	ef 93       	push	r30
    2ad0:	ff 93       	push	r31
    2ad2:	a8 95       	wdr
    2ad4:	80 91 6b 23 	lds	r24, 0x236B
    2ad8:	8f 5f       	subi	r24, 0xFF	; 255
    2ada:	80 93 6b 23 	sts	0x236B, r24
    2ade:	84 31       	cpi	r24, 0x14	; 20
    2ae0:	74 f0       	brlt	.+28     	; 0x2afe <__vector_77+0x78>
    2ae2:	81 e0       	ldi	r24, 0x01	; 1
    2ae4:	80 93 9e 20 	sts	0x209E, r24
    2ae8:	10 92 6b 23 	sts	0x236B, r1
    2aec:	80 91 a3 20 	lds	r24, 0x20A3
    2af0:	90 91 a4 20 	lds	r25, 0x20A4
    2af4:	01 96       	adiw	r24, 0x01	; 1
    2af6:	80 93 a3 20 	sts	0x20A3, r24
    2afa:	90 93 a4 20 	sts	0x20A4, r25
    2afe:	80 91 9f 20 	lds	r24, 0x209F
    2b02:	90 91 a0 20 	lds	r25, 0x20A0
    2b06:	a0 91 a1 20 	lds	r26, 0x20A1
    2b0a:	b0 91 a2 20 	lds	r27, 0x20A2
    2b0e:	01 96       	adiw	r24, 0x01	; 1
    2b10:	a1 1d       	adc	r26, r1
    2b12:	b1 1d       	adc	r27, r1
    2b14:	80 93 9f 20 	sts	0x209F, r24
    2b18:	90 93 a0 20 	sts	0x20A0, r25
    2b1c:	a0 93 a1 20 	sts	0x20A1, r26
    2b20:	b0 93 a2 20 	sts	0x20A2, r27
    2b24:	e0 90 a5 20 	lds	r14, 0x20A5
    2b28:	f0 90 a6 20 	lds	r15, 0x20A6
    2b2c:	e1 14       	cp	r14, r1
    2b2e:	f1 04       	cpc	r15, r1
    2b30:	09 f4       	brne	.+2      	; 0x2b34 <__vector_77+0xae>
    2b32:	5c c0       	rjmp	.+184    	; 0x2bec <__vector_77+0x166>
    2b34:	80 91 ce 21 	lds	r24, 0x21CE
    2b38:	90 91 cf 21 	lds	r25, 0x21CF
    2b3c:	a0 91 d0 21 	lds	r26, 0x21D0
    2b40:	b0 91 d1 21 	lds	r27, 0x21D1
    2b44:	01 96       	adiw	r24, 0x01	; 1
    2b46:	a1 1d       	adc	r26, r1
    2b48:	b1 1d       	adc	r27, r1
    2b4a:	80 93 ce 21 	sts	0x21CE, r24
    2b4e:	90 93 cf 21 	sts	0x21CF, r25
    2b52:	a0 93 d0 21 	sts	0x21D0, r26
    2b56:	b0 93 d1 21 	sts	0x21D1, r27
    2b5a:	84 36       	cpi	r24, 0x64	; 100
    2b5c:	91 05       	cpc	r25, r1
    2b5e:	a1 05       	cpc	r26, r1
    2b60:	b1 05       	cpc	r27, r1
    2b62:	e0 f4       	brcc	.+56     	; 0x2b9c <__vector_77+0x116>
    2b64:	a0 e2       	ldi	r26, 0x20	; 32
    2b66:	b6 e0       	ldi	r27, 0x06	; 6
    2b68:	14 96       	adiw	r26, 0x04	; 4
    2b6a:	8c 91       	ld	r24, X
    2b6c:	14 97       	sbiw	r26, 0x04	; 4
    2b6e:	80 64       	ori	r24, 0x40	; 64
    2b70:	14 96       	adiw	r26, 0x04	; 4
    2b72:	8c 93       	st	X, r24
    2b74:	14 97       	sbiw	r26, 0x04	; 4
    2b76:	e0 92 2a 08 	sts	0x082A, r14
    2b7a:	f0 92 2b 08 	sts	0x082B, r15
    2b7e:	14 96       	adiw	r26, 0x04	; 4
    2b80:	8c 91       	ld	r24, X
    2b82:	14 97       	sbiw	r26, 0x04	; 4
    2b84:	80 64       	ori	r24, 0x40	; 64
    2b86:	14 96       	adiw	r26, 0x04	; 4
    2b88:	8c 93       	st	X, r24
    2b8a:	80 91 a5 20 	lds	r24, 0x20A5
    2b8e:	90 91 a6 20 	lds	r25, 0x20A6
    2b92:	80 93 28 08 	sts	0x0828, r24
    2b96:	90 93 29 08 	sts	0x0829, r25
    2b9a:	28 c0       	rjmp	.+80     	; 0x2bec <__vector_77+0x166>
    2b9c:	89 3b       	cpi	r24, 0xB9	; 185
    2b9e:	9b 40       	sbci	r25, 0x0B	; 11
    2ba0:	a1 05       	cpc	r26, r1
    2ba2:	b1 05       	cpc	r27, r1
    2ba4:	60 f0       	brcs	.+24     	; 0x2bbe <__vector_77+0x138>
    2ba6:	10 92 ce 21 	sts	0x21CE, r1
    2baa:	10 92 cf 21 	sts	0x21CF, r1
    2bae:	10 92 d0 21 	sts	0x21D0, r1
    2bb2:	10 92 d1 21 	sts	0x21D1, r1
    2bb6:	10 92 a5 20 	sts	0x20A5, r1
    2bba:	10 92 a6 20 	sts	0x20A6, r1
    2bbe:	10 92 2a 08 	sts	0x082A, r1
    2bc2:	10 92 2b 08 	sts	0x082B, r1
    2bc6:	a0 e2       	ldi	r26, 0x20	; 32
    2bc8:	b6 e0       	ldi	r27, 0x06	; 6
    2bca:	14 96       	adiw	r26, 0x04	; 4
    2bcc:	8c 91       	ld	r24, X
    2bce:	14 97       	sbiw	r26, 0x04	; 4
    2bd0:	8f 7b       	andi	r24, 0xBF	; 191
    2bd2:	14 96       	adiw	r26, 0x04	; 4
    2bd4:	8c 93       	st	X, r24
    2bd6:	14 97       	sbiw	r26, 0x04	; 4
    2bd8:	10 92 28 08 	sts	0x0828, r1
    2bdc:	10 92 29 08 	sts	0x0829, r1
    2be0:	14 96       	adiw	r26, 0x04	; 4
    2be2:	8c 91       	ld	r24, X
    2be4:	14 97       	sbiw	r26, 0x04	; 4
    2be6:	8f 7b       	andi	r24, 0xBF	; 191
    2be8:	14 96       	adiw	r26, 0x04	; 4
    2bea:	8c 93       	st	X, r24
    2bec:	80 91 a9 20 	lds	r24, 0x20A9
    2bf0:	90 91 aa 20 	lds	r25, 0x20AA
    2bf4:	01 96       	adiw	r24, 0x01	; 1
    2bf6:	80 93 a9 20 	sts	0x20A9, r24
    2bfa:	90 93 aa 20 	sts	0x20AA, r25
    2bfe:	80 91 48 20 	lds	r24, 0x2048
    2c02:	90 91 49 20 	lds	r25, 0x2049
    2c06:	81 30       	cpi	r24, 0x01	; 1
    2c08:	91 05       	cpc	r25, r1
    2c0a:	81 f4       	brne	.+32     	; 0x2c2c <__vector_77+0x1a6>
    2c0c:	10 92 ab 20 	sts	0x20AB, r1
    2c10:	0e 94 98 02 	call	0x530	; 0x530 <Menu_Display>
    2c14:	0e 94 c4 02 	call	0x588	; 0x588 <Menu_Reset>
    2c18:	80 91 48 20 	lds	r24, 0x2048
    2c1c:	90 91 49 20 	lds	r25, 0x2049
    2c20:	01 97       	sbiw	r24, 0x01	; 1
    2c22:	80 93 48 20 	sts	0x2048, r24
    2c26:	90 93 49 20 	sts	0x2049, r25
    2c2a:	87 c0       	rjmp	.+270    	; 0x2d3a <__vector_77+0x2b4>
    2c2c:	82 30       	cpi	r24, 0x02	; 2
    2c2e:	91 05       	cpc	r25, r1
    2c30:	08 f1       	brcs	.+66     	; 0x2c74 <__vector_77+0x1ee>
    2c32:	01 97       	sbiw	r24, 0x01	; 1
    2c34:	80 93 48 20 	sts	0x2048, r24
    2c38:	90 93 49 20 	sts	0x2049, r25
    2c3c:	0e 94 e9 02 	call	0x5d2	; 0x5d2 <menu_check_status>
    2c40:	80 91 48 20 	lds	r24, 0x2048
    2c44:	90 91 49 20 	lds	r25, 0x2049
    2c48:	88 3b       	cpi	r24, 0xB8	; 184
    2c4a:	2b e0       	ldi	r18, 0x0B	; 11
    2c4c:	92 07       	cpc	r25, r18
    2c4e:	08 f0       	brcs	.+2      	; 0x2c52 <__vector_77+0x1cc>
    2c50:	74 c0       	rjmp	.+232    	; 0x2d3a <__vector_77+0x2b4>
    2c52:	a0 e0       	ldi	r26, 0x00	; 0
    2c54:	b0 e0       	ldi	r27, 0x00	; 0
    2c56:	80 93 2c 20 	sts	0x202C, r24
    2c5a:	90 93 2d 20 	sts	0x202D, r25
    2c5e:	a0 93 2e 20 	sts	0x202E, r26
    2c62:	b0 93 2f 20 	sts	0x202F, r27
    2c66:	88 ec       	ldi	r24, 0xC8	; 200
    2c68:	90 e0       	ldi	r25, 0x00	; 0
    2c6a:	80 93 2f 22 	sts	0x222F, r24
    2c6e:	90 93 30 22 	sts	0x2230, r25
    2c72:	63 c0       	rjmp	.+198    	; 0x2d3a <__vector_77+0x2b4>
    2c74:	a8 e0       	ldi	r26, 0x08	; 8
    2c76:	b6 e0       	ldi	r27, 0x06	; 6
    2c78:	dc 90       	ld	r13, X
    2c7a:	ec 90       	ld	r14, X
    2c7c:	8c 91       	ld	r24, X
    2c7e:	fc 90       	ld	r15, X
    2c80:	88 1f       	adc	r24, r24
    2c82:	88 27       	eor	r24, r24
    2c84:	88 1f       	adc	r24, r24
    2c86:	90 e0       	ldi	r25, 0x00	; 0
    2c88:	88 0f       	add	r24, r24
    2c8a:	99 1f       	adc	r25, r25
    2c8c:	88 0f       	add	r24, r24
    2c8e:	99 1f       	adc	r25, r25
    2c90:	d6 fa       	bst	r13, 6
    2c92:	00 27       	eor	r16, r16
    2c94:	00 f9       	bld	r16, 0
    2c96:	10 e0       	ldi	r17, 0x00	; 0
    2c98:	08 2b       	or	r16, r24
    2c9a:	19 2b       	or	r17, r25
    2c9c:	e4 fa       	bst	r14, 4
    2c9e:	ee 24       	eor	r14, r14
    2ca0:	e0 f8       	bld	r14, 0
    2ca2:	ce 2d       	mov	r28, r14
    2ca4:	80 e0       	ldi	r24, 0x00	; 0
    2ca6:	d8 2f       	mov	r29, r24
    2ca8:	cc 0f       	add	r28, r28
    2caa:	dd 1f       	adc	r29, r29
    2cac:	0c 2b       	or	r16, r28
    2cae:	1d 2b       	or	r17, r29
    2cb0:	f5 fa       	bst	r15, 5
    2cb2:	ee 27       	eor	r30, r30
    2cb4:	e0 f9       	bld	r30, 0
    2cb6:	f0 e0       	ldi	r31, 0x00	; 0
    2cb8:	cf 01       	movw	r24, r30
    2cba:	88 0f       	add	r24, r24
    2cbc:	99 1f       	adc	r25, r25
    2cbe:	88 0f       	add	r24, r24
    2cc0:	99 1f       	adc	r25, r25
    2cc2:	88 0f       	add	r24, r24
    2cc4:	99 1f       	adc	r25, r25
    2cc6:	f8 01       	movw	r30, r16
    2cc8:	e8 2b       	or	r30, r24
    2cca:	f9 2b       	or	r31, r25
    2ccc:	ee 0f       	add	r30, r30
    2cce:	ff 1f       	adc	r31, r31
    2cd0:	e8 5f       	subi	r30, 0xF8	; 248
    2cd2:	ff 4d       	sbci	r31, 0xDF	; 223
    2cd4:	80 81       	ld	r24, Z
    2cd6:	e0 e0       	ldi	r30, 0x00	; 0
    2cd8:	f7 e0       	ldi	r31, 0x07	; 7
    2cda:	84 83       	std	Z+4, r24	; 0x04
    2cdc:	cc 91       	ld	r28, X
    2cde:	9c 91       	ld	r25, X
    2ce0:	ec 91       	ld	r30, X
    2ce2:	8c 91       	ld	r24, X
    2ce4:	ee 1f       	adc	r30, r30
    2ce6:	ee 27       	eor	r30, r30
    2ce8:	ee 1f       	adc	r30, r30
    2cea:	f0 e0       	ldi	r31, 0x00	; 0
    2cec:	ee 0f       	add	r30, r30
    2cee:	ff 1f       	adc	r31, r31
    2cf0:	ee 0f       	add	r30, r30
    2cf2:	ff 1f       	adc	r31, r31
    2cf4:	c6 fb       	bst	r28, 6
    2cf6:	66 27       	eor	r22, r22
    2cf8:	60 f9       	bld	r22, 0
    2cfa:	70 e0       	ldi	r23, 0x00	; 0
    2cfc:	e6 2b       	or	r30, r22
    2cfe:	f7 2b       	or	r31, r23
    2d00:	94 fb       	bst	r25, 4
    2d02:	44 27       	eor	r20, r20
    2d04:	40 f9       	bld	r20, 0
    2d06:	50 e0       	ldi	r21, 0x00	; 0
    2d08:	44 0f       	add	r20, r20
    2d0a:	55 1f       	adc	r21, r21
    2d0c:	e4 2b       	or	r30, r20
    2d0e:	f5 2b       	or	r31, r21
    2d10:	85 fb       	bst	r24, 5
    2d12:	aa 24       	eor	r10, r10
    2d14:	a0 f8       	bld	r10, 0
    2d16:	b1 2c       	mov	r11, r1
    2d18:	95 01       	movw	r18, r10
    2d1a:	22 0f       	add	r18, r18
    2d1c:	33 1f       	adc	r19, r19
    2d1e:	22 0f       	add	r18, r18
    2d20:	33 1f       	adc	r19, r19
    2d22:	22 0f       	add	r18, r18
    2d24:	33 1f       	adc	r19, r19
    2d26:	e2 2b       	or	r30, r18
    2d28:	f3 2b       	or	r31, r19
    2d2a:	ee 0f       	add	r30, r30
    2d2c:	ff 1f       	adc	r31, r31
    2d2e:	e8 5f       	subi	r30, 0xF8	; 248
    2d30:	ff 4d       	sbci	r31, 0xDF	; 223
    2d32:	80 81       	ld	r24, Z
    2d34:	e0 ee       	ldi	r30, 0xE0	; 224
    2d36:	f6 e0       	ldi	r31, 0x06	; 6
    2d38:	84 83       	std	Z+4, r24	; 0x04
    2d3a:	ff 91       	pop	r31
    2d3c:	ef 91       	pop	r30
    2d3e:	df 91       	pop	r29
    2d40:	cf 91       	pop	r28
    2d42:	bf 91       	pop	r27
    2d44:	af 91       	pop	r26
    2d46:	9f 91       	pop	r25
    2d48:	8f 91       	pop	r24
    2d4a:	7f 91       	pop	r23
    2d4c:	6f 91       	pop	r22
    2d4e:	5f 91       	pop	r21
    2d50:	4f 91       	pop	r20
    2d52:	3f 91       	pop	r19
    2d54:	2f 91       	pop	r18
    2d56:	1f 91       	pop	r17
    2d58:	0f 91       	pop	r16
    2d5a:	ff 90       	pop	r15
    2d5c:	ef 90       	pop	r14
    2d5e:	df 90       	pop	r13
    2d60:	bf 90       	pop	r11
    2d62:	af 90       	pop	r10
    2d64:	0f 90       	pop	r0
    2d66:	0b be       	out	0x3b, r0	; 59
    2d68:	0f 90       	pop	r0
    2d6a:	0a be       	out	0x3a, r0	; 58
    2d6c:	0f 90       	pop	r0
    2d6e:	09 be       	out	0x39, r0	; 57
    2d70:	0f 90       	pop	r0
    2d72:	08 be       	out	0x38, r0	; 56
    2d74:	0f 90       	pop	r0
    2d76:	0f be       	out	0x3f, r0	; 63
    2d78:	0f 90       	pop	r0
    2d7a:	1f 90       	pop	r1
    2d7c:	18 95       	reti

00002d7e <__vector_104>:
    2d7e:	1f 92       	push	r1
    2d80:	0f 92       	push	r0
    2d82:	0f b6       	in	r0, 0x3f	; 63
    2d84:	0f 92       	push	r0
    2d86:	11 24       	eor	r1, r1
    2d88:	08 b6       	in	r0, 0x38	; 56
    2d8a:	0f 92       	push	r0
    2d8c:	18 be       	out	0x38, r1	; 56
    2d8e:	0f 90       	pop	r0
    2d90:	08 be       	out	0x38, r0	; 56
    2d92:	0f 90       	pop	r0
    2d94:	0f be       	out	0x3f, r0	; 63
    2d96:	0f 90       	pop	r0
    2d98:	1f 90       	pop	r1
    2d9a:	18 95       	reti

00002d9c <__vector_94>:
    2d9c:	1f 92       	push	r1
    2d9e:	0f 92       	push	r0
    2da0:	0f b6       	in	r0, 0x3f	; 63
    2da2:	0f 92       	push	r0
    2da4:	11 24       	eor	r1, r1
    2da6:	08 b6       	in	r0, 0x38	; 56
    2da8:	0f 92       	push	r0
    2daa:	18 be       	out	0x38, r1	; 56
    2dac:	2f 93       	push	r18
    2dae:	3f 93       	push	r19
    2db0:	8f 93       	push	r24
    2db2:	9f 93       	push	r25
    2db4:	20 91 fc 23 	lds	r18, 0x23FC
    2db8:	30 91 fd 23 	lds	r19, 0x23FD
    2dbc:	80 91 c8 07 	lds	r24, 0x07C8
    2dc0:	81 ff       	sbrs	r24, 1
    2dc2:	03 c0       	rjmp	.+6      	; 0x2dca <__vector_94+0x2e>
    2dc4:	8f ef       	ldi	r24, 0xFF	; 255
    2dc6:	9f ef       	ldi	r25, 0xFF	; 255
    2dc8:	02 c0       	rjmp	.+4      	; 0x2dce <__vector_94+0x32>
    2dca:	81 e0       	ldi	r24, 0x01	; 1
    2dcc:	90 e0       	ldi	r25, 0x00	; 0
    2dce:	82 0f       	add	r24, r18
    2dd0:	93 1f       	adc	r25, r19
    2dd2:	80 93 fc 23 	sts	0x23FC, r24
    2dd6:	90 93 fd 23 	sts	0x23FD, r25
    2dda:	9f 91       	pop	r25
    2ddc:	8f 91       	pop	r24
    2dde:	3f 91       	pop	r19
    2de0:	2f 91       	pop	r18
    2de2:	0f 90       	pop	r0
    2de4:	08 be       	out	0x38, r0	; 56
    2de6:	0f 90       	pop	r0
    2de8:	0f be       	out	0x3f, r0	; 63
    2dea:	0f 90       	pop	r0
    2dec:	1f 90       	pop	r1
    2dee:	18 95       	reti

00002df0 <__vector_96>:
    2df0:	1f 92       	push	r1
    2df2:	0f 92       	push	r0
    2df4:	0f b6       	in	r0, 0x3f	; 63
    2df6:	0f 92       	push	r0
    2df8:	11 24       	eor	r1, r1
    2dfa:	08 b6       	in	r0, 0x38	; 56
    2dfc:	0f 92       	push	r0
    2dfe:	18 be       	out	0x38, r1	; 56
    2e00:	2f 93       	push	r18
    2e02:	3f 93       	push	r19
    2e04:	8f 93       	push	r24
    2e06:	9f 93       	push	r25
    2e08:	20 91 77 23 	lds	r18, 0x2377
    2e0c:	30 91 78 23 	lds	r19, 0x2378
    2e10:	80 91 e8 06 	lds	r24, 0x06E8
    2e14:	84 ff       	sbrs	r24, 4
    2e16:	03 c0       	rjmp	.+6      	; 0x2e1e <__vector_96+0x2e>
    2e18:	8f ef       	ldi	r24, 0xFF	; 255
    2e1a:	9f ef       	ldi	r25, 0xFF	; 255
    2e1c:	02 c0       	rjmp	.+4      	; 0x2e22 <__vector_96+0x32>
    2e1e:	81 e0       	ldi	r24, 0x01	; 1
    2e20:	90 e0       	ldi	r25, 0x00	; 0
    2e22:	82 0f       	add	r24, r18
    2e24:	93 1f       	adc	r25, r19
    2e26:	80 93 77 23 	sts	0x2377, r24
    2e2a:	90 93 78 23 	sts	0x2378, r25
    2e2e:	9f 91       	pop	r25
    2e30:	8f 91       	pop	r24
    2e32:	3f 91       	pop	r19
    2e34:	2f 91       	pop	r18
    2e36:	0f 90       	pop	r0
    2e38:	08 be       	out	0x38, r0	; 56
    2e3a:	0f 90       	pop	r0
    2e3c:	0f be       	out	0x3f, r0	; 63
    2e3e:	0f 90       	pop	r0
    2e40:	1f 90       	pop	r1
    2e42:	18 95       	reti

00002e44 <__vector_2>:
    2e44:	1f 92       	push	r1
    2e46:	0f 92       	push	r0
    2e48:	0f b6       	in	r0, 0x3f	; 63
    2e4a:	0f 92       	push	r0
    2e4c:	11 24       	eor	r1, r1
    2e4e:	08 b6       	in	r0, 0x38	; 56
    2e50:	0f 92       	push	r0
    2e52:	18 be       	out	0x38, r1	; 56
    2e54:	2f 93       	push	r18
    2e56:	3f 93       	push	r19
    2e58:	8f 93       	push	r24
    2e5a:	9f 93       	push	r25
    2e5c:	20 91 a9 23 	lds	r18, 0x23A9
    2e60:	30 91 aa 23 	lds	r19, 0x23AA
    2e64:	80 91 48 06 	lds	r24, 0x0648
    2e68:	84 ff       	sbrs	r24, 4
    2e6a:	03 c0       	rjmp	.+6      	; 0x2e72 <__vector_2+0x2e>
    2e6c:	8f ef       	ldi	r24, 0xFF	; 255
    2e6e:	9f ef       	ldi	r25, 0xFF	; 255
    2e70:	02 c0       	rjmp	.+4      	; 0x2e76 <__vector_2+0x32>
    2e72:	81 e0       	ldi	r24, 0x01	; 1
    2e74:	90 e0       	ldi	r25, 0x00	; 0
    2e76:	82 0f       	add	r24, r18
    2e78:	93 1f       	adc	r25, r19
    2e7a:	80 93 a9 23 	sts	0x23A9, r24
    2e7e:	90 93 aa 23 	sts	0x23AA, r25
    2e82:	9f 91       	pop	r25
    2e84:	8f 91       	pop	r24
    2e86:	3f 91       	pop	r19
    2e88:	2f 91       	pop	r18
    2e8a:	0f 90       	pop	r0
    2e8c:	08 be       	out	0x38, r0	; 56
    2e8e:	0f 90       	pop	r0
    2e90:	0f be       	out	0x3f, r0	; 63
    2e92:	0f 90       	pop	r0
    2e94:	1f 90       	pop	r1
    2e96:	18 95       	reti

00002e98 <__vector_95>:
    2e98:	1f 92       	push	r1
    2e9a:	0f 92       	push	r0
    2e9c:	0f b6       	in	r0, 0x3f	; 63
    2e9e:	0f 92       	push	r0
    2ea0:	11 24       	eor	r1, r1
    2ea2:	08 b6       	in	r0, 0x38	; 56
    2ea4:	0f 92       	push	r0
    2ea6:	18 be       	out	0x38, r1	; 56
    2ea8:	2f 93       	push	r18
    2eaa:	3f 93       	push	r19
    2eac:	8f 93       	push	r24
    2eae:	9f 93       	push	r25
    2eb0:	20 91 10 24 	lds	r18, 0x2410
    2eb4:	30 91 11 24 	lds	r19, 0x2411
    2eb8:	80 91 c8 07 	lds	r24, 0x07C8
    2ebc:	82 ff       	sbrs	r24, 2
    2ebe:	03 c0       	rjmp	.+6      	; 0x2ec6 <__vector_95+0x2e>
    2ec0:	8f ef       	ldi	r24, 0xFF	; 255
    2ec2:	9f ef       	ldi	r25, 0xFF	; 255
    2ec4:	02 c0       	rjmp	.+4      	; 0x2eca <__vector_95+0x32>
    2ec6:	81 e0       	ldi	r24, 0x01	; 1
    2ec8:	90 e0       	ldi	r25, 0x00	; 0
    2eca:	82 0f       	add	r24, r18
    2ecc:	93 1f       	adc	r25, r19
    2ece:	80 93 10 24 	sts	0x2410, r24
    2ed2:	90 93 11 24 	sts	0x2411, r25
    2ed6:	9f 91       	pop	r25
    2ed8:	8f 91       	pop	r24
    2eda:	3f 91       	pop	r19
    2edc:	2f 91       	pop	r18
    2ede:	0f 90       	pop	r0
    2ee0:	08 be       	out	0x38, r0	; 56
    2ee2:	0f 90       	pop	r0
    2ee4:	0f be       	out	0x3f, r0	; 63
    2ee6:	0f 90       	pop	r0
    2ee8:	1f 90       	pop	r1
    2eea:	18 95       	reti

00002eec <__vector_97>:
    2eec:	1f 92       	push	r1
    2eee:	0f 92       	push	r0
    2ef0:	0f b6       	in	r0, 0x3f	; 63
    2ef2:	0f 92       	push	r0
    2ef4:	11 24       	eor	r1, r1
    2ef6:	08 b6       	in	r0, 0x38	; 56
    2ef8:	0f 92       	push	r0
    2efa:	18 be       	out	0x38, r1	; 56
    2efc:	0f 90       	pop	r0
    2efe:	08 be       	out	0x38, r0	; 56
    2f00:	0f 90       	pop	r0
    2f02:	0f be       	out	0x3f, r0	; 63
    2f04:	0f 90       	pop	r0
    2f06:	1f 90       	pop	r1
    2f08:	18 95       	reti

00002f0a <__vector_100>:
    2f0a:	1f 92       	push	r1
    2f0c:	0f 92       	push	r0
    2f0e:	0f b6       	in	r0, 0x3f	; 63
    2f10:	0f 92       	push	r0
    2f12:	11 24       	eor	r1, r1
    2f14:	08 b6       	in	r0, 0x38	; 56
    2f16:	0f 92       	push	r0
    2f18:	18 be       	out	0x38, r1	; 56
    2f1a:	09 b6       	in	r0, 0x39	; 57
    2f1c:	0f 92       	push	r0
    2f1e:	19 be       	out	0x39, r1	; 57
    2f20:	0b b6       	in	r0, 0x3b	; 59
    2f22:	0f 92       	push	r0
    2f24:	1b be       	out	0x3b, r1	; 59
    2f26:	2f 93       	push	r18
    2f28:	3f 93       	push	r19
    2f2a:	4f 93       	push	r20
    2f2c:	5f 93       	push	r21
    2f2e:	6f 93       	push	r22
    2f30:	7f 93       	push	r23
    2f32:	8f 93       	push	r24
    2f34:	9f 93       	push	r25
    2f36:	af 93       	push	r26
    2f38:	bf 93       	push	r27
    2f3a:	ef 93       	push	r30
    2f3c:	ff 93       	push	r31
    2f3e:	80 91 48 20 	lds	r24, 0x2048
    2f42:	90 91 49 20 	lds	r25, 0x2049
    2f46:	89 2b       	or	r24, r25
    2f48:	89 f4       	brne	.+34     	; 0x2f6c <__vector_100+0x62>
    2f4a:	80 91 e8 06 	lds	r24, 0x06E8
    2f4e:	6b e4       	ldi	r22, 0x4B	; 75
    2f50:	70 e2       	ldi	r23, 0x20	; 32
    2f52:	88 1f       	adc	r24, r24
    2f54:	88 27       	eor	r24, r24
    2f56:	88 1f       	adc	r24, r24
    2f58:	0e 94 89 02 	call	0x512	; 0x512 <menu_check_sw>
    2f5c:	80 91 a8 06 	lds	r24, 0x06A8
    2f60:	6a e4       	ldi	r22, 0x4A	; 74
    2f62:	70 e2       	ldi	r23, 0x20	; 32
    2f64:	82 95       	swap	r24
    2f66:	81 70       	andi	r24, 0x01	; 1
    2f68:	0e 94 89 02 	call	0x512	; 0x512 <menu_check_sw>
    2f6c:	80 e3       	ldi	r24, 0x30	; 48
    2f6e:	95 e7       	ldi	r25, 0x75	; 117
    2f70:	80 93 48 20 	sts	0x2048, r24
    2f74:	90 93 49 20 	sts	0x2049, r25
    2f78:	8f ef       	ldi	r24, 0xFF	; 255
    2f7a:	80 93 ab 20 	sts	0x20AB, r24
    2f7e:	0e 94 98 02 	call	0x530	; 0x530 <Menu_Display>
    2f82:	ff 91       	pop	r31
    2f84:	ef 91       	pop	r30
    2f86:	bf 91       	pop	r27
    2f88:	af 91       	pop	r26
    2f8a:	9f 91       	pop	r25
    2f8c:	8f 91       	pop	r24
    2f8e:	7f 91       	pop	r23
    2f90:	6f 91       	pop	r22
    2f92:	5f 91       	pop	r21
    2f94:	4f 91       	pop	r20
    2f96:	3f 91       	pop	r19
    2f98:	2f 91       	pop	r18
    2f9a:	0f 90       	pop	r0
    2f9c:	0b be       	out	0x3b, r0	; 59
    2f9e:	0f 90       	pop	r0
    2fa0:	09 be       	out	0x39, r0	; 57
    2fa2:	0f 90       	pop	r0
    2fa4:	08 be       	out	0x38, r0	; 56
    2fa6:	0f 90       	pop	r0
    2fa8:	0f be       	out	0x3f, r0	; 63
    2faa:	0f 90       	pop	r0
    2fac:	1f 90       	pop	r1
    2fae:	18 95       	reti

00002fb0 <send_ask>:
    2fb0:	81 30       	cpi	r24, 0x01	; 1
    2fb2:	61 f0       	breq	.+24     	; 0x2fcc <send_ask+0x1c>
    2fb4:	28 f0       	brcs	.+10     	; 0x2fc0 <send_ask+0x10>
    2fb6:	82 30       	cpi	r24, 0x02	; 2
    2fb8:	79 f0       	breq	.+30     	; 0x2fd8 <send_ask+0x28>
    2fba:	83 30       	cpi	r24, 0x03	; 3
    2fbc:	99 f0       	breq	.+38     	; 0x2fe4 <send_ask+0x34>
    2fbe:	18 c0       	rjmp	.+48     	; 0x2ff0 <send_ask+0x40>
    2fc0:	60 e0       	ldi	r22, 0x00	; 0
    2fc2:	80 ea       	ldi	r24, 0xA0	; 160
    2fc4:	9b e0       	ldi	r25, 0x0B	; 11
    2fc6:	0c 94 72 0e 	jmp	0x1ce4	; 0x1ce4 <usart_putchar>
    2fca:	08 95       	ret
    2fcc:	61 e0       	ldi	r22, 0x01	; 1
    2fce:	80 ea       	ldi	r24, 0xA0	; 160
    2fd0:	9b e0       	ldi	r25, 0x0B	; 11
    2fd2:	0c 94 72 0e 	jmp	0x1ce4	; 0x1ce4 <usart_putchar>
    2fd6:	08 95       	ret
    2fd8:	62 e0       	ldi	r22, 0x02	; 2
    2fda:	80 ea       	ldi	r24, 0xA0	; 160
    2fdc:	9b e0       	ldi	r25, 0x0B	; 11
    2fde:	0c 94 72 0e 	jmp	0x1ce4	; 0x1ce4 <usart_putchar>
    2fe2:	08 95       	ret
    2fe4:	63 e0       	ldi	r22, 0x03	; 3
    2fe6:	80 ea       	ldi	r24, 0xA0	; 160
    2fe8:	9b e0       	ldi	r25, 0x0B	; 11
    2fea:	0c 94 72 0e 	jmp	0x1ce4	; 0x1ce4 <usart_putchar>
    2fee:	08 95       	ret
    2ff0:	6f ef       	ldi	r22, 0xFF	; 255
    2ff2:	80 ea       	ldi	r24, 0xA0	; 160
    2ff4:	9b e0       	ldi	r25, 0x0B	; 11
    2ff6:	0c 94 72 0e 	jmp	0x1ce4	; 0x1ce4 <usart_putchar>
    2ffa:	08 95       	ret

00002ffc <main>:
    2ffc:	cf 93       	push	r28
    2ffe:	df 93       	push	r29
    3000:	cd b7       	in	r28, 0x3d	; 61
    3002:	de b7       	in	r29, 0x3e	; 62
    3004:	c0 58       	subi	r28, 0x80	; 128
    3006:	d1 09       	sbc	r29, r1
    3008:	cd bf       	out	0x3d, r28	; 61
    300a:	de bf       	out	0x3e, r29	; 62
    300c:	0e 94 9a 0f 	call	0x1f34	; 0x1f34 <En_RC32M>
    3010:	e2 ea       	ldi	r30, 0xA2	; 162
    3012:	f0 e0       	ldi	r31, 0x00	; 0
    3014:	80 81       	ld	r24, Z
    3016:	87 60       	ori	r24, 0x07	; 7
    3018:	80 83       	st	Z, r24
    301a:	0e 94 af 0f 	call	0x1f5e	; 0x1f5e <PORT_init>
    301e:	03 d8       	rcall	.-4090   	; 0x2026 <TimerD0_init>
    3020:	0e 94 f8 0f 	call	0x1ff0	; 0x1ff0 <TimerC0_init>
    3024:	33 d8       	rcall	.-3994   	; 0x208c <USARTF0_init>
    3026:	57 d8       	rcall	.-3922   	; 0x20d6 <USARTF1_init>
    3028:	7b d8       	rcall	.-3850   	; 0x2120 <ADCA_init>
    302a:	0e 94 eb 01 	call	0x3d6	; 0x3d6 <LCDInit>
    302e:	78 94       	sei
    3030:	88 eb       	ldi	r24, 0xB8	; 184
    3032:	9b e0       	ldi	r25, 0x0B	; 11
    3034:	a0 e0       	ldi	r26, 0x00	; 0
    3036:	b0 e0       	ldi	r27, 0x00	; 0
    3038:	80 93 34 20 	sts	0x2034, r24
    303c:	90 93 35 20 	sts	0x2035, r25
    3040:	a0 93 36 20 	sts	0x2036, r26
    3044:	b0 93 37 20 	sts	0x2037, r27
    3048:	24 ef       	ldi	r18, 0xF4	; 244
    304a:	31 e0       	ldi	r19, 0x01	; 1
    304c:	20 93 cb 23 	sts	0x23CB, r18
    3050:	30 93 cc 23 	sts	0x23CC, r19
    3054:	80 93 38 20 	sts	0x2038, r24
    3058:	90 93 39 20 	sts	0x2039, r25
    305c:	a0 93 3a 20 	sts	0x203A, r26
    3060:	b0 93 3b 20 	sts	0x203B, r27
    3064:	84 e6       	ldi	r24, 0x64	; 100
    3066:	90 e0       	ldi	r25, 0x00	; 0
    3068:	80 93 e7 21 	sts	0x21E7, r24
    306c:	90 93 e8 21 	sts	0x21E8, r25
    3070:	88 ee       	ldi	r24, 0xE8	; 232
    3072:	93 e0       	ldi	r25, 0x03	; 3
    3074:	a0 e0       	ldi	r26, 0x00	; 0
    3076:	b0 e0       	ldi	r27, 0x00	; 0
    3078:	80 93 30 20 	sts	0x2030, r24
    307c:	90 93 31 20 	sts	0x2031, r25
    3080:	a0 93 32 20 	sts	0x2032, r26
    3084:	b0 93 33 20 	sts	0x2033, r27
    3088:	88 ec       	ldi	r24, 0xC8	; 200
    308a:	90 e0       	ldi	r25, 0x00	; 0
    308c:	80 93 f9 23 	sts	0x23F9, r24
    3090:	90 93 fa 23 	sts	0x23FA, r25
    3094:	80 ed       	ldi	r24, 0xD0	; 208
    3096:	97 e0       	ldi	r25, 0x07	; 7
    3098:	a0 e0       	ldi	r26, 0x00	; 0
    309a:	b0 e0       	ldi	r27, 0x00	; 0
    309c:	80 93 2c 20 	sts	0x202C, r24
    30a0:	90 93 2d 20 	sts	0x202D, r25
    30a4:	a0 93 2e 20 	sts	0x202E, r26
    30a8:	b0 93 2f 20 	sts	0x202F, r27
    30ac:	86 e9       	ldi	r24, 0x96	; 150
    30ae:	90 e0       	ldi	r25, 0x00	; 0
    30b0:	80 93 2f 22 	sts	0x222F, r24
    30b4:	90 93 30 22 	sts	0x2230, r25
    30b8:	e8 e0       	ldi	r30, 0x08	; 8
    30ba:	f6 e0       	ldi	r31, 0x06	; 6
    30bc:	90 81       	ld	r25, Z
    30be:	30 81       	ld	r19, Z
    30c0:	80 81       	ld	r24, Z
    30c2:	40 81       	ld	r20, Z
    30c4:	e3 e0       	ldi	r30, 0x03	; 3
    30c6:	f0 e2       	ldi	r31, 0x20	; 32
    30c8:	88 1f       	adc	r24, r24
    30ca:	88 27       	eor	r24, r24
    30cc:	88 1f       	adc	r24, r24
    30ce:	28 2f       	mov	r18, r24
    30d0:	22 0f       	add	r18, r18
    30d2:	22 0f       	add	r18, r18
    30d4:	96 fb       	bst	r25, 6
    30d6:	88 27       	eor	r24, r24
    30d8:	80 f9       	bld	r24, 0
    30da:	28 2b       	or	r18, r24
    30dc:	34 fb       	bst	r19, 4
    30de:	88 24       	eor	r8, r8
    30e0:	80 f8       	bld	r8, 0
    30e2:	91 2c       	mov	r9, r1
    30e4:	c4 01       	movw	r24, r8
    30e6:	88 0f       	add	r24, r24
    30e8:	99 1f       	adc	r25, r25
    30ea:	28 2b       	or	r18, r24
    30ec:	45 fb       	bst	r20, 5
    30ee:	00 27       	eor	r16, r16
    30f0:	00 f9       	bld	r16, 0
    30f2:	10 e0       	ldi	r17, 0x00	; 0
    30f4:	c8 01       	movw	r24, r16
    30f6:	88 0f       	add	r24, r24
    30f8:	99 1f       	adc	r25, r25
    30fa:	88 0f       	add	r24, r24
    30fc:	99 1f       	adc	r25, r25
    30fe:	88 0f       	add	r24, r24
    3100:	99 1f       	adc	r25, r25
    3102:	82 2b       	or	r24, r18
    3104:	90 81       	ld	r25, Z
    3106:	89 0f       	add	r24, r25
    3108:	80 83       	st	Z, r24
    310a:	82 e0       	ldi	r24, 0x02	; 2
    310c:	e0 e8       	ldi	r30, 0x80	; 128
    310e:	f6 e0       	ldi	r31, 0x06	; 6
    3110:	86 83       	std	Z+6, r24	; 0x06
    3112:	0e 94 2d 10 	call	0x205a	; 0x205a <SPI_Init>
    3116:	2a e6       	ldi	r18, 0x6A	; 106
    3118:	2a 95       	dec	r18
    311a:	f1 f7       	brne	.-4      	; 0x3118 <main+0x11c>
    311c:	00 c0       	rjmp	.+0      	; 0x311e <main+0x122>
    311e:	3f ef       	ldi	r19, 0xFF	; 255
    3120:	43 ec       	ldi	r20, 0xC3	; 195
    3122:	59 e0       	ldi	r21, 0x09	; 9
    3124:	31 50       	subi	r19, 0x01	; 1
    3126:	40 40       	sbci	r20, 0x00	; 0
    3128:	50 40       	sbci	r21, 0x00	; 0
    312a:	e1 f7       	brne	.-8      	; 0x3124 <main+0x128>
    312c:	00 c0       	rjmp	.+0      	; 0x312e <main+0x132>
    312e:	00 00       	nop
    3130:	0e 94 61 24 	call	0x48c2	; 0x48c2 <NRF24L01_L_Clear_Interrupts>
    3134:	0e 94 28 25 	call	0x4a50	; 0x4a50 <NRF24L01_L_Flush_TX>
    3138:	0e 94 36 25 	call	0x4a6c	; 0x4a6c <NRF24L01_L_Flush_RX>
    313c:	82 e0       	ldi	r24, 0x02	; 2
    313e:	e0 e8       	ldi	r30, 0x80	; 128
    3140:	f6 e0       	ldi	r31, 0x06	; 6
    3142:	86 83       	std	Z+6, r24	; 0x06
    3144:	e8 e0       	ldi	r30, 0x08	; 8
    3146:	f6 e0       	ldi	r31, 0x06	; 6
    3148:	20 81       	ld	r18, Z
    314a:	30 81       	ld	r19, Z
    314c:	80 81       	ld	r24, Z
    314e:	40 81       	ld	r20, Z
    3150:	88 1f       	adc	r24, r24
    3152:	88 27       	eor	r24, r24
    3154:	88 1f       	adc	r24, r24
    3156:	90 e0       	ldi	r25, 0x00	; 0
    3158:	88 0f       	add	r24, r24
    315a:	99 1f       	adc	r25, r25
    315c:	88 0f       	add	r24, r24
    315e:	99 1f       	adc	r25, r25
    3160:	26 fb       	bst	r18, 6
    3162:	ee 24       	eor	r14, r14
    3164:	e0 f8       	bld	r14, 0
    3166:	f1 2c       	mov	r15, r1
    3168:	e8 2a       	or	r14, r24
    316a:	f9 2a       	or	r15, r25
    316c:	34 fb       	bst	r19, 4
    316e:	cc 24       	eor	r12, r12
    3170:	c0 f8       	bld	r12, 0
    3172:	d1 2c       	mov	r13, r1
    3174:	c6 01       	movw	r24, r12
    3176:	88 0f       	add	r24, r24
    3178:	99 1f       	adc	r25, r25
    317a:	e8 2a       	or	r14, r24
    317c:	f9 2a       	or	r15, r25
    317e:	45 fb       	bst	r20, 5
    3180:	aa 24       	eor	r10, r10
    3182:	a0 f8       	bld	r10, 0
    3184:	b1 2c       	mov	r11, r1
    3186:	c5 01       	movw	r24, r10
    3188:	88 0f       	add	r24, r24
    318a:	99 1f       	adc	r25, r25
    318c:	88 0f       	add	r24, r24
    318e:	99 1f       	adc	r25, r25
    3190:	88 0f       	add	r24, r24
    3192:	99 1f       	adc	r25, r25
    3194:	8e 29       	or	r24, r14
    3196:	9f 29       	or	r25, r15
    3198:	03 97       	sbiw	r24, 0x03	; 3
    319a:	84 f4       	brge	.+32     	; 0x31bc <main+0x1c0>
    319c:	0f 2e       	mov	r0, r31
    319e:	f6 e0       	ldi	r31, 0x06	; 6
    31a0:	cf 2e       	mov	r12, r31
    31a2:	f0 2d       	mov	r31, r0
    31a4:	68 94       	set
    31a6:	ee 24       	eor	r14, r14
    31a8:	e5 f8       	bld	r14, 5
    31aa:	05 e0       	ldi	r16, 0x05	; 5
    31ac:	23 e0       	ldi	r18, 0x03	; 3
    31ae:	30 e2       	ldi	r19, 0x20	; 32
    31b0:	48 e0       	ldi	r20, 0x08	; 8
    31b2:	62 e3       	ldi	r22, 0x32	; 50
    31b4:	80 e0       	ldi	r24, 0x00	; 0
    31b6:	0e 94 e8 24 	call	0x49d0	; 0x49d0 <NRF24L01_L_Init_milad>
    31ba:	0f c0       	rjmp	.+30     	; 0x31da <main+0x1de>
    31bc:	0f 2e       	mov	r0, r31
    31be:	f6 e0       	ldi	r31, 0x06	; 6
    31c0:	cf 2e       	mov	r12, r31
    31c2:	f0 2d       	mov	r31, r0
    31c4:	68 94       	set
    31c6:	ee 24       	eor	r14, r14
    31c8:	e5 f8       	bld	r14, 5
    31ca:	05 e0       	ldi	r16, 0x05	; 5
    31cc:	23 e0       	ldi	r18, 0x03	; 3
    31ce:	30 e2       	ldi	r19, 0x20	; 32
    31d0:	48 e0       	ldi	r20, 0x08	; 8
    31d2:	61 e0       	ldi	r22, 0x01	; 1
    31d4:	80 e0       	ldi	r24, 0x00	; 0
    31d6:	0e 94 e8 24 	call	0x49d0	; 0x49d0 <NRF24L01_L_Init_milad>
    31da:	61 e0       	ldi	r22, 0x01	; 1
    31dc:	8c e3       	ldi	r24, 0x3C	; 60
    31de:	0e 94 38 24 	call	0x4870	; 0x4870 <NRF24L01_L_WriteReg>
    31e2:	66 e0       	ldi	r22, 0x06	; 6
    31e4:	8d e3       	ldi	r24, 0x3D	; 61
    31e6:	0e 94 38 24 	call	0x4870	; 0x4870 <NRF24L01_L_WriteReg>
    31ea:	82 e0       	ldi	r24, 0x02	; 2
    31ec:	e0 e8       	ldi	r30, 0x80	; 128
    31ee:	f6 e0       	ldi	r31, 0x06	; 6
    31f0:	85 83       	std	Z+5, r24	; 0x05
    31f2:	8f e0       	ldi	r24, 0x0F	; 15
    31f4:	94 e0       	ldi	r25, 0x04	; 4
    31f6:	01 97       	sbiw	r24, 0x01	; 1
    31f8:	f1 f7       	brne	.-4      	; 0x31f6 <main+0x1fa>
    31fa:	00 c0       	rjmp	.+0      	; 0x31fc <main+0x200>
    31fc:	00 00       	nop
    31fe:	0f 2e       	mov	r0, r31
    3200:	f7 e7       	ldi	r31, 0x77	; 119
    3202:	2f 2e       	mov	r2, r31
    3204:	f3 e2       	ldi	r31, 0x23	; 35
    3206:	3f 2e       	mov	r3, r31
    3208:	f0 2d       	mov	r31, r0
    320a:	a8 95       	wdr
    320c:	80 91 9e 20 	lds	r24, 0x209E
    3210:	88 23       	and	r24, r24
    3212:	11 f4       	brne	.+4      	; 0x3218 <main+0x21c>
    3214:	0c 94 35 23 	jmp	0x466a	; 0x466a <__stack+0x66b>
    3218:	a9 e7       	ldi	r26, 0x79	; 121
    321a:	b3 e2       	ldi	r27, 0x23	; 35
    321c:	0d 91       	ld	r16, X+
    321e:	1c 91       	ld	r17, X
    3220:	eb e7       	ldi	r30, 0x7B	; 123
    3222:	f3 e2       	ldi	r31, 0x23	; 35
    3224:	00 83       	st	Z, r16
    3226:	11 83       	std	Z+1, r17	; 0x01
    3228:	d1 01       	movw	r26, r2
    322a:	8d 91       	ld	r24, X+
    322c:	9c 91       	ld	r25, X
    322e:	bc 01       	movw	r22, r24
    3230:	88 27       	eor	r24, r24
    3232:	77 fd       	sbrc	r23, 7
    3234:	80 95       	com	r24
    3236:	98 2f       	mov	r25, r24
    3238:	0e 94 6a 26 	call	0x4cd4	; 0x4cd4 <__floatsisf>
    323c:	20 e0       	ldi	r18, 0x00	; 0
    323e:	30 e0       	ldi	r19, 0x00	; 0
    3240:	40 ef       	ldi	r20, 0xF0	; 240
    3242:	50 e4       	ldi	r21, 0x40	; 64
    3244:	0e 94 1e 27 	call	0x4e3c	; 0x4e3c <__mulsf3>
    3248:	0e 94 37 26 	call	0x4c6e	; 0x4c6e <__fixsfsi>
    324c:	6b 01       	movw	r12, r22
    324e:	7c 01       	movw	r14, r24
    3250:	f1 01       	movw	r30, r2
    3252:	10 82       	st	Z, r1
    3254:	11 82       	std	Z+1, r1	; 0x01
    3256:	b8 01       	movw	r22, r16
    3258:	88 27       	eor	r24, r24
    325a:	77 fd       	sbrc	r23, 7
    325c:	80 95       	com	r24
    325e:	98 2f       	mov	r25, r24
    3260:	0e 94 6a 26 	call	0x4cd4	; 0x4cd4 <__floatsisf>
    3264:	4b 01       	movw	r8, r22
    3266:	5c 01       	movw	r10, r24
    3268:	c0 1a       	sub	r12, r16
    326a:	d1 0a       	sbc	r13, r17
    326c:	b6 01       	movw	r22, r12
    326e:	88 27       	eor	r24, r24
    3270:	77 fd       	sbrc	r23, 7
    3272:	80 95       	com	r24
    3274:	98 2f       	mov	r25, r24
    3276:	0e 94 6a 26 	call	0x4cd4	; 0x4cd4 <__floatsisf>
    327a:	2e ea       	ldi	r18, 0xAE	; 174
    327c:	37 e4       	ldi	r19, 0x47	; 71
    327e:	41 ee       	ldi	r20, 0xE1	; 225
    3280:	5d e3       	ldi	r21, 0x3D	; 61
    3282:	0e 94 1e 27 	call	0x4e3c	; 0x4e3c <__mulsf3>
    3286:	9b 01       	movw	r18, r22
    3288:	ac 01       	movw	r20, r24
    328a:	c5 01       	movw	r24, r10
    328c:	b4 01       	movw	r22, r8
    328e:	0e 94 67 25 	call	0x4ace	; 0x4ace <__addsf3>
    3292:	0e 94 37 26 	call	0x4c6e	; 0x4c6e <__fixsfsi>
    3296:	4b 01       	movw	r8, r22
    3298:	5c 01       	movw	r10, r24
    329a:	a9 e7       	ldi	r26, 0x79	; 121
    329c:	b3 e2       	ldi	r27, 0x23	; 35
    329e:	6d 93       	st	X+, r22
    32a0:	7c 93       	st	X, r23
    32a2:	ee ef       	ldi	r30, 0xFE	; 254
    32a4:	f3 e2       	ldi	r31, 0x23	; 35
    32a6:	00 81       	ld	r16, Z
    32a8:	11 81       	ldd	r17, Z+1	; 0x01
    32aa:	a0 e0       	ldi	r26, 0x00	; 0
    32ac:	b4 e2       	ldi	r27, 0x24	; 36
    32ae:	0d 93       	st	X+, r16
    32b0:	1c 93       	st	X, r17
    32b2:	ec ef       	ldi	r30, 0xFC	; 252
    32b4:	f3 e2       	ldi	r31, 0x23	; 35
    32b6:	80 81       	ld	r24, Z
    32b8:	91 81       	ldd	r25, Z+1	; 0x01
    32ba:	bc 01       	movw	r22, r24
    32bc:	88 27       	eor	r24, r24
    32be:	77 fd       	sbrc	r23, 7
    32c0:	80 95       	com	r24
    32c2:	98 2f       	mov	r25, r24
    32c4:	0e 94 6a 26 	call	0x4cd4	; 0x4cd4 <__floatsisf>
    32c8:	20 e0       	ldi	r18, 0x00	; 0
    32ca:	30 e0       	ldi	r19, 0x00	; 0
    32cc:	40 ef       	ldi	r20, 0xF0	; 240
    32ce:	50 e4       	ldi	r21, 0x40	; 64
    32d0:	0e 94 1e 27 	call	0x4e3c	; 0x4e3c <__mulsf3>
    32d4:	0e 94 37 26 	call	0x4c6e	; 0x4c6e <__fixsfsi>
    32d8:	6b 01       	movw	r12, r22
    32da:	7c 01       	movw	r14, r24
    32dc:	ac ef       	ldi	r26, 0xFC	; 252
    32de:	b3 e2       	ldi	r27, 0x23	; 35
    32e0:	1d 92       	st	X+, r1
    32e2:	1c 92       	st	X, r1
    32e4:	b8 01       	movw	r22, r16
    32e6:	88 27       	eor	r24, r24
    32e8:	77 fd       	sbrc	r23, 7
    32ea:	80 95       	com	r24
    32ec:	98 2f       	mov	r25, r24
    32ee:	0e 94 6a 26 	call	0x4cd4	; 0x4cd4 <__floatsisf>
    32f2:	2b 01       	movw	r4, r22
    32f4:	3c 01       	movw	r6, r24
    32f6:	c0 1a       	sub	r12, r16
    32f8:	d1 0a       	sbc	r13, r17
    32fa:	b6 01       	movw	r22, r12
    32fc:	88 27       	eor	r24, r24
    32fe:	77 fd       	sbrc	r23, 7
    3300:	80 95       	com	r24
    3302:	98 2f       	mov	r25, r24
    3304:	0e 94 6a 26 	call	0x4cd4	; 0x4cd4 <__floatsisf>
    3308:	2e ea       	ldi	r18, 0xAE	; 174
    330a:	37 e4       	ldi	r19, 0x47	; 71
    330c:	41 ee       	ldi	r20, 0xE1	; 225
    330e:	5d e3       	ldi	r21, 0x3D	; 61
    3310:	0e 94 1e 27 	call	0x4e3c	; 0x4e3c <__mulsf3>
    3314:	9b 01       	movw	r18, r22
    3316:	ac 01       	movw	r20, r24
    3318:	c3 01       	movw	r24, r6
    331a:	b2 01       	movw	r22, r4
    331c:	0e 94 67 25 	call	0x4ace	; 0x4ace <__addsf3>
    3320:	0e 94 37 26 	call	0x4c6e	; 0x4c6e <__fixsfsi>
    3324:	69 87       	std	Y+9, r22	; 0x09
    3326:	7a 87       	std	Y+10, r23	; 0x0a
    3328:	8b 87       	std	Y+11, r24	; 0x0b
    332a:	9c 87       	std	Y+12, r25	; 0x0c
    332c:	ee ef       	ldi	r30, 0xFE	; 254
    332e:	f3 e2       	ldi	r31, 0x23	; 35
    3330:	60 83       	st	Z, r22
    3332:	71 83       	std	Z+1, r23	; 0x01
    3334:	a2 e1       	ldi	r26, 0x12	; 18
    3336:	b4 e2       	ldi	r27, 0x24	; 36
    3338:	0d 91       	ld	r16, X+
    333a:	1c 91       	ld	r17, X
    333c:	e4 e1       	ldi	r30, 0x14	; 20
    333e:	f4 e2       	ldi	r31, 0x24	; 36
    3340:	00 83       	st	Z, r16
    3342:	11 83       	std	Z+1, r17	; 0x01
    3344:	a0 e1       	ldi	r26, 0x10	; 16
    3346:	b4 e2       	ldi	r27, 0x24	; 36
    3348:	8d 91       	ld	r24, X+
    334a:	9c 91       	ld	r25, X
    334c:	bc 01       	movw	r22, r24
    334e:	88 27       	eor	r24, r24
    3350:	77 fd       	sbrc	r23, 7
    3352:	80 95       	com	r24
    3354:	98 2f       	mov	r25, r24
    3356:	0e 94 6a 26 	call	0x4cd4	; 0x4cd4 <__floatsisf>
    335a:	20 e0       	ldi	r18, 0x00	; 0
    335c:	30 e0       	ldi	r19, 0x00	; 0
    335e:	40 ef       	ldi	r20, 0xF0	; 240
    3360:	50 e4       	ldi	r21, 0x40	; 64
    3362:	0e 94 1e 27 	call	0x4e3c	; 0x4e3c <__mulsf3>
    3366:	0e 94 37 26 	call	0x4c6e	; 0x4c6e <__fixsfsi>
    336a:	6b 01       	movw	r12, r22
    336c:	7c 01       	movw	r14, r24
    336e:	e0 e1       	ldi	r30, 0x10	; 16
    3370:	f4 e2       	ldi	r31, 0x24	; 36
    3372:	10 82       	st	Z, r1
    3374:	11 82       	std	Z+1, r1	; 0x01
    3376:	b8 01       	movw	r22, r16
    3378:	88 27       	eor	r24, r24
    337a:	77 fd       	sbrc	r23, 7
    337c:	80 95       	com	r24
    337e:	98 2f       	mov	r25, r24
    3380:	0e 94 6a 26 	call	0x4cd4	; 0x4cd4 <__floatsisf>
    3384:	2b 01       	movw	r4, r22
    3386:	3c 01       	movw	r6, r24
    3388:	c0 1a       	sub	r12, r16
    338a:	d1 0a       	sbc	r13, r17
    338c:	b6 01       	movw	r22, r12
    338e:	88 27       	eor	r24, r24
    3390:	77 fd       	sbrc	r23, 7
    3392:	80 95       	com	r24
    3394:	98 2f       	mov	r25, r24
    3396:	0e 94 6a 26 	call	0x4cd4	; 0x4cd4 <__floatsisf>
    339a:	2e ea       	ldi	r18, 0xAE	; 174
    339c:	37 e4       	ldi	r19, 0x47	; 71
    339e:	41 ee       	ldi	r20, 0xE1	; 225
    33a0:	5d e3       	ldi	r21, 0x3D	; 61
    33a2:	0e 94 1e 27 	call	0x4e3c	; 0x4e3c <__mulsf3>
    33a6:	9b 01       	movw	r18, r22
    33a8:	ac 01       	movw	r20, r24
    33aa:	c3 01       	movw	r24, r6
    33ac:	b2 01       	movw	r22, r4
    33ae:	0e 94 67 25 	call	0x4ace	; 0x4ace <__addsf3>
    33b2:	0e 94 37 26 	call	0x4c6e	; 0x4c6e <__fixsfsi>
    33b6:	6d 87       	std	Y+13, r22	; 0x0d
    33b8:	7e 87       	std	Y+14, r23	; 0x0e
    33ba:	8f 87       	std	Y+15, r24	; 0x0f
    33bc:	98 8b       	std	Y+16, r25	; 0x10
    33be:	a2 e1       	ldi	r26, 0x12	; 18
    33c0:	b4 e2       	ldi	r27, 0x24	; 36
    33c2:	6d 93       	st	X+, r22
    33c4:	7c 93       	st	X, r23
    33c6:	eb ea       	ldi	r30, 0xAB	; 171
    33c8:	f3 e2       	ldi	r31, 0x23	; 35
    33ca:	00 81       	ld	r16, Z
    33cc:	11 81       	ldd	r17, Z+1	; 0x01
    33ce:	ad ea       	ldi	r26, 0xAD	; 173
    33d0:	b3 e2       	ldi	r27, 0x23	; 35
    33d2:	0d 93       	st	X+, r16
    33d4:	1c 93       	st	X, r17
    33d6:	e9 ea       	ldi	r30, 0xA9	; 169
    33d8:	f3 e2       	ldi	r31, 0x23	; 35
    33da:	60 81       	ld	r22, Z
    33dc:	71 81       	ldd	r23, Z+1	; 0x01
    33de:	88 27       	eor	r24, r24
    33e0:	77 fd       	sbrc	r23, 7
    33e2:	80 95       	com	r24
    33e4:	98 2f       	mov	r25, r24
    33e6:	0e 94 6a 26 	call	0x4cd4	; 0x4cd4 <__floatsisf>
    33ea:	20 e0       	ldi	r18, 0x00	; 0
    33ec:	30 e0       	ldi	r19, 0x00	; 0
    33ee:	40 ef       	ldi	r20, 0xF0	; 240
    33f0:	50 e4       	ldi	r21, 0x40	; 64
    33f2:	0e 94 1e 27 	call	0x4e3c	; 0x4e3c <__mulsf3>
    33f6:	0e 94 37 26 	call	0x4c6e	; 0x4c6e <__fixsfsi>
    33fa:	6b 01       	movw	r12, r22
    33fc:	7c 01       	movw	r14, r24
    33fe:	a9 ea       	ldi	r26, 0xA9	; 169
    3400:	b3 e2       	ldi	r27, 0x23	; 35
    3402:	1d 92       	st	X+, r1
    3404:	1c 92       	st	X, r1
    3406:	b8 01       	movw	r22, r16
    3408:	88 27       	eor	r24, r24
    340a:	77 fd       	sbrc	r23, 7
    340c:	80 95       	com	r24
    340e:	98 2f       	mov	r25, r24
    3410:	0e 94 6a 26 	call	0x4cd4	; 0x4cd4 <__floatsisf>
    3414:	2b 01       	movw	r4, r22
    3416:	3c 01       	movw	r6, r24
    3418:	c0 1a       	sub	r12, r16
    341a:	d1 0a       	sbc	r13, r17
    341c:	b6 01       	movw	r22, r12
    341e:	88 27       	eor	r24, r24
    3420:	77 fd       	sbrc	r23, 7
    3422:	80 95       	com	r24
    3424:	98 2f       	mov	r25, r24
    3426:	0e 94 6a 26 	call	0x4cd4	; 0x4cd4 <__floatsisf>
    342a:	2e ea       	ldi	r18, 0xAE	; 174
    342c:	37 e4       	ldi	r19, 0x47	; 71
    342e:	41 ee       	ldi	r20, 0xE1	; 225
    3430:	5d e3       	ldi	r21, 0x3D	; 61
    3432:	0e 94 1e 27 	call	0x4e3c	; 0x4e3c <__mulsf3>
    3436:	9b 01       	movw	r18, r22
    3438:	ac 01       	movw	r20, r24
    343a:	c3 01       	movw	r24, r6
    343c:	b2 01       	movw	r22, r4
    343e:	0e 94 67 25 	call	0x4ace	; 0x4ace <__addsf3>
    3442:	0e 94 37 26 	call	0x4c6e	; 0x4c6e <__fixsfsi>
    3446:	69 8b       	std	Y+17, r22	; 0x11
    3448:	7a 8b       	std	Y+18, r23	; 0x12
    344a:	8b 8b       	std	Y+19, r24	; 0x13
    344c:	9c 8b       	std	Y+20, r25	; 0x14
    344e:	eb ea       	ldi	r30, 0xAB	; 171
    3450:	f3 e2       	ldi	r31, 0x23	; 35
    3452:	60 83       	st	Z, r22
    3454:	71 83       	std	Z+1, r23	; 0x01
    3456:	0f 2e       	mov	r0, r31
    3458:	f8 e0       	ldi	r31, 0x08	; 8
    345a:	6f 2e       	mov	r6, r31
    345c:	f6 e0       	ldi	r31, 0x06	; 6
    345e:	7f 2e       	mov	r7, r31
    3460:	f0 2d       	mov	r31, r0
    3462:	d3 01       	movw	r26, r6
    3464:	9c 91       	ld	r25, X
    3466:	8c 91       	ld	r24, X
    3468:	2c 91       	ld	r18, X
    346a:	4c 91       	ld	r20, X
    346c:	22 1f       	adc	r18, r18
    346e:	22 27       	eor	r18, r18
    3470:	22 1f       	adc	r18, r18
    3472:	30 e0       	ldi	r19, 0x00	; 0
    3474:	22 0f       	add	r18, r18
    3476:	33 1f       	adc	r19, r19
    3478:	22 0f       	add	r18, r18
    347a:	33 1f       	adc	r19, r19
    347c:	96 fb       	bst	r25, 6
    347e:	99 27       	eor	r25, r25
    3480:	90 f9       	bld	r25, 0
    3482:	9d 8b       	std	Y+21, r25	; 0x15
    3484:	1e 8a       	std	Y+22, r1	; 0x16
    3486:	ed 89       	ldd	r30, Y+21	; 0x15
    3488:	fe 89       	ldd	r31, Y+22	; 0x16
    348a:	2e 2b       	or	r18, r30
    348c:	3f 2b       	or	r19, r31
    348e:	82 95       	swap	r24
    3490:	81 70       	andi	r24, 0x01	; 1
    3492:	8f 8b       	std	Y+23, r24	; 0x17
    3494:	18 8e       	std	Y+24, r1	; 0x18
    3496:	8f 89       	ldd	r24, Y+23	; 0x17
    3498:	98 8d       	ldd	r25, Y+24	; 0x18
    349a:	88 0f       	add	r24, r24
    349c:	99 1f       	adc	r25, r25
    349e:	28 2b       	or	r18, r24
    34a0:	39 2b       	or	r19, r25
    34a2:	45 fb       	bst	r20, 5
    34a4:	44 27       	eor	r20, r20
    34a6:	40 f9       	bld	r20, 0
    34a8:	49 8f       	std	Y+25, r20	; 0x19
    34aa:	1a 8e       	std	Y+26, r1	; 0x1a
    34ac:	89 8d       	ldd	r24, Y+25	; 0x19
    34ae:	9a 8d       	ldd	r25, Y+26	; 0x1a
    34b0:	88 0f       	add	r24, r24
    34b2:	99 1f       	adc	r25, r25
    34b4:	88 0f       	add	r24, r24
    34b6:	99 1f       	adc	r25, r25
    34b8:	88 0f       	add	r24, r24
    34ba:	99 1f       	adc	r25, r25
    34bc:	28 2b       	or	r18, r24
    34be:	39 2b       	or	r19, r25
    34c0:	17 e1       	ldi	r17, 0x17	; 23
    34c2:	12 9f       	mul	r17, r18
    34c4:	c0 01       	movw	r24, r0
    34c6:	13 9f       	mul	r17, r19
    34c8:	90 0d       	add	r25, r0
    34ca:	11 24       	eor	r1, r1
    34cc:	fc 01       	movw	r30, r24
    34ce:	ec 54       	subi	r30, 0x4C	; 76
    34d0:	ff 4d       	sbci	r31, 0xDF	; 223
    34d2:	64 89       	ldd	r22, Z+20	; 0x14
    34d4:	70 e0       	ldi	r23, 0x00	; 0
    34d6:	80 e0       	ldi	r24, 0x00	; 0
    34d8:	90 e0       	ldi	r25, 0x00	; 0
    34da:	0e 94 68 26 	call	0x4cd0	; 0x4cd0 <__floatunsisf>
    34de:	20 e0       	ldi	r18, 0x00	; 0
    34e0:	30 e0       	ldi	r19, 0x00	; 0
    34e2:	48 ec       	ldi	r20, 0xC8	; 200
    34e4:	52 e4       	ldi	r21, 0x42	; 66
    34e6:	0e 94 cf 25 	call	0x4b9e	; 0x4b9e <__divsf3>
    34ea:	69 83       	std	Y+1, r22	; 0x01
    34ec:	7a 83       	std	Y+2, r23	; 0x02
    34ee:	8b 83       	std	Y+3, r24	; 0x03
    34f0:	9c 83       	std	Y+4, r25	; 0x04
    34f2:	60 93 22 24 	sts	0x2422, r22
    34f6:	70 93 23 24 	sts	0x2423, r23
    34fa:	80 93 24 24 	sts	0x2424, r24
    34fe:	90 93 25 24 	sts	0x2425, r25
    3502:	d3 01       	movw	r26, r6
    3504:	9c 91       	ld	r25, X
    3506:	8c 91       	ld	r24, X
    3508:	2c 91       	ld	r18, X
    350a:	4c 91       	ld	r20, X
    350c:	22 1f       	adc	r18, r18
    350e:	22 27       	eor	r18, r18
    3510:	22 1f       	adc	r18, r18
    3512:	30 e0       	ldi	r19, 0x00	; 0
    3514:	22 0f       	add	r18, r18
    3516:	33 1f       	adc	r19, r19
    3518:	22 0f       	add	r18, r18
    351a:	33 1f       	adc	r19, r19
    351c:	96 fb       	bst	r25, 6
    351e:	99 27       	eor	r25, r25
    3520:	90 f9       	bld	r25, 0
    3522:	9b 8f       	std	Y+27, r25	; 0x1b
    3524:	1c 8e       	std	Y+28, r1	; 0x1c
    3526:	eb 8d       	ldd	r30, Y+27	; 0x1b
    3528:	fc 8d       	ldd	r31, Y+28	; 0x1c
    352a:	2e 2b       	or	r18, r30
    352c:	3f 2b       	or	r19, r31
    352e:	82 95       	swap	r24
    3530:	81 70       	andi	r24, 0x01	; 1
    3532:	8d 8f       	std	Y+29, r24	; 0x1d
    3534:	1e 8e       	std	Y+30, r1	; 0x1e
    3536:	8d 8d       	ldd	r24, Y+29	; 0x1d
    3538:	9e 8d       	ldd	r25, Y+30	; 0x1e
    353a:	88 0f       	add	r24, r24
    353c:	99 1f       	adc	r25, r25
    353e:	28 2b       	or	r18, r24
    3540:	39 2b       	or	r19, r25
    3542:	45 fb       	bst	r20, 5
    3544:	44 27       	eor	r20, r20
    3546:	40 f9       	bld	r20, 0
    3548:	4f 8f       	std	Y+31, r20	; 0x1f
    354a:	18 a2       	std	Y+32, r1	; 0x20
    354c:	8f 8d       	ldd	r24, Y+31	; 0x1f
    354e:	98 a1       	ldd	r25, Y+32	; 0x20
    3550:	88 0f       	add	r24, r24
    3552:	99 1f       	adc	r25, r25
    3554:	88 0f       	add	r24, r24
    3556:	99 1f       	adc	r25, r25
    3558:	88 0f       	add	r24, r24
    355a:	99 1f       	adc	r25, r25
    355c:	28 2b       	or	r18, r24
    355e:	39 2b       	or	r19, r25
    3560:	12 9f       	mul	r17, r18
    3562:	c0 01       	movw	r24, r0
    3564:	13 9f       	mul	r17, r19
    3566:	90 0d       	add	r25, r0
    3568:	11 24       	eor	r1, r1
    356a:	fc 01       	movw	r30, r24
    356c:	ec 54       	subi	r30, 0x4C	; 76
    356e:	ff 4d       	sbci	r31, 0xDF	; 223
    3570:	65 89       	ldd	r22, Z+21	; 0x15
    3572:	70 e0       	ldi	r23, 0x00	; 0
    3574:	80 e0       	ldi	r24, 0x00	; 0
    3576:	90 e0       	ldi	r25, 0x00	; 0
    3578:	0e 94 68 26 	call	0x4cd0	; 0x4cd0 <__floatunsisf>
    357c:	20 e0       	ldi	r18, 0x00	; 0
    357e:	30 e0       	ldi	r19, 0x00	; 0
    3580:	48 ec       	ldi	r20, 0xC8	; 200
    3582:	52 e4       	ldi	r21, 0x42	; 66
    3584:	0e 94 cf 25 	call	0x4b9e	; 0x4b9e <__divsf3>
    3588:	6b 01       	movw	r12, r22
    358a:	7c 01       	movw	r14, r24
    358c:	60 93 ba 23 	sts	0x23BA, r22
    3590:	70 93 bb 23 	sts	0x23BB, r23
    3594:	80 93 bc 23 	sts	0x23BC, r24
    3598:	90 93 bd 23 	sts	0x23BD, r25
    359c:	d3 01       	movw	r26, r6
    359e:	9c 91       	ld	r25, X
    35a0:	8c 91       	ld	r24, X
    35a2:	2c 91       	ld	r18, X
    35a4:	4c 91       	ld	r20, X
    35a6:	22 1f       	adc	r18, r18
    35a8:	22 27       	eor	r18, r18
    35aa:	22 1f       	adc	r18, r18
    35ac:	30 e0       	ldi	r19, 0x00	; 0
    35ae:	22 0f       	add	r18, r18
    35b0:	33 1f       	adc	r19, r19
    35b2:	22 0f       	add	r18, r18
    35b4:	33 1f       	adc	r19, r19
    35b6:	96 fb       	bst	r25, 6
    35b8:	99 27       	eor	r25, r25
    35ba:	90 f9       	bld	r25, 0
    35bc:	99 a3       	std	Y+33, r25	; 0x21
    35be:	1a a2       	std	Y+34, r1	; 0x22
    35c0:	e9 a1       	ldd	r30, Y+33	; 0x21
    35c2:	fa a1       	ldd	r31, Y+34	; 0x22
    35c4:	2e 2b       	or	r18, r30
    35c6:	3f 2b       	or	r19, r31
    35c8:	82 95       	swap	r24
    35ca:	81 70       	andi	r24, 0x01	; 1
    35cc:	8b a3       	std	Y+35, r24	; 0x23
    35ce:	1c a2       	std	Y+36, r1	; 0x24
    35d0:	8b a1       	ldd	r24, Y+35	; 0x23
    35d2:	9c a1       	ldd	r25, Y+36	; 0x24
    35d4:	88 0f       	add	r24, r24
    35d6:	99 1f       	adc	r25, r25
    35d8:	28 2b       	or	r18, r24
    35da:	39 2b       	or	r19, r25
    35dc:	45 fb       	bst	r20, 5
    35de:	44 27       	eor	r20, r20
    35e0:	40 f9       	bld	r20, 0
    35e2:	4d a3       	std	Y+37, r20	; 0x25
    35e4:	1e a2       	std	Y+38, r1	; 0x26
    35e6:	8d a1       	ldd	r24, Y+37	; 0x25
    35e8:	9e a1       	ldd	r25, Y+38	; 0x26
    35ea:	88 0f       	add	r24, r24
    35ec:	99 1f       	adc	r25, r25
    35ee:	88 0f       	add	r24, r24
    35f0:	99 1f       	adc	r25, r25
    35f2:	88 0f       	add	r24, r24
    35f4:	99 1f       	adc	r25, r25
    35f6:	28 2b       	or	r18, r24
    35f8:	39 2b       	or	r19, r25
    35fa:	12 9f       	mul	r17, r18
    35fc:	c0 01       	movw	r24, r0
    35fe:	13 9f       	mul	r17, r19
    3600:	90 0d       	add	r25, r0
    3602:	11 24       	eor	r1, r1
    3604:	fc 01       	movw	r30, r24
    3606:	ec 54       	subi	r30, 0x4C	; 76
    3608:	ff 4d       	sbci	r31, 0xDF	; 223
    360a:	66 89       	ldd	r22, Z+22	; 0x16
    360c:	70 e0       	ldi	r23, 0x00	; 0
    360e:	80 e0       	ldi	r24, 0x00	; 0
    3610:	90 e0       	ldi	r25, 0x00	; 0
    3612:	0e 94 68 26 	call	0x4cd0	; 0x4cd0 <__floatunsisf>
    3616:	20 e0       	ldi	r18, 0x00	; 0
    3618:	30 e0       	ldi	r19, 0x00	; 0
    361a:	48 ec       	ldi	r20, 0xC8	; 200
    361c:	52 e4       	ldi	r21, 0x42	; 66
    361e:	0e 94 cf 25 	call	0x4b9e	; 0x4b9e <__divsf3>
    3622:	6d 83       	std	Y+5, r22	; 0x05
    3624:	7e 83       	std	Y+6, r23	; 0x06
    3626:	8f 83       	std	Y+7, r24	; 0x07
    3628:	98 87       	std	Y+8, r25	; 0x08
    362a:	60 93 ca 21 	sts	0x21CA, r22
    362e:	70 93 cb 21 	sts	0x21CB, r23
    3632:	80 93 cc 21 	sts	0x21CC, r24
    3636:	90 93 cd 21 	sts	0x21CD, r25
    363a:	10 92 9e 20 	sts	0x209E, r1
    363e:	d3 01       	movw	r26, r6
    3640:	6c 91       	ld	r22, X
    3642:	5c 91       	ld	r21, X
    3644:	7c 91       	ld	r23, X
    3646:	4c 91       	ld	r20, X
    3648:	9c 91       	ld	r25, X
    364a:	8c 91       	ld	r24, X
    364c:	2c 91       	ld	r18, X
    364e:	ec 91       	ld	r30, X
    3650:	22 1f       	adc	r18, r18
    3652:	22 27       	eor	r18, r18
    3654:	22 1f       	adc	r18, r18
    3656:	30 e0       	ldi	r19, 0x00	; 0
    3658:	22 0f       	add	r18, r18
    365a:	33 1f       	adc	r19, r19
    365c:	22 0f       	add	r18, r18
    365e:	33 1f       	adc	r19, r19
    3660:	96 fb       	bst	r25, 6
    3662:	99 27       	eor	r25, r25
    3664:	90 f9       	bld	r25, 0
    3666:	9f a3       	std	Y+39, r25	; 0x27
    3668:	18 a6       	std	Y+40, r1	; 0x28
    366a:	af a1       	ldd	r26, Y+39	; 0x27
    366c:	b8 a5       	ldd	r27, Y+40	; 0x28
    366e:	2a 2b       	or	r18, r26
    3670:	3b 2b       	or	r19, r27
    3672:	82 95       	swap	r24
    3674:	81 70       	andi	r24, 0x01	; 1
    3676:	89 a7       	std	Y+41, r24	; 0x29
    3678:	1a a6       	std	Y+42, r1	; 0x2a
    367a:	89 a5       	ldd	r24, Y+41	; 0x29
    367c:	9a a5       	ldd	r25, Y+42	; 0x2a
    367e:	88 0f       	add	r24, r24
    3680:	99 1f       	adc	r25, r25
    3682:	28 2b       	or	r18, r24
    3684:	39 2b       	or	r19, r25
    3686:	e5 fb       	bst	r30, 5
    3688:	ee 27       	eor	r30, r30
    368a:	e0 f9       	bld	r30, 0
    368c:	eb a7       	std	Y+43, r30	; 0x2b
    368e:	1c a6       	std	Y+44, r1	; 0x2c
    3690:	8b a5       	ldd	r24, Y+43	; 0x2b
    3692:	9c a5       	ldd	r25, Y+44	; 0x2c
    3694:	88 0f       	add	r24, r24
    3696:	99 1f       	adc	r25, r25
    3698:	88 0f       	add	r24, r24
    369a:	99 1f       	adc	r25, r25
    369c:	88 0f       	add	r24, r24
    369e:	99 1f       	adc	r25, r25
    36a0:	28 2b       	or	r18, r24
    36a2:	39 2b       	or	r19, r25
    36a4:	12 9f       	mul	r17, r18
    36a6:	c0 01       	movw	r24, r0
    36a8:	13 9f       	mul	r17, r19
    36aa:	90 0d       	add	r25, r0
    36ac:	11 24       	eor	r1, r1
    36ae:	fc 01       	movw	r30, r24
    36b0:	ec 54       	subi	r30, 0x4C	; 76
    36b2:	ff 4d       	sbci	r31, 0xDF	; 223
    36b4:	b1 81       	ldd	r27, Z+1	; 0x01
    36b6:	be a7       	std	Y+46, r27	; 0x2e
    36b8:	1d a6       	std	Y+45, r1	; 0x2d
    36ba:	77 1f       	adc	r23, r23
    36bc:	77 27       	eor	r23, r23
    36be:	77 1f       	adc	r23, r23
    36c0:	87 2f       	mov	r24, r23
    36c2:	90 e0       	ldi	r25, 0x00	; 0
    36c4:	88 0f       	add	r24, r24
    36c6:	99 1f       	adc	r25, r25
    36c8:	88 0f       	add	r24, r24
    36ca:	99 1f       	adc	r25, r25
    36cc:	66 fb       	bst	r22, 6
    36ce:	66 27       	eor	r22, r22
    36d0:	60 f9       	bld	r22, 0
    36d2:	6f a7       	std	Y+47, r22	; 0x2f
    36d4:	18 aa       	std	Y+48, r1	; 0x30
    36d6:	ef a5       	ldd	r30, Y+47	; 0x2f
    36d8:	f8 a9       	ldd	r31, Y+48	; 0x30
    36da:	8e 2b       	or	r24, r30
    36dc:	9f 2b       	or	r25, r31
    36de:	52 95       	swap	r21
    36e0:	51 70       	andi	r21, 0x01	; 1
    36e2:	59 ab       	std	Y+49, r21	; 0x31
    36e4:	1a aa       	std	Y+50, r1	; 0x32
    36e6:	29 a9       	ldd	r18, Y+49	; 0x31
    36e8:	3a a9       	ldd	r19, Y+50	; 0x32
    36ea:	22 0f       	add	r18, r18
    36ec:	33 1f       	adc	r19, r19
    36ee:	82 2b       	or	r24, r18
    36f0:	93 2b       	or	r25, r19
    36f2:	45 fb       	bst	r20, 5
    36f4:	44 27       	eor	r20, r20
    36f6:	40 f9       	bld	r20, 0
    36f8:	4b ab       	std	Y+51, r20	; 0x33
    36fa:	1c aa       	std	Y+52, r1	; 0x34
    36fc:	2b a9       	ldd	r18, Y+51	; 0x33
    36fe:	3c a9       	ldd	r19, Y+52	; 0x34
    3700:	22 0f       	add	r18, r18
    3702:	33 1f       	adc	r19, r19
    3704:	22 0f       	add	r18, r18
    3706:	33 1f       	adc	r19, r19
    3708:	22 0f       	add	r18, r18
    370a:	33 1f       	adc	r19, r19
    370c:	82 2b       	or	r24, r18
    370e:	93 2b       	or	r25, r19
    3710:	18 9f       	mul	r17, r24
    3712:	90 01       	movw	r18, r0
    3714:	19 9f       	mul	r17, r25
    3716:	30 0d       	add	r19, r0
    3718:	11 24       	eor	r1, r1
    371a:	f9 01       	movw	r30, r18
    371c:	ec 54       	subi	r30, 0x4C	; 76
    371e:	ff 4d       	sbci	r31, 0xDF	; 223
    3720:	03 81       	ldd	r16, Z+3	; 0x03
    3722:	14 81       	ldd	r17, Z+4	; 0x04
    3724:	2d a5       	ldd	r18, Y+45	; 0x2d
    3726:	3e a5       	ldd	r19, Y+46	; 0x2e
    3728:	02 2b       	or	r16, r18
    372a:	13 2b       	or	r17, r19
    372c:	08 19       	sub	r16, r8
    372e:	19 09       	sbc	r17, r9
    3730:	d1 01       	movw	r26, r2
    3732:	16 96       	adiw	r26, 0x06	; 6
    3734:	8d 91       	ld	r24, X+
    3736:	9c 91       	ld	r25, X
    3738:	17 97       	sbiw	r26, 0x07	; 7
    373a:	f8 01       	movw	r30, r16
    373c:	e8 1b       	sub	r30, r24
    373e:	f9 0b       	sbc	r31, r25
    3740:	cf 01       	movw	r24, r30
    3742:	9f 01       	movw	r18, r30
    3744:	22 0f       	add	r18, r18
    3746:	33 1f       	adc	r19, r19
    3748:	88 0f       	add	r24, r24
    374a:	99 1f       	adc	r25, r25
    374c:	88 0f       	add	r24, r24
    374e:	99 1f       	adc	r25, r25
    3750:	88 0f       	add	r24, r24
    3752:	99 1f       	adc	r25, r25
    3754:	ac 01       	movw	r20, r24
    3756:	42 0f       	add	r20, r18
    3758:	53 1f       	adc	r21, r19
    375a:	c1 58       	subi	r28, 0x81	; 129
    375c:	df 4f       	sbci	r29, 0xFF	; 255
    375e:	48 83       	st	Y, r20
    3760:	59 83       	std	Y+1, r21	; 0x01
    3762:	cf 57       	subi	r28, 0x7F	; 127
    3764:	d0 40       	sbci	r29, 0x00	; 0
    3766:	ca 01       	movw	r24, r20
    3768:	c1 96       	adiw	r24, 0x31	; 49
    376a:	83 36       	cpi	r24, 0x63	; 99
    376c:	91 05       	cpc	r25, r1
    376e:	40 f0       	brcs	.+16     	; 0x3780 <main+0x784>
    3770:	41 36       	cpi	r20, 0x61	; 97
    3772:	69 e0       	ldi	r22, 0x09	; 9
    3774:	56 07       	cpc	r21, r22
    3776:	5c f4       	brge	.+22     	; 0x378e <main+0x792>
    3778:	40 3a       	cpi	r20, 0xA0	; 160
    377a:	56 4f       	sbci	r21, 0xF6	; 246
    377c:	7c f0       	brlt	.+30     	; 0x379c <main+0x7a0>
    377e:	14 c0       	rjmp	.+40     	; 0x37a8 <main+0x7ac>
    3780:	c1 58       	subi	r28, 0x81	; 129
    3782:	df 4f       	sbci	r29, 0xFF	; 255
    3784:	18 82       	st	Y, r1
    3786:	19 82       	std	Y+1, r1	; 0x01
    3788:	cf 57       	subi	r28, 0x7F	; 127
    378a:	d0 40       	sbci	r29, 0x00	; 0
    378c:	0d c0       	rjmp	.+26     	; 0x37a8 <main+0x7ac>
    378e:	c1 58       	subi	r28, 0x81	; 129
    3790:	df 4f       	sbci	r29, 0xFF	; 255
    3792:	18 82       	st	Y, r1
    3794:	19 82       	std	Y+1, r1	; 0x01
    3796:	cf 57       	subi	r28, 0x7F	; 127
    3798:	d0 40       	sbci	r29, 0x00	; 0
    379a:	06 c0       	rjmp	.+12     	; 0x37a8 <main+0x7ac>
    379c:	c1 58       	subi	r28, 0x81	; 129
    379e:	df 4f       	sbci	r29, 0xFF	; 255
    37a0:	18 82       	st	Y, r1
    37a2:	19 82       	std	Y+1, r1	; 0x01
    37a4:	cf 57       	subi	r28, 0x7F	; 127
    37a6:	d0 40       	sbci	r29, 0x00	; 0
    37a8:	b8 01       	movw	r22, r16
    37aa:	88 27       	eor	r24, r24
    37ac:	77 fd       	sbrc	r23, 7
    37ae:	80 95       	com	r24
    37b0:	98 2f       	mov	r25, r24
    37b2:	0e 94 6a 26 	call	0x4cd4	; 0x4cd4 <__floatsisf>
    37b6:	4b 01       	movw	r8, r22
    37b8:	5c 01       	movw	r10, r24
    37ba:	9b 01       	movw	r18, r22
    37bc:	ac 01       	movw	r20, r24
    37be:	69 81       	ldd	r22, Y+1	; 0x01
    37c0:	7a 81       	ldd	r23, Y+2	; 0x02
    37c2:	8b 81       	ldd	r24, Y+3	; 0x03
    37c4:	9c 81       	ldd	r25, Y+4	; 0x04
    37c6:	0e 94 1e 27 	call	0x4e3c	; 0x4e3c <__mulsf3>
    37ca:	0e 94 37 26 	call	0x4c6e	; 0x4c6e <__fixsfsi>
    37ce:	2b 01       	movw	r4, r22
    37d0:	3c 01       	movw	r6, r24
    37d2:	a5 01       	movw	r20, r10
    37d4:	94 01       	movw	r18, r8
    37d6:	c7 01       	movw	r24, r14
    37d8:	b6 01       	movw	r22, r12
    37da:	0e 94 1e 27 	call	0x4e3c	; 0x4e3c <__mulsf3>
    37de:	2a e0       	ldi	r18, 0x0A	; 10
    37e0:	37 ed       	ldi	r19, 0xD7	; 215
    37e2:	43 ea       	ldi	r20, 0xA3	; 163
    37e4:	5c e3       	ldi	r21, 0x3C	; 60
    37e6:	0e 94 1e 27 	call	0x4e3c	; 0x4e3c <__mulsf3>
    37ea:	d1 01       	movw	r26, r2
    37ec:	1a 96       	adiw	r26, 0x0a	; 10
    37ee:	2d 91       	ld	r18, X+
    37f0:	3d 91       	ld	r19, X+
    37f2:	4d 91       	ld	r20, X+
    37f4:	5c 91       	ld	r21, X
    37f6:	1d 97       	sbiw	r26, 0x0d	; 13
    37f8:	0e 94 67 25 	call	0x4ace	; 0x4ace <__addsf3>
    37fc:	4b 01       	movw	r8, r22
    37fe:	5c 01       	movw	r10, r24
    3800:	f1 01       	movw	r30, r2
    3802:	62 87       	std	Z+10, r22	; 0x0a
    3804:	73 87       	std	Z+11, r23	; 0x0b
    3806:	84 87       	std	Z+12, r24	; 0x0c
    3808:	95 87       	std	Z+13, r25	; 0x0d
    380a:	20 e0       	ldi	r18, 0x00	; 0
    380c:	30 e0       	ldi	r19, 0x00	; 0
    380e:	40 ef       	ldi	r20, 0xF0	; 240
    3810:	52 e4       	ldi	r21, 0x42	; 66
    3812:	0e 94 1a 27 	call	0x4e34	; 0x4e34 <__gesf2>
    3816:	18 16       	cp	r1, r24
    3818:	54 f4       	brge	.+20     	; 0x382e <main+0x832>
    381a:	80 e0       	ldi	r24, 0x00	; 0
    381c:	90 e0       	ldi	r25, 0x00	; 0
    381e:	a0 ef       	ldi	r26, 0xF0	; 240
    3820:	b2 e4       	ldi	r27, 0x42	; 66
    3822:	f1 01       	movw	r30, r2
    3824:	82 87       	std	Z+10, r24	; 0x0a
    3826:	93 87       	std	Z+11, r25	; 0x0b
    3828:	a4 87       	std	Z+12, r26	; 0x0c
    382a:	b5 87       	std	Z+13, r27	; 0x0d
    382c:	15 c0       	rjmp	.+42     	; 0x3858 <main+0x85c>
    382e:	20 e0       	ldi	r18, 0x00	; 0
    3830:	30 e0       	ldi	r19, 0x00	; 0
    3832:	46 e9       	ldi	r20, 0x96	; 150
    3834:	54 ec       	ldi	r21, 0xC4	; 196
    3836:	c5 01       	movw	r24, r10
    3838:	b4 01       	movw	r22, r8
    383a:	0e 94 cb 25 	call	0x4b96	; 0x4b96 <__cmpsf2>
    383e:	88 23       	and	r24, r24
    3840:	5c f4       	brge	.+22     	; 0x3858 <main+0x85c>
    3842:	20 e0       	ldi	r18, 0x00	; 0
    3844:	30 e0       	ldi	r19, 0x00	; 0
    3846:	40 ef       	ldi	r20, 0xF0	; 240
    3848:	52 ec       	ldi	r21, 0xC2	; 194
    384a:	d1 01       	movw	r26, r2
    384c:	1a 96       	adiw	r26, 0x0a	; 10
    384e:	2d 93       	st	X+, r18
    3850:	3d 93       	st	X+, r19
    3852:	4d 93       	st	X+, r20
    3854:	5c 93       	st	X, r21
    3856:	1d 97       	sbiw	r26, 0x0d	; 13
    3858:	c2 01       	movw	r24, r4
    385a:	80 38       	cpi	r24, 0x80	; 128
    385c:	91 05       	cpc	r25, r1
    385e:	14 f0       	brlt	.+4      	; 0x3864 <main+0x868>
    3860:	8f e7       	ldi	r24, 0x7F	; 127
    3862:	90 e0       	ldi	r25, 0x00	; 0
    3864:	bc 01       	movw	r22, r24
    3866:	81 38       	cpi	r24, 0x81	; 129
    3868:	bf ef       	ldi	r27, 0xFF	; 255
    386a:	9b 07       	cpc	r25, r27
    386c:	14 f4       	brge	.+4      	; 0x3872 <main+0x876>
    386e:	61 e8       	ldi	r22, 0x81	; 129
    3870:	7f ef       	ldi	r23, 0xFF	; 255
    3872:	88 27       	eor	r24, r24
    3874:	77 fd       	sbrc	r23, 7
    3876:	80 95       	com	r24
    3878:	98 2f       	mov	r25, r24
    387a:	0e 94 6a 26 	call	0x4cd4	; 0x4cd4 <__floatsisf>
    387e:	f1 01       	movw	r30, r2
    3880:	22 85       	ldd	r18, Z+10	; 0x0a
    3882:	33 85       	ldd	r19, Z+11	; 0x0b
    3884:	44 85       	ldd	r20, Z+12	; 0x0c
    3886:	55 85       	ldd	r21, Z+13	; 0x0d
    3888:	0e 94 67 25 	call	0x4ace	; 0x4ace <__addsf3>
    388c:	4b 01       	movw	r8, r22
    388e:	5c 01       	movw	r10, r24
    3890:	c1 58       	subi	r28, 0x81	; 129
    3892:	df 4f       	sbci	r29, 0xFF	; 255
    3894:	28 81       	ld	r18, Y
    3896:	39 81       	ldd	r19, Y+1	; 0x01
    3898:	cf 57       	subi	r28, 0x7F	; 127
    389a:	d0 40       	sbci	r29, 0x00	; 0
    389c:	b9 01       	movw	r22, r18
    389e:	88 27       	eor	r24, r24
    38a0:	77 fd       	sbrc	r23, 7
    38a2:	80 95       	com	r24
    38a4:	98 2f       	mov	r25, r24
    38a6:	0e 94 6a 26 	call	0x4cd4	; 0x4cd4 <__floatsisf>
    38aa:	9b 01       	movw	r18, r22
    38ac:	ac 01       	movw	r20, r24
    38ae:	6d 81       	ldd	r22, Y+5	; 0x05
    38b0:	7e 81       	ldd	r23, Y+6	; 0x06
    38b2:	8f 81       	ldd	r24, Y+7	; 0x07
    38b4:	98 85       	ldd	r25, Y+8	; 0x08
    38b6:	0e 94 1e 27 	call	0x4e3c	; 0x4e3c <__mulsf3>
    38ba:	9b 01       	movw	r18, r22
    38bc:	ac 01       	movw	r20, r24
    38be:	c5 01       	movw	r24, r10
    38c0:	b4 01       	movw	r22, r8
    38c2:	0e 94 67 25 	call	0x4ace	; 0x4ace <__addsf3>
    38c6:	0e 94 37 26 	call	0x4c6e	; 0x4c6e <__fixsfsi>
    38ca:	60 38       	cpi	r22, 0x80	; 128
    38cc:	71 05       	cpc	r23, r1
    38ce:	14 f0       	brlt	.+4      	; 0x38d4 <main+0x8d8>
    38d0:	6f e7       	ldi	r22, 0x7F	; 127
    38d2:	70 e0       	ldi	r23, 0x00	; 0
    38d4:	d1 01       	movw	r26, r2
    38d6:	16 96       	adiw	r26, 0x06	; 6
    38d8:	0d 93       	st	X+, r16
    38da:	1c 93       	st	X, r17
    38dc:	17 97       	sbiw	r26, 0x07	; 7
    38de:	c1 58       	subi	r28, 0x81	; 129
    38e0:	df 4f       	sbci	r29, 0xFF	; 255
    38e2:	e8 81       	ld	r30, Y
    38e4:	f9 81       	ldd	r31, Y+1	; 0x01
    38e6:	cf 57       	subi	r28, 0x7F	; 127
    38e8:	d0 40       	sbci	r29, 0x00	; 0
    38ea:	18 96       	adiw	r26, 0x08	; 8
    38ec:	ed 93       	st	X+, r30
    38ee:	fc 93       	st	X, r31
    38f0:	19 97       	sbiw	r26, 0x09	; 9
    38f2:	61 38       	cpi	r22, 0x81	; 129
    38f4:	ff ef       	ldi	r31, 0xFF	; 255
    38f6:	7f 07       	cpc	r23, r31
    38f8:	14 f4       	brge	.+4      	; 0x38fe <main+0x902>
    38fa:	61 e8       	ldi	r22, 0x81	; 129
    38fc:	7f ef       	ldi	r23, 0xFF	; 255
    38fe:	60 93 85 23 	sts	0x2385, r22
    3902:	e8 e0       	ldi	r30, 0x08	; 8
    3904:	f6 e0       	ldi	r31, 0x06	; 6
    3906:	60 81       	ld	r22, Z
    3908:	50 81       	ld	r21, Z
    390a:	70 81       	ld	r23, Z
    390c:	40 81       	ld	r20, Z
    390e:	90 81       	ld	r25, Z
    3910:	80 81       	ld	r24, Z
    3912:	20 81       	ld	r18, Z
    3914:	e0 81       	ld	r30, Z
    3916:	22 1f       	adc	r18, r18
    3918:	22 27       	eor	r18, r18
    391a:	22 1f       	adc	r18, r18
    391c:	30 e0       	ldi	r19, 0x00	; 0
    391e:	22 0f       	add	r18, r18
    3920:	33 1f       	adc	r19, r19
    3922:	22 0f       	add	r18, r18
    3924:	33 1f       	adc	r19, r19
    3926:	96 fb       	bst	r25, 6
    3928:	99 27       	eor	r25, r25
    392a:	90 f9       	bld	r25, 0
    392c:	9d ab       	std	Y+53, r25	; 0x35
    392e:	1e aa       	std	Y+54, r1	; 0x36
    3930:	ad a9       	ldd	r26, Y+53	; 0x35
    3932:	be a9       	ldd	r27, Y+54	; 0x36
    3934:	2a 2b       	or	r18, r26
    3936:	3b 2b       	or	r19, r27
    3938:	82 95       	swap	r24
    393a:	81 70       	andi	r24, 0x01	; 1
    393c:	8f ab       	std	Y+55, r24	; 0x37
    393e:	18 ae       	std	Y+56, r1	; 0x38
    3940:	8f a9       	ldd	r24, Y+55	; 0x37
    3942:	98 ad       	ldd	r25, Y+56	; 0x38
    3944:	88 0f       	add	r24, r24
    3946:	99 1f       	adc	r25, r25
    3948:	28 2b       	or	r18, r24
    394a:	39 2b       	or	r19, r25
    394c:	e5 fb       	bst	r30, 5
    394e:	ee 27       	eor	r30, r30
    3950:	e0 f9       	bld	r30, 0
    3952:	e9 af       	std	Y+57, r30	; 0x39
    3954:	1a ae       	std	Y+58, r1	; 0x3a
    3956:	89 ad       	ldd	r24, Y+57	; 0x39
    3958:	9a ad       	ldd	r25, Y+58	; 0x3a
    395a:	88 0f       	add	r24, r24
    395c:	99 1f       	adc	r25, r25
    395e:	88 0f       	add	r24, r24
    3960:	99 1f       	adc	r25, r25
    3962:	88 0f       	add	r24, r24
    3964:	99 1f       	adc	r25, r25
    3966:	28 2b       	or	r18, r24
    3968:	39 2b       	or	r19, r25
    396a:	f7 e1       	ldi	r31, 0x17	; 23
    396c:	f2 9f       	mul	r31, r18
    396e:	c0 01       	movw	r24, r0
    3970:	f3 9f       	mul	r31, r19
    3972:	90 0d       	add	r25, r0
    3974:	11 24       	eor	r1, r1
    3976:	dc 01       	movw	r26, r24
    3978:	ac 54       	subi	r26, 0x4C	; 76
    397a:	bf 4d       	sbci	r27, 0xDF	; 223
    397c:	15 96       	adiw	r26, 0x05	; 5
    397e:	ec 91       	ld	r30, X
    3980:	ec af       	std	Y+60, r30	; 0x3c
    3982:	1b ae       	std	Y+59, r1	; 0x3b
    3984:	77 1f       	adc	r23, r23
    3986:	77 27       	eor	r23, r23
    3988:	77 1f       	adc	r23, r23
    398a:	87 2f       	mov	r24, r23
    398c:	90 e0       	ldi	r25, 0x00	; 0
    398e:	88 0f       	add	r24, r24
    3990:	99 1f       	adc	r25, r25
    3992:	88 0f       	add	r24, r24
    3994:	99 1f       	adc	r25, r25
    3996:	66 fb       	bst	r22, 6
    3998:	66 27       	eor	r22, r22
    399a:	60 f9       	bld	r22, 0
    399c:	6d af       	std	Y+61, r22	; 0x3d
    399e:	1e ae       	std	Y+62, r1	; 0x3e
    39a0:	2d ad       	ldd	r18, Y+61	; 0x3d
    39a2:	3e ad       	ldd	r19, Y+62	; 0x3e
    39a4:	82 2b       	or	r24, r18
    39a6:	93 2b       	or	r25, r19
    39a8:	52 95       	swap	r21
    39aa:	51 70       	andi	r21, 0x01	; 1
    39ac:	5f af       	std	Y+63, r21	; 0x3f
    39ae:	21 96       	adiw	r28, 0x01	; 1
    39b0:	1f ae       	std	Y+63, r1	; 0x3f
    39b2:	21 97       	sbiw	r28, 0x01	; 1
    39b4:	21 96       	adiw	r28, 0x01	; 1
    39b6:	2e ad       	ldd	r18, Y+62	; 0x3e
    39b8:	3f ad       	ldd	r19, Y+63	; 0x3f
    39ba:	21 97       	sbiw	r28, 0x01	; 1
    39bc:	22 0f       	add	r18, r18
    39be:	33 1f       	adc	r19, r19
    39c0:	82 2b       	or	r24, r18
    39c2:	93 2b       	or	r25, r19
    39c4:	45 fb       	bst	r20, 5
    39c6:	44 27       	eor	r20, r20
    39c8:	40 f9       	bld	r20, 0
    39ca:	22 96       	adiw	r28, 0x02	; 2
    39cc:	4f af       	std	Y+63, r20	; 0x3f
    39ce:	22 97       	sbiw	r28, 0x02	; 2
    39d0:	23 96       	adiw	r28, 0x03	; 3
    39d2:	1f ae       	std	Y+63, r1	; 0x3f
    39d4:	23 97       	sbiw	r28, 0x03	; 3
    39d6:	23 96       	adiw	r28, 0x03	; 3
    39d8:	2e ad       	ldd	r18, Y+62	; 0x3e
    39da:	3f ad       	ldd	r19, Y+63	; 0x3f
    39dc:	23 97       	sbiw	r28, 0x03	; 3
    39de:	22 0f       	add	r18, r18
    39e0:	33 1f       	adc	r19, r19
    39e2:	22 0f       	add	r18, r18
    39e4:	33 1f       	adc	r19, r19
    39e6:	22 0f       	add	r18, r18
    39e8:	33 1f       	adc	r19, r19
    39ea:	82 2b       	or	r24, r18
    39ec:	93 2b       	or	r25, r19
    39ee:	f8 9f       	mul	r31, r24
    39f0:	90 01       	movw	r18, r0
    39f2:	f9 9f       	mul	r31, r25
    39f4:	30 0d       	add	r19, r0
    39f6:	11 24       	eor	r1, r1
    39f8:	f9 01       	movw	r30, r18
    39fa:	ec 54       	subi	r30, 0x4C	; 76
    39fc:	ff 4d       	sbci	r31, 0xDF	; 223
    39fe:	07 81       	ldd	r16, Z+7	; 0x07
    3a00:	10 85       	ldd	r17, Z+8	; 0x08
    3a02:	4b ad       	ldd	r20, Y+59	; 0x3b
    3a04:	5c ad       	ldd	r21, Y+60	; 0x3c
    3a06:	04 2b       	or	r16, r20
    3a08:	15 2b       	or	r17, r21
    3a0a:	69 85       	ldd	r22, Y+9	; 0x09
    3a0c:	7a 85       	ldd	r23, Y+10	; 0x0a
    3a0e:	06 1b       	sub	r16, r22
    3a10:	17 0b       	sbc	r17, r23
    3a12:	80 91 02 24 	lds	r24, 0x2402
    3a16:	90 91 03 24 	lds	r25, 0x2403
    3a1a:	d8 01       	movw	r26, r16
    3a1c:	a8 1b       	sub	r26, r24
    3a1e:	b9 0b       	sbc	r27, r25
    3a20:	cd 01       	movw	r24, r26
    3a22:	9d 01       	movw	r18, r26
    3a24:	22 0f       	add	r18, r18
    3a26:	33 1f       	adc	r19, r19
    3a28:	88 0f       	add	r24, r24
    3a2a:	99 1f       	adc	r25, r25
    3a2c:	88 0f       	add	r24, r24
    3a2e:	99 1f       	adc	r25, r25
    3a30:	88 0f       	add	r24, r24
    3a32:	99 1f       	adc	r25, r25
    3a34:	fc 01       	movw	r30, r24
    3a36:	e2 0f       	add	r30, r18
    3a38:	f3 1f       	adc	r31, r19
    3a3a:	e9 87       	std	Y+9, r30	; 0x09
    3a3c:	fa 87       	std	Y+10, r31	; 0x0a
    3a3e:	cf 01       	movw	r24, r30
    3a40:	c1 96       	adiw	r24, 0x31	; 49
    3a42:	83 36       	cpi	r24, 0x63	; 99
    3a44:	91 05       	cpc	r25, r1
    3a46:	40 f0       	brcs	.+16     	; 0x3a58 <main+0xa5c>
    3a48:	e1 36       	cpi	r30, 0x61	; 97
    3a4a:	29 e0       	ldi	r18, 0x09	; 9
    3a4c:	f2 07       	cpc	r31, r18
    3a4e:	3c f4       	brge	.+14     	; 0x3a5e <main+0xa62>
    3a50:	e0 3a       	cpi	r30, 0xA0	; 160
    3a52:	f6 4f       	sbci	r31, 0xF6	; 246
    3a54:	3c f0       	brlt	.+14     	; 0x3a64 <main+0xa68>
    3a56:	08 c0       	rjmp	.+16     	; 0x3a68 <main+0xa6c>
    3a58:	19 86       	std	Y+9, r1	; 0x09
    3a5a:	1a 86       	std	Y+10, r1	; 0x0a
    3a5c:	05 c0       	rjmp	.+10     	; 0x3a68 <main+0xa6c>
    3a5e:	19 86       	std	Y+9, r1	; 0x09
    3a60:	1a 86       	std	Y+10, r1	; 0x0a
    3a62:	02 c0       	rjmp	.+4      	; 0x3a68 <main+0xa6c>
    3a64:	19 86       	std	Y+9, r1	; 0x09
    3a66:	1a 86       	std	Y+10, r1	; 0x0a
    3a68:	b8 01       	movw	r22, r16
    3a6a:	88 27       	eor	r24, r24
    3a6c:	77 fd       	sbrc	r23, 7
    3a6e:	80 95       	com	r24
    3a70:	98 2f       	mov	r25, r24
    3a72:	0e 94 6a 26 	call	0x4cd4	; 0x4cd4 <__floatsisf>
    3a76:	4b 01       	movw	r8, r22
    3a78:	5c 01       	movw	r10, r24
    3a7a:	9b 01       	movw	r18, r22
    3a7c:	ac 01       	movw	r20, r24
    3a7e:	69 81       	ldd	r22, Y+1	; 0x01
    3a80:	7a 81       	ldd	r23, Y+2	; 0x02
    3a82:	8b 81       	ldd	r24, Y+3	; 0x03
    3a84:	9c 81       	ldd	r25, Y+4	; 0x04
    3a86:	0e 94 1e 27 	call	0x4e3c	; 0x4e3c <__mulsf3>
    3a8a:	0e 94 37 26 	call	0x4c6e	; 0x4c6e <__fixsfsi>
    3a8e:	2b 01       	movw	r4, r22
    3a90:	3c 01       	movw	r6, r24
    3a92:	a5 01       	movw	r20, r10
    3a94:	94 01       	movw	r18, r8
    3a96:	c7 01       	movw	r24, r14
    3a98:	b6 01       	movw	r22, r12
    3a9a:	0e 94 1e 27 	call	0x4e3c	; 0x4e3c <__mulsf3>
    3a9e:	2a e0       	ldi	r18, 0x0A	; 10
    3aa0:	37 ed       	ldi	r19, 0xD7	; 215
    3aa2:	43 ea       	ldi	r20, 0xA3	; 163
    3aa4:	5c e3       	ldi	r21, 0x3C	; 60
    3aa6:	0e 94 1e 27 	call	0x4e3c	; 0x4e3c <__mulsf3>
    3aaa:	20 91 06 24 	lds	r18, 0x2406
    3aae:	30 91 07 24 	lds	r19, 0x2407
    3ab2:	40 91 08 24 	lds	r20, 0x2408
    3ab6:	50 91 09 24 	lds	r21, 0x2409
    3aba:	0e 94 67 25 	call	0x4ace	; 0x4ace <__addsf3>
    3abe:	4b 01       	movw	r8, r22
    3ac0:	5c 01       	movw	r10, r24
    3ac2:	60 93 06 24 	sts	0x2406, r22
    3ac6:	70 93 07 24 	sts	0x2407, r23
    3aca:	80 93 08 24 	sts	0x2408, r24
    3ace:	90 93 09 24 	sts	0x2409, r25
    3ad2:	20 e0       	ldi	r18, 0x00	; 0
    3ad4:	30 e0       	ldi	r19, 0x00	; 0
    3ad6:	40 ef       	ldi	r20, 0xF0	; 240
    3ad8:	52 e4       	ldi	r21, 0x42	; 66
    3ada:	0e 94 1a 27 	call	0x4e34	; 0x4e34 <__gesf2>
    3ade:	18 16       	cp	r1, r24
    3ae0:	6c f4       	brge	.+26     	; 0x3afc <main+0xb00>
    3ae2:	80 e0       	ldi	r24, 0x00	; 0
    3ae4:	90 e0       	ldi	r25, 0x00	; 0
    3ae6:	a0 ef       	ldi	r26, 0xF0	; 240
    3ae8:	b2 e4       	ldi	r27, 0x42	; 66
    3aea:	80 93 06 24 	sts	0x2406, r24
    3aee:	90 93 07 24 	sts	0x2407, r25
    3af2:	a0 93 08 24 	sts	0x2408, r26
    3af6:	b0 93 09 24 	sts	0x2409, r27
    3afa:	16 c0       	rjmp	.+44     	; 0x3b28 <main+0xb2c>
    3afc:	20 e0       	ldi	r18, 0x00	; 0
    3afe:	30 e0       	ldi	r19, 0x00	; 0
    3b00:	46 e9       	ldi	r20, 0x96	; 150
    3b02:	54 ec       	ldi	r21, 0xC4	; 196
    3b04:	c5 01       	movw	r24, r10
    3b06:	b4 01       	movw	r22, r8
    3b08:	0e 94 cb 25 	call	0x4b96	; 0x4b96 <__cmpsf2>
    3b0c:	88 23       	and	r24, r24
    3b0e:	64 f4       	brge	.+24     	; 0x3b28 <main+0xb2c>
    3b10:	40 e0       	ldi	r20, 0x00	; 0
    3b12:	50 e0       	ldi	r21, 0x00	; 0
    3b14:	60 ef       	ldi	r22, 0xF0	; 240
    3b16:	72 ec       	ldi	r23, 0xC2	; 194
    3b18:	40 93 06 24 	sts	0x2406, r20
    3b1c:	50 93 07 24 	sts	0x2407, r21
    3b20:	60 93 08 24 	sts	0x2408, r22
    3b24:	70 93 09 24 	sts	0x2409, r23
    3b28:	c2 01       	movw	r24, r4
    3b2a:	80 38       	cpi	r24, 0x80	; 128
    3b2c:	91 05       	cpc	r25, r1
    3b2e:	14 f0       	brlt	.+4      	; 0x3b34 <main+0xb38>
    3b30:	8f e7       	ldi	r24, 0x7F	; 127
    3b32:	90 e0       	ldi	r25, 0x00	; 0
    3b34:	bc 01       	movw	r22, r24
    3b36:	81 38       	cpi	r24, 0x81	; 129
    3b38:	5f ef       	ldi	r21, 0xFF	; 255
    3b3a:	95 07       	cpc	r25, r21
    3b3c:	14 f4       	brge	.+4      	; 0x3b42 <main+0xb46>
    3b3e:	61 e8       	ldi	r22, 0x81	; 129
    3b40:	7f ef       	ldi	r23, 0xFF	; 255
    3b42:	88 27       	eor	r24, r24
    3b44:	77 fd       	sbrc	r23, 7
    3b46:	80 95       	com	r24
    3b48:	98 2f       	mov	r25, r24
    3b4a:	0e 94 6a 26 	call	0x4cd4	; 0x4cd4 <__floatsisf>
    3b4e:	20 91 06 24 	lds	r18, 0x2406
    3b52:	30 91 07 24 	lds	r19, 0x2407
    3b56:	40 91 08 24 	lds	r20, 0x2408
    3b5a:	50 91 09 24 	lds	r21, 0x2409
    3b5e:	b7 d7       	rcall	.+3950   	; 0x4ace <__addsf3>
    3b60:	4b 01       	movw	r8, r22
    3b62:	5c 01       	movw	r10, r24
    3b64:	a9 85       	ldd	r26, Y+9	; 0x09
    3b66:	ba 85       	ldd	r27, Y+10	; 0x0a
    3b68:	bd 01       	movw	r22, r26
    3b6a:	88 27       	eor	r24, r24
    3b6c:	77 fd       	sbrc	r23, 7
    3b6e:	80 95       	com	r24
    3b70:	98 2f       	mov	r25, r24
    3b72:	0e 94 6a 26 	call	0x4cd4	; 0x4cd4 <__floatsisf>
    3b76:	9b 01       	movw	r18, r22
    3b78:	ac 01       	movw	r20, r24
    3b7a:	6d 81       	ldd	r22, Y+5	; 0x05
    3b7c:	7e 81       	ldd	r23, Y+6	; 0x06
    3b7e:	8f 81       	ldd	r24, Y+7	; 0x07
    3b80:	98 85       	ldd	r25, Y+8	; 0x08
    3b82:	0e 94 1e 27 	call	0x4e3c	; 0x4e3c <__mulsf3>
    3b86:	9b 01       	movw	r18, r22
    3b88:	ac 01       	movw	r20, r24
    3b8a:	c5 01       	movw	r24, r10
    3b8c:	b4 01       	movw	r22, r8
    3b8e:	9f d7       	rcall	.+3902   	; 0x4ace <__addsf3>
    3b90:	0e 94 37 26 	call	0x4c6e	; 0x4c6e <__fixsfsi>
    3b94:	60 38       	cpi	r22, 0x80	; 128
    3b96:	71 05       	cpc	r23, r1
    3b98:	14 f0       	brlt	.+4      	; 0x3b9e <main+0xba2>
    3b9a:	6f e7       	ldi	r22, 0x7F	; 127
    3b9c:	70 e0       	ldi	r23, 0x00	; 0
    3b9e:	00 93 02 24 	sts	0x2402, r16
    3ba2:	10 93 03 24 	sts	0x2403, r17
    3ba6:	e9 85       	ldd	r30, Y+9	; 0x09
    3ba8:	fa 85       	ldd	r31, Y+10	; 0x0a
    3baa:	e0 93 04 24 	sts	0x2404, r30
    3bae:	f0 93 05 24 	sts	0x2405, r31
    3bb2:	61 38       	cpi	r22, 0x81	; 129
    3bb4:	ff ef       	ldi	r31, 0xFF	; 255
    3bb6:	7f 07       	cpc	r23, r31
    3bb8:	14 f4       	brge	.+4      	; 0x3bbe <main+0xbc2>
    3bba:	61 e8       	ldi	r22, 0x81	; 129
    3bbc:	7f ef       	ldi	r23, 0xFF	; 255
    3bbe:	60 93 0a 24 	sts	0x240A, r22
    3bc2:	e8 e0       	ldi	r30, 0x08	; 8
    3bc4:	f6 e0       	ldi	r31, 0x06	; 6
    3bc6:	60 81       	ld	r22, Z
    3bc8:	50 81       	ld	r21, Z
    3bca:	70 81       	ld	r23, Z
    3bcc:	40 81       	ld	r20, Z
    3bce:	90 81       	ld	r25, Z
    3bd0:	80 81       	ld	r24, Z
    3bd2:	20 81       	ld	r18, Z
    3bd4:	e0 81       	ld	r30, Z
    3bd6:	22 1f       	adc	r18, r18
    3bd8:	22 27       	eor	r18, r18
    3bda:	22 1f       	adc	r18, r18
    3bdc:	30 e0       	ldi	r19, 0x00	; 0
    3bde:	22 0f       	add	r18, r18
    3be0:	33 1f       	adc	r19, r19
    3be2:	22 0f       	add	r18, r18
    3be4:	33 1f       	adc	r19, r19
    3be6:	96 fb       	bst	r25, 6
    3be8:	99 27       	eor	r25, r25
    3bea:	90 f9       	bld	r25, 0
    3bec:	24 96       	adiw	r28, 0x04	; 4
    3bee:	9f af       	std	Y+63, r25	; 0x3f
    3bf0:	24 97       	sbiw	r28, 0x04	; 4
    3bf2:	25 96       	adiw	r28, 0x05	; 5
    3bf4:	1f ae       	std	Y+63, r1	; 0x3f
    3bf6:	25 97       	sbiw	r28, 0x05	; 5
    3bf8:	25 96       	adiw	r28, 0x05	; 5
    3bfa:	ae ad       	ldd	r26, Y+62	; 0x3e
    3bfc:	bf ad       	ldd	r27, Y+63	; 0x3f
    3bfe:	25 97       	sbiw	r28, 0x05	; 5
    3c00:	2a 2b       	or	r18, r26
    3c02:	3b 2b       	or	r19, r27
    3c04:	82 95       	swap	r24
    3c06:	81 70       	andi	r24, 0x01	; 1
    3c08:	26 96       	adiw	r28, 0x06	; 6
    3c0a:	8f af       	std	Y+63, r24	; 0x3f
    3c0c:	26 97       	sbiw	r28, 0x06	; 6
    3c0e:	27 96       	adiw	r28, 0x07	; 7
    3c10:	1f ae       	std	Y+63, r1	; 0x3f
    3c12:	27 97       	sbiw	r28, 0x07	; 7
    3c14:	27 96       	adiw	r28, 0x07	; 7
    3c16:	8e ad       	ldd	r24, Y+62	; 0x3e
    3c18:	9f ad       	ldd	r25, Y+63	; 0x3f
    3c1a:	27 97       	sbiw	r28, 0x07	; 7
    3c1c:	88 0f       	add	r24, r24
    3c1e:	99 1f       	adc	r25, r25
    3c20:	28 2b       	or	r18, r24
    3c22:	39 2b       	or	r19, r25
    3c24:	e5 fb       	bst	r30, 5
    3c26:	ee 27       	eor	r30, r30
    3c28:	e0 f9       	bld	r30, 0
    3c2a:	28 96       	adiw	r28, 0x08	; 8
    3c2c:	ef af       	std	Y+63, r30	; 0x3f
    3c2e:	28 97       	sbiw	r28, 0x08	; 8
    3c30:	29 96       	adiw	r28, 0x09	; 9
    3c32:	1f ae       	std	Y+63, r1	; 0x3f
    3c34:	29 97       	sbiw	r28, 0x09	; 9
    3c36:	29 96       	adiw	r28, 0x09	; 9
    3c38:	8e ad       	ldd	r24, Y+62	; 0x3e
    3c3a:	9f ad       	ldd	r25, Y+63	; 0x3f
    3c3c:	29 97       	sbiw	r28, 0x09	; 9
    3c3e:	88 0f       	add	r24, r24
    3c40:	99 1f       	adc	r25, r25
    3c42:	88 0f       	add	r24, r24
    3c44:	99 1f       	adc	r25, r25
    3c46:	88 0f       	add	r24, r24
    3c48:	99 1f       	adc	r25, r25
    3c4a:	28 2b       	or	r18, r24
    3c4c:	39 2b       	or	r19, r25
    3c4e:	f7 e1       	ldi	r31, 0x17	; 23
    3c50:	f2 9f       	mul	r31, r18
    3c52:	c0 01       	movw	r24, r0
    3c54:	f3 9f       	mul	r31, r19
    3c56:	90 0d       	add	r25, r0
    3c58:	11 24       	eor	r1, r1
    3c5a:	dc 01       	movw	r26, r24
    3c5c:	ac 54       	subi	r26, 0x4C	; 76
    3c5e:	bf 4d       	sbci	r27, 0xDF	; 223
    3c60:	19 96       	adiw	r26, 0x09	; 9
    3c62:	ec 91       	ld	r30, X
    3c64:	2b 96       	adiw	r28, 0x0b	; 11
    3c66:	ef af       	std	Y+63, r30	; 0x3f
    3c68:	2b 97       	sbiw	r28, 0x0b	; 11
    3c6a:	2a 96       	adiw	r28, 0x0a	; 10
    3c6c:	1f ae       	std	Y+63, r1	; 0x3f
    3c6e:	2a 97       	sbiw	r28, 0x0a	; 10
    3c70:	77 1f       	adc	r23, r23
    3c72:	77 27       	eor	r23, r23
    3c74:	77 1f       	adc	r23, r23
    3c76:	87 2f       	mov	r24, r23
    3c78:	90 e0       	ldi	r25, 0x00	; 0
    3c7a:	88 0f       	add	r24, r24
    3c7c:	99 1f       	adc	r25, r25
    3c7e:	88 0f       	add	r24, r24
    3c80:	99 1f       	adc	r25, r25
    3c82:	66 fb       	bst	r22, 6
    3c84:	66 27       	eor	r22, r22
    3c86:	60 f9       	bld	r22, 0
    3c88:	2c 96       	adiw	r28, 0x0c	; 12
    3c8a:	6f af       	std	Y+63, r22	; 0x3f
    3c8c:	2c 97       	sbiw	r28, 0x0c	; 12
    3c8e:	2d 96       	adiw	r28, 0x0d	; 13
    3c90:	1f ae       	std	Y+63, r1	; 0x3f
    3c92:	2d 97       	sbiw	r28, 0x0d	; 13
    3c94:	2d 96       	adiw	r28, 0x0d	; 13
    3c96:	2e ad       	ldd	r18, Y+62	; 0x3e
    3c98:	3f ad       	ldd	r19, Y+63	; 0x3f
    3c9a:	2d 97       	sbiw	r28, 0x0d	; 13
    3c9c:	82 2b       	or	r24, r18
    3c9e:	93 2b       	or	r25, r19
    3ca0:	52 95       	swap	r21
    3ca2:	51 70       	andi	r21, 0x01	; 1
    3ca4:	2e 96       	adiw	r28, 0x0e	; 14
    3ca6:	5f af       	std	Y+63, r21	; 0x3f
    3ca8:	2e 97       	sbiw	r28, 0x0e	; 14
    3caa:	2f 96       	adiw	r28, 0x0f	; 15
    3cac:	1f ae       	std	Y+63, r1	; 0x3f
    3cae:	2f 97       	sbiw	r28, 0x0f	; 15
    3cb0:	2f 96       	adiw	r28, 0x0f	; 15
    3cb2:	2e ad       	ldd	r18, Y+62	; 0x3e
    3cb4:	3f ad       	ldd	r19, Y+63	; 0x3f
    3cb6:	2f 97       	sbiw	r28, 0x0f	; 15
    3cb8:	22 0f       	add	r18, r18
    3cba:	33 1f       	adc	r19, r19
    3cbc:	82 2b       	or	r24, r18
    3cbe:	93 2b       	or	r25, r19
    3cc0:	45 fb       	bst	r20, 5
    3cc2:	44 27       	eor	r20, r20
    3cc4:	40 f9       	bld	r20, 0
    3cc6:	60 96       	adiw	r28, 0x10	; 16
    3cc8:	4f af       	std	Y+63, r20	; 0x3f
    3cca:	60 97       	sbiw	r28, 0x10	; 16
    3ccc:	61 96       	adiw	r28, 0x11	; 17
    3cce:	1f ae       	std	Y+63, r1	; 0x3f
    3cd0:	61 97       	sbiw	r28, 0x11	; 17
    3cd2:	61 96       	adiw	r28, 0x11	; 17
    3cd4:	2e ad       	ldd	r18, Y+62	; 0x3e
    3cd6:	3f ad       	ldd	r19, Y+63	; 0x3f
    3cd8:	61 97       	sbiw	r28, 0x11	; 17
    3cda:	22 0f       	add	r18, r18
    3cdc:	33 1f       	adc	r19, r19
    3cde:	22 0f       	add	r18, r18
    3ce0:	33 1f       	adc	r19, r19
    3ce2:	22 0f       	add	r18, r18
    3ce4:	33 1f       	adc	r19, r19
    3ce6:	82 2b       	or	r24, r18
    3ce8:	93 2b       	or	r25, r19
    3cea:	f8 9f       	mul	r31, r24
    3cec:	90 01       	movw	r18, r0
    3cee:	f9 9f       	mul	r31, r25
    3cf0:	30 0d       	add	r19, r0
    3cf2:	11 24       	eor	r1, r1
    3cf4:	f9 01       	movw	r30, r18
    3cf6:	ec 54       	subi	r30, 0x4C	; 76
    3cf8:	ff 4d       	sbci	r31, 0xDF	; 223
    3cfa:	03 85       	ldd	r16, Z+11	; 0x0b
    3cfc:	14 85       	ldd	r17, Z+12	; 0x0c
    3cfe:	2b 96       	adiw	r28, 0x0b	; 11
    3d00:	4e ad       	ldd	r20, Y+62	; 0x3e
    3d02:	5f ad       	ldd	r21, Y+63	; 0x3f
    3d04:	2b 97       	sbiw	r28, 0x0b	; 11
    3d06:	04 2b       	or	r16, r20
    3d08:	15 2b       	or	r17, r21
    3d0a:	6d 85       	ldd	r22, Y+13	; 0x0d
    3d0c:	7e 85       	ldd	r23, Y+14	; 0x0e
    3d0e:	06 1b       	sub	r16, r22
    3d10:	17 0b       	sbc	r17, r23
    3d12:	80 91 16 24 	lds	r24, 0x2416
    3d16:	90 91 17 24 	lds	r25, 0x2417
    3d1a:	d8 01       	movw	r26, r16
    3d1c:	a8 1b       	sub	r26, r24
    3d1e:	b9 0b       	sbc	r27, r25
    3d20:	cd 01       	movw	r24, r26
    3d22:	9d 01       	movw	r18, r26
    3d24:	22 0f       	add	r18, r18
    3d26:	33 1f       	adc	r19, r19
    3d28:	88 0f       	add	r24, r24
    3d2a:	99 1f       	adc	r25, r25
    3d2c:	88 0f       	add	r24, r24
    3d2e:	99 1f       	adc	r25, r25
    3d30:	88 0f       	add	r24, r24
    3d32:	99 1f       	adc	r25, r25
    3d34:	fc 01       	movw	r30, r24
    3d36:	e2 0f       	add	r30, r18
    3d38:	f3 1f       	adc	r31, r19
    3d3a:	e9 87       	std	Y+9, r30	; 0x09
    3d3c:	fa 87       	std	Y+10, r31	; 0x0a
    3d3e:	cf 01       	movw	r24, r30
    3d40:	c1 96       	adiw	r24, 0x31	; 49
    3d42:	83 36       	cpi	r24, 0x63	; 99
    3d44:	91 05       	cpc	r25, r1
    3d46:	40 f0       	brcs	.+16     	; 0x3d58 <main+0xd5c>
    3d48:	e1 36       	cpi	r30, 0x61	; 97
    3d4a:	29 e0       	ldi	r18, 0x09	; 9
    3d4c:	f2 07       	cpc	r31, r18
    3d4e:	3c f4       	brge	.+14     	; 0x3d5e <main+0xd62>
    3d50:	e0 3a       	cpi	r30, 0xA0	; 160
    3d52:	f6 4f       	sbci	r31, 0xF6	; 246
    3d54:	3c f0       	brlt	.+14     	; 0x3d64 <main+0xd68>
    3d56:	08 c0       	rjmp	.+16     	; 0x3d68 <main+0xd6c>
    3d58:	19 86       	std	Y+9, r1	; 0x09
    3d5a:	1a 86       	std	Y+10, r1	; 0x0a
    3d5c:	05 c0       	rjmp	.+10     	; 0x3d68 <main+0xd6c>
    3d5e:	19 86       	std	Y+9, r1	; 0x09
    3d60:	1a 86       	std	Y+10, r1	; 0x0a
    3d62:	02 c0       	rjmp	.+4      	; 0x3d68 <main+0xd6c>
    3d64:	19 86       	std	Y+9, r1	; 0x09
    3d66:	1a 86       	std	Y+10, r1	; 0x0a
    3d68:	b8 01       	movw	r22, r16
    3d6a:	88 27       	eor	r24, r24
    3d6c:	77 fd       	sbrc	r23, 7
    3d6e:	80 95       	com	r24
    3d70:	98 2f       	mov	r25, r24
    3d72:	b0 d7       	rcall	.+3936   	; 0x4cd4 <__floatsisf>
    3d74:	4b 01       	movw	r8, r22
    3d76:	5c 01       	movw	r10, r24
    3d78:	9b 01       	movw	r18, r22
    3d7a:	ac 01       	movw	r20, r24
    3d7c:	69 81       	ldd	r22, Y+1	; 0x01
    3d7e:	7a 81       	ldd	r23, Y+2	; 0x02
    3d80:	8b 81       	ldd	r24, Y+3	; 0x03
    3d82:	9c 81       	ldd	r25, Y+4	; 0x04
    3d84:	0e 94 1e 27 	call	0x4e3c	; 0x4e3c <__mulsf3>
    3d88:	72 d7       	rcall	.+3812   	; 0x4c6e <__fixsfsi>
    3d8a:	2b 01       	movw	r4, r22
    3d8c:	3c 01       	movw	r6, r24
    3d8e:	a5 01       	movw	r20, r10
    3d90:	94 01       	movw	r18, r8
    3d92:	c7 01       	movw	r24, r14
    3d94:	b6 01       	movw	r22, r12
    3d96:	0e 94 1e 27 	call	0x4e3c	; 0x4e3c <__mulsf3>
    3d9a:	2a e0       	ldi	r18, 0x0A	; 10
    3d9c:	37 ed       	ldi	r19, 0xD7	; 215
    3d9e:	43 ea       	ldi	r20, 0xA3	; 163
    3da0:	5c e3       	ldi	r21, 0x3C	; 60
    3da2:	0e 94 1e 27 	call	0x4e3c	; 0x4e3c <__mulsf3>
    3da6:	20 91 1a 24 	lds	r18, 0x241A
    3daa:	30 91 1b 24 	lds	r19, 0x241B
    3dae:	40 91 1c 24 	lds	r20, 0x241C
    3db2:	50 91 1d 24 	lds	r21, 0x241D
    3db6:	8b d6       	rcall	.+3350   	; 0x4ace <__addsf3>
    3db8:	4b 01       	movw	r8, r22
    3dba:	5c 01       	movw	r10, r24
    3dbc:	60 93 1a 24 	sts	0x241A, r22
    3dc0:	70 93 1b 24 	sts	0x241B, r23
    3dc4:	80 93 1c 24 	sts	0x241C, r24
    3dc8:	90 93 1d 24 	sts	0x241D, r25
    3dcc:	20 e0       	ldi	r18, 0x00	; 0
    3dce:	30 e0       	ldi	r19, 0x00	; 0
    3dd0:	40 ef       	ldi	r20, 0xF0	; 240
    3dd2:	52 e4       	ldi	r21, 0x42	; 66
    3dd4:	0e 94 1a 27 	call	0x4e34	; 0x4e34 <__gesf2>
    3dd8:	18 16       	cp	r1, r24
    3dda:	6c f4       	brge	.+26     	; 0x3df6 <main+0xdfa>
    3ddc:	80 e0       	ldi	r24, 0x00	; 0
    3dde:	90 e0       	ldi	r25, 0x00	; 0
    3de0:	a0 ef       	ldi	r26, 0xF0	; 240
    3de2:	b2 e4       	ldi	r27, 0x42	; 66
    3de4:	80 93 1a 24 	sts	0x241A, r24
    3de8:	90 93 1b 24 	sts	0x241B, r25
    3dec:	a0 93 1c 24 	sts	0x241C, r26
    3df0:	b0 93 1d 24 	sts	0x241D, r27
    3df4:	15 c0       	rjmp	.+42     	; 0x3e20 <main+0xe24>
    3df6:	20 e0       	ldi	r18, 0x00	; 0
    3df8:	30 e0       	ldi	r19, 0x00	; 0
    3dfa:	46 e9       	ldi	r20, 0x96	; 150
    3dfc:	54 ec       	ldi	r21, 0xC4	; 196
    3dfe:	c5 01       	movw	r24, r10
    3e00:	b4 01       	movw	r22, r8
    3e02:	c9 d6       	rcall	.+3474   	; 0x4b96 <__cmpsf2>
    3e04:	88 23       	and	r24, r24
    3e06:	64 f4       	brge	.+24     	; 0x3e20 <main+0xe24>
    3e08:	40 e0       	ldi	r20, 0x00	; 0
    3e0a:	50 e0       	ldi	r21, 0x00	; 0
    3e0c:	60 ef       	ldi	r22, 0xF0	; 240
    3e0e:	72 ec       	ldi	r23, 0xC2	; 194
    3e10:	40 93 1a 24 	sts	0x241A, r20
    3e14:	50 93 1b 24 	sts	0x241B, r21
    3e18:	60 93 1c 24 	sts	0x241C, r22
    3e1c:	70 93 1d 24 	sts	0x241D, r23
    3e20:	c2 01       	movw	r24, r4
    3e22:	80 38       	cpi	r24, 0x80	; 128
    3e24:	91 05       	cpc	r25, r1
    3e26:	14 f0       	brlt	.+4      	; 0x3e2c <main+0xe30>
    3e28:	8f e7       	ldi	r24, 0x7F	; 127
    3e2a:	90 e0       	ldi	r25, 0x00	; 0
    3e2c:	bc 01       	movw	r22, r24
    3e2e:	81 38       	cpi	r24, 0x81	; 129
    3e30:	5f ef       	ldi	r21, 0xFF	; 255
    3e32:	95 07       	cpc	r25, r21
    3e34:	14 f4       	brge	.+4      	; 0x3e3a <main+0xe3e>
    3e36:	61 e8       	ldi	r22, 0x81	; 129
    3e38:	7f ef       	ldi	r23, 0xFF	; 255
    3e3a:	88 27       	eor	r24, r24
    3e3c:	77 fd       	sbrc	r23, 7
    3e3e:	80 95       	com	r24
    3e40:	98 2f       	mov	r25, r24
    3e42:	48 d7       	rcall	.+3728   	; 0x4cd4 <__floatsisf>
    3e44:	20 91 1a 24 	lds	r18, 0x241A
    3e48:	30 91 1b 24 	lds	r19, 0x241B
    3e4c:	40 91 1c 24 	lds	r20, 0x241C
    3e50:	50 91 1d 24 	lds	r21, 0x241D
    3e54:	3c d6       	rcall	.+3192   	; 0x4ace <__addsf3>
    3e56:	4b 01       	movw	r8, r22
    3e58:	5c 01       	movw	r10, r24
    3e5a:	a9 85       	ldd	r26, Y+9	; 0x09
    3e5c:	ba 85       	ldd	r27, Y+10	; 0x0a
    3e5e:	bd 01       	movw	r22, r26
    3e60:	88 27       	eor	r24, r24
    3e62:	77 fd       	sbrc	r23, 7
    3e64:	80 95       	com	r24
    3e66:	98 2f       	mov	r25, r24
    3e68:	35 d7       	rcall	.+3690   	; 0x4cd4 <__floatsisf>
    3e6a:	9b 01       	movw	r18, r22
    3e6c:	ac 01       	movw	r20, r24
    3e6e:	6d 81       	ldd	r22, Y+5	; 0x05
    3e70:	7e 81       	ldd	r23, Y+6	; 0x06
    3e72:	8f 81       	ldd	r24, Y+7	; 0x07
    3e74:	98 85       	ldd	r25, Y+8	; 0x08
    3e76:	e2 d7       	rcall	.+4036   	; 0x4e3c <__mulsf3>
    3e78:	9b 01       	movw	r18, r22
    3e7a:	ac 01       	movw	r20, r24
    3e7c:	c5 01       	movw	r24, r10
    3e7e:	b4 01       	movw	r22, r8
    3e80:	26 d6       	rcall	.+3148   	; 0x4ace <__addsf3>
    3e82:	f5 d6       	rcall	.+3562   	; 0x4c6e <__fixsfsi>
    3e84:	60 38       	cpi	r22, 0x80	; 128
    3e86:	71 05       	cpc	r23, r1
    3e88:	14 f0       	brlt	.+4      	; 0x3e8e <main+0xe92>
    3e8a:	6f e7       	ldi	r22, 0x7F	; 127
    3e8c:	70 e0       	ldi	r23, 0x00	; 0
    3e8e:	00 93 16 24 	sts	0x2416, r16
    3e92:	10 93 17 24 	sts	0x2417, r17
    3e96:	e9 85       	ldd	r30, Y+9	; 0x09
    3e98:	fa 85       	ldd	r31, Y+10	; 0x0a
    3e9a:	e0 93 18 24 	sts	0x2418, r30
    3e9e:	f0 93 19 24 	sts	0x2419, r31
    3ea2:	61 38       	cpi	r22, 0x81	; 129
    3ea4:	ff ef       	ldi	r31, 0xFF	; 255
    3ea6:	7f 07       	cpc	r23, r31
    3ea8:	14 f4       	brge	.+4      	; 0x3eae <main+0xeb2>
    3eaa:	61 e8       	ldi	r22, 0x81	; 129
    3eac:	7f ef       	ldi	r23, 0xFF	; 255
    3eae:	60 93 1e 24 	sts	0x241E, r22
    3eb2:	e8 e0       	ldi	r30, 0x08	; 8
    3eb4:	f6 e0       	ldi	r31, 0x06	; 6
    3eb6:	60 81       	ld	r22, Z
    3eb8:	50 81       	ld	r21, Z
    3eba:	70 81       	ld	r23, Z
    3ebc:	40 81       	ld	r20, Z
    3ebe:	90 81       	ld	r25, Z
    3ec0:	80 81       	ld	r24, Z
    3ec2:	20 81       	ld	r18, Z
    3ec4:	e0 81       	ld	r30, Z
    3ec6:	22 1f       	adc	r18, r18
    3ec8:	22 27       	eor	r18, r18
    3eca:	22 1f       	adc	r18, r18
    3ecc:	30 e0       	ldi	r19, 0x00	; 0
    3ece:	22 0f       	add	r18, r18
    3ed0:	33 1f       	adc	r19, r19
    3ed2:	22 0f       	add	r18, r18
    3ed4:	33 1f       	adc	r19, r19
    3ed6:	96 fb       	bst	r25, 6
    3ed8:	99 27       	eor	r25, r25
    3eda:	90 f9       	bld	r25, 0
    3edc:	62 96       	adiw	r28, 0x12	; 18
    3ede:	9f af       	std	Y+63, r25	; 0x3f
    3ee0:	62 97       	sbiw	r28, 0x12	; 18
    3ee2:	63 96       	adiw	r28, 0x13	; 19
    3ee4:	1f ae       	std	Y+63, r1	; 0x3f
    3ee6:	63 97       	sbiw	r28, 0x13	; 19
    3ee8:	63 96       	adiw	r28, 0x13	; 19
    3eea:	ae ad       	ldd	r26, Y+62	; 0x3e
    3eec:	bf ad       	ldd	r27, Y+63	; 0x3f
    3eee:	63 97       	sbiw	r28, 0x13	; 19
    3ef0:	2a 2b       	or	r18, r26
    3ef2:	3b 2b       	or	r19, r27
    3ef4:	82 95       	swap	r24
    3ef6:	81 70       	andi	r24, 0x01	; 1
    3ef8:	64 96       	adiw	r28, 0x14	; 20
    3efa:	8f af       	std	Y+63, r24	; 0x3f
    3efc:	64 97       	sbiw	r28, 0x14	; 20
    3efe:	65 96       	adiw	r28, 0x15	; 21
    3f00:	1f ae       	std	Y+63, r1	; 0x3f
    3f02:	65 97       	sbiw	r28, 0x15	; 21
    3f04:	65 96       	adiw	r28, 0x15	; 21
    3f06:	8e ad       	ldd	r24, Y+62	; 0x3e
    3f08:	9f ad       	ldd	r25, Y+63	; 0x3f
    3f0a:	65 97       	sbiw	r28, 0x15	; 21
    3f0c:	88 0f       	add	r24, r24
    3f0e:	99 1f       	adc	r25, r25
    3f10:	28 2b       	or	r18, r24
    3f12:	39 2b       	or	r19, r25
    3f14:	e5 fb       	bst	r30, 5
    3f16:	ee 27       	eor	r30, r30
    3f18:	e0 f9       	bld	r30, 0
    3f1a:	66 96       	adiw	r28, 0x16	; 22
    3f1c:	ef af       	std	Y+63, r30	; 0x3f
    3f1e:	66 97       	sbiw	r28, 0x16	; 22
    3f20:	67 96       	adiw	r28, 0x17	; 23
    3f22:	1f ae       	std	Y+63, r1	; 0x3f
    3f24:	67 97       	sbiw	r28, 0x17	; 23
    3f26:	67 96       	adiw	r28, 0x17	; 23
    3f28:	8e ad       	ldd	r24, Y+62	; 0x3e
    3f2a:	9f ad       	ldd	r25, Y+63	; 0x3f
    3f2c:	67 97       	sbiw	r28, 0x17	; 23
    3f2e:	88 0f       	add	r24, r24
    3f30:	99 1f       	adc	r25, r25
    3f32:	88 0f       	add	r24, r24
    3f34:	99 1f       	adc	r25, r25
    3f36:	88 0f       	add	r24, r24
    3f38:	99 1f       	adc	r25, r25
    3f3a:	28 2b       	or	r18, r24
    3f3c:	39 2b       	or	r19, r25
    3f3e:	f7 e1       	ldi	r31, 0x17	; 23
    3f40:	f2 9f       	mul	r31, r18
    3f42:	c0 01       	movw	r24, r0
    3f44:	f3 9f       	mul	r31, r19
    3f46:	90 0d       	add	r25, r0
    3f48:	11 24       	eor	r1, r1
    3f4a:	dc 01       	movw	r26, r24
    3f4c:	ac 54       	subi	r26, 0x4C	; 76
    3f4e:	bf 4d       	sbci	r27, 0xDF	; 223
    3f50:	1d 96       	adiw	r26, 0x0d	; 13
    3f52:	ec 91       	ld	r30, X
    3f54:	69 96       	adiw	r28, 0x19	; 25
    3f56:	ef af       	std	Y+63, r30	; 0x3f
    3f58:	69 97       	sbiw	r28, 0x19	; 25
    3f5a:	68 96       	adiw	r28, 0x18	; 24
    3f5c:	1f ae       	std	Y+63, r1	; 0x3f
    3f5e:	68 97       	sbiw	r28, 0x18	; 24
    3f60:	77 1f       	adc	r23, r23
    3f62:	77 27       	eor	r23, r23
    3f64:	77 1f       	adc	r23, r23
    3f66:	87 2f       	mov	r24, r23
    3f68:	90 e0       	ldi	r25, 0x00	; 0
    3f6a:	88 0f       	add	r24, r24
    3f6c:	99 1f       	adc	r25, r25
    3f6e:	88 0f       	add	r24, r24
    3f70:	99 1f       	adc	r25, r25
    3f72:	66 fb       	bst	r22, 6
    3f74:	66 27       	eor	r22, r22
    3f76:	60 f9       	bld	r22, 0
    3f78:	6a 96       	adiw	r28, 0x1a	; 26
    3f7a:	6f af       	std	Y+63, r22	; 0x3f
    3f7c:	6a 97       	sbiw	r28, 0x1a	; 26
    3f7e:	6b 96       	adiw	r28, 0x1b	; 27
    3f80:	1f ae       	std	Y+63, r1	; 0x3f
    3f82:	6b 97       	sbiw	r28, 0x1b	; 27
    3f84:	6b 96       	adiw	r28, 0x1b	; 27
    3f86:	2e ad       	ldd	r18, Y+62	; 0x3e
    3f88:	3f ad       	ldd	r19, Y+63	; 0x3f
    3f8a:	6b 97       	sbiw	r28, 0x1b	; 27
    3f8c:	82 2b       	or	r24, r18
    3f8e:	93 2b       	or	r25, r19
    3f90:	52 95       	swap	r21
    3f92:	51 70       	andi	r21, 0x01	; 1
    3f94:	6c 96       	adiw	r28, 0x1c	; 28
    3f96:	5f af       	std	Y+63, r21	; 0x3f
    3f98:	6c 97       	sbiw	r28, 0x1c	; 28
    3f9a:	6d 96       	adiw	r28, 0x1d	; 29
    3f9c:	1f ae       	std	Y+63, r1	; 0x3f
    3f9e:	6d 97       	sbiw	r28, 0x1d	; 29
    3fa0:	6d 96       	adiw	r28, 0x1d	; 29
    3fa2:	2e ad       	ldd	r18, Y+62	; 0x3e
    3fa4:	3f ad       	ldd	r19, Y+63	; 0x3f
    3fa6:	6d 97       	sbiw	r28, 0x1d	; 29
    3fa8:	22 0f       	add	r18, r18
    3faa:	33 1f       	adc	r19, r19
    3fac:	82 2b       	or	r24, r18
    3fae:	93 2b       	or	r25, r19
    3fb0:	45 fb       	bst	r20, 5
    3fb2:	44 27       	eor	r20, r20
    3fb4:	40 f9       	bld	r20, 0
    3fb6:	6e 96       	adiw	r28, 0x1e	; 30
    3fb8:	4f af       	std	Y+63, r20	; 0x3f
    3fba:	6e 97       	sbiw	r28, 0x1e	; 30
    3fbc:	6f 96       	adiw	r28, 0x1f	; 31
    3fbe:	1f ae       	std	Y+63, r1	; 0x3f
    3fc0:	6f 97       	sbiw	r28, 0x1f	; 31
    3fc2:	6f 96       	adiw	r28, 0x1f	; 31
    3fc4:	2e ad       	ldd	r18, Y+62	; 0x3e
    3fc6:	3f ad       	ldd	r19, Y+63	; 0x3f
    3fc8:	6f 97       	sbiw	r28, 0x1f	; 31
    3fca:	22 0f       	add	r18, r18
    3fcc:	33 1f       	adc	r19, r19
    3fce:	22 0f       	add	r18, r18
    3fd0:	33 1f       	adc	r19, r19
    3fd2:	22 0f       	add	r18, r18
    3fd4:	33 1f       	adc	r19, r19
    3fd6:	82 2b       	or	r24, r18
    3fd8:	93 2b       	or	r25, r19
    3fda:	f8 9f       	mul	r31, r24
    3fdc:	90 01       	movw	r18, r0
    3fde:	f9 9f       	mul	r31, r25
    3fe0:	30 0d       	add	r19, r0
    3fe2:	11 24       	eor	r1, r1
    3fe4:	f9 01       	movw	r30, r18
    3fe6:	ec 54       	subi	r30, 0x4C	; 76
    3fe8:	ff 4d       	sbci	r31, 0xDF	; 223
    3fea:	07 85       	ldd	r16, Z+15	; 0x0f
    3fec:	10 89       	ldd	r17, Z+16	; 0x10
    3fee:	69 96       	adiw	r28, 0x19	; 25
    3ff0:	4e ad       	ldd	r20, Y+62	; 0x3e
    3ff2:	5f ad       	ldd	r21, Y+63	; 0x3f
    3ff4:	69 97       	sbiw	r28, 0x19	; 25
    3ff6:	04 2b       	or	r16, r20
    3ff8:	15 2b       	or	r17, r21
    3ffa:	69 89       	ldd	r22, Y+17	; 0x11
    3ffc:	7a 89       	ldd	r23, Y+18	; 0x12
    3ffe:	06 1b       	sub	r16, r22
    4000:	17 0b       	sbc	r17, r23
    4002:	80 91 af 23 	lds	r24, 0x23AF
    4006:	90 91 b0 23 	lds	r25, 0x23B0
    400a:	d8 01       	movw	r26, r16
    400c:	a8 1b       	sub	r26, r24
    400e:	b9 0b       	sbc	r27, r25
    4010:	cd 01       	movw	r24, r26
    4012:	9d 01       	movw	r18, r26
    4014:	22 0f       	add	r18, r18
    4016:	33 1f       	adc	r19, r19
    4018:	88 0f       	add	r24, r24
    401a:	99 1f       	adc	r25, r25
    401c:	88 0f       	add	r24, r24
    401e:	99 1f       	adc	r25, r25
    4020:	88 0f       	add	r24, r24
    4022:	99 1f       	adc	r25, r25
    4024:	fc 01       	movw	r30, r24
    4026:	e2 0f       	add	r30, r18
    4028:	f3 1f       	adc	r31, r19
    402a:	e9 87       	std	Y+9, r30	; 0x09
    402c:	fa 87       	std	Y+10, r31	; 0x0a
    402e:	cf 01       	movw	r24, r30
    4030:	c1 96       	adiw	r24, 0x31	; 49
    4032:	83 36       	cpi	r24, 0x63	; 99
    4034:	91 05       	cpc	r25, r1
    4036:	40 f0       	brcs	.+16     	; 0x4048 <__stack+0x49>
    4038:	e1 36       	cpi	r30, 0x61	; 97
    403a:	29 e0       	ldi	r18, 0x09	; 9
    403c:	f2 07       	cpc	r31, r18
    403e:	3c f4       	brge	.+14     	; 0x404e <__stack+0x4f>
    4040:	e0 3a       	cpi	r30, 0xA0	; 160
    4042:	f6 4f       	sbci	r31, 0xF6	; 246
    4044:	3c f0       	brlt	.+14     	; 0x4054 <__stack+0x55>
    4046:	08 c0       	rjmp	.+16     	; 0x4058 <__stack+0x59>
    4048:	19 86       	std	Y+9, r1	; 0x09
    404a:	1a 86       	std	Y+10, r1	; 0x0a
    404c:	05 c0       	rjmp	.+10     	; 0x4058 <__stack+0x59>
    404e:	19 86       	std	Y+9, r1	; 0x09
    4050:	1a 86       	std	Y+10, r1	; 0x0a
    4052:	02 c0       	rjmp	.+4      	; 0x4058 <__stack+0x59>
    4054:	19 86       	std	Y+9, r1	; 0x09
    4056:	1a 86       	std	Y+10, r1	; 0x0a
    4058:	b8 01       	movw	r22, r16
    405a:	88 27       	eor	r24, r24
    405c:	77 fd       	sbrc	r23, 7
    405e:	80 95       	com	r24
    4060:	98 2f       	mov	r25, r24
    4062:	38 d6       	rcall	.+3184   	; 0x4cd4 <__floatsisf>
    4064:	4b 01       	movw	r8, r22
    4066:	5c 01       	movw	r10, r24
    4068:	9b 01       	movw	r18, r22
    406a:	ac 01       	movw	r20, r24
    406c:	69 81       	ldd	r22, Y+1	; 0x01
    406e:	7a 81       	ldd	r23, Y+2	; 0x02
    4070:	8b 81       	ldd	r24, Y+3	; 0x03
    4072:	9c 81       	ldd	r25, Y+4	; 0x04
    4074:	e3 d6       	rcall	.+3526   	; 0x4e3c <__mulsf3>
    4076:	fb d5       	rcall	.+3062   	; 0x4c6e <__fixsfsi>
    4078:	2b 01       	movw	r4, r22
    407a:	3c 01       	movw	r6, r24
    407c:	a5 01       	movw	r20, r10
    407e:	94 01       	movw	r18, r8
    4080:	c7 01       	movw	r24, r14
    4082:	b6 01       	movw	r22, r12
    4084:	db d6       	rcall	.+3510   	; 0x4e3c <__mulsf3>
    4086:	2a e0       	ldi	r18, 0x0A	; 10
    4088:	37 ed       	ldi	r19, 0xD7	; 215
    408a:	43 ea       	ldi	r20, 0xA3	; 163
    408c:	5c e3       	ldi	r21, 0x3C	; 60
    408e:	d6 d6       	rcall	.+3500   	; 0x4e3c <__mulsf3>
    4090:	20 91 b3 23 	lds	r18, 0x23B3
    4094:	30 91 b4 23 	lds	r19, 0x23B4
    4098:	40 91 b5 23 	lds	r20, 0x23B5
    409c:	50 91 b6 23 	lds	r21, 0x23B6
    40a0:	16 d5       	rcall	.+2604   	; 0x4ace <__addsf3>
    40a2:	6b 01       	movw	r12, r22
    40a4:	7c 01       	movw	r14, r24
    40a6:	60 93 b3 23 	sts	0x23B3, r22
    40aa:	70 93 b4 23 	sts	0x23B4, r23
    40ae:	80 93 b5 23 	sts	0x23B5, r24
    40b2:	90 93 b6 23 	sts	0x23B6, r25
    40b6:	20 e0       	ldi	r18, 0x00	; 0
    40b8:	30 e0       	ldi	r19, 0x00	; 0
    40ba:	40 ef       	ldi	r20, 0xF0	; 240
    40bc:	52 e4       	ldi	r21, 0x42	; 66
    40be:	ba d6       	rcall	.+3444   	; 0x4e34 <__gesf2>
    40c0:	18 16       	cp	r1, r24
    40c2:	6c f4       	brge	.+26     	; 0x40de <__stack+0xdf>
    40c4:	80 e0       	ldi	r24, 0x00	; 0
    40c6:	90 e0       	ldi	r25, 0x00	; 0
    40c8:	a0 ef       	ldi	r26, 0xF0	; 240
    40ca:	b2 e4       	ldi	r27, 0x42	; 66
    40cc:	80 93 b3 23 	sts	0x23B3, r24
    40d0:	90 93 b4 23 	sts	0x23B4, r25
    40d4:	a0 93 b5 23 	sts	0x23B5, r26
    40d8:	b0 93 b6 23 	sts	0x23B6, r27
    40dc:	15 c0       	rjmp	.+42     	; 0x4108 <__stack+0x109>
    40de:	20 e0       	ldi	r18, 0x00	; 0
    40e0:	30 e0       	ldi	r19, 0x00	; 0
    40e2:	46 e9       	ldi	r20, 0x96	; 150
    40e4:	54 ec       	ldi	r21, 0xC4	; 196
    40e6:	c7 01       	movw	r24, r14
    40e8:	b6 01       	movw	r22, r12
    40ea:	55 d5       	rcall	.+2730   	; 0x4b96 <__cmpsf2>
    40ec:	88 23       	and	r24, r24
    40ee:	64 f4       	brge	.+24     	; 0x4108 <__stack+0x109>
    40f0:	40 e0       	ldi	r20, 0x00	; 0
    40f2:	50 e0       	ldi	r21, 0x00	; 0
    40f4:	60 ef       	ldi	r22, 0xF0	; 240
    40f6:	72 ec       	ldi	r23, 0xC2	; 194
    40f8:	40 93 b3 23 	sts	0x23B3, r20
    40fc:	50 93 b4 23 	sts	0x23B4, r21
    4100:	60 93 b5 23 	sts	0x23B5, r22
    4104:	70 93 b6 23 	sts	0x23B6, r23
    4108:	c2 01       	movw	r24, r4
    410a:	80 38       	cpi	r24, 0x80	; 128
    410c:	91 05       	cpc	r25, r1
    410e:	14 f0       	brlt	.+4      	; 0x4114 <__stack+0x115>
    4110:	8f e7       	ldi	r24, 0x7F	; 127
    4112:	90 e0       	ldi	r25, 0x00	; 0
    4114:	81 38       	cpi	r24, 0x81	; 129
    4116:	5f ef       	ldi	r21, 0xFF	; 255
    4118:	95 07       	cpc	r25, r21
    411a:	14 f4       	brge	.+4      	; 0x4120 <__stack+0x121>
    411c:	81 e8       	ldi	r24, 0x81	; 129
    411e:	9f ef       	ldi	r25, 0xFF	; 255
    4120:	bc 01       	movw	r22, r24
    4122:	88 27       	eor	r24, r24
    4124:	77 fd       	sbrc	r23, 7
    4126:	80 95       	com	r24
    4128:	98 2f       	mov	r25, r24
    412a:	d4 d5       	rcall	.+2984   	; 0x4cd4 <__floatsisf>
    412c:	20 91 b3 23 	lds	r18, 0x23B3
    4130:	30 91 b4 23 	lds	r19, 0x23B4
    4134:	40 91 b5 23 	lds	r20, 0x23B5
    4138:	50 91 b6 23 	lds	r21, 0x23B6
    413c:	c8 d4       	rcall	.+2448   	; 0x4ace <__addsf3>
    413e:	6b 01       	movw	r12, r22
    4140:	7c 01       	movw	r14, r24
    4142:	a9 85       	ldd	r26, Y+9	; 0x09
    4144:	ba 85       	ldd	r27, Y+10	; 0x0a
    4146:	bd 01       	movw	r22, r26
    4148:	88 27       	eor	r24, r24
    414a:	77 fd       	sbrc	r23, 7
    414c:	80 95       	com	r24
    414e:	98 2f       	mov	r25, r24
    4150:	c1 d5       	rcall	.+2946   	; 0x4cd4 <__floatsisf>
    4152:	9b 01       	movw	r18, r22
    4154:	ac 01       	movw	r20, r24
    4156:	6d 81       	ldd	r22, Y+5	; 0x05
    4158:	7e 81       	ldd	r23, Y+6	; 0x06
    415a:	8f 81       	ldd	r24, Y+7	; 0x07
    415c:	98 85       	ldd	r25, Y+8	; 0x08
    415e:	6e d6       	rcall	.+3292   	; 0x4e3c <__mulsf3>
    4160:	9b 01       	movw	r18, r22
    4162:	ac 01       	movw	r20, r24
    4164:	c7 01       	movw	r24, r14
    4166:	b6 01       	movw	r22, r12
    4168:	b2 d4       	rcall	.+2404   	; 0x4ace <__addsf3>
    416a:	81 d5       	rcall	.+2818   	; 0x4c6e <__fixsfsi>
    416c:	cb 01       	movw	r24, r22
    416e:	60 38       	cpi	r22, 0x80	; 128
    4170:	71 05       	cpc	r23, r1
    4172:	14 f0       	brlt	.+4      	; 0x4178 <__stack+0x179>
    4174:	8f e7       	ldi	r24, 0x7F	; 127
    4176:	90 e0       	ldi	r25, 0x00	; 0
    4178:	00 93 af 23 	sts	0x23AF, r16
    417c:	10 93 b0 23 	sts	0x23B0, r17
    4180:	e9 85       	ldd	r30, Y+9	; 0x09
    4182:	fa 85       	ldd	r31, Y+10	; 0x0a
    4184:	e0 93 b1 23 	sts	0x23B1, r30
    4188:	f0 93 b2 23 	sts	0x23B2, r31
    418c:	81 38       	cpi	r24, 0x81	; 129
    418e:	ff ef       	ldi	r31, 0xFF	; 255
    4190:	9f 07       	cpc	r25, r31
    4192:	14 f4       	brge	.+4      	; 0x4198 <__stack+0x199>
    4194:	81 e8       	ldi	r24, 0x81	; 129
    4196:	9f ef       	ldi	r25, 0xFF	; 255
    4198:	80 93 b7 23 	sts	0x23B7, r24
    419c:	6a e2       	ldi	r22, 0x2A	; 42
    419e:	80 ea       	ldi	r24, 0xA0	; 160
    41a0:	9b e0       	ldi	r25, 0x0B	; 11
    41a2:	0e 94 72 0e 	call	0x1ce4	; 0x1ce4 <usart_putchar>
    41a6:	6e e7       	ldi	r22, 0x7E	; 126
    41a8:	80 ea       	ldi	r24, 0xA0	; 160
    41aa:	9b e0       	ldi	r25, 0x0B	; 11
    41ac:	0e 94 72 0e 	call	0x1ce4	; 0x1ce4 <usart_putchar>
    41b0:	60 91 85 23 	lds	r22, 0x2385
    41b4:	80 ea       	ldi	r24, 0xA0	; 160
    41b6:	9b e0       	ldi	r25, 0x0B	; 11
    41b8:	0e 94 72 0e 	call	0x1ce4	; 0x1ce4 <usart_putchar>
    41bc:	60 91 0a 24 	lds	r22, 0x240A
    41c0:	80 ea       	ldi	r24, 0xA0	; 160
    41c2:	9b e0       	ldi	r25, 0x0B	; 11
    41c4:	0e 94 72 0e 	call	0x1ce4	; 0x1ce4 <usart_putchar>
    41c8:	60 91 1e 24 	lds	r22, 0x241E
    41cc:	80 ea       	ldi	r24, 0xA0	; 160
    41ce:	9b e0       	ldi	r25, 0x0B	; 11
    41d0:	0e 94 72 0e 	call	0x1ce4	; 0x1ce4 <usart_putchar>
    41d4:	60 91 b7 23 	lds	r22, 0x23B7
    41d8:	80 ea       	ldi	r24, 0xA0	; 160
    41da:	9b e0       	ldi	r25, 0x0B	; 11
    41dc:	0e 94 72 0e 	call	0x1ce4	; 0x1ce4 <usart_putchar>
    41e0:	80 91 52 23 	lds	r24, 0x2352
    41e4:	0e 94 d8 17 	call	0x2fb0	; 0x2fb0 <send_ask>
    41e8:	63 e2       	ldi	r22, 0x23	; 35
    41ea:	80 ea       	ldi	r24, 0xA0	; 160
    41ec:	9b e0       	ldi	r25, 0x0B	; 11
    41ee:	0e 94 72 0e 	call	0x1ce4	; 0x1ce4 <usart_putchar>
    41f2:	2f b7       	in	r18, 0x3f	; 63
    41f4:	f8 94       	cli
    41f6:	e0 e0       	ldi	r30, 0x00	; 0
    41f8:	f2 e0       	ldi	r31, 0x02	; 2
    41fa:	84 a1       	ldd	r24, Z+36	; 0x24
    41fc:	95 a1       	ldd	r25, Z+37	; 0x25
    41fe:	2f bf       	out	0x3f, r18	; 63
    4200:	80 93 a7 20 	sts	0x20A7, r24
    4204:	90 93 a8 20 	sts	0x20A8, r25
    4208:	89 3d       	cpi	r24, 0xD9	; 217
    420a:	94 40       	sbci	r25, 0x04	; 4
    420c:	3c f4       	brge	.+14     	; 0x421c <__stack+0x21d>
    420e:	e0 e4       	ldi	r30, 0x40	; 64
    4210:	f6 e0       	ldi	r31, 0x06	; 6
    4212:	80 e4       	ldi	r24, 0x40	; 64
    4214:	85 83       	std	Z+5, r24	; 0x05
    4216:	84 e0       	ldi	r24, 0x04	; 4
    4218:	85 83       	std	Z+5, r24	; 0x05
    421a:	06 c0       	rjmp	.+12     	; 0x4228 <__stack+0x229>
    421c:	e0 e4       	ldi	r30, 0x40	; 64
    421e:	f6 e0       	ldi	r31, 0x06	; 6
    4220:	80 e4       	ldi	r24, 0x40	; 64
    4222:	86 83       	std	Z+6, r24	; 0x06
    4224:	84 e0       	ldi	r24, 0x04	; 4
    4226:	86 83       	std	Z+6, r24	; 0x06
    4228:	60 e0       	ldi	r22, 0x00	; 0
    422a:	80 e0       	ldi	r24, 0x00	; 0
    422c:	0e 94 7b 02 	call	0x4f6	; 0x4f6 <LCDGotoXY>
    4230:	0f 2e       	mov	r0, r31
    4232:	f8 e0       	ldi	r31, 0x08	; 8
    4234:	cf 2e       	mov	r12, r31
    4236:	f6 e0       	ldi	r31, 0x06	; 6
    4238:	df 2e       	mov	r13, r31
    423a:	f0 2d       	mov	r31, r0
    423c:	d6 01       	movw	r26, r12
    423e:	6c 91       	ld	r22, X
    4240:	5c 91       	ld	r21, X
    4242:	7c 91       	ld	r23, X
    4244:	4c 91       	ld	r20, X
    4246:	1c 91       	ld	r17, X
    4248:	fc 91       	ld	r31, X
    424a:	8c 91       	ld	r24, X
    424c:	ec 91       	ld	r30, X
    424e:	90 91 85 23 	lds	r25, 0x2385
    4252:	29 2f       	mov	r18, r25
    4254:	33 27       	eor	r19, r19
    4256:	27 fd       	sbrc	r18, 7
    4258:	30 95       	com	r19
    425a:	3f 93       	push	r19
    425c:	9f 93       	push	r25
    425e:	88 1f       	adc	r24, r24
    4260:	88 27       	eor	r24, r24
    4262:	88 1f       	adc	r24, r24
    4264:	90 e0       	ldi	r25, 0x00	; 0
    4266:	88 0f       	add	r24, r24
    4268:	99 1f       	adc	r25, r25
    426a:	88 0f       	add	r24, r24
    426c:	99 1f       	adc	r25, r25
    426e:	16 fb       	bst	r17, 6
    4270:	11 27       	eor	r17, r17
    4272:	10 f9       	bld	r17, 0
    4274:	a0 96       	adiw	r28, 0x20	; 32
    4276:	1f af       	std	Y+63, r17	; 0x3f
    4278:	a0 97       	sbiw	r28, 0x20	; 32
    427a:	a1 96       	adiw	r28, 0x21	; 33
    427c:	1f ae       	std	Y+63, r1	; 0x3f
    427e:	a1 97       	sbiw	r28, 0x21	; 33
    4280:	a1 96       	adiw	r28, 0x21	; 33
    4282:	2e ad       	ldd	r18, Y+62	; 0x3e
    4284:	3f ad       	ldd	r19, Y+63	; 0x3f
    4286:	a1 97       	sbiw	r28, 0x21	; 33
    4288:	82 2b       	or	r24, r18
    428a:	93 2b       	or	r25, r19
    428c:	f2 95       	swap	r31
    428e:	f1 70       	andi	r31, 0x01	; 1
    4290:	a2 96       	adiw	r28, 0x22	; 34
    4292:	ff af       	std	Y+63, r31	; 0x3f
    4294:	a2 97       	sbiw	r28, 0x22	; 34
    4296:	a3 96       	adiw	r28, 0x23	; 35
    4298:	1f ae       	std	Y+63, r1	; 0x3f
    429a:	a3 97       	sbiw	r28, 0x23	; 35
    429c:	a3 96       	adiw	r28, 0x23	; 35
    429e:	2e ad       	ldd	r18, Y+62	; 0x3e
    42a0:	3f ad       	ldd	r19, Y+63	; 0x3f
    42a2:	a3 97       	sbiw	r28, 0x23	; 35
    42a4:	22 0f       	add	r18, r18
    42a6:	33 1f       	adc	r19, r19
    42a8:	82 2b       	or	r24, r18
    42aa:	93 2b       	or	r25, r19
    42ac:	e5 fb       	bst	r30, 5
    42ae:	ee 27       	eor	r30, r30
    42b0:	e0 f9       	bld	r30, 0
    42b2:	a4 96       	adiw	r28, 0x24	; 36
    42b4:	ef af       	std	Y+63, r30	; 0x3f
    42b6:	a4 97       	sbiw	r28, 0x24	; 36
    42b8:	a5 96       	adiw	r28, 0x25	; 37
    42ba:	1f ae       	std	Y+63, r1	; 0x3f
    42bc:	a5 97       	sbiw	r28, 0x25	; 37
    42be:	a5 96       	adiw	r28, 0x25	; 37
    42c0:	2e ad       	ldd	r18, Y+62	; 0x3e
    42c2:	3f ad       	ldd	r19, Y+63	; 0x3f
    42c4:	a5 97       	sbiw	r28, 0x25	; 37
    42c6:	22 0f       	add	r18, r18
    42c8:	33 1f       	adc	r19, r19
    42ca:	22 0f       	add	r18, r18
    42cc:	33 1f       	adc	r19, r19
    42ce:	22 0f       	add	r18, r18
    42d0:	33 1f       	adc	r19, r19
    42d2:	82 2b       	or	r24, r18
    42d4:	93 2b       	or	r25, r19
    42d6:	0f 2e       	mov	r0, r31
    42d8:	f7 e1       	ldi	r31, 0x17	; 23
    42da:	ff 2e       	mov	r15, r31
    42dc:	f0 2d       	mov	r31, r0
    42de:	f8 9e       	mul	r15, r24
    42e0:	f0 01       	movw	r30, r0
    42e2:	f9 9e       	mul	r15, r25
    42e4:	f0 0d       	add	r31, r0
    42e6:	11 24       	eor	r1, r1
    42e8:	ec 54       	subi	r30, 0x4C	; 76
    42ea:	ff 4d       	sbci	r31, 0xDF	; 223
    42ec:	31 81       	ldd	r19, Z+1	; 0x01
    42ee:	a7 96       	adiw	r28, 0x27	; 39
    42f0:	3f af       	std	Y+63, r19	; 0x3f
    42f2:	a7 97       	sbiw	r28, 0x27	; 39
    42f4:	a6 96       	adiw	r28, 0x26	; 38
    42f6:	1f ae       	std	Y+63, r1	; 0x3f
    42f8:	a6 97       	sbiw	r28, 0x26	; 38
    42fa:	77 1f       	adc	r23, r23
    42fc:	77 27       	eor	r23, r23
    42fe:	77 1f       	adc	r23, r23
    4300:	87 2f       	mov	r24, r23
    4302:	90 e0       	ldi	r25, 0x00	; 0
    4304:	88 0f       	add	r24, r24
    4306:	99 1f       	adc	r25, r25
    4308:	88 0f       	add	r24, r24
    430a:	99 1f       	adc	r25, r25
    430c:	66 fb       	bst	r22, 6
    430e:	66 27       	eor	r22, r22
    4310:	60 f9       	bld	r22, 0
    4312:	a8 96       	adiw	r28, 0x28	; 40
    4314:	6f af       	std	Y+63, r22	; 0x3f
    4316:	a8 97       	sbiw	r28, 0x28	; 40
    4318:	a9 96       	adiw	r28, 0x29	; 41
    431a:	1f ae       	std	Y+63, r1	; 0x3f
    431c:	a9 97       	sbiw	r28, 0x29	; 41
    431e:	a9 96       	adiw	r28, 0x29	; 41
    4320:	6e ad       	ldd	r22, Y+62	; 0x3e
    4322:	7f ad       	ldd	r23, Y+63	; 0x3f
    4324:	a9 97       	sbiw	r28, 0x29	; 41
    4326:	86 2b       	or	r24, r22
    4328:	97 2b       	or	r25, r23
    432a:	52 95       	swap	r21
    432c:	51 70       	andi	r21, 0x01	; 1
    432e:	aa 96       	adiw	r28, 0x2a	; 42
    4330:	5f af       	std	Y+63, r21	; 0x3f
    4332:	aa 97       	sbiw	r28, 0x2a	; 42
    4334:	ab 96       	adiw	r28, 0x2b	; 43
    4336:	1f ae       	std	Y+63, r1	; 0x3f
    4338:	ab 97       	sbiw	r28, 0x2b	; 43
    433a:	ab 96       	adiw	r28, 0x2b	; 43
    433c:	2e ad       	ldd	r18, Y+62	; 0x3e
    433e:	3f ad       	ldd	r19, Y+63	; 0x3f
    4340:	ab 97       	sbiw	r28, 0x2b	; 43
    4342:	22 0f       	add	r18, r18
    4344:	33 1f       	adc	r19, r19
    4346:	82 2b       	or	r24, r18
    4348:	93 2b       	or	r25, r19
    434a:	45 fb       	bst	r20, 5
    434c:	44 27       	eor	r20, r20
    434e:	40 f9       	bld	r20, 0
    4350:	ac 96       	adiw	r28, 0x2c	; 44
    4352:	4f af       	std	Y+63, r20	; 0x3f
    4354:	ac 97       	sbiw	r28, 0x2c	; 44
    4356:	ad 96       	adiw	r28, 0x2d	; 45
    4358:	1f ae       	std	Y+63, r1	; 0x3f
    435a:	ad 97       	sbiw	r28, 0x2d	; 45
    435c:	ad 96       	adiw	r28, 0x2d	; 45
    435e:	2e ad       	ldd	r18, Y+62	; 0x3e
    4360:	3f ad       	ldd	r19, Y+63	; 0x3f
    4362:	ad 97       	sbiw	r28, 0x2d	; 45
    4364:	22 0f       	add	r18, r18
    4366:	33 1f       	adc	r19, r19
    4368:	22 0f       	add	r18, r18
    436a:	33 1f       	adc	r19, r19
    436c:	22 0f       	add	r18, r18
    436e:	33 1f       	adc	r19, r19
    4370:	82 2b       	or	r24, r18
    4372:	93 2b       	or	r25, r19
    4374:	f8 9e       	mul	r15, r24
    4376:	a0 01       	movw	r20, r0
    4378:	f9 9e       	mul	r15, r25
    437a:	50 0d       	add	r21, r0
    437c:	11 24       	eor	r1, r1
    437e:	fa 01       	movw	r30, r20
    4380:	ec 54       	subi	r30, 0x4C	; 76
    4382:	ff 4d       	sbci	r31, 0xDF	; 223
    4384:	83 81       	ldd	r24, Z+3	; 0x03
    4386:	94 81       	ldd	r25, Z+4	; 0x04
    4388:	a7 96       	adiw	r28, 0x27	; 39
    438a:	ae ad       	ldd	r26, Y+62	; 0x3e
    438c:	bf ad       	ldd	r27, Y+63	; 0x3f
    438e:	a7 97       	sbiw	r28, 0x27	; 39
    4390:	8a 2b       	or	r24, r26
    4392:	9b 2b       	or	r25, r27
    4394:	9f 93       	push	r25
    4396:	8f 93       	push	r24
    4398:	8c e3       	ldi	r24, 0x3C	; 60
    439a:	90 e2       	ldi	r25, 0x20	; 32
    439c:	9f 93       	push	r25
    439e:	8f 93       	push	r24
    43a0:	0f ec       	ldi	r16, 0xCF	; 207
    43a2:	13 e2       	ldi	r17, 0x23	; 35
    43a4:	1f 93       	push	r17
    43a6:	0f 93       	push	r16
    43a8:	ac d5       	rcall	.+2904   	; 0x4f02 <sprintf>
    43aa:	c8 01       	movw	r24, r16
    43ac:	0e 94 6c 02 	call	0x4d8	; 0x4d8 <LCDStringRam>
    43b0:	61 e0       	ldi	r22, 0x01	; 1
    43b2:	80 e0       	ldi	r24, 0x00	; 0
    43b4:	0e 94 7b 02 	call	0x4f6	; 0x4f6 <LCDGotoXY>
    43b8:	80 91 7a 23 	lds	r24, 0x237A
    43bc:	8f 93       	push	r24
    43be:	e9 e7       	ldi	r30, 0x79	; 121
    43c0:	f3 e2       	ldi	r31, 0x23	; 35
    43c2:	80 81       	ld	r24, Z
    43c4:	8f 93       	push	r24
    43c6:	84 e4       	ldi	r24, 0x44	; 68
    43c8:	90 e2       	ldi	r25, 0x20	; 32
    43ca:	9f 93       	push	r25
    43cc:	8f 93       	push	r24
    43ce:	1f 93       	push	r17
    43d0:	0f 93       	push	r16
    43d2:	97 d5       	rcall	.+2862   	; 0x4f02 <sprintf>
    43d4:	c8 01       	movw	r24, r16
    43d6:	0e 94 6c 02 	call	0x4d8	; 0x4d8 <LCDStringRam>
    43da:	d6 01       	movw	r26, r12
    43dc:	9c 91       	ld	r25, X
    43de:	8c 91       	ld	r24, X
    43e0:	2c 91       	ld	r18, X
    43e2:	4c 91       	ld	r20, X
    43e4:	22 1f       	adc	r18, r18
    43e6:	22 27       	eor	r18, r18
    43e8:	22 1f       	adc	r18, r18
    43ea:	30 e0       	ldi	r19, 0x00	; 0
    43ec:	22 0f       	add	r18, r18
    43ee:	33 1f       	adc	r19, r19
    43f0:	22 0f       	add	r18, r18
    43f2:	33 1f       	adc	r19, r19
    43f4:	96 fb       	bst	r25, 6
    43f6:	99 27       	eor	r25, r25
    43f8:	90 f9       	bld	r25, 0
    43fa:	ae 96       	adiw	r28, 0x2e	; 46
    43fc:	9f af       	std	Y+63, r25	; 0x3f
    43fe:	ae 97       	sbiw	r28, 0x2e	; 46
    4400:	af 96       	adiw	r28, 0x2f	; 47
    4402:	1f ae       	std	Y+63, r1	; 0x3f
    4404:	af 97       	sbiw	r28, 0x2f	; 47
    4406:	af 96       	adiw	r28, 0x2f	; 47
    4408:	ee ad       	ldd	r30, Y+62	; 0x3e
    440a:	ff ad       	ldd	r31, Y+63	; 0x3f
    440c:	af 97       	sbiw	r28, 0x2f	; 47
    440e:	2e 2b       	or	r18, r30
    4410:	3f 2b       	or	r19, r31
    4412:	82 95       	swap	r24
    4414:	81 70       	andi	r24, 0x01	; 1
    4416:	e0 96       	adiw	r28, 0x30	; 48
    4418:	8f af       	std	Y+63, r24	; 0x3f
    441a:	e0 97       	sbiw	r28, 0x30	; 48
    441c:	e1 96       	adiw	r28, 0x31	; 49
    441e:	1f ae       	std	Y+63, r1	; 0x3f
    4420:	e1 97       	sbiw	r28, 0x31	; 49
    4422:	e1 96       	adiw	r28, 0x31	; 49
    4424:	8e ad       	ldd	r24, Y+62	; 0x3e
    4426:	9f ad       	ldd	r25, Y+63	; 0x3f
    4428:	e1 97       	sbiw	r28, 0x31	; 49
    442a:	88 0f       	add	r24, r24
    442c:	99 1f       	adc	r25, r25
    442e:	28 2b       	or	r18, r24
    4430:	39 2b       	or	r19, r25
    4432:	45 fb       	bst	r20, 5
    4434:	44 27       	eor	r20, r20
    4436:	40 f9       	bld	r20, 0
    4438:	e2 96       	adiw	r28, 0x32	; 50
    443a:	4f af       	std	Y+63, r20	; 0x3f
    443c:	e2 97       	sbiw	r28, 0x32	; 50
    443e:	e3 96       	adiw	r28, 0x33	; 51
    4440:	1f ae       	std	Y+63, r1	; 0x3f
    4442:	e3 97       	sbiw	r28, 0x33	; 51
    4444:	e3 96       	adiw	r28, 0x33	; 51
    4446:	8e ad       	ldd	r24, Y+62	; 0x3e
    4448:	9f ad       	ldd	r25, Y+63	; 0x3f
    444a:	e3 97       	sbiw	r28, 0x33	; 51
    444c:	88 0f       	add	r24, r24
    444e:	99 1f       	adc	r25, r25
    4450:	88 0f       	add	r24, r24
    4452:	99 1f       	adc	r25, r25
    4454:	88 0f       	add	r24, r24
    4456:	99 1f       	adc	r25, r25
    4458:	28 2b       	or	r18, r24
    445a:	39 2b       	or	r19, r25
    445c:	f2 9e       	mul	r15, r18
    445e:	c0 01       	movw	r24, r0
    4460:	f3 9e       	mul	r15, r19
    4462:	90 0d       	add	r25, r0
    4464:	11 24       	eor	r1, r1
    4466:	fc 01       	movw	r30, r24
    4468:	ec 54       	subi	r30, 0x4C	; 76
    446a:	ff 4d       	sbci	r31, 0xDF	; 223
    446c:	cd bf       	out	0x3d, r28	; 61
    446e:	de bf       	out	0x3e, r29	; 62
    4470:	81 89       	ldd	r24, Z+17	; 0x11
    4472:	88 23       	and	r24, r24
    4474:	09 f4       	brne	.+2      	; 0x4478 <__stack+0x479>
    4476:	51 c0       	rjmp	.+162    	; 0x451a <__stack+0x51b>
    4478:	e8 e0       	ldi	r30, 0x08	; 8
    447a:	f6 e0       	ldi	r31, 0x06	; 6
    447c:	90 81       	ld	r25, Z
    447e:	80 81       	ld	r24, Z
    4480:	20 81       	ld	r18, Z
    4482:	40 81       	ld	r20, Z
    4484:	22 1f       	adc	r18, r18
    4486:	22 27       	eor	r18, r18
    4488:	22 1f       	adc	r18, r18
    448a:	30 e0       	ldi	r19, 0x00	; 0
    448c:	22 0f       	add	r18, r18
    448e:	33 1f       	adc	r19, r19
    4490:	22 0f       	add	r18, r18
    4492:	33 1f       	adc	r19, r19
    4494:	96 fb       	bst	r25, 6
    4496:	99 27       	eor	r25, r25
    4498:	90 f9       	bld	r25, 0
    449a:	ea 96       	adiw	r28, 0x3a	; 58
    449c:	9f af       	std	Y+63, r25	; 0x3f
    449e:	ea 97       	sbiw	r28, 0x3a	; 58
    44a0:	eb 96       	adiw	r28, 0x3b	; 59
    44a2:	1f ae       	std	Y+63, r1	; 0x3f
    44a4:	eb 97       	sbiw	r28, 0x3b	; 59
    44a6:	eb 96       	adiw	r28, 0x3b	; 59
    44a8:	6e ad       	ldd	r22, Y+62	; 0x3e
    44aa:	7f ad       	ldd	r23, Y+63	; 0x3f
    44ac:	eb 97       	sbiw	r28, 0x3b	; 59
    44ae:	26 2b       	or	r18, r22
    44b0:	37 2b       	or	r19, r23
    44b2:	82 95       	swap	r24
    44b4:	81 70       	andi	r24, 0x01	; 1
    44b6:	ec 96       	adiw	r28, 0x3c	; 60
    44b8:	8f af       	std	Y+63, r24	; 0x3f
    44ba:	ec 97       	sbiw	r28, 0x3c	; 60
    44bc:	ed 96       	adiw	r28, 0x3d	; 61
    44be:	1f ae       	std	Y+63, r1	; 0x3f
    44c0:	ed 97       	sbiw	r28, 0x3d	; 61
    44c2:	ed 96       	adiw	r28, 0x3d	; 61
    44c4:	8e ad       	ldd	r24, Y+62	; 0x3e
    44c6:	9f ad       	ldd	r25, Y+63	; 0x3f
    44c8:	ed 97       	sbiw	r28, 0x3d	; 61
    44ca:	88 0f       	add	r24, r24
    44cc:	99 1f       	adc	r25, r25
    44ce:	28 2b       	or	r18, r24
    44d0:	39 2b       	or	r19, r25
    44d2:	45 fb       	bst	r20, 5
    44d4:	44 27       	eor	r20, r20
    44d6:	40 f9       	bld	r20, 0
    44d8:	ee 96       	adiw	r28, 0x3e	; 62
    44da:	4f af       	std	Y+63, r20	; 0x3f
    44dc:	ee 97       	sbiw	r28, 0x3e	; 62
    44de:	ef 96       	adiw	r28, 0x3f	; 63
    44e0:	1f ae       	std	Y+63, r1	; 0x3f
    44e2:	ef 97       	sbiw	r28, 0x3f	; 63
    44e4:	ef 96       	adiw	r28, 0x3f	; 63
    44e6:	8e ad       	ldd	r24, Y+62	; 0x3e
    44e8:	9f ad       	ldd	r25, Y+63	; 0x3f
    44ea:	ef 97       	sbiw	r28, 0x3f	; 63
    44ec:	88 0f       	add	r24, r24
    44ee:	99 1f       	adc	r25, r25
    44f0:	88 0f       	add	r24, r24
    44f2:	99 1f       	adc	r25, r25
    44f4:	88 0f       	add	r24, r24
    44f6:	99 1f       	adc	r25, r25
    44f8:	28 2b       	or	r18, r24
    44fa:	39 2b       	or	r19, r25
    44fc:	47 e1       	ldi	r20, 0x17	; 23
    44fe:	42 9f       	mul	r20, r18
    4500:	c0 01       	movw	r24, r0
    4502:	43 9f       	mul	r20, r19
    4504:	90 0d       	add	r25, r0
    4506:	11 24       	eor	r1, r1
    4508:	fc 01       	movw	r30, r24
    450a:	ec 54       	subi	r30, 0x4C	; 76
    450c:	ff 4d       	sbci	r31, 0xDF	; 223
    450e:	81 89       	ldd	r24, Z+17	; 0x11
    4510:	90 e0       	ldi	r25, 0x00	; 0
    4512:	80 93 a5 20 	sts	0x20A5, r24
    4516:	90 93 a6 20 	sts	0x20A6, r25
    451a:	e8 e0       	ldi	r30, 0x08	; 8
    451c:	f6 e0       	ldi	r31, 0x06	; 6
    451e:	90 81       	ld	r25, Z
    4520:	80 81       	ld	r24, Z
    4522:	20 81       	ld	r18, Z
    4524:	40 81       	ld	r20, Z
    4526:	22 1f       	adc	r18, r18
    4528:	22 27       	eor	r18, r18
    452a:	22 1f       	adc	r18, r18
    452c:	30 e0       	ldi	r19, 0x00	; 0
    452e:	22 0f       	add	r18, r18
    4530:	33 1f       	adc	r19, r19
    4532:	22 0f       	add	r18, r18
    4534:	33 1f       	adc	r19, r19
    4536:	96 fb       	bst	r25, 6
    4538:	99 27       	eor	r25, r25
    453a:	90 f9       	bld	r25, 0
    453c:	e4 96       	adiw	r28, 0x34	; 52
    453e:	9f af       	std	Y+63, r25	; 0x3f
    4540:	e4 97       	sbiw	r28, 0x34	; 52
    4542:	e5 96       	adiw	r28, 0x35	; 53
    4544:	1f ae       	std	Y+63, r1	; 0x3f
    4546:	e5 97       	sbiw	r28, 0x35	; 53
    4548:	e5 96       	adiw	r28, 0x35	; 53
    454a:	ae ad       	ldd	r26, Y+62	; 0x3e
    454c:	bf ad       	ldd	r27, Y+63	; 0x3f
    454e:	e5 97       	sbiw	r28, 0x35	; 53
    4550:	2a 2b       	or	r18, r26
    4552:	3b 2b       	or	r19, r27
    4554:	82 95       	swap	r24
    4556:	81 70       	andi	r24, 0x01	; 1
    4558:	e6 96       	adiw	r28, 0x36	; 54
    455a:	8f af       	std	Y+63, r24	; 0x3f
    455c:	e6 97       	sbiw	r28, 0x36	; 54
    455e:	e7 96       	adiw	r28, 0x37	; 55
    4560:	1f ae       	std	Y+63, r1	; 0x3f
    4562:	e7 97       	sbiw	r28, 0x37	; 55
    4564:	e7 96       	adiw	r28, 0x37	; 55
    4566:	8e ad       	ldd	r24, Y+62	; 0x3e
    4568:	9f ad       	ldd	r25, Y+63	; 0x3f
    456a:	e7 97       	sbiw	r28, 0x37	; 55
    456c:	88 0f       	add	r24, r24
    456e:	99 1f       	adc	r25, r25
    4570:	28 2b       	or	r18, r24
    4572:	39 2b       	or	r19, r25
    4574:	45 fb       	bst	r20, 5
    4576:	44 27       	eor	r20, r20
    4578:	40 f9       	bld	r20, 0
    457a:	e8 96       	adiw	r28, 0x38	; 56
    457c:	4f af       	std	Y+63, r20	; 0x3f
    457e:	e8 97       	sbiw	r28, 0x38	; 56
    4580:	e9 96       	adiw	r28, 0x39	; 57
    4582:	1f ae       	std	Y+63, r1	; 0x3f
    4584:	e9 97       	sbiw	r28, 0x39	; 57
    4586:	e9 96       	adiw	r28, 0x39	; 57
    4588:	8e ad       	ldd	r24, Y+62	; 0x3e
    458a:	9f ad       	ldd	r25, Y+63	; 0x3f
    458c:	e9 97       	sbiw	r28, 0x39	; 57
    458e:	88 0f       	add	r24, r24
    4590:	99 1f       	adc	r25, r25
    4592:	88 0f       	add	r24, r24
    4594:	99 1f       	adc	r25, r25
    4596:	88 0f       	add	r24, r24
    4598:	99 1f       	adc	r25, r25
    459a:	28 2b       	or	r18, r24
    459c:	39 2b       	or	r19, r25
    459e:	47 e1       	ldi	r20, 0x17	; 23
    45a0:	42 9f       	mul	r20, r18
    45a2:	c0 01       	movw	r24, r0
    45a4:	43 9f       	mul	r20, r19
    45a6:	90 0d       	add	r25, r0
    45a8:	11 24       	eor	r1, r1
    45aa:	fc 01       	movw	r30, r24
    45ac:	ec 54       	subi	r30, 0x4C	; 76
    45ae:	ff 4d       	sbci	r31, 0xDF	; 223
    45b0:	82 89       	ldd	r24, Z+18	; 0x12
    45b2:	88 23       	and	r24, r24
    45b4:	19 f0       	breq	.+6      	; 0x45bc <__stack+0x5bd>
    45b6:	e0 e6       	ldi	r30, 0x60	; 96
    45b8:	f6 e0       	ldi	r31, 0x06	; 6
    45ba:	80 85       	ldd	r24, Z+8	; 0x08
    45bc:	e0 e0       	ldi	r30, 0x00	; 0
    45be:	f6 e0       	ldi	r31, 0x06	; 6
    45c0:	80 85       	ldd	r24, Z+8	; 0x08
    45c2:	82 ff       	sbrs	r24, 2
    45c4:	18 c0       	rjmp	.+48     	; 0x45f6 <__stack+0x5f7>
    45c6:	e0 e2       	ldi	r30, 0x20	; 32
    45c8:	f6 e0       	ldi	r31, 0x06	; 6
    45ca:	84 81       	ldd	r24, Z+4	; 0x04
    45cc:	80 64       	ori	r24, 0x40	; 64
    45ce:	84 83       	std	Z+4, r24	; 0x04
    45d0:	84 e6       	ldi	r24, 0x64	; 100
    45d2:	90 e0       	ldi	r25, 0x00	; 0
    45d4:	80 93 2a 08 	sts	0x082A, r24
    45d8:	90 93 2b 08 	sts	0x082B, r25
    45dc:	bf ef       	ldi	r27, 0xFF	; 255
    45de:	e3 ec       	ldi	r30, 0xC3	; 195
    45e0:	f9 e0       	ldi	r31, 0x09	; 9
    45e2:	b1 50       	subi	r27, 0x01	; 1
    45e4:	e0 40       	sbci	r30, 0x00	; 0
    45e6:	f0 40       	sbci	r31, 0x00	; 0
    45e8:	e1 f7       	brne	.-8      	; 0x45e2 <__stack+0x5e3>
    45ea:	00 c0       	rjmp	.+0      	; 0x45ec <__stack+0x5ed>
    45ec:	00 00       	nop
    45ee:	10 92 2a 08 	sts	0x082A, r1
    45f2:	10 92 2b 08 	sts	0x082B, r1
    45f6:	90 91 6f 23 	lds	r25, 0x236F
    45fa:	80 91 70 23 	lds	r24, 0x2370
    45fe:	90 93 87 23 	sts	0x2387, r25
    4602:	80 93 88 23 	sts	0x2388, r24
    4606:	90 93 89 23 	sts	0x2389, r25
    460a:	80 93 8a 23 	sts	0x238A, r24
    460e:	90 93 8b 23 	sts	0x238B, r25
    4612:	80 93 8c 23 	sts	0x238C, r24
    4616:	90 93 8d 23 	sts	0x238D, r25
    461a:	80 93 8e 23 	sts	0x238E, r24
    461e:	80 91 d5 21 	lds	r24, 0x21D5
    4622:	80 93 8f 23 	sts	0x238F, r24
    4626:	10 92 90 23 	sts	0x2390, r1
    462a:	80 93 91 23 	sts	0x2391, r24
    462e:	10 92 92 23 	sts	0x2392, r1
    4632:	80 93 93 23 	sts	0x2393, r24
    4636:	10 92 94 23 	sts	0x2394, r1
    463a:	80 93 95 23 	sts	0x2395, r24
    463e:	10 92 96 23 	sts	0x2396, r1
    4642:	80 91 a7 20 	lds	r24, 0x20A7
    4646:	90 91 a8 20 	lds	r25, 0x20A8
    464a:	95 95       	asr	r25
    464c:	87 95       	ror	r24
    464e:	95 95       	asr	r25
    4650:	87 95       	ror	r24
    4652:	95 95       	asr	r25
    4654:	87 95       	ror	r24
    4656:	95 95       	asr	r25
    4658:	87 95       	ror	r24
    465a:	80 93 97 23 	sts	0x2397, r24
    465e:	60 e2       	ldi	r22, 0x20	; 32
    4660:	70 e0       	ldi	r23, 0x00	; 0
    4662:	87 e8       	ldi	r24, 0x87	; 135
    4664:	93 e2       	ldi	r25, 0x23	; 35
    4666:	ef d1       	rcall	.+990    	; 0x4a46 <NRF24L01_L_Write_TX_Buf>
    4668:	de d0       	rcall	.+444    	; 0x4826 <NRF24L01_L_RF_TX>
    466a:	2a e0       	ldi	r18, 0x0A	; 10
    466c:	2a 95       	dec	r18
    466e:	f1 f7       	brne	.-4      	; 0x466c <__stack+0x66d>
    4670:	00 c0       	rjmp	.+0      	; 0x4672 <__stack+0x673>
    4672:	0c 94 05 19 	jmp	0x320a	; 0x320a <main+0x20e>

00004676 <__vector_119>:
int buff_i_temp;
int buff_d_temp;
int buff_u_temp;
unsigned char reply2_tmp;
ISR(USARTF0_RXC_vect)        ///////////Driver M.2  &  M.3
{
    4676:	1f 92       	push	r1
    4678:	0f 92       	push	r0
    467a:	0f b6       	in	r0, 0x3f	; 63
    467c:	0f 92       	push	r0
    467e:	11 24       	eor	r1, r1
    4680:	08 b6       	in	r0, 0x38	; 56
    4682:	0f 92       	push	r0
    4684:	18 be       	out	0x38, r1	; 56
    4686:	2f 93       	push	r18
    4688:	8f 93       	push	r24
    468a:	9f 93       	push	r25
	
	
	//char buff_reply [16];
	unsigned char data;
	data=USARTF0_DATA;
    468c:	20 91 a0 0b 	lds	r18, 0x0BA0

	

	switch(ask_cnt)
    4690:	80 91 9c 20 	lds	r24, 0x209C
    4694:	90 91 9d 20 	lds	r25, 0x209D
    4698:	82 30       	cpi	r24, 0x02	; 2
    469a:	91 05       	cpc	r25, r1
    469c:	19 f1       	breq	.+70     	; 0x46e4 <__vector_119+0x6e>
    469e:	2c f4       	brge	.+10     	; 0x46aa <__vector_119+0x34>
    46a0:	00 97       	sbiw	r24, 0x00	; 0
    46a2:	49 f0       	breq	.+18     	; 0x46b6 <__vector_119+0x40>
    46a4:	01 97       	sbiw	r24, 0x01	; 1
    46a6:	89 f0       	breq	.+34     	; 0x46ca <__vector_119+0x54>
    46a8:	48 c0       	rjmp	.+144    	; 0x473a <__vector_119+0xc4>
    46aa:	83 30       	cpi	r24, 0x03	; 3
    46ac:	91 05       	cpc	r25, r1
    46ae:	51 f1       	breq	.+84     	; 0x4704 <__vector_119+0x8e>
    46b0:	04 97       	sbiw	r24, 0x04	; 4
    46b2:	89 f1       	breq	.+98     	; 0x4716 <__vector_119+0xa0>
    46b4:	42 c0       	rjmp	.+132    	; 0x473a <__vector_119+0xc4>
	{
		case 0:
		if (data== '*')
    46b6:	2a 32       	cpi	r18, 0x2A	; 42
    46b8:	09 f0       	breq	.+2      	; 0x46bc <__vector_119+0x46>
    46ba:	3f c0       	rjmp	.+126    	; 0x473a <__vector_119+0xc4>
		{
		ask_cnt++;}
    46bc:	81 e0       	ldi	r24, 0x01	; 1
    46be:	90 e0       	ldi	r25, 0x00	; 0
    46c0:	80 93 9c 20 	sts	0x209C, r24
    46c4:	90 93 9d 20 	sts	0x209D, r25
    46c8:	38 c0       	rjmp	.+112    	; 0x473a <__vector_119+0xc4>
		break;

		case 1:
		buff_reply_tmp=data&0x0ff;
    46ca:	82 2f       	mov	r24, r18
    46cc:	90 e0       	ldi	r25, 0x00	; 0
    46ce:	80 93 b8 23 	sts	0x23B8, r24
    46d2:	90 93 b9 23 	sts	0x23B9, r25
		ask_cnt++;
    46d6:	82 e0       	ldi	r24, 0x02	; 2
    46d8:	90 e0       	ldi	r25, 0x00	; 0
    46da:	80 93 9c 20 	sts	0x209C, r24
    46de:	90 93 9d 20 	sts	0x209D, r25
		break;
    46e2:	2b c0       	rjmp	.+86     	; 0x473a <__vector_119+0xc4>

		case 2:
		buff_reply_tmp|=(data<<8)&0x0ff00;
    46e4:	80 91 b8 23 	lds	r24, 0x23B8
    46e8:	90 91 b9 23 	lds	r25, 0x23B9
    46ec:	92 2b       	or	r25, r18
    46ee:	80 93 b8 23 	sts	0x23B8, r24
    46f2:	90 93 b9 23 	sts	0x23B9, r25
		ask_cnt++;
    46f6:	83 e0       	ldi	r24, 0x03	; 3
    46f8:	90 e0       	ldi	r25, 0x00	; 0
    46fa:	80 93 9c 20 	sts	0x209C, r24
    46fe:	90 93 9d 20 	sts	0x209D, r25
		break;
    4702:	1b c0       	rjmp	.+54     	; 0x473a <__vector_119+0xc4>

		case 3:
		reply2_tmp = data;
    4704:	20 93 c8 23 	sts	0x23C8, r18
		ask_cnt++;
    4708:	84 e0       	ldi	r24, 0x04	; 4
    470a:	90 e0       	ldi	r25, 0x00	; 0
    470c:	80 93 9c 20 	sts	0x209C, r24
    4710:	90 93 9d 20 	sts	0x209D, r25
		break;
    4714:	12 c0       	rjmp	.+36     	; 0x473a <__vector_119+0xc4>
		//ask_cnt++;
		//break;


		case 4:
		if (data=='#')
    4716:	23 32       	cpi	r18, 0x23	; 35
    4718:	61 f4       	brne	.+24     	; 0x4732 <__vector_119+0xbc>
		{
			//LED_Red_PORT.OUTTGL = LED_Red_PIN_bm;
			//LED_Green_PORT.OUTTGL = LED_Green_PIN_bm;
			buff_reply=buff_reply_tmp;
    471a:	80 91 b8 23 	lds	r24, 0x23B8
    471e:	90 91 b9 23 	lds	r25, 0x23B9
    4722:	80 93 6f 23 	sts	0x236F, r24
    4726:	90 93 70 23 	sts	0x2370, r25
			reply2 = reply2_tmp;
    472a:	80 91 c8 23 	lds	r24, 0x23C8
    472e:	80 93 d5 21 	sts	0x21D5, r24


			//flg_reply=0;
			ask_cnt=0;
		}
		ask_cnt=0;
    4732:	10 92 9c 20 	sts	0x209C, r1
    4736:	10 92 9d 20 	sts	0x209D, r1
		break;
	}
}
    473a:	9f 91       	pop	r25
    473c:	8f 91       	pop	r24
    473e:	2f 91       	pop	r18
    4740:	0f 90       	pop	r0
    4742:	08 be       	out	0x38, r0	; 56
    4744:	0f 90       	pop	r0
    4746:	0f be       	out	0x3f, r0	; 63
    4748:	0f 90       	pop	r0
    474a:	1f 90       	pop	r1
    474c:	18 95       	reti

0000474e <__vector_122>:

ISR(USARTF1_RXC_vect)   ///////////// Driver  M.0  &  M.1
{
    474e:	1f 92       	push	r1
    4750:	0f 92       	push	r0
    4752:	0f b6       	in	r0, 0x3f	; 63
    4754:	0f 92       	push	r0
    4756:	11 24       	eor	r1, r1
    4758:	08 b6       	in	r0, 0x38	; 56
    475a:	0f 92       	push	r0
    475c:	18 be       	out	0x38, r1	; 56
    475e:	2f 93       	push	r18
    4760:	8f 93       	push	r24
    4762:	9f 93       	push	r25
	
	
	unsigned char data;
	data=USARTF1_DATA;
    4764:	20 91 b0 0b 	lds	r18, 0x0BB0

	

	switch(ask_cnt)
    4768:	80 91 9c 20 	lds	r24, 0x209C
    476c:	90 91 9d 20 	lds	r25, 0x209D
    4770:	82 30       	cpi	r24, 0x02	; 2
    4772:	91 05       	cpc	r25, r1
    4774:	19 f1       	breq	.+70     	; 0x47bc <__vector_122+0x6e>
    4776:	2c f4       	brge	.+10     	; 0x4782 <__vector_122+0x34>
    4778:	00 97       	sbiw	r24, 0x00	; 0
    477a:	49 f0       	breq	.+18     	; 0x478e <__vector_122+0x40>
    477c:	01 97       	sbiw	r24, 0x01	; 1
    477e:	89 f0       	breq	.+34     	; 0x47a2 <__vector_122+0x54>
    4780:	48 c0       	rjmp	.+144    	; 0x4812 <__vector_122+0xc4>
    4782:	83 30       	cpi	r24, 0x03	; 3
    4784:	91 05       	cpc	r25, r1
    4786:	51 f1       	breq	.+84     	; 0x47dc <__vector_122+0x8e>
    4788:	04 97       	sbiw	r24, 0x04	; 4
    478a:	89 f1       	breq	.+98     	; 0x47ee <__vector_122+0xa0>
    478c:	42 c0       	rjmp	.+132    	; 0x4812 <__vector_122+0xc4>
	{
		case 0:
		if (data== '*')
    478e:	2a 32       	cpi	r18, 0x2A	; 42
    4790:	09 f0       	breq	.+2      	; 0x4794 <__vector_122+0x46>
    4792:	3f c0       	rjmp	.+126    	; 0x4812 <__vector_122+0xc4>
		{
		ask_cnt++;}
    4794:	81 e0       	ldi	r24, 0x01	; 1
    4796:	90 e0       	ldi	r25, 0x00	; 0
    4798:	80 93 9c 20 	sts	0x209C, r24
    479c:	90 93 9d 20 	sts	0x209D, r25
    47a0:	38 c0       	rjmp	.+112    	; 0x4812 <__vector_122+0xc4>
		break;

		case 1:
		buff_reply_tmp=data&0x0ff;
    47a2:	82 2f       	mov	r24, r18
    47a4:	90 e0       	ldi	r25, 0x00	; 0
    47a6:	80 93 b8 23 	sts	0x23B8, r24
    47aa:	90 93 b9 23 	sts	0x23B9, r25
		ask_cnt++;
    47ae:	82 e0       	ldi	r24, 0x02	; 2
    47b0:	90 e0       	ldi	r25, 0x00	; 0
    47b2:	80 93 9c 20 	sts	0x209C, r24
    47b6:	90 93 9d 20 	sts	0x209D, r25
		break;
    47ba:	2b c0       	rjmp	.+86     	; 0x4812 <__vector_122+0xc4>

		case 2:
		buff_reply_tmp|=(data<<8)&0x0ff00;
    47bc:	80 91 b8 23 	lds	r24, 0x23B8
    47c0:	90 91 b9 23 	lds	r25, 0x23B9
    47c4:	92 2b       	or	r25, r18
    47c6:	80 93 b8 23 	sts	0x23B8, r24
    47ca:	90 93 b9 23 	sts	0x23B9, r25
		ask_cnt++;
    47ce:	83 e0       	ldi	r24, 0x03	; 3
    47d0:	90 e0       	ldi	r25, 0x00	; 0
    47d2:	80 93 9c 20 	sts	0x209C, r24
    47d6:	90 93 9d 20 	sts	0x209D, r25
		break;
    47da:	1b c0       	rjmp	.+54     	; 0x4812 <__vector_122+0xc4>

		case 3:
		reply2_tmp = data;
    47dc:	20 93 c8 23 	sts	0x23C8, r18
		ask_cnt++;
    47e0:	84 e0       	ldi	r24, 0x04	; 4
    47e2:	90 e0       	ldi	r25, 0x00	; 0
    47e4:	80 93 9c 20 	sts	0x209C, r24
    47e8:	90 93 9d 20 	sts	0x209D, r25
		break;
    47ec:	12 c0       	rjmp	.+36     	; 0x4812 <__vector_122+0xc4>
		//ask_cnt++;
		//break;


		case 4:
		if (data=='#')
    47ee:	23 32       	cpi	r18, 0x23	; 35
    47f0:	61 f4       	brne	.+24     	; 0x480a <__vector_122+0xbc>
		{
			
			//LED_White_PORT.OUTTGL = LED_White_PIN_bm;
			buff_reply=buff_reply_tmp;
    47f2:	80 91 b8 23 	lds	r24, 0x23B8
    47f6:	90 91 b9 23 	lds	r25, 0x23B9
    47fa:	80 93 6f 23 	sts	0x236F, r24
    47fe:	90 93 70 23 	sts	0x2370, r25
			reply2 = reply2_tmp;
    4802:	80 91 c8 23 	lds	r24, 0x23C8
    4806:	80 93 d5 21 	sts	0x21D5, r24


			//flg_reply=0;
			ask_cnt=0;
		}
		ask_cnt=0;
    480a:	10 92 9c 20 	sts	0x209C, r1
    480e:	10 92 9d 20 	sts	0x209D, r1
		break;
	}
	
}
    4812:	9f 91       	pop	r25
    4814:	8f 91       	pop	r24
    4816:	2f 91       	pop	r18
    4818:	0f 90       	pop	r0
    481a:	08 be       	out	0x38, r0	; 56
    481c:	0f 90       	pop	r0
    481e:	0f be       	out	0x3f, r0	; 63
    4820:	0f 90       	pop	r0
    4822:	1f 90       	pop	r1
    4824:	18 95       	reti

00004826 <NRF24L01_L_RF_TX>:
		NRF24L01_L_RF_TX();
	while ((NRF24L01_L_Get_Status() & _TX_DS) != _TX_DS)
	{
		
	}		
	NRF24L01_L_Clear_Interrupts();
    4826:	e0 e8       	ldi	r30, 0x80	; 128
    4828:	f6 e0       	ldi	r31, 0x06	; 6
    482a:	82 e0       	ldi	r24, 0x02	; 2
    482c:	86 83       	std	Z+6, r24	; 0x06
    482e:	85 83       	std	Z+5, r24	; 0x05
    4830:	8a e6       	ldi	r24, 0x6A	; 106
    4832:	8a 95       	dec	r24
    4834:	f1 f7       	brne	.-4      	; 0x4832 <NRF24L01_L_RF_TX+0xc>
    4836:	00 c0       	rjmp	.+0      	; 0x4838 <NRF24L01_L_RF_TX+0x12>
    4838:	82 e0       	ldi	r24, 0x02	; 2
    483a:	86 83       	std	Z+6, r24	; 0x06
    483c:	08 95       	ret

0000483e <SPI_L>:
    483e:	e0 ec       	ldi	r30, 0xC0	; 192
    4840:	fa e0       	ldi	r31, 0x0A	; 10
    4842:	83 83       	std	Z+3, r24	; 0x03
    4844:	82 81       	ldd	r24, Z+2	; 0x02
    4846:	88 23       	and	r24, r24
    4848:	ec f7       	brge	.-6      	; 0x4844 <SPI_L+0x6>
    484a:	e0 ec       	ldi	r30, 0xC0	; 192
    484c:	fa e0       	ldi	r31, 0x0A	; 10
    484e:	83 81       	ldd	r24, Z+3	; 0x03
    4850:	08 95       	ret

00004852 <NRF24L01_L_ReadReg>:
    4852:	1f 93       	push	r17
    4854:	cf 93       	push	r28
    4856:	df 93       	push	r29
    4858:	c0 e8       	ldi	r28, 0x80	; 128
    485a:	d6 e0       	ldi	r29, 0x06	; 6
    485c:	10 e1       	ldi	r17, 0x10	; 16
    485e:	1e 83       	std	Y+6, r17	; 0x06
    4860:	ee df       	rcall	.-36     	; 0x483e <SPI_L>
    4862:	8f ef       	ldi	r24, 0xFF	; 255
    4864:	ec df       	rcall	.-40     	; 0x483e <SPI_L>
    4866:	1d 83       	std	Y+5, r17	; 0x05
    4868:	df 91       	pop	r29
    486a:	cf 91       	pop	r28
    486c:	1f 91       	pop	r17
    486e:	08 95       	ret

00004870 <NRF24L01_L_WriteReg>:
    4870:	ff 92       	push	r15
    4872:	0f 93       	push	r16
    4874:	1f 93       	push	r17
    4876:	cf 93       	push	r28
    4878:	df 93       	push	r29
    487a:	f6 2e       	mov	r15, r22
    487c:	c0 e8       	ldi	r28, 0x80	; 128
    487e:	d6 e0       	ldi	r29, 0x06	; 6
    4880:	10 e1       	ldi	r17, 0x10	; 16
    4882:	1e 83       	std	Y+6, r17	; 0x06
    4884:	dc df       	rcall	.-72     	; 0x483e <SPI_L>
    4886:	08 2f       	mov	r16, r24
    4888:	8f 2d       	mov	r24, r15
    488a:	d9 df       	rcall	.-78     	; 0x483e <SPI_L>
    488c:	1d 83       	std	Y+5, r17	; 0x05
    488e:	80 2f       	mov	r24, r16
    4890:	df 91       	pop	r29
    4892:	cf 91       	pop	r28
    4894:	1f 91       	pop	r17
    4896:	0f 91       	pop	r16
    4898:	ff 90       	pop	r15
    489a:	08 95       	ret

0000489c <NRF24L01_L_Set_CH>:
    489c:	68 2f       	mov	r22, r24
    489e:	6f 77       	andi	r22, 0x7F	; 127
    48a0:	85 e2       	ldi	r24, 0x25	; 37
    48a2:	e6 cf       	rjmp	.-52     	; 0x4870 <NRF24L01_L_WriteReg>
    48a4:	08 95       	ret

000048a6 <NRF24L01_L_Set_ShockBurst>:
    48a6:	cf 93       	push	r28
    48a8:	c8 2f       	mov	r28, r24
    48aa:	68 2f       	mov	r22, r24
    48ac:	84 e2       	ldi	r24, 0x24	; 36
    48ae:	e0 df       	rcall	.-64     	; 0x4870 <NRF24L01_L_WriteReg>
    48b0:	6c 2f       	mov	r22, r28
    48b2:	81 e2       	ldi	r24, 0x21	; 33
    48b4:	dd df       	rcall	.-70     	; 0x4870 <NRF24L01_L_WriteReg>
    48b6:	cf 91       	pop	r28
    48b8:	08 95       	ret

000048ba <NRF24L01_L_Set_Address_Width>:
    48ba:	63 e0       	ldi	r22, 0x03	; 3
    48bc:	83 e2       	ldi	r24, 0x23	; 35
    48be:	d8 cf       	rjmp	.-80     	; 0x4870 <NRF24L01_L_WriteReg>
    48c0:	08 95       	ret

000048c2 <NRF24L01_L_Clear_Interrupts>:
    48c2:	60 e7       	ldi	r22, 0x70	; 112
    48c4:	87 e2       	ldi	r24, 0x27	; 39
    48c6:	d4 cf       	rjmp	.-88     	; 0x4870 <NRF24L01_L_WriteReg>
    48c8:	08 95       	ret

000048ca <NRF24L01_L_ReadRegBuf>:
    48ca:	df 92       	push	r13
    48cc:	ef 92       	push	r14
    48ce:	ff 92       	push	r15
    48d0:	0f 93       	push	r16
    48d2:	1f 93       	push	r17
    48d4:	cf 93       	push	r28
    48d6:	df 93       	push	r29
    48d8:	7b 01       	movw	r14, r22
    48da:	8a 01       	movw	r16, r20
    48dc:	90 e1       	ldi	r25, 0x10	; 16
    48de:	e0 e8       	ldi	r30, 0x80	; 128
    48e0:	f6 e0       	ldi	r31, 0x06	; 6
    48e2:	96 83       	std	Z+6, r25	; 0x06
    48e4:	ac df       	rcall	.-168    	; 0x483e <SPI_L>
    48e6:	d8 2e       	mov	r13, r24
    48e8:	10 16       	cp	r1, r16
    48ea:	11 06       	cpc	r1, r17
    48ec:	4c f4       	brge	.+18     	; 0x4900 <NRF24L01_L_ReadRegBuf+0x36>
    48ee:	e7 01       	movw	r28, r14
    48f0:	0e 0d       	add	r16, r14
    48f2:	1f 1d       	adc	r17, r15
    48f4:	8f ef       	ldi	r24, 0xFF	; 255
    48f6:	a3 df       	rcall	.-186    	; 0x483e <SPI_L>
    48f8:	89 93       	st	Y+, r24
    48fa:	c0 17       	cp	r28, r16
    48fc:	d1 07       	cpc	r29, r17
    48fe:	d1 f7       	brne	.-12     	; 0x48f4 <NRF24L01_L_ReadRegBuf+0x2a>
    4900:	80 e1       	ldi	r24, 0x10	; 16
    4902:	e0 e8       	ldi	r30, 0x80	; 128
    4904:	f6 e0       	ldi	r31, 0x06	; 6
    4906:	85 83       	std	Z+5, r24	; 0x05
    4908:	8d 2d       	mov	r24, r13
    490a:	df 91       	pop	r29
    490c:	cf 91       	pop	r28
    490e:	1f 91       	pop	r17
    4910:	0f 91       	pop	r16
    4912:	ff 90       	pop	r15
    4914:	ef 90       	pop	r14
    4916:	df 90       	pop	r13
    4918:	08 95       	ret

0000491a <NRF24L01_L_Read_RX_Buf>:
    491a:	ab 01       	movw	r20, r22
    491c:	bc 01       	movw	r22, r24
    491e:	81 e6       	ldi	r24, 0x61	; 97
    4920:	d4 cf       	rjmp	.-88     	; 0x48ca <NRF24L01_L_ReadRegBuf>
    4922:	08 95       	ret

00004924 <NRF24L01_L_WriteRegBuf>:
    4924:	df 92       	push	r13
    4926:	ef 92       	push	r14
    4928:	ff 92       	push	r15
    492a:	0f 93       	push	r16
    492c:	1f 93       	push	r17
    492e:	cf 93       	push	r28
    4930:	df 93       	push	r29
    4932:	7b 01       	movw	r14, r22
    4934:	8a 01       	movw	r16, r20
    4936:	90 e1       	ldi	r25, 0x10	; 16
    4938:	e0 e8       	ldi	r30, 0x80	; 128
    493a:	f6 e0       	ldi	r31, 0x06	; 6
    493c:	96 83       	std	Z+6, r25	; 0x06
    493e:	7f df       	rcall	.-258    	; 0x483e <SPI_L>
    4940:	d8 2e       	mov	r13, r24
    4942:	10 16       	cp	r1, r16
    4944:	11 06       	cpc	r1, r17
    4946:	44 f4       	brge	.+16     	; 0x4958 <NRF24L01_L_WriteRegBuf+0x34>
    4948:	e7 01       	movw	r28, r14
    494a:	0e 0d       	add	r16, r14
    494c:	1f 1d       	adc	r17, r15
    494e:	89 91       	ld	r24, Y+
    4950:	76 df       	rcall	.-276    	; 0x483e <SPI_L>
    4952:	c0 17       	cp	r28, r16
    4954:	d1 07       	cpc	r29, r17
    4956:	d9 f7       	brne	.-10     	; 0x494e <NRF24L01_L_WriteRegBuf+0x2a>
    4958:	80 e1       	ldi	r24, 0x10	; 16
    495a:	e0 e8       	ldi	r30, 0x80	; 128
    495c:	f6 e0       	ldi	r31, 0x06	; 6
    495e:	85 83       	std	Z+5, r24	; 0x05
    4960:	8d 2d       	mov	r24, r13
    4962:	df 91       	pop	r29
    4964:	cf 91       	pop	r28
    4966:	1f 91       	pop	r17
    4968:	0f 91       	pop	r16
    496a:	ff 90       	pop	r15
    496c:	ef 90       	pop	r14
    496e:	df 90       	pop	r13
    4970:	08 95       	ret

00004972 <NRF24L01_L_Set_RX_Pipe>:
    4972:	ef 92       	push	r14
    4974:	ff 92       	push	r15
    4976:	0f 93       	push	r16
    4978:	1f 93       	push	r17
    497a:	cf 93       	push	r28
    497c:	df 93       	push	r29
    497e:	f8 2e       	mov	r15, r24
    4980:	eb 01       	movw	r28, r22
    4982:	8a 01       	movw	r16, r20
    4984:	e2 2e       	mov	r14, r18
    4986:	82 e0       	ldi	r24, 0x02	; 2
    4988:	64 df       	rcall	.-312    	; 0x4852 <NRF24L01_L_ReadReg>
    498a:	41 e0       	ldi	r20, 0x01	; 1
    498c:	50 e0       	ldi	r21, 0x00	; 0
    498e:	0f 2c       	mov	r0, r15
    4990:	02 c0       	rjmp	.+4      	; 0x4996 <NRF24L01_L_Set_RX_Pipe+0x24>
    4992:	44 0f       	add	r20, r20
    4994:	55 1f       	adc	r21, r21
    4996:	0a 94       	dec	r0
    4998:	e2 f7       	brpl	.-8      	; 0x4992 <NRF24L01_L_Set_RX_Pipe+0x20>
    499a:	68 2f       	mov	r22, r24
    499c:	64 2b       	or	r22, r20
    499e:	82 e2       	ldi	r24, 0x22	; 34
    49a0:	67 df       	rcall	.-306    	; 0x4870 <NRF24L01_L_WriteReg>
    49a2:	81 e1       	ldi	r24, 0x11	; 17
    49a4:	8f 0d       	add	r24, r15
    49a6:	6e 2d       	mov	r22, r14
    49a8:	80 62       	ori	r24, 0x20	; 32
    49aa:	62 df       	rcall	.-316    	; 0x4870 <NRF24L01_L_WriteReg>
    49ac:	8a e0       	ldi	r24, 0x0A	; 10
    49ae:	8f 0d       	add	r24, r15
    49b0:	a8 01       	movw	r20, r16
    49b2:	be 01       	movw	r22, r28
    49b4:	80 62       	ori	r24, 0x20	; 32
    49b6:	b6 df       	rcall	.-148    	; 0x4924 <NRF24L01_L_WriteRegBuf>
    49b8:	df 91       	pop	r29
    49ba:	cf 91       	pop	r28
    49bc:	1f 91       	pop	r17
    49be:	0f 91       	pop	r16
    49c0:	ff 90       	pop	r15
    49c2:	ef 90       	pop	r14
    49c4:	08 95       	ret

000049c6 <NRF24L01_L_Set_TX_Address>:
    49c6:	ab 01       	movw	r20, r22
    49c8:	bc 01       	movw	r22, r24
    49ca:	80 e3       	ldi	r24, 0x30	; 48
    49cc:	ab cf       	rjmp	.-170    	; 0x4924 <NRF24L01_L_WriteRegBuf>
    49ce:	08 95       	ret

000049d0 <NRF24L01_L_Init_milad>:
    49d0:	cf 92       	push	r12
    49d2:	df 92       	push	r13
    49d4:	ef 92       	push	r14
    49d6:	ff 92       	push	r15
    49d8:	0f 93       	push	r16
    49da:	1f 93       	push	r17
    49dc:	cf 93       	push	r28
    49de:	df 93       	push	r29
    49e0:	f8 2e       	mov	r15, r24
    49e2:	d6 2e       	mov	r13, r22
    49e4:	14 2f       	mov	r17, r20
    49e6:	e9 01       	movw	r28, r18
    49e8:	80 e0       	ldi	r24, 0x00	; 0
    49ea:	5d df       	rcall	.-326    	; 0x48a6 <NRF24L01_L_Set_ShockBurst>
    49ec:	61 e0       	ldi	r22, 0x01	; 1
    49ee:	81 e2       	ldi	r24, 0x21	; 33
    49f0:	3f df       	rcall	.-386    	; 0x4870 <NRF24L01_L_WriteReg>
    49f2:	6f e2       	ldi	r22, 0x2F	; 47
    49f4:	84 e2       	ldi	r24, 0x24	; 36
    49f6:	3c df       	rcall	.-392    	; 0x4870 <NRF24L01_L_WriteReg>
    49f8:	11 60       	ori	r17, 0x01	; 1
    49fa:	61 2f       	mov	r22, r17
    49fc:	6c 29       	or	r22, r12
    49fe:	86 e2       	ldi	r24, 0x26	; 38
    4a00:	37 df       	rcall	.-402    	; 0x4870 <NRF24L01_L_WriteReg>
    4a02:	80 2f       	mov	r24, r16
    4a04:	5a df       	rcall	.-332    	; 0x48ba <NRF24L01_L_Set_Address_Width>
    4a06:	11 27       	eor	r17, r17
    4a08:	07 fd       	sbrc	r16, 7
    4a0a:	10 95       	com	r17
    4a0c:	2e 2d       	mov	r18, r14
    4a0e:	a8 01       	movw	r20, r16
    4a10:	be 01       	movw	r22, r28
    4a12:	80 e0       	ldi	r24, 0x00	; 0
    4a14:	ae df       	rcall	.-164    	; 0x4972 <NRF24L01_L_Set_RX_Pipe>
    4a16:	8d 2d       	mov	r24, r13
    4a18:	41 df       	rcall	.-382    	; 0x489c <NRF24L01_L_Set_CH>
    4a1a:	b8 01       	movw	r22, r16
    4a1c:	ce 01       	movw	r24, r28
    4a1e:	d3 df       	rcall	.-90     	; 0x49c6 <NRF24L01_L_Set_TX_Address>
    4a20:	6f 2d       	mov	r22, r15
    4a22:	6a 60       	ori	r22, 0x0A	; 10
    4a24:	80 e2       	ldi	r24, 0x20	; 32
    4a26:	24 df       	rcall	.-440    	; 0x4870 <NRF24L01_L_WriteReg>
    4a28:	8f ed       	ldi	r24, 0xDF	; 223
    4a2a:	9e e2       	ldi	r25, 0x2E	; 46
    4a2c:	01 97       	sbiw	r24, 0x01	; 1
    4a2e:	f1 f7       	brne	.-4      	; 0x4a2c <NRF24L01_L_Init_milad+0x5c>
    4a30:	00 c0       	rjmp	.+0      	; 0x4a32 <NRF24L01_L_Init_milad+0x62>
    4a32:	00 00       	nop
    4a34:	df 91       	pop	r29
    4a36:	cf 91       	pop	r28
    4a38:	1f 91       	pop	r17
    4a3a:	0f 91       	pop	r16
    4a3c:	ff 90       	pop	r15
    4a3e:	ef 90       	pop	r14
    4a40:	df 90       	pop	r13
    4a42:	cf 90       	pop	r12
    4a44:	08 95       	ret

00004a46 <NRF24L01_L_Write_TX_Buf>:
    4a46:	ab 01       	movw	r20, r22
    4a48:	bc 01       	movw	r22, r24
    4a4a:	80 ea       	ldi	r24, 0xA0	; 160
    4a4c:	6b cf       	rjmp	.-298    	; 0x4924 <NRF24L01_L_WriteRegBuf>
    4a4e:	08 95       	ret

00004a50 <NRF24L01_L_Flush_TX>:

/**
 Empty the transmit buffer

*/
void NRF24L01_L_Flush_TX(void) {
    4a50:	1f 93       	push	r17
    4a52:	cf 93       	push	r28
    4a54:	df 93       	push	r29
	NRF24L01_L_CS_LOW;
    4a56:	c0 e8       	ldi	r28, 0x80	; 128
    4a58:	d6 e0       	ldi	r29, 0x06	; 6
    4a5a:	10 e1       	ldi	r17, 0x10	; 16
    4a5c:	1e 83       	std	Y+6, r17	; 0x06
	SPI_L(FLUSH_TX);
    4a5e:	81 ee       	ldi	r24, 0xE1	; 225
    4a60:	ee de       	rcall	.-548    	; 0x483e <SPI_L>
	NRF24L01_L_CS_HIGH;
    4a62:	1d 83       	std	Y+5, r17	; 0x05
}
    4a64:	df 91       	pop	r29
    4a66:	cf 91       	pop	r28
    4a68:	1f 91       	pop	r17
    4a6a:	08 95       	ret

00004a6c <NRF24L01_L_Flush_RX>:

/**
 Empty the receive buffer
*/
void NRF24L01_L_Flush_RX(void) {
    4a6c:	1f 93       	push	r17
    4a6e:	cf 93       	push	r28
    4a70:	df 93       	push	r29
	NRF24L01_L_CS_LOW;
    4a72:	c0 e8       	ldi	r28, 0x80	; 128
    4a74:	d6 e0       	ldi	r29, 0x06	; 6
    4a76:	10 e1       	ldi	r17, 0x10	; 16
    4a78:	1e 83       	std	Y+6, r17	; 0x06
	SPI_L(FLUSH_RX);
    4a7a:	82 ee       	ldi	r24, 0xE2	; 226
    4a7c:	e0 de       	rcall	.-576    	; 0x483e <SPI_L>
	NRF24L01_L_CS_HIGH;
    4a7e:	1d 83       	std	Y+5, r17	; 0x05
}
    4a80:	df 91       	pop	r29
    4a82:	cf 91       	pop	r28
    4a84:	1f 91       	pop	r17
    4a86:	08 95       	ret

00004a88 <__udivmodsi4>:
    4a88:	a1 e2       	ldi	r26, 0x21	; 33
    4a8a:	1a 2e       	mov	r1, r26
    4a8c:	aa 1b       	sub	r26, r26
    4a8e:	bb 1b       	sub	r27, r27
    4a90:	fd 01       	movw	r30, r26
    4a92:	0d c0       	rjmp	.+26     	; 0x4aae <__udivmodsi4_ep>

00004a94 <__udivmodsi4_loop>:
    4a94:	aa 1f       	adc	r26, r26
    4a96:	bb 1f       	adc	r27, r27
    4a98:	ee 1f       	adc	r30, r30
    4a9a:	ff 1f       	adc	r31, r31
    4a9c:	a2 17       	cp	r26, r18
    4a9e:	b3 07       	cpc	r27, r19
    4aa0:	e4 07       	cpc	r30, r20
    4aa2:	f5 07       	cpc	r31, r21
    4aa4:	20 f0       	brcs	.+8      	; 0x4aae <__udivmodsi4_ep>
    4aa6:	a2 1b       	sub	r26, r18
    4aa8:	b3 0b       	sbc	r27, r19
    4aaa:	e4 0b       	sbc	r30, r20
    4aac:	f5 0b       	sbc	r31, r21

00004aae <__udivmodsi4_ep>:
    4aae:	66 1f       	adc	r22, r22
    4ab0:	77 1f       	adc	r23, r23
    4ab2:	88 1f       	adc	r24, r24
    4ab4:	99 1f       	adc	r25, r25
    4ab6:	1a 94       	dec	r1
    4ab8:	69 f7       	brne	.-38     	; 0x4a94 <__udivmodsi4_loop>
    4aba:	60 95       	com	r22
    4abc:	70 95       	com	r23
    4abe:	80 95       	com	r24
    4ac0:	90 95       	com	r25
    4ac2:	9b 01       	movw	r18, r22
    4ac4:	ac 01       	movw	r20, r24
    4ac6:	bd 01       	movw	r22, r26
    4ac8:	cf 01       	movw	r24, r30
    4aca:	08 95       	ret

00004acc <__subsf3>:
    4acc:	50 58       	subi	r21, 0x80	; 128

00004ace <__addsf3>:
    4ace:	bb 27       	eor	r27, r27
    4ad0:	aa 27       	eor	r26, r26
    4ad2:	0e d0       	rcall	.+28     	; 0x4af0 <__addsf3x>
    4ad4:	75 c1       	rjmp	.+746    	; 0x4dc0 <__fp_round>
    4ad6:	66 d1       	rcall	.+716    	; 0x4da4 <__fp_pscA>
    4ad8:	30 f0       	brcs	.+12     	; 0x4ae6 <__addsf3+0x18>
    4ada:	6b d1       	rcall	.+726    	; 0x4db2 <__fp_pscB>
    4adc:	20 f0       	brcs	.+8      	; 0x4ae6 <__addsf3+0x18>
    4ade:	31 f4       	brne	.+12     	; 0x4aec <__addsf3+0x1e>
    4ae0:	9f 3f       	cpi	r25, 0xFF	; 255
    4ae2:	11 f4       	brne	.+4      	; 0x4ae8 <__addsf3+0x1a>
    4ae4:	1e f4       	brtc	.+6      	; 0x4aec <__addsf3+0x1e>
    4ae6:	5b c1       	rjmp	.+694    	; 0x4d9e <__fp_nan>
    4ae8:	0e f4       	brtc	.+2      	; 0x4aec <__addsf3+0x1e>
    4aea:	e0 95       	com	r30
    4aec:	e7 fb       	bst	r30, 7
    4aee:	51 c1       	rjmp	.+674    	; 0x4d92 <__fp_inf>

00004af0 <__addsf3x>:
    4af0:	e9 2f       	mov	r30, r25
    4af2:	77 d1       	rcall	.+750    	; 0x4de2 <__fp_split3>
    4af4:	80 f3       	brcs	.-32     	; 0x4ad6 <__addsf3+0x8>
    4af6:	ba 17       	cp	r27, r26
    4af8:	62 07       	cpc	r22, r18
    4afa:	73 07       	cpc	r23, r19
    4afc:	84 07       	cpc	r24, r20
    4afe:	95 07       	cpc	r25, r21
    4b00:	18 f0       	brcs	.+6      	; 0x4b08 <__addsf3x+0x18>
    4b02:	71 f4       	brne	.+28     	; 0x4b20 <__addsf3x+0x30>
    4b04:	9e f5       	brtc	.+102    	; 0x4b6c <__addsf3x+0x7c>
    4b06:	8f c1       	rjmp	.+798    	; 0x4e26 <__fp_zero>
    4b08:	0e f4       	brtc	.+2      	; 0x4b0c <__addsf3x+0x1c>
    4b0a:	e0 95       	com	r30
    4b0c:	0b 2e       	mov	r0, r27
    4b0e:	ba 2f       	mov	r27, r26
    4b10:	a0 2d       	mov	r26, r0
    4b12:	0b 01       	movw	r0, r22
    4b14:	b9 01       	movw	r22, r18
    4b16:	90 01       	movw	r18, r0
    4b18:	0c 01       	movw	r0, r24
    4b1a:	ca 01       	movw	r24, r20
    4b1c:	a0 01       	movw	r20, r0
    4b1e:	11 24       	eor	r1, r1
    4b20:	ff 27       	eor	r31, r31
    4b22:	59 1b       	sub	r21, r25
    4b24:	99 f0       	breq	.+38     	; 0x4b4c <__addsf3x+0x5c>
    4b26:	59 3f       	cpi	r21, 0xF9	; 249
    4b28:	50 f4       	brcc	.+20     	; 0x4b3e <__addsf3x+0x4e>
    4b2a:	50 3e       	cpi	r21, 0xE0	; 224
    4b2c:	68 f1       	brcs	.+90     	; 0x4b88 <__addsf3x+0x98>
    4b2e:	1a 16       	cp	r1, r26
    4b30:	f0 40       	sbci	r31, 0x00	; 0
    4b32:	a2 2f       	mov	r26, r18
    4b34:	23 2f       	mov	r18, r19
    4b36:	34 2f       	mov	r19, r20
    4b38:	44 27       	eor	r20, r20
    4b3a:	58 5f       	subi	r21, 0xF8	; 248
    4b3c:	f3 cf       	rjmp	.-26     	; 0x4b24 <__addsf3x+0x34>
    4b3e:	46 95       	lsr	r20
    4b40:	37 95       	ror	r19
    4b42:	27 95       	ror	r18
    4b44:	a7 95       	ror	r26
    4b46:	f0 40       	sbci	r31, 0x00	; 0
    4b48:	53 95       	inc	r21
    4b4a:	c9 f7       	brne	.-14     	; 0x4b3e <__addsf3x+0x4e>
    4b4c:	7e f4       	brtc	.+30     	; 0x4b6c <__addsf3x+0x7c>
    4b4e:	1f 16       	cp	r1, r31
    4b50:	ba 0b       	sbc	r27, r26
    4b52:	62 0b       	sbc	r22, r18
    4b54:	73 0b       	sbc	r23, r19
    4b56:	84 0b       	sbc	r24, r20
    4b58:	ba f0       	brmi	.+46     	; 0x4b88 <__addsf3x+0x98>
    4b5a:	91 50       	subi	r25, 0x01	; 1
    4b5c:	a1 f0       	breq	.+40     	; 0x4b86 <__addsf3x+0x96>
    4b5e:	ff 0f       	add	r31, r31
    4b60:	bb 1f       	adc	r27, r27
    4b62:	66 1f       	adc	r22, r22
    4b64:	77 1f       	adc	r23, r23
    4b66:	88 1f       	adc	r24, r24
    4b68:	c2 f7       	brpl	.-16     	; 0x4b5a <__addsf3x+0x6a>
    4b6a:	0e c0       	rjmp	.+28     	; 0x4b88 <__addsf3x+0x98>
    4b6c:	ba 0f       	add	r27, r26
    4b6e:	62 1f       	adc	r22, r18
    4b70:	73 1f       	adc	r23, r19
    4b72:	84 1f       	adc	r24, r20
    4b74:	48 f4       	brcc	.+18     	; 0x4b88 <__addsf3x+0x98>
    4b76:	87 95       	ror	r24
    4b78:	77 95       	ror	r23
    4b7a:	67 95       	ror	r22
    4b7c:	b7 95       	ror	r27
    4b7e:	f7 95       	ror	r31
    4b80:	9e 3f       	cpi	r25, 0xFE	; 254
    4b82:	08 f0       	brcs	.+2      	; 0x4b86 <__addsf3x+0x96>
    4b84:	b3 cf       	rjmp	.-154    	; 0x4aec <__addsf3+0x1e>
    4b86:	93 95       	inc	r25
    4b88:	88 0f       	add	r24, r24
    4b8a:	08 f0       	brcs	.+2      	; 0x4b8e <__addsf3x+0x9e>
    4b8c:	99 27       	eor	r25, r25
    4b8e:	ee 0f       	add	r30, r30
    4b90:	97 95       	ror	r25
    4b92:	87 95       	ror	r24
    4b94:	08 95       	ret

00004b96 <__cmpsf2>:
    4b96:	d9 d0       	rcall	.+434    	; 0x4d4a <__fp_cmp>
    4b98:	08 f4       	brcc	.+2      	; 0x4b9c <__cmpsf2+0x6>
    4b9a:	81 e0       	ldi	r24, 0x01	; 1
    4b9c:	08 95       	ret

00004b9e <__divsf3>:
    4b9e:	0c d0       	rcall	.+24     	; 0x4bb8 <__divsf3x>
    4ba0:	0f c1       	rjmp	.+542    	; 0x4dc0 <__fp_round>
    4ba2:	07 d1       	rcall	.+526    	; 0x4db2 <__fp_pscB>
    4ba4:	40 f0       	brcs	.+16     	; 0x4bb6 <__divsf3+0x18>
    4ba6:	fe d0       	rcall	.+508    	; 0x4da4 <__fp_pscA>
    4ba8:	30 f0       	brcs	.+12     	; 0x4bb6 <__divsf3+0x18>
    4baa:	21 f4       	brne	.+8      	; 0x4bb4 <__divsf3+0x16>
    4bac:	5f 3f       	cpi	r21, 0xFF	; 255
    4bae:	19 f0       	breq	.+6      	; 0x4bb6 <__divsf3+0x18>
    4bb0:	f0 c0       	rjmp	.+480    	; 0x4d92 <__fp_inf>
    4bb2:	51 11       	cpse	r21, r1
    4bb4:	39 c1       	rjmp	.+626    	; 0x4e28 <__fp_szero>
    4bb6:	f3 c0       	rjmp	.+486    	; 0x4d9e <__fp_nan>

00004bb8 <__divsf3x>:
    4bb8:	14 d1       	rcall	.+552    	; 0x4de2 <__fp_split3>
    4bba:	98 f3       	brcs	.-26     	; 0x4ba2 <__divsf3+0x4>

00004bbc <__divsf3_pse>:
    4bbc:	99 23       	and	r25, r25
    4bbe:	c9 f3       	breq	.-14     	; 0x4bb2 <__divsf3+0x14>
    4bc0:	55 23       	and	r21, r21
    4bc2:	b1 f3       	breq	.-20     	; 0x4bb0 <__divsf3+0x12>
    4bc4:	95 1b       	sub	r25, r21
    4bc6:	55 0b       	sbc	r21, r21
    4bc8:	bb 27       	eor	r27, r27
    4bca:	aa 27       	eor	r26, r26
    4bcc:	62 17       	cp	r22, r18
    4bce:	73 07       	cpc	r23, r19
    4bd0:	84 07       	cpc	r24, r20
    4bd2:	38 f0       	brcs	.+14     	; 0x4be2 <__divsf3_pse+0x26>
    4bd4:	9f 5f       	subi	r25, 0xFF	; 255
    4bd6:	5f 4f       	sbci	r21, 0xFF	; 255
    4bd8:	22 0f       	add	r18, r18
    4bda:	33 1f       	adc	r19, r19
    4bdc:	44 1f       	adc	r20, r20
    4bde:	aa 1f       	adc	r26, r26
    4be0:	a9 f3       	breq	.-22     	; 0x4bcc <__divsf3_pse+0x10>
    4be2:	33 d0       	rcall	.+102    	; 0x4c4a <__divsf3_pse+0x8e>
    4be4:	0e 2e       	mov	r0, r30
    4be6:	3a f0       	brmi	.+14     	; 0x4bf6 <__divsf3_pse+0x3a>
    4be8:	e0 e8       	ldi	r30, 0x80	; 128
    4bea:	30 d0       	rcall	.+96     	; 0x4c4c <__divsf3_pse+0x90>
    4bec:	91 50       	subi	r25, 0x01	; 1
    4bee:	50 40       	sbci	r21, 0x00	; 0
    4bf0:	e6 95       	lsr	r30
    4bf2:	00 1c       	adc	r0, r0
    4bf4:	ca f7       	brpl	.-14     	; 0x4be8 <__divsf3_pse+0x2c>
    4bf6:	29 d0       	rcall	.+82     	; 0x4c4a <__divsf3_pse+0x8e>
    4bf8:	fe 2f       	mov	r31, r30
    4bfa:	27 d0       	rcall	.+78     	; 0x4c4a <__divsf3_pse+0x8e>
    4bfc:	66 0f       	add	r22, r22
    4bfe:	77 1f       	adc	r23, r23
    4c00:	88 1f       	adc	r24, r24
    4c02:	bb 1f       	adc	r27, r27
    4c04:	26 17       	cp	r18, r22
    4c06:	37 07       	cpc	r19, r23
    4c08:	48 07       	cpc	r20, r24
    4c0a:	ab 07       	cpc	r26, r27
    4c0c:	b0 e8       	ldi	r27, 0x80	; 128
    4c0e:	09 f0       	breq	.+2      	; 0x4c12 <__divsf3_pse+0x56>
    4c10:	bb 0b       	sbc	r27, r27
    4c12:	80 2d       	mov	r24, r0
    4c14:	bf 01       	movw	r22, r30
    4c16:	ff 27       	eor	r31, r31
    4c18:	93 58       	subi	r25, 0x83	; 131
    4c1a:	5f 4f       	sbci	r21, 0xFF	; 255
    4c1c:	2a f0       	brmi	.+10     	; 0x4c28 <__divsf3_pse+0x6c>
    4c1e:	9e 3f       	cpi	r25, 0xFE	; 254
    4c20:	51 05       	cpc	r21, r1
    4c22:	68 f0       	brcs	.+26     	; 0x4c3e <__divsf3_pse+0x82>
    4c24:	b6 c0       	rjmp	.+364    	; 0x4d92 <__fp_inf>
    4c26:	00 c1       	rjmp	.+512    	; 0x4e28 <__fp_szero>
    4c28:	5f 3f       	cpi	r21, 0xFF	; 255
    4c2a:	ec f3       	brlt	.-6      	; 0x4c26 <__divsf3_pse+0x6a>
    4c2c:	98 3e       	cpi	r25, 0xE8	; 232
    4c2e:	dc f3       	brlt	.-10     	; 0x4c26 <__divsf3_pse+0x6a>
    4c30:	86 95       	lsr	r24
    4c32:	77 95       	ror	r23
    4c34:	67 95       	ror	r22
    4c36:	b7 95       	ror	r27
    4c38:	f7 95       	ror	r31
    4c3a:	9f 5f       	subi	r25, 0xFF	; 255
    4c3c:	c9 f7       	brne	.-14     	; 0x4c30 <__divsf3_pse+0x74>
    4c3e:	88 0f       	add	r24, r24
    4c40:	91 1d       	adc	r25, r1
    4c42:	96 95       	lsr	r25
    4c44:	87 95       	ror	r24
    4c46:	97 f9       	bld	r25, 7
    4c48:	08 95       	ret
    4c4a:	e1 e0       	ldi	r30, 0x01	; 1
    4c4c:	66 0f       	add	r22, r22
    4c4e:	77 1f       	adc	r23, r23
    4c50:	88 1f       	adc	r24, r24
    4c52:	bb 1f       	adc	r27, r27
    4c54:	62 17       	cp	r22, r18
    4c56:	73 07       	cpc	r23, r19
    4c58:	84 07       	cpc	r24, r20
    4c5a:	ba 07       	cpc	r27, r26
    4c5c:	20 f0       	brcs	.+8      	; 0x4c66 <__divsf3_pse+0xaa>
    4c5e:	62 1b       	sub	r22, r18
    4c60:	73 0b       	sbc	r23, r19
    4c62:	84 0b       	sbc	r24, r20
    4c64:	ba 0b       	sbc	r27, r26
    4c66:	ee 1f       	adc	r30, r30
    4c68:	88 f7       	brcc	.-30     	; 0x4c4c <__divsf3_pse+0x90>
    4c6a:	e0 95       	com	r30
    4c6c:	08 95       	ret

00004c6e <__fixsfsi>:
    4c6e:	04 d0       	rcall	.+8      	; 0x4c78 <__fixunssfsi>
    4c70:	68 94       	set
    4c72:	b1 11       	cpse	r27, r1
    4c74:	d9 c0       	rjmp	.+434    	; 0x4e28 <__fp_szero>
    4c76:	08 95       	ret

00004c78 <__fixunssfsi>:
    4c78:	bc d0       	rcall	.+376    	; 0x4df2 <__fp_splitA>
    4c7a:	88 f0       	brcs	.+34     	; 0x4c9e <__fixunssfsi+0x26>
    4c7c:	9f 57       	subi	r25, 0x7F	; 127
    4c7e:	90 f0       	brcs	.+36     	; 0x4ca4 <__fixunssfsi+0x2c>
    4c80:	b9 2f       	mov	r27, r25
    4c82:	99 27       	eor	r25, r25
    4c84:	b7 51       	subi	r27, 0x17	; 23
    4c86:	a0 f0       	brcs	.+40     	; 0x4cb0 <__fixunssfsi+0x38>
    4c88:	d1 f0       	breq	.+52     	; 0x4cbe <__fixunssfsi+0x46>
    4c8a:	66 0f       	add	r22, r22
    4c8c:	77 1f       	adc	r23, r23
    4c8e:	88 1f       	adc	r24, r24
    4c90:	99 1f       	adc	r25, r25
    4c92:	1a f0       	brmi	.+6      	; 0x4c9a <__fixunssfsi+0x22>
    4c94:	ba 95       	dec	r27
    4c96:	c9 f7       	brne	.-14     	; 0x4c8a <__fixunssfsi+0x12>
    4c98:	12 c0       	rjmp	.+36     	; 0x4cbe <__fixunssfsi+0x46>
    4c9a:	b1 30       	cpi	r27, 0x01	; 1
    4c9c:	81 f0       	breq	.+32     	; 0x4cbe <__fixunssfsi+0x46>
    4c9e:	c3 d0       	rcall	.+390    	; 0x4e26 <__fp_zero>
    4ca0:	b1 e0       	ldi	r27, 0x01	; 1
    4ca2:	08 95       	ret
    4ca4:	c0 c0       	rjmp	.+384    	; 0x4e26 <__fp_zero>
    4ca6:	67 2f       	mov	r22, r23
    4ca8:	78 2f       	mov	r23, r24
    4caa:	88 27       	eor	r24, r24
    4cac:	b8 5f       	subi	r27, 0xF8	; 248
    4cae:	39 f0       	breq	.+14     	; 0x4cbe <__fixunssfsi+0x46>
    4cb0:	b9 3f       	cpi	r27, 0xF9	; 249
    4cb2:	cc f3       	brlt	.-14     	; 0x4ca6 <__fixunssfsi+0x2e>
    4cb4:	86 95       	lsr	r24
    4cb6:	77 95       	ror	r23
    4cb8:	67 95       	ror	r22
    4cba:	b3 95       	inc	r27
    4cbc:	d9 f7       	brne	.-10     	; 0x4cb4 <__fixunssfsi+0x3c>
    4cbe:	3e f4       	brtc	.+14     	; 0x4cce <__fixunssfsi+0x56>
    4cc0:	90 95       	com	r25
    4cc2:	80 95       	com	r24
    4cc4:	70 95       	com	r23
    4cc6:	61 95       	neg	r22
    4cc8:	7f 4f       	sbci	r23, 0xFF	; 255
    4cca:	8f 4f       	sbci	r24, 0xFF	; 255
    4ccc:	9f 4f       	sbci	r25, 0xFF	; 255
    4cce:	08 95       	ret

00004cd0 <__floatunsisf>:
    4cd0:	e8 94       	clt
    4cd2:	09 c0       	rjmp	.+18     	; 0x4ce6 <__floatsisf+0x12>

00004cd4 <__floatsisf>:
    4cd4:	97 fb       	bst	r25, 7
    4cd6:	3e f4       	brtc	.+14     	; 0x4ce6 <__floatsisf+0x12>
    4cd8:	90 95       	com	r25
    4cda:	80 95       	com	r24
    4cdc:	70 95       	com	r23
    4cde:	61 95       	neg	r22
    4ce0:	7f 4f       	sbci	r23, 0xFF	; 255
    4ce2:	8f 4f       	sbci	r24, 0xFF	; 255
    4ce4:	9f 4f       	sbci	r25, 0xFF	; 255
    4ce6:	99 23       	and	r25, r25
    4ce8:	a9 f0       	breq	.+42     	; 0x4d14 <__floatsisf+0x40>
    4cea:	f9 2f       	mov	r31, r25
    4cec:	96 e9       	ldi	r25, 0x96	; 150
    4cee:	bb 27       	eor	r27, r27
    4cf0:	93 95       	inc	r25
    4cf2:	f6 95       	lsr	r31
    4cf4:	87 95       	ror	r24
    4cf6:	77 95       	ror	r23
    4cf8:	67 95       	ror	r22
    4cfa:	b7 95       	ror	r27
    4cfc:	f1 11       	cpse	r31, r1
    4cfe:	f8 cf       	rjmp	.-16     	; 0x4cf0 <__floatsisf+0x1c>
    4d00:	fa f4       	brpl	.+62     	; 0x4d40 <__floatsisf+0x6c>
    4d02:	bb 0f       	add	r27, r27
    4d04:	11 f4       	brne	.+4      	; 0x4d0a <__floatsisf+0x36>
    4d06:	60 ff       	sbrs	r22, 0
    4d08:	1b c0       	rjmp	.+54     	; 0x4d40 <__floatsisf+0x6c>
    4d0a:	6f 5f       	subi	r22, 0xFF	; 255
    4d0c:	7f 4f       	sbci	r23, 0xFF	; 255
    4d0e:	8f 4f       	sbci	r24, 0xFF	; 255
    4d10:	9f 4f       	sbci	r25, 0xFF	; 255
    4d12:	16 c0       	rjmp	.+44     	; 0x4d40 <__floatsisf+0x6c>
    4d14:	88 23       	and	r24, r24
    4d16:	11 f0       	breq	.+4      	; 0x4d1c <__floatsisf+0x48>
    4d18:	96 e9       	ldi	r25, 0x96	; 150
    4d1a:	11 c0       	rjmp	.+34     	; 0x4d3e <__floatsisf+0x6a>
    4d1c:	77 23       	and	r23, r23
    4d1e:	21 f0       	breq	.+8      	; 0x4d28 <__floatsisf+0x54>
    4d20:	9e e8       	ldi	r25, 0x8E	; 142
    4d22:	87 2f       	mov	r24, r23
    4d24:	76 2f       	mov	r23, r22
    4d26:	05 c0       	rjmp	.+10     	; 0x4d32 <__floatsisf+0x5e>
    4d28:	66 23       	and	r22, r22
    4d2a:	71 f0       	breq	.+28     	; 0x4d48 <__floatsisf+0x74>
    4d2c:	96 e8       	ldi	r25, 0x86	; 134
    4d2e:	86 2f       	mov	r24, r22
    4d30:	70 e0       	ldi	r23, 0x00	; 0
    4d32:	60 e0       	ldi	r22, 0x00	; 0
    4d34:	2a f0       	brmi	.+10     	; 0x4d40 <__floatsisf+0x6c>
    4d36:	9a 95       	dec	r25
    4d38:	66 0f       	add	r22, r22
    4d3a:	77 1f       	adc	r23, r23
    4d3c:	88 1f       	adc	r24, r24
    4d3e:	da f7       	brpl	.-10     	; 0x4d36 <__floatsisf+0x62>
    4d40:	88 0f       	add	r24, r24
    4d42:	96 95       	lsr	r25
    4d44:	87 95       	ror	r24
    4d46:	97 f9       	bld	r25, 7
    4d48:	08 95       	ret

00004d4a <__fp_cmp>:
    4d4a:	99 0f       	add	r25, r25
    4d4c:	00 08       	sbc	r0, r0
    4d4e:	55 0f       	add	r21, r21
    4d50:	aa 0b       	sbc	r26, r26
    4d52:	e0 e8       	ldi	r30, 0x80	; 128
    4d54:	fe ef       	ldi	r31, 0xFE	; 254
    4d56:	16 16       	cp	r1, r22
    4d58:	17 06       	cpc	r1, r23
    4d5a:	e8 07       	cpc	r30, r24
    4d5c:	f9 07       	cpc	r31, r25
    4d5e:	c0 f0       	brcs	.+48     	; 0x4d90 <__fp_cmp+0x46>
    4d60:	12 16       	cp	r1, r18
    4d62:	13 06       	cpc	r1, r19
    4d64:	e4 07       	cpc	r30, r20
    4d66:	f5 07       	cpc	r31, r21
    4d68:	98 f0       	brcs	.+38     	; 0x4d90 <__fp_cmp+0x46>
    4d6a:	62 1b       	sub	r22, r18
    4d6c:	73 0b       	sbc	r23, r19
    4d6e:	84 0b       	sbc	r24, r20
    4d70:	95 0b       	sbc	r25, r21
    4d72:	39 f4       	brne	.+14     	; 0x4d82 <__fp_cmp+0x38>
    4d74:	0a 26       	eor	r0, r26
    4d76:	61 f0       	breq	.+24     	; 0x4d90 <__fp_cmp+0x46>
    4d78:	23 2b       	or	r18, r19
    4d7a:	24 2b       	or	r18, r20
    4d7c:	25 2b       	or	r18, r21
    4d7e:	21 f4       	brne	.+8      	; 0x4d88 <__fp_cmp+0x3e>
    4d80:	08 95       	ret
    4d82:	0a 26       	eor	r0, r26
    4d84:	09 f4       	brne	.+2      	; 0x4d88 <__fp_cmp+0x3e>
    4d86:	a1 40       	sbci	r26, 0x01	; 1
    4d88:	a6 95       	lsr	r26
    4d8a:	8f ef       	ldi	r24, 0xFF	; 255
    4d8c:	81 1d       	adc	r24, r1
    4d8e:	81 1d       	adc	r24, r1
    4d90:	08 95       	ret

00004d92 <__fp_inf>:
    4d92:	97 f9       	bld	r25, 7
    4d94:	9f 67       	ori	r25, 0x7F	; 127
    4d96:	80 e8       	ldi	r24, 0x80	; 128
    4d98:	70 e0       	ldi	r23, 0x00	; 0
    4d9a:	60 e0       	ldi	r22, 0x00	; 0
    4d9c:	08 95       	ret

00004d9e <__fp_nan>:
    4d9e:	9f ef       	ldi	r25, 0xFF	; 255
    4da0:	80 ec       	ldi	r24, 0xC0	; 192
    4da2:	08 95       	ret

00004da4 <__fp_pscA>:
    4da4:	00 24       	eor	r0, r0
    4da6:	0a 94       	dec	r0
    4da8:	16 16       	cp	r1, r22
    4daa:	17 06       	cpc	r1, r23
    4dac:	18 06       	cpc	r1, r24
    4dae:	09 06       	cpc	r0, r25
    4db0:	08 95       	ret

00004db2 <__fp_pscB>:
    4db2:	00 24       	eor	r0, r0
    4db4:	0a 94       	dec	r0
    4db6:	12 16       	cp	r1, r18
    4db8:	13 06       	cpc	r1, r19
    4dba:	14 06       	cpc	r1, r20
    4dbc:	05 06       	cpc	r0, r21
    4dbe:	08 95       	ret

00004dc0 <__fp_round>:
    4dc0:	09 2e       	mov	r0, r25
    4dc2:	03 94       	inc	r0
    4dc4:	00 0c       	add	r0, r0
    4dc6:	11 f4       	brne	.+4      	; 0x4dcc <__fp_round+0xc>
    4dc8:	88 23       	and	r24, r24
    4dca:	52 f0       	brmi	.+20     	; 0x4de0 <__fp_round+0x20>
    4dcc:	bb 0f       	add	r27, r27
    4dce:	40 f4       	brcc	.+16     	; 0x4de0 <__fp_round+0x20>
    4dd0:	bf 2b       	or	r27, r31
    4dd2:	11 f4       	brne	.+4      	; 0x4dd8 <__fp_round+0x18>
    4dd4:	60 ff       	sbrs	r22, 0
    4dd6:	04 c0       	rjmp	.+8      	; 0x4de0 <__fp_round+0x20>
    4dd8:	6f 5f       	subi	r22, 0xFF	; 255
    4dda:	7f 4f       	sbci	r23, 0xFF	; 255
    4ddc:	8f 4f       	sbci	r24, 0xFF	; 255
    4dde:	9f 4f       	sbci	r25, 0xFF	; 255
    4de0:	08 95       	ret

00004de2 <__fp_split3>:
    4de2:	57 fd       	sbrc	r21, 7
    4de4:	90 58       	subi	r25, 0x80	; 128
    4de6:	44 0f       	add	r20, r20
    4de8:	55 1f       	adc	r21, r21
    4dea:	59 f0       	breq	.+22     	; 0x4e02 <__fp_splitA+0x10>
    4dec:	5f 3f       	cpi	r21, 0xFF	; 255
    4dee:	71 f0       	breq	.+28     	; 0x4e0c <__fp_splitA+0x1a>
    4df0:	47 95       	ror	r20

00004df2 <__fp_splitA>:
    4df2:	88 0f       	add	r24, r24
    4df4:	97 fb       	bst	r25, 7
    4df6:	99 1f       	adc	r25, r25
    4df8:	61 f0       	breq	.+24     	; 0x4e12 <__fp_splitA+0x20>
    4dfa:	9f 3f       	cpi	r25, 0xFF	; 255
    4dfc:	79 f0       	breq	.+30     	; 0x4e1c <__fp_splitA+0x2a>
    4dfe:	87 95       	ror	r24
    4e00:	08 95       	ret
    4e02:	12 16       	cp	r1, r18
    4e04:	13 06       	cpc	r1, r19
    4e06:	14 06       	cpc	r1, r20
    4e08:	55 1f       	adc	r21, r21
    4e0a:	f2 cf       	rjmp	.-28     	; 0x4df0 <__fp_split3+0xe>
    4e0c:	46 95       	lsr	r20
    4e0e:	f1 df       	rcall	.-30     	; 0x4df2 <__fp_splitA>
    4e10:	08 c0       	rjmp	.+16     	; 0x4e22 <__fp_splitA+0x30>
    4e12:	16 16       	cp	r1, r22
    4e14:	17 06       	cpc	r1, r23
    4e16:	18 06       	cpc	r1, r24
    4e18:	99 1f       	adc	r25, r25
    4e1a:	f1 cf       	rjmp	.-30     	; 0x4dfe <__fp_splitA+0xc>
    4e1c:	86 95       	lsr	r24
    4e1e:	71 05       	cpc	r23, r1
    4e20:	61 05       	cpc	r22, r1
    4e22:	08 94       	sec
    4e24:	08 95       	ret

00004e26 <__fp_zero>:
    4e26:	e8 94       	clt

00004e28 <__fp_szero>:
    4e28:	bb 27       	eor	r27, r27
    4e2a:	66 27       	eor	r22, r22
    4e2c:	77 27       	eor	r23, r23
    4e2e:	cb 01       	movw	r24, r22
    4e30:	97 f9       	bld	r25, 7
    4e32:	08 95       	ret

00004e34 <__gesf2>:
    4e34:	8a df       	rcall	.-236    	; 0x4d4a <__fp_cmp>
    4e36:	08 f4       	brcc	.+2      	; 0x4e3a <__gesf2+0x6>
    4e38:	8f ef       	ldi	r24, 0xFF	; 255
    4e3a:	08 95       	ret

00004e3c <__mulsf3>:
    4e3c:	0b d0       	rcall	.+22     	; 0x4e54 <__mulsf3x>
    4e3e:	c0 cf       	rjmp	.-128    	; 0x4dc0 <__fp_round>
    4e40:	b1 df       	rcall	.-158    	; 0x4da4 <__fp_pscA>
    4e42:	28 f0       	brcs	.+10     	; 0x4e4e <__mulsf3+0x12>
    4e44:	b6 df       	rcall	.-148    	; 0x4db2 <__fp_pscB>
    4e46:	18 f0       	brcs	.+6      	; 0x4e4e <__mulsf3+0x12>
    4e48:	95 23       	and	r25, r21
    4e4a:	09 f0       	breq	.+2      	; 0x4e4e <__mulsf3+0x12>
    4e4c:	a2 cf       	rjmp	.-188    	; 0x4d92 <__fp_inf>
    4e4e:	a7 cf       	rjmp	.-178    	; 0x4d9e <__fp_nan>
    4e50:	11 24       	eor	r1, r1
    4e52:	ea cf       	rjmp	.-44     	; 0x4e28 <__fp_szero>

00004e54 <__mulsf3x>:
    4e54:	c6 df       	rcall	.-116    	; 0x4de2 <__fp_split3>
    4e56:	a0 f3       	brcs	.-24     	; 0x4e40 <__mulsf3+0x4>

00004e58 <__mulsf3_pse>:
    4e58:	95 9f       	mul	r25, r21
    4e5a:	d1 f3       	breq	.-12     	; 0x4e50 <__mulsf3+0x14>
    4e5c:	95 0f       	add	r25, r21
    4e5e:	50 e0       	ldi	r21, 0x00	; 0
    4e60:	55 1f       	adc	r21, r21
    4e62:	62 9f       	mul	r22, r18
    4e64:	f0 01       	movw	r30, r0
    4e66:	72 9f       	mul	r23, r18
    4e68:	bb 27       	eor	r27, r27
    4e6a:	f0 0d       	add	r31, r0
    4e6c:	b1 1d       	adc	r27, r1
    4e6e:	63 9f       	mul	r22, r19
    4e70:	aa 27       	eor	r26, r26
    4e72:	f0 0d       	add	r31, r0
    4e74:	b1 1d       	adc	r27, r1
    4e76:	aa 1f       	adc	r26, r26
    4e78:	64 9f       	mul	r22, r20
    4e7a:	66 27       	eor	r22, r22
    4e7c:	b0 0d       	add	r27, r0
    4e7e:	a1 1d       	adc	r26, r1
    4e80:	66 1f       	adc	r22, r22
    4e82:	82 9f       	mul	r24, r18
    4e84:	22 27       	eor	r18, r18
    4e86:	b0 0d       	add	r27, r0
    4e88:	a1 1d       	adc	r26, r1
    4e8a:	62 1f       	adc	r22, r18
    4e8c:	73 9f       	mul	r23, r19
    4e8e:	b0 0d       	add	r27, r0
    4e90:	a1 1d       	adc	r26, r1
    4e92:	62 1f       	adc	r22, r18
    4e94:	83 9f       	mul	r24, r19
    4e96:	a0 0d       	add	r26, r0
    4e98:	61 1d       	adc	r22, r1
    4e9a:	22 1f       	adc	r18, r18
    4e9c:	74 9f       	mul	r23, r20
    4e9e:	33 27       	eor	r19, r19
    4ea0:	a0 0d       	add	r26, r0
    4ea2:	61 1d       	adc	r22, r1
    4ea4:	23 1f       	adc	r18, r19
    4ea6:	84 9f       	mul	r24, r20
    4ea8:	60 0d       	add	r22, r0
    4eaa:	21 1d       	adc	r18, r1
    4eac:	82 2f       	mov	r24, r18
    4eae:	76 2f       	mov	r23, r22
    4eb0:	6a 2f       	mov	r22, r26
    4eb2:	11 24       	eor	r1, r1
    4eb4:	9f 57       	subi	r25, 0x7F	; 127
    4eb6:	50 40       	sbci	r21, 0x00	; 0
    4eb8:	8a f0       	brmi	.+34     	; 0x4edc <__mulsf3_pse+0x84>
    4eba:	e1 f0       	breq	.+56     	; 0x4ef4 <__mulsf3_pse+0x9c>
    4ebc:	88 23       	and	r24, r24
    4ebe:	4a f0       	brmi	.+18     	; 0x4ed2 <__mulsf3_pse+0x7a>
    4ec0:	ee 0f       	add	r30, r30
    4ec2:	ff 1f       	adc	r31, r31
    4ec4:	bb 1f       	adc	r27, r27
    4ec6:	66 1f       	adc	r22, r22
    4ec8:	77 1f       	adc	r23, r23
    4eca:	88 1f       	adc	r24, r24
    4ecc:	91 50       	subi	r25, 0x01	; 1
    4ece:	50 40       	sbci	r21, 0x00	; 0
    4ed0:	a9 f7       	brne	.-22     	; 0x4ebc <__mulsf3_pse+0x64>
    4ed2:	9e 3f       	cpi	r25, 0xFE	; 254
    4ed4:	51 05       	cpc	r21, r1
    4ed6:	70 f0       	brcs	.+28     	; 0x4ef4 <__mulsf3_pse+0x9c>
    4ed8:	5c cf       	rjmp	.-328    	; 0x4d92 <__fp_inf>
    4eda:	a6 cf       	rjmp	.-180    	; 0x4e28 <__fp_szero>
    4edc:	5f 3f       	cpi	r21, 0xFF	; 255
    4ede:	ec f3       	brlt	.-6      	; 0x4eda <__mulsf3_pse+0x82>
    4ee0:	98 3e       	cpi	r25, 0xE8	; 232
    4ee2:	dc f3       	brlt	.-10     	; 0x4eda <__mulsf3_pse+0x82>
    4ee4:	86 95       	lsr	r24
    4ee6:	77 95       	ror	r23
    4ee8:	67 95       	ror	r22
    4eea:	b7 95       	ror	r27
    4eec:	f7 95       	ror	r31
    4eee:	e7 95       	ror	r30
    4ef0:	9f 5f       	subi	r25, 0xFF	; 255
    4ef2:	c1 f7       	brne	.-16     	; 0x4ee4 <__mulsf3_pse+0x8c>
    4ef4:	fe 2b       	or	r31, r30
    4ef6:	88 0f       	add	r24, r24
    4ef8:	91 1d       	adc	r25, r1
    4efa:	96 95       	lsr	r25
    4efc:	87 95       	ror	r24
    4efe:	97 f9       	bld	r25, 7
    4f00:	08 95       	ret

00004f02 <sprintf>:
    4f02:	0f 93       	push	r16
    4f04:	1f 93       	push	r17
    4f06:	cf 93       	push	r28
    4f08:	df 93       	push	r29
    4f0a:	cd b7       	in	r28, 0x3d	; 61
    4f0c:	de b7       	in	r29, 0x3e	; 62
    4f0e:	2e 97       	sbiw	r28, 0x0e	; 14
    4f10:	cd bf       	out	0x3d, r28	; 61
    4f12:	de bf       	out	0x3e, r29	; 62
    4f14:	0e 89       	ldd	r16, Y+22	; 0x16
    4f16:	1f 89       	ldd	r17, Y+23	; 0x17
    4f18:	86 e0       	ldi	r24, 0x06	; 6
    4f1a:	8c 83       	std	Y+4, r24	; 0x04
    4f1c:	09 83       	std	Y+1, r16	; 0x01
    4f1e:	1a 83       	std	Y+2, r17	; 0x02
    4f20:	8f ef       	ldi	r24, 0xFF	; 255
    4f22:	9f e7       	ldi	r25, 0x7F	; 127
    4f24:	8d 83       	std	Y+5, r24	; 0x05
    4f26:	9e 83       	std	Y+6, r25	; 0x06
    4f28:	ae 01       	movw	r20, r28
    4f2a:	46 5e       	subi	r20, 0xE6	; 230
    4f2c:	5f 4f       	sbci	r21, 0xFF	; 255
    4f2e:	68 8d       	ldd	r22, Y+24	; 0x18
    4f30:	79 8d       	ldd	r23, Y+25	; 0x19
    4f32:	ce 01       	movw	r24, r28
    4f34:	01 96       	adiw	r24, 0x01	; 1
    4f36:	0d d0       	rcall	.+26     	; 0x4f52 <vfprintf>
    4f38:	ef 81       	ldd	r30, Y+7	; 0x07
    4f3a:	f8 85       	ldd	r31, Y+8	; 0x08
    4f3c:	e0 0f       	add	r30, r16
    4f3e:	f1 1f       	adc	r31, r17
    4f40:	10 82       	st	Z, r1
    4f42:	2e 96       	adiw	r28, 0x0e	; 14
    4f44:	cd bf       	out	0x3d, r28	; 61
    4f46:	de bf       	out	0x3e, r29	; 62
    4f48:	df 91       	pop	r29
    4f4a:	cf 91       	pop	r28
    4f4c:	1f 91       	pop	r17
    4f4e:	0f 91       	pop	r16
    4f50:	08 95       	ret

00004f52 <vfprintf>:
    4f52:	2f 92       	push	r2
    4f54:	3f 92       	push	r3
    4f56:	4f 92       	push	r4
    4f58:	5f 92       	push	r5
    4f5a:	6f 92       	push	r6
    4f5c:	7f 92       	push	r7
    4f5e:	8f 92       	push	r8
    4f60:	9f 92       	push	r9
    4f62:	af 92       	push	r10
    4f64:	bf 92       	push	r11
    4f66:	cf 92       	push	r12
    4f68:	df 92       	push	r13
    4f6a:	ef 92       	push	r14
    4f6c:	ff 92       	push	r15
    4f6e:	0f 93       	push	r16
    4f70:	1f 93       	push	r17
    4f72:	cf 93       	push	r28
    4f74:	df 93       	push	r29
    4f76:	cd b7       	in	r28, 0x3d	; 61
    4f78:	de b7       	in	r29, 0x3e	; 62
    4f7a:	2c 97       	sbiw	r28, 0x0c	; 12
    4f7c:	cd bf       	out	0x3d, r28	; 61
    4f7e:	de bf       	out	0x3e, r29	; 62
    4f80:	7c 01       	movw	r14, r24
    4f82:	6b 01       	movw	r12, r22
    4f84:	8a 01       	movw	r16, r20
    4f86:	fc 01       	movw	r30, r24
    4f88:	16 82       	std	Z+6, r1	; 0x06
    4f8a:	17 82       	std	Z+7, r1	; 0x07
    4f8c:	83 81       	ldd	r24, Z+3	; 0x03
    4f8e:	81 ff       	sbrs	r24, 1
    4f90:	b0 c1       	rjmp	.+864    	; 0x52f2 <vfprintf+0x3a0>
    4f92:	ce 01       	movw	r24, r28
    4f94:	01 96       	adiw	r24, 0x01	; 1
    4f96:	4c 01       	movw	r8, r24
    4f98:	f7 01       	movw	r30, r14
    4f9a:	93 81       	ldd	r25, Z+3	; 0x03
    4f9c:	f6 01       	movw	r30, r12
    4f9e:	93 fd       	sbrc	r25, 3
    4fa0:	85 91       	lpm	r24, Z+
    4fa2:	93 ff       	sbrs	r25, 3
    4fa4:	81 91       	ld	r24, Z+
    4fa6:	6f 01       	movw	r12, r30
    4fa8:	88 23       	and	r24, r24
    4faa:	09 f4       	brne	.+2      	; 0x4fae <vfprintf+0x5c>
    4fac:	9e c1       	rjmp	.+828    	; 0x52ea <vfprintf+0x398>
    4fae:	85 32       	cpi	r24, 0x25	; 37
    4fb0:	39 f4       	brne	.+14     	; 0x4fc0 <vfprintf+0x6e>
    4fb2:	93 fd       	sbrc	r25, 3
    4fb4:	85 91       	lpm	r24, Z+
    4fb6:	93 ff       	sbrs	r25, 3
    4fb8:	81 91       	ld	r24, Z+
    4fba:	6f 01       	movw	r12, r30
    4fbc:	85 32       	cpi	r24, 0x25	; 37
    4fbe:	21 f4       	brne	.+8      	; 0x4fc8 <vfprintf+0x76>
    4fc0:	b7 01       	movw	r22, r14
    4fc2:	90 e0       	ldi	r25, 0x00	; 0
    4fc4:	c4 d1       	rcall	.+904    	; 0x534e <fputc>
    4fc6:	e8 cf       	rjmp	.-48     	; 0x4f98 <vfprintf+0x46>
    4fc8:	51 2c       	mov	r5, r1
    4fca:	31 2c       	mov	r3, r1
    4fcc:	20 e0       	ldi	r18, 0x00	; 0
    4fce:	20 32       	cpi	r18, 0x20	; 32
    4fd0:	a0 f4       	brcc	.+40     	; 0x4ffa <vfprintf+0xa8>
    4fd2:	8b 32       	cpi	r24, 0x2B	; 43
    4fd4:	69 f0       	breq	.+26     	; 0x4ff0 <vfprintf+0x9e>
    4fd6:	30 f4       	brcc	.+12     	; 0x4fe4 <vfprintf+0x92>
    4fd8:	80 32       	cpi	r24, 0x20	; 32
    4fda:	59 f0       	breq	.+22     	; 0x4ff2 <vfprintf+0xa0>
    4fdc:	83 32       	cpi	r24, 0x23	; 35
    4fde:	69 f4       	brne	.+26     	; 0x4ffa <vfprintf+0xa8>
    4fe0:	20 61       	ori	r18, 0x10	; 16
    4fe2:	2c c0       	rjmp	.+88     	; 0x503c <vfprintf+0xea>
    4fe4:	8d 32       	cpi	r24, 0x2D	; 45
    4fe6:	39 f0       	breq	.+14     	; 0x4ff6 <vfprintf+0xa4>
    4fe8:	80 33       	cpi	r24, 0x30	; 48
    4fea:	39 f4       	brne	.+14     	; 0x4ffa <vfprintf+0xa8>
    4fec:	21 60       	ori	r18, 0x01	; 1
    4fee:	26 c0       	rjmp	.+76     	; 0x503c <vfprintf+0xea>
    4ff0:	22 60       	ori	r18, 0x02	; 2
    4ff2:	24 60       	ori	r18, 0x04	; 4
    4ff4:	23 c0       	rjmp	.+70     	; 0x503c <vfprintf+0xea>
    4ff6:	28 60       	ori	r18, 0x08	; 8
    4ff8:	21 c0       	rjmp	.+66     	; 0x503c <vfprintf+0xea>
    4ffa:	27 fd       	sbrc	r18, 7
    4ffc:	27 c0       	rjmp	.+78     	; 0x504c <vfprintf+0xfa>
    4ffe:	30 ed       	ldi	r19, 0xD0	; 208
    5000:	38 0f       	add	r19, r24
    5002:	3a 30       	cpi	r19, 0x0A	; 10
    5004:	78 f4       	brcc	.+30     	; 0x5024 <vfprintf+0xd2>
    5006:	26 ff       	sbrs	r18, 6
    5008:	06 c0       	rjmp	.+12     	; 0x5016 <vfprintf+0xc4>
    500a:	fa e0       	ldi	r31, 0x0A	; 10
    500c:	5f 9e       	mul	r5, r31
    500e:	30 0d       	add	r19, r0
    5010:	11 24       	eor	r1, r1
    5012:	53 2e       	mov	r5, r19
    5014:	13 c0       	rjmp	.+38     	; 0x503c <vfprintf+0xea>
    5016:	8a e0       	ldi	r24, 0x0A	; 10
    5018:	38 9e       	mul	r3, r24
    501a:	30 0d       	add	r19, r0
    501c:	11 24       	eor	r1, r1
    501e:	33 2e       	mov	r3, r19
    5020:	20 62       	ori	r18, 0x20	; 32
    5022:	0c c0       	rjmp	.+24     	; 0x503c <vfprintf+0xea>
    5024:	8e 32       	cpi	r24, 0x2E	; 46
    5026:	21 f4       	brne	.+8      	; 0x5030 <vfprintf+0xde>
    5028:	26 fd       	sbrc	r18, 6
    502a:	5f c1       	rjmp	.+702    	; 0x52ea <vfprintf+0x398>
    502c:	20 64       	ori	r18, 0x40	; 64
    502e:	06 c0       	rjmp	.+12     	; 0x503c <vfprintf+0xea>
    5030:	8c 36       	cpi	r24, 0x6C	; 108
    5032:	11 f4       	brne	.+4      	; 0x5038 <vfprintf+0xe6>
    5034:	20 68       	ori	r18, 0x80	; 128
    5036:	02 c0       	rjmp	.+4      	; 0x503c <vfprintf+0xea>
    5038:	88 36       	cpi	r24, 0x68	; 104
    503a:	41 f4       	brne	.+16     	; 0x504c <vfprintf+0xfa>
    503c:	f6 01       	movw	r30, r12
    503e:	93 fd       	sbrc	r25, 3
    5040:	85 91       	lpm	r24, Z+
    5042:	93 ff       	sbrs	r25, 3
    5044:	81 91       	ld	r24, Z+
    5046:	6f 01       	movw	r12, r30
    5048:	81 11       	cpse	r24, r1
    504a:	c1 cf       	rjmp	.-126    	; 0x4fce <vfprintf+0x7c>
    504c:	98 2f       	mov	r25, r24
    504e:	9f 7d       	andi	r25, 0xDF	; 223
    5050:	95 54       	subi	r25, 0x45	; 69
    5052:	93 30       	cpi	r25, 0x03	; 3
    5054:	28 f4       	brcc	.+10     	; 0x5060 <vfprintf+0x10e>
    5056:	0c 5f       	subi	r16, 0xFC	; 252
    5058:	1f 4f       	sbci	r17, 0xFF	; 255
    505a:	ff e3       	ldi	r31, 0x3F	; 63
    505c:	f9 83       	std	Y+1, r31	; 0x01
    505e:	0d c0       	rjmp	.+26     	; 0x507a <vfprintf+0x128>
    5060:	83 36       	cpi	r24, 0x63	; 99
    5062:	31 f0       	breq	.+12     	; 0x5070 <vfprintf+0x11e>
    5064:	83 37       	cpi	r24, 0x73	; 115
    5066:	71 f0       	breq	.+28     	; 0x5084 <vfprintf+0x132>
    5068:	83 35       	cpi	r24, 0x53	; 83
    506a:	09 f0       	breq	.+2      	; 0x506e <vfprintf+0x11c>
    506c:	57 c0       	rjmp	.+174    	; 0x511c <vfprintf+0x1ca>
    506e:	21 c0       	rjmp	.+66     	; 0x50b2 <vfprintf+0x160>
    5070:	f8 01       	movw	r30, r16
    5072:	80 81       	ld	r24, Z
    5074:	89 83       	std	Y+1, r24	; 0x01
    5076:	0e 5f       	subi	r16, 0xFE	; 254
    5078:	1f 4f       	sbci	r17, 0xFF	; 255
    507a:	44 24       	eor	r4, r4
    507c:	43 94       	inc	r4
    507e:	51 2c       	mov	r5, r1
    5080:	54 01       	movw	r10, r8
    5082:	14 c0       	rjmp	.+40     	; 0x50ac <vfprintf+0x15a>
    5084:	38 01       	movw	r6, r16
    5086:	f2 e0       	ldi	r31, 0x02	; 2
    5088:	6f 0e       	add	r6, r31
    508a:	71 1c       	adc	r7, r1
    508c:	f8 01       	movw	r30, r16
    508e:	a0 80       	ld	r10, Z
    5090:	b1 80       	ldd	r11, Z+1	; 0x01
    5092:	26 ff       	sbrs	r18, 6
    5094:	03 c0       	rjmp	.+6      	; 0x509c <vfprintf+0x14a>
    5096:	65 2d       	mov	r22, r5
    5098:	70 e0       	ldi	r23, 0x00	; 0
    509a:	02 c0       	rjmp	.+4      	; 0x50a0 <vfprintf+0x14e>
    509c:	6f ef       	ldi	r22, 0xFF	; 255
    509e:	7f ef       	ldi	r23, 0xFF	; 255
    50a0:	c5 01       	movw	r24, r10
    50a2:	2c 87       	std	Y+12, r18	; 0x0c
    50a4:	49 d1       	rcall	.+658    	; 0x5338 <strnlen>
    50a6:	2c 01       	movw	r4, r24
    50a8:	83 01       	movw	r16, r6
    50aa:	2c 85       	ldd	r18, Y+12	; 0x0c
    50ac:	2f 77       	andi	r18, 0x7F	; 127
    50ae:	22 2e       	mov	r2, r18
    50b0:	16 c0       	rjmp	.+44     	; 0x50de <vfprintf+0x18c>
    50b2:	38 01       	movw	r6, r16
    50b4:	f2 e0       	ldi	r31, 0x02	; 2
    50b6:	6f 0e       	add	r6, r31
    50b8:	71 1c       	adc	r7, r1
    50ba:	f8 01       	movw	r30, r16
    50bc:	a0 80       	ld	r10, Z
    50be:	b1 80       	ldd	r11, Z+1	; 0x01
    50c0:	26 ff       	sbrs	r18, 6
    50c2:	03 c0       	rjmp	.+6      	; 0x50ca <vfprintf+0x178>
    50c4:	65 2d       	mov	r22, r5
    50c6:	70 e0       	ldi	r23, 0x00	; 0
    50c8:	02 c0       	rjmp	.+4      	; 0x50ce <vfprintf+0x17c>
    50ca:	6f ef       	ldi	r22, 0xFF	; 255
    50cc:	7f ef       	ldi	r23, 0xFF	; 255
    50ce:	c5 01       	movw	r24, r10
    50d0:	2c 87       	std	Y+12, r18	; 0x0c
    50d2:	27 d1       	rcall	.+590    	; 0x5322 <strnlen_P>
    50d4:	2c 01       	movw	r4, r24
    50d6:	2c 85       	ldd	r18, Y+12	; 0x0c
    50d8:	20 68       	ori	r18, 0x80	; 128
    50da:	22 2e       	mov	r2, r18
    50dc:	83 01       	movw	r16, r6
    50de:	23 fc       	sbrc	r2, 3
    50e0:	19 c0       	rjmp	.+50     	; 0x5114 <vfprintf+0x1c2>
    50e2:	83 2d       	mov	r24, r3
    50e4:	90 e0       	ldi	r25, 0x00	; 0
    50e6:	48 16       	cp	r4, r24
    50e8:	59 06       	cpc	r5, r25
    50ea:	a0 f4       	brcc	.+40     	; 0x5114 <vfprintf+0x1c2>
    50ec:	b7 01       	movw	r22, r14
    50ee:	80 e2       	ldi	r24, 0x20	; 32
    50f0:	90 e0       	ldi	r25, 0x00	; 0
    50f2:	2d d1       	rcall	.+602    	; 0x534e <fputc>
    50f4:	3a 94       	dec	r3
    50f6:	f5 cf       	rjmp	.-22     	; 0x50e2 <vfprintf+0x190>
    50f8:	f5 01       	movw	r30, r10
    50fa:	27 fc       	sbrc	r2, 7
    50fc:	85 91       	lpm	r24, Z+
    50fe:	27 fe       	sbrs	r2, 7
    5100:	81 91       	ld	r24, Z+
    5102:	5f 01       	movw	r10, r30
    5104:	b7 01       	movw	r22, r14
    5106:	90 e0       	ldi	r25, 0x00	; 0
    5108:	22 d1       	rcall	.+580    	; 0x534e <fputc>
    510a:	31 10       	cpse	r3, r1
    510c:	3a 94       	dec	r3
    510e:	f1 e0       	ldi	r31, 0x01	; 1
    5110:	4f 1a       	sub	r4, r31
    5112:	51 08       	sbc	r5, r1
    5114:	41 14       	cp	r4, r1
    5116:	51 04       	cpc	r5, r1
    5118:	79 f7       	brne	.-34     	; 0x50f8 <vfprintf+0x1a6>
    511a:	de c0       	rjmp	.+444    	; 0x52d8 <vfprintf+0x386>
    511c:	84 36       	cpi	r24, 0x64	; 100
    511e:	11 f0       	breq	.+4      	; 0x5124 <vfprintf+0x1d2>
    5120:	89 36       	cpi	r24, 0x69	; 105
    5122:	31 f5       	brne	.+76     	; 0x5170 <vfprintf+0x21e>
    5124:	f8 01       	movw	r30, r16
    5126:	27 ff       	sbrs	r18, 7
    5128:	07 c0       	rjmp	.+14     	; 0x5138 <vfprintf+0x1e6>
    512a:	60 81       	ld	r22, Z
    512c:	71 81       	ldd	r23, Z+1	; 0x01
    512e:	82 81       	ldd	r24, Z+2	; 0x02
    5130:	93 81       	ldd	r25, Z+3	; 0x03
    5132:	0c 5f       	subi	r16, 0xFC	; 252
    5134:	1f 4f       	sbci	r17, 0xFF	; 255
    5136:	08 c0       	rjmp	.+16     	; 0x5148 <vfprintf+0x1f6>
    5138:	60 81       	ld	r22, Z
    513a:	71 81       	ldd	r23, Z+1	; 0x01
    513c:	88 27       	eor	r24, r24
    513e:	77 fd       	sbrc	r23, 7
    5140:	80 95       	com	r24
    5142:	98 2f       	mov	r25, r24
    5144:	0e 5f       	subi	r16, 0xFE	; 254
    5146:	1f 4f       	sbci	r17, 0xFF	; 255
    5148:	2f 76       	andi	r18, 0x6F	; 111
    514a:	b2 2e       	mov	r11, r18
    514c:	97 ff       	sbrs	r25, 7
    514e:	09 c0       	rjmp	.+18     	; 0x5162 <vfprintf+0x210>
    5150:	90 95       	com	r25
    5152:	80 95       	com	r24
    5154:	70 95       	com	r23
    5156:	61 95       	neg	r22
    5158:	7f 4f       	sbci	r23, 0xFF	; 255
    515a:	8f 4f       	sbci	r24, 0xFF	; 255
    515c:	9f 4f       	sbci	r25, 0xFF	; 255
    515e:	20 68       	ori	r18, 0x80	; 128
    5160:	b2 2e       	mov	r11, r18
    5162:	2a e0       	ldi	r18, 0x0A	; 10
    5164:	30 e0       	ldi	r19, 0x00	; 0
    5166:	a4 01       	movw	r20, r8
    5168:	24 d1       	rcall	.+584    	; 0x53b2 <__ultoa_invert>
    516a:	a8 2e       	mov	r10, r24
    516c:	a8 18       	sub	r10, r8
    516e:	43 c0       	rjmp	.+134    	; 0x51f6 <vfprintf+0x2a4>
    5170:	85 37       	cpi	r24, 0x75	; 117
    5172:	29 f4       	brne	.+10     	; 0x517e <vfprintf+0x22c>
    5174:	2f 7e       	andi	r18, 0xEF	; 239
    5176:	b2 2e       	mov	r11, r18
    5178:	2a e0       	ldi	r18, 0x0A	; 10
    517a:	30 e0       	ldi	r19, 0x00	; 0
    517c:	25 c0       	rjmp	.+74     	; 0x51c8 <vfprintf+0x276>
    517e:	f2 2f       	mov	r31, r18
    5180:	f9 7f       	andi	r31, 0xF9	; 249
    5182:	bf 2e       	mov	r11, r31
    5184:	8f 36       	cpi	r24, 0x6F	; 111
    5186:	c1 f0       	breq	.+48     	; 0x51b8 <vfprintf+0x266>
    5188:	18 f4       	brcc	.+6      	; 0x5190 <vfprintf+0x23e>
    518a:	88 35       	cpi	r24, 0x58	; 88
    518c:	79 f0       	breq	.+30     	; 0x51ac <vfprintf+0x25a>
    518e:	ad c0       	rjmp	.+346    	; 0x52ea <vfprintf+0x398>
    5190:	80 37       	cpi	r24, 0x70	; 112
    5192:	19 f0       	breq	.+6      	; 0x519a <vfprintf+0x248>
    5194:	88 37       	cpi	r24, 0x78	; 120
    5196:	21 f0       	breq	.+8      	; 0x51a0 <vfprintf+0x24e>
    5198:	a8 c0       	rjmp	.+336    	; 0x52ea <vfprintf+0x398>
    519a:	2f 2f       	mov	r18, r31
    519c:	20 61       	ori	r18, 0x10	; 16
    519e:	b2 2e       	mov	r11, r18
    51a0:	b4 fe       	sbrs	r11, 4
    51a2:	0d c0       	rjmp	.+26     	; 0x51be <vfprintf+0x26c>
    51a4:	8b 2d       	mov	r24, r11
    51a6:	84 60       	ori	r24, 0x04	; 4
    51a8:	b8 2e       	mov	r11, r24
    51aa:	09 c0       	rjmp	.+18     	; 0x51be <vfprintf+0x26c>
    51ac:	24 ff       	sbrs	r18, 4
    51ae:	0a c0       	rjmp	.+20     	; 0x51c4 <vfprintf+0x272>
    51b0:	9f 2f       	mov	r25, r31
    51b2:	96 60       	ori	r25, 0x06	; 6
    51b4:	b9 2e       	mov	r11, r25
    51b6:	06 c0       	rjmp	.+12     	; 0x51c4 <vfprintf+0x272>
    51b8:	28 e0       	ldi	r18, 0x08	; 8
    51ba:	30 e0       	ldi	r19, 0x00	; 0
    51bc:	05 c0       	rjmp	.+10     	; 0x51c8 <vfprintf+0x276>
    51be:	20 e1       	ldi	r18, 0x10	; 16
    51c0:	30 e0       	ldi	r19, 0x00	; 0
    51c2:	02 c0       	rjmp	.+4      	; 0x51c8 <vfprintf+0x276>
    51c4:	20 e1       	ldi	r18, 0x10	; 16
    51c6:	32 e0       	ldi	r19, 0x02	; 2
    51c8:	f8 01       	movw	r30, r16
    51ca:	b7 fe       	sbrs	r11, 7
    51cc:	07 c0       	rjmp	.+14     	; 0x51dc <vfprintf+0x28a>
    51ce:	60 81       	ld	r22, Z
    51d0:	71 81       	ldd	r23, Z+1	; 0x01
    51d2:	82 81       	ldd	r24, Z+2	; 0x02
    51d4:	93 81       	ldd	r25, Z+3	; 0x03
    51d6:	0c 5f       	subi	r16, 0xFC	; 252
    51d8:	1f 4f       	sbci	r17, 0xFF	; 255
    51da:	06 c0       	rjmp	.+12     	; 0x51e8 <vfprintf+0x296>
    51dc:	60 81       	ld	r22, Z
    51de:	71 81       	ldd	r23, Z+1	; 0x01
    51e0:	80 e0       	ldi	r24, 0x00	; 0
    51e2:	90 e0       	ldi	r25, 0x00	; 0
    51e4:	0e 5f       	subi	r16, 0xFE	; 254
    51e6:	1f 4f       	sbci	r17, 0xFF	; 255
    51e8:	a4 01       	movw	r20, r8
    51ea:	e3 d0       	rcall	.+454    	; 0x53b2 <__ultoa_invert>
    51ec:	a8 2e       	mov	r10, r24
    51ee:	a8 18       	sub	r10, r8
    51f0:	fb 2d       	mov	r31, r11
    51f2:	ff 77       	andi	r31, 0x7F	; 127
    51f4:	bf 2e       	mov	r11, r31
    51f6:	b6 fe       	sbrs	r11, 6
    51f8:	0b c0       	rjmp	.+22     	; 0x5210 <vfprintf+0x2be>
    51fa:	2b 2d       	mov	r18, r11
    51fc:	2e 7f       	andi	r18, 0xFE	; 254
    51fe:	a5 14       	cp	r10, r5
    5200:	50 f4       	brcc	.+20     	; 0x5216 <vfprintf+0x2c4>
    5202:	b4 fe       	sbrs	r11, 4
    5204:	0a c0       	rjmp	.+20     	; 0x521a <vfprintf+0x2c8>
    5206:	b2 fc       	sbrc	r11, 2
    5208:	08 c0       	rjmp	.+16     	; 0x521a <vfprintf+0x2c8>
    520a:	2b 2d       	mov	r18, r11
    520c:	2e 7e       	andi	r18, 0xEE	; 238
    520e:	05 c0       	rjmp	.+10     	; 0x521a <vfprintf+0x2c8>
    5210:	7a 2c       	mov	r7, r10
    5212:	2b 2d       	mov	r18, r11
    5214:	03 c0       	rjmp	.+6      	; 0x521c <vfprintf+0x2ca>
    5216:	7a 2c       	mov	r7, r10
    5218:	01 c0       	rjmp	.+2      	; 0x521c <vfprintf+0x2ca>
    521a:	75 2c       	mov	r7, r5
    521c:	24 ff       	sbrs	r18, 4
    521e:	0d c0       	rjmp	.+26     	; 0x523a <vfprintf+0x2e8>
    5220:	fe 01       	movw	r30, r28
    5222:	ea 0d       	add	r30, r10
    5224:	f1 1d       	adc	r31, r1
    5226:	80 81       	ld	r24, Z
    5228:	80 33       	cpi	r24, 0x30	; 48
    522a:	11 f4       	brne	.+4      	; 0x5230 <vfprintf+0x2de>
    522c:	29 7e       	andi	r18, 0xE9	; 233
    522e:	09 c0       	rjmp	.+18     	; 0x5242 <vfprintf+0x2f0>
    5230:	22 ff       	sbrs	r18, 2
    5232:	06 c0       	rjmp	.+12     	; 0x5240 <vfprintf+0x2ee>
    5234:	73 94       	inc	r7
    5236:	73 94       	inc	r7
    5238:	04 c0       	rjmp	.+8      	; 0x5242 <vfprintf+0x2f0>
    523a:	82 2f       	mov	r24, r18
    523c:	86 78       	andi	r24, 0x86	; 134
    523e:	09 f0       	breq	.+2      	; 0x5242 <vfprintf+0x2f0>
    5240:	73 94       	inc	r7
    5242:	23 fd       	sbrc	r18, 3
    5244:	12 c0       	rjmp	.+36     	; 0x526a <vfprintf+0x318>
    5246:	20 ff       	sbrs	r18, 0
    5248:	06 c0       	rjmp	.+12     	; 0x5256 <vfprintf+0x304>
    524a:	5a 2c       	mov	r5, r10
    524c:	73 14       	cp	r7, r3
    524e:	18 f4       	brcc	.+6      	; 0x5256 <vfprintf+0x304>
    5250:	53 0c       	add	r5, r3
    5252:	57 18       	sub	r5, r7
    5254:	73 2c       	mov	r7, r3
    5256:	73 14       	cp	r7, r3
    5258:	60 f4       	brcc	.+24     	; 0x5272 <vfprintf+0x320>
    525a:	b7 01       	movw	r22, r14
    525c:	80 e2       	ldi	r24, 0x20	; 32
    525e:	90 e0       	ldi	r25, 0x00	; 0
    5260:	2c 87       	std	Y+12, r18	; 0x0c
    5262:	75 d0       	rcall	.+234    	; 0x534e <fputc>
    5264:	73 94       	inc	r7
    5266:	2c 85       	ldd	r18, Y+12	; 0x0c
    5268:	f6 cf       	rjmp	.-20     	; 0x5256 <vfprintf+0x304>
    526a:	73 14       	cp	r7, r3
    526c:	10 f4       	brcc	.+4      	; 0x5272 <vfprintf+0x320>
    526e:	37 18       	sub	r3, r7
    5270:	01 c0       	rjmp	.+2      	; 0x5274 <vfprintf+0x322>
    5272:	31 2c       	mov	r3, r1
    5274:	24 ff       	sbrs	r18, 4
    5276:	11 c0       	rjmp	.+34     	; 0x529a <vfprintf+0x348>
    5278:	b7 01       	movw	r22, r14
    527a:	80 e3       	ldi	r24, 0x30	; 48
    527c:	90 e0       	ldi	r25, 0x00	; 0
    527e:	2c 87       	std	Y+12, r18	; 0x0c
    5280:	66 d0       	rcall	.+204    	; 0x534e <fputc>
    5282:	2c 85       	ldd	r18, Y+12	; 0x0c
    5284:	22 ff       	sbrs	r18, 2
    5286:	16 c0       	rjmp	.+44     	; 0x52b4 <vfprintf+0x362>
    5288:	21 ff       	sbrs	r18, 1
    528a:	03 c0       	rjmp	.+6      	; 0x5292 <vfprintf+0x340>
    528c:	88 e5       	ldi	r24, 0x58	; 88
    528e:	90 e0       	ldi	r25, 0x00	; 0
    5290:	02 c0       	rjmp	.+4      	; 0x5296 <vfprintf+0x344>
    5292:	88 e7       	ldi	r24, 0x78	; 120
    5294:	90 e0       	ldi	r25, 0x00	; 0
    5296:	b7 01       	movw	r22, r14
    5298:	0c c0       	rjmp	.+24     	; 0x52b2 <vfprintf+0x360>
    529a:	82 2f       	mov	r24, r18
    529c:	86 78       	andi	r24, 0x86	; 134
    529e:	51 f0       	breq	.+20     	; 0x52b4 <vfprintf+0x362>
    52a0:	21 fd       	sbrc	r18, 1
    52a2:	02 c0       	rjmp	.+4      	; 0x52a8 <vfprintf+0x356>
    52a4:	80 e2       	ldi	r24, 0x20	; 32
    52a6:	01 c0       	rjmp	.+2      	; 0x52aa <vfprintf+0x358>
    52a8:	8b e2       	ldi	r24, 0x2B	; 43
    52aa:	27 fd       	sbrc	r18, 7
    52ac:	8d e2       	ldi	r24, 0x2D	; 45
    52ae:	b7 01       	movw	r22, r14
    52b0:	90 e0       	ldi	r25, 0x00	; 0
    52b2:	4d d0       	rcall	.+154    	; 0x534e <fputc>
    52b4:	a5 14       	cp	r10, r5
    52b6:	30 f4       	brcc	.+12     	; 0x52c4 <vfprintf+0x372>
    52b8:	b7 01       	movw	r22, r14
    52ba:	80 e3       	ldi	r24, 0x30	; 48
    52bc:	90 e0       	ldi	r25, 0x00	; 0
    52be:	47 d0       	rcall	.+142    	; 0x534e <fputc>
    52c0:	5a 94       	dec	r5
    52c2:	f8 cf       	rjmp	.-16     	; 0x52b4 <vfprintf+0x362>
    52c4:	aa 94       	dec	r10
    52c6:	f4 01       	movw	r30, r8
    52c8:	ea 0d       	add	r30, r10
    52ca:	f1 1d       	adc	r31, r1
    52cc:	80 81       	ld	r24, Z
    52ce:	b7 01       	movw	r22, r14
    52d0:	90 e0       	ldi	r25, 0x00	; 0
    52d2:	3d d0       	rcall	.+122    	; 0x534e <fputc>
    52d4:	a1 10       	cpse	r10, r1
    52d6:	f6 cf       	rjmp	.-20     	; 0x52c4 <vfprintf+0x372>
    52d8:	33 20       	and	r3, r3
    52da:	09 f4       	brne	.+2      	; 0x52de <vfprintf+0x38c>
    52dc:	5d ce       	rjmp	.-838    	; 0x4f98 <vfprintf+0x46>
    52de:	b7 01       	movw	r22, r14
    52e0:	80 e2       	ldi	r24, 0x20	; 32
    52e2:	90 e0       	ldi	r25, 0x00	; 0
    52e4:	34 d0       	rcall	.+104    	; 0x534e <fputc>
    52e6:	3a 94       	dec	r3
    52e8:	f7 cf       	rjmp	.-18     	; 0x52d8 <vfprintf+0x386>
    52ea:	f7 01       	movw	r30, r14
    52ec:	86 81       	ldd	r24, Z+6	; 0x06
    52ee:	97 81       	ldd	r25, Z+7	; 0x07
    52f0:	02 c0       	rjmp	.+4      	; 0x52f6 <vfprintf+0x3a4>
    52f2:	8f ef       	ldi	r24, 0xFF	; 255
    52f4:	9f ef       	ldi	r25, 0xFF	; 255
    52f6:	2c 96       	adiw	r28, 0x0c	; 12
    52f8:	cd bf       	out	0x3d, r28	; 61
    52fa:	de bf       	out	0x3e, r29	; 62
    52fc:	df 91       	pop	r29
    52fe:	cf 91       	pop	r28
    5300:	1f 91       	pop	r17
    5302:	0f 91       	pop	r16
    5304:	ff 90       	pop	r15
    5306:	ef 90       	pop	r14
    5308:	df 90       	pop	r13
    530a:	cf 90       	pop	r12
    530c:	bf 90       	pop	r11
    530e:	af 90       	pop	r10
    5310:	9f 90       	pop	r9
    5312:	8f 90       	pop	r8
    5314:	7f 90       	pop	r7
    5316:	6f 90       	pop	r6
    5318:	5f 90       	pop	r5
    531a:	4f 90       	pop	r4
    531c:	3f 90       	pop	r3
    531e:	2f 90       	pop	r2
    5320:	08 95       	ret

00005322 <strnlen_P>:
    5322:	fc 01       	movw	r30, r24
    5324:	05 90       	lpm	r0, Z+
    5326:	61 50       	subi	r22, 0x01	; 1
    5328:	70 40       	sbci	r23, 0x00	; 0
    532a:	01 10       	cpse	r0, r1
    532c:	d8 f7       	brcc	.-10     	; 0x5324 <strnlen_P+0x2>
    532e:	80 95       	com	r24
    5330:	90 95       	com	r25
    5332:	8e 0f       	add	r24, r30
    5334:	9f 1f       	adc	r25, r31
    5336:	08 95       	ret

00005338 <strnlen>:
    5338:	fc 01       	movw	r30, r24
    533a:	61 50       	subi	r22, 0x01	; 1
    533c:	70 40       	sbci	r23, 0x00	; 0
    533e:	01 90       	ld	r0, Z+
    5340:	01 10       	cpse	r0, r1
    5342:	d8 f7       	brcc	.-10     	; 0x533a <strnlen+0x2>
    5344:	80 95       	com	r24
    5346:	90 95       	com	r25
    5348:	8e 0f       	add	r24, r30
    534a:	9f 1f       	adc	r25, r31
    534c:	08 95       	ret

0000534e <fputc>:
    534e:	0f 93       	push	r16
    5350:	1f 93       	push	r17
    5352:	cf 93       	push	r28
    5354:	df 93       	push	r29
    5356:	18 2f       	mov	r17, r24
    5358:	09 2f       	mov	r16, r25
    535a:	eb 01       	movw	r28, r22
    535c:	8b 81       	ldd	r24, Y+3	; 0x03
    535e:	81 fd       	sbrc	r24, 1
    5360:	03 c0       	rjmp	.+6      	; 0x5368 <fputc+0x1a>
    5362:	8f ef       	ldi	r24, 0xFF	; 255
    5364:	9f ef       	ldi	r25, 0xFF	; 255
    5366:	20 c0       	rjmp	.+64     	; 0x53a8 <fputc+0x5a>
    5368:	82 ff       	sbrs	r24, 2
    536a:	10 c0       	rjmp	.+32     	; 0x538c <fputc+0x3e>
    536c:	4e 81       	ldd	r20, Y+6	; 0x06
    536e:	5f 81       	ldd	r21, Y+7	; 0x07
    5370:	2c 81       	ldd	r18, Y+4	; 0x04
    5372:	3d 81       	ldd	r19, Y+5	; 0x05
    5374:	42 17       	cp	r20, r18
    5376:	53 07       	cpc	r21, r19
    5378:	7c f4       	brge	.+30     	; 0x5398 <fputc+0x4a>
    537a:	e8 81       	ld	r30, Y
    537c:	f9 81       	ldd	r31, Y+1	; 0x01
    537e:	9f 01       	movw	r18, r30
    5380:	2f 5f       	subi	r18, 0xFF	; 255
    5382:	3f 4f       	sbci	r19, 0xFF	; 255
    5384:	28 83       	st	Y, r18
    5386:	39 83       	std	Y+1, r19	; 0x01
    5388:	10 83       	st	Z, r17
    538a:	06 c0       	rjmp	.+12     	; 0x5398 <fputc+0x4a>
    538c:	e8 85       	ldd	r30, Y+8	; 0x08
    538e:	f9 85       	ldd	r31, Y+9	; 0x09
    5390:	81 2f       	mov	r24, r17
    5392:	19 95       	eicall
    5394:	89 2b       	or	r24, r25
    5396:	29 f7       	brne	.-54     	; 0x5362 <fputc+0x14>
    5398:	2e 81       	ldd	r18, Y+6	; 0x06
    539a:	3f 81       	ldd	r19, Y+7	; 0x07
    539c:	2f 5f       	subi	r18, 0xFF	; 255
    539e:	3f 4f       	sbci	r19, 0xFF	; 255
    53a0:	2e 83       	std	Y+6, r18	; 0x06
    53a2:	3f 83       	std	Y+7, r19	; 0x07
    53a4:	81 2f       	mov	r24, r17
    53a6:	90 2f       	mov	r25, r16
    53a8:	df 91       	pop	r29
    53aa:	cf 91       	pop	r28
    53ac:	1f 91       	pop	r17
    53ae:	0f 91       	pop	r16
    53b0:	08 95       	ret

000053b2 <__ultoa_invert>:
    53b2:	fa 01       	movw	r30, r20
    53b4:	aa 27       	eor	r26, r26
    53b6:	28 30       	cpi	r18, 0x08	; 8
    53b8:	51 f1       	breq	.+84     	; 0x540e <__ultoa_invert+0x5c>
    53ba:	20 31       	cpi	r18, 0x10	; 16
    53bc:	81 f1       	breq	.+96     	; 0x541e <__ultoa_invert+0x6c>
    53be:	e8 94       	clt
    53c0:	6f 93       	push	r22
    53c2:	6e 7f       	andi	r22, 0xFE	; 254
    53c4:	6e 5f       	subi	r22, 0xFE	; 254
    53c6:	7f 4f       	sbci	r23, 0xFF	; 255
    53c8:	8f 4f       	sbci	r24, 0xFF	; 255
    53ca:	9f 4f       	sbci	r25, 0xFF	; 255
    53cc:	af 4f       	sbci	r26, 0xFF	; 255
    53ce:	b1 e0       	ldi	r27, 0x01	; 1
    53d0:	3e d0       	rcall	.+124    	; 0x544e <__ultoa_invert+0x9c>
    53d2:	b4 e0       	ldi	r27, 0x04	; 4
    53d4:	3c d0       	rcall	.+120    	; 0x544e <__ultoa_invert+0x9c>
    53d6:	67 0f       	add	r22, r23
    53d8:	78 1f       	adc	r23, r24
    53da:	89 1f       	adc	r24, r25
    53dc:	9a 1f       	adc	r25, r26
    53de:	a1 1d       	adc	r26, r1
    53e0:	68 0f       	add	r22, r24
    53e2:	79 1f       	adc	r23, r25
    53e4:	8a 1f       	adc	r24, r26
    53e6:	91 1d       	adc	r25, r1
    53e8:	a1 1d       	adc	r26, r1
    53ea:	6a 0f       	add	r22, r26
    53ec:	71 1d       	adc	r23, r1
    53ee:	81 1d       	adc	r24, r1
    53f0:	91 1d       	adc	r25, r1
    53f2:	a1 1d       	adc	r26, r1
    53f4:	20 d0       	rcall	.+64     	; 0x5436 <__ultoa_invert+0x84>
    53f6:	09 f4       	brne	.+2      	; 0x53fa <__ultoa_invert+0x48>
    53f8:	68 94       	set
    53fa:	3f 91       	pop	r19
    53fc:	2a e0       	ldi	r18, 0x0A	; 10
    53fe:	26 9f       	mul	r18, r22
    5400:	11 24       	eor	r1, r1
    5402:	30 19       	sub	r19, r0
    5404:	30 5d       	subi	r19, 0xD0	; 208
    5406:	31 93       	st	Z+, r19
    5408:	de f6       	brtc	.-74     	; 0x53c0 <__ultoa_invert+0xe>
    540a:	cf 01       	movw	r24, r30
    540c:	08 95       	ret
    540e:	46 2f       	mov	r20, r22
    5410:	47 70       	andi	r20, 0x07	; 7
    5412:	40 5d       	subi	r20, 0xD0	; 208
    5414:	41 93       	st	Z+, r20
    5416:	b3 e0       	ldi	r27, 0x03	; 3
    5418:	0f d0       	rcall	.+30     	; 0x5438 <__ultoa_invert+0x86>
    541a:	c9 f7       	brne	.-14     	; 0x540e <__ultoa_invert+0x5c>
    541c:	f6 cf       	rjmp	.-20     	; 0x540a <__ultoa_invert+0x58>
    541e:	46 2f       	mov	r20, r22
    5420:	4f 70       	andi	r20, 0x0F	; 15
    5422:	40 5d       	subi	r20, 0xD0	; 208
    5424:	4a 33       	cpi	r20, 0x3A	; 58
    5426:	18 f0       	brcs	.+6      	; 0x542e <__ultoa_invert+0x7c>
    5428:	49 5d       	subi	r20, 0xD9	; 217
    542a:	31 fd       	sbrc	r19, 1
    542c:	40 52       	subi	r20, 0x20	; 32
    542e:	41 93       	st	Z+, r20
    5430:	02 d0       	rcall	.+4      	; 0x5436 <__ultoa_invert+0x84>
    5432:	a9 f7       	brne	.-22     	; 0x541e <__ultoa_invert+0x6c>
    5434:	ea cf       	rjmp	.-44     	; 0x540a <__ultoa_invert+0x58>
    5436:	b4 e0       	ldi	r27, 0x04	; 4
    5438:	a6 95       	lsr	r26
    543a:	97 95       	ror	r25
    543c:	87 95       	ror	r24
    543e:	77 95       	ror	r23
    5440:	67 95       	ror	r22
    5442:	ba 95       	dec	r27
    5444:	c9 f7       	brne	.-14     	; 0x5438 <__ultoa_invert+0x86>
    5446:	00 97       	sbiw	r24, 0x00	; 0
    5448:	61 05       	cpc	r22, r1
    544a:	71 05       	cpc	r23, r1
    544c:	08 95       	ret
    544e:	9b 01       	movw	r18, r22
    5450:	ac 01       	movw	r20, r24
    5452:	0a 2e       	mov	r0, r26
    5454:	06 94       	lsr	r0
    5456:	57 95       	ror	r21
    5458:	47 95       	ror	r20
    545a:	37 95       	ror	r19
    545c:	27 95       	ror	r18
    545e:	ba 95       	dec	r27
    5460:	c9 f7       	brne	.-14     	; 0x5454 <__ultoa_invert+0xa2>
    5462:	62 0f       	add	r22, r18
    5464:	73 1f       	adc	r23, r19
    5466:	84 1f       	adc	r24, r20
    5468:	95 1f       	adc	r25, r21
    546a:	a0 1d       	adc	r26, r0
    546c:	08 95       	ret

0000546e <_exit>:
    546e:	f8 94       	cli

00005470 <__stop_program>:
    5470:	ff cf       	rjmp	.-2      	; 0x5470 <__stop_program>
